ARM GAS  C:\Users\LUKASC~1\AppData\Local\Temp\ccGhJFYe.s 			page 1


   1              		.syntax unified
   2              		.cpu cortex-m3
   3              		.fpu softvfp
   4              		.eabi_attribute 20, 1
   5              		.eabi_attribute 21, 1
   6              		.eabi_attribute 23, 3
   7              		.eabi_attribute 24, 1
   8              		.eabi_attribute 25, 1
   9              		.eabi_attribute 26, 1
  10              		.eabi_attribute 30, 6
  11              		.eabi_attribute 34, 1
  12              		.eabi_attribute 18, 4
  13              		.thumb
  14              		.file	"MIDI2_UART_INT.c"
  15              		.text
  16              	.Ltext0:
  17              		.cfi_sections	.debug_frame
  18              		.section	.text.MIDI2_UART_RXISR,"ax",%progbits
  19              		.align	2
  20              		.global	MIDI2_UART_RXISR
  21              		.thumb
  22              		.thumb_func
  23              		.type	MIDI2_UART_RXISR, %function
  24              	MIDI2_UART_RXISR:
  25              	.LFB0:
  26              		.file 1 ".\\Generated_Source\\PSoC5\\MIDI2_UART_INT.c"
   1:.\Generated_Source\PSoC5/MIDI2_UART_INT.c **** /*******************************************************************************
   2:.\Generated_Source\PSoC5/MIDI2_UART_INT.c **** * File Name: MIDI2_UARTINT.c
   3:.\Generated_Source\PSoC5/MIDI2_UART_INT.c **** * Version 2.50
   4:.\Generated_Source\PSoC5/MIDI2_UART_INT.c **** *
   5:.\Generated_Source\PSoC5/MIDI2_UART_INT.c **** * Description:
   6:.\Generated_Source\PSoC5/MIDI2_UART_INT.c **** *  This file provides all Interrupt Service functionality of the UART component
   7:.\Generated_Source\PSoC5/MIDI2_UART_INT.c **** *
   8:.\Generated_Source\PSoC5/MIDI2_UART_INT.c **** ********************************************************************************
   9:.\Generated_Source\PSoC5/MIDI2_UART_INT.c **** * Copyright 2008-2015, Cypress Semiconductor Corporation.  All rights reserved.
  10:.\Generated_Source\PSoC5/MIDI2_UART_INT.c **** * You may use this file only in accordance with the license, terms, conditions,
  11:.\Generated_Source\PSoC5/MIDI2_UART_INT.c **** * disclaimers, and limitations in the end user license agreement accompanying
  12:.\Generated_Source\PSoC5/MIDI2_UART_INT.c **** * the software package with which this file was provided.
  13:.\Generated_Source\PSoC5/MIDI2_UART_INT.c **** *******************************************************************************/
  14:.\Generated_Source\PSoC5/MIDI2_UART_INT.c **** 
  15:.\Generated_Source\PSoC5/MIDI2_UART_INT.c **** #include "MIDI2_UART.h"
  16:.\Generated_Source\PSoC5/MIDI2_UART_INT.c **** #include "cyapicallbacks.h"
  17:.\Generated_Source\PSoC5/MIDI2_UART_INT.c **** 
  18:.\Generated_Source\PSoC5/MIDI2_UART_INT.c **** 
  19:.\Generated_Source\PSoC5/MIDI2_UART_INT.c **** /***************************************
  20:.\Generated_Source\PSoC5/MIDI2_UART_INT.c **** * Custom Declarations
  21:.\Generated_Source\PSoC5/MIDI2_UART_INT.c **** ***************************************/
  22:.\Generated_Source\PSoC5/MIDI2_UART_INT.c **** /* `#START CUSTOM_DECLARATIONS` Place your declaration here */
  23:.\Generated_Source\PSoC5/MIDI2_UART_INT.c **** 
  24:.\Generated_Source\PSoC5/MIDI2_UART_INT.c **** /* `#END` */
  25:.\Generated_Source\PSoC5/MIDI2_UART_INT.c **** 
  26:.\Generated_Source\PSoC5/MIDI2_UART_INT.c **** #if (MIDI2_UART_RX_INTERRUPT_ENABLED && (MIDI2_UART_RX_ENABLED || MIDI2_UART_HD_ENABLED))
  27:.\Generated_Source\PSoC5/MIDI2_UART_INT.c ****     /*******************************************************************************
  28:.\Generated_Source\PSoC5/MIDI2_UART_INT.c ****     * Function Name: MIDI2_UART_RXISR
  29:.\Generated_Source\PSoC5/MIDI2_UART_INT.c ****     ********************************************************************************
  30:.\Generated_Source\PSoC5/MIDI2_UART_INT.c ****     *
  31:.\Generated_Source\PSoC5/MIDI2_UART_INT.c ****     * Summary:
ARM GAS  C:\Users\LUKASC~1\AppData\Local\Temp\ccGhJFYe.s 			page 2


  32:.\Generated_Source\PSoC5/MIDI2_UART_INT.c ****     *  Interrupt Service Routine for RX portion of the UART
  33:.\Generated_Source\PSoC5/MIDI2_UART_INT.c ****     *
  34:.\Generated_Source\PSoC5/MIDI2_UART_INT.c ****     * Parameters:
  35:.\Generated_Source\PSoC5/MIDI2_UART_INT.c ****     *  None.
  36:.\Generated_Source\PSoC5/MIDI2_UART_INT.c ****     *
  37:.\Generated_Source\PSoC5/MIDI2_UART_INT.c ****     * Return:
  38:.\Generated_Source\PSoC5/MIDI2_UART_INT.c ****     *  None.
  39:.\Generated_Source\PSoC5/MIDI2_UART_INT.c ****     *
  40:.\Generated_Source\PSoC5/MIDI2_UART_INT.c ****     * Global Variables:
  41:.\Generated_Source\PSoC5/MIDI2_UART_INT.c ****     *  MIDI2_UART_rxBuffer - RAM buffer pointer for save received data.
  42:.\Generated_Source\PSoC5/MIDI2_UART_INT.c ****     *  MIDI2_UART_rxBufferWrite - cyclic index for write to rxBuffer,
  43:.\Generated_Source\PSoC5/MIDI2_UART_INT.c ****     *     increments after each byte saved to buffer.
  44:.\Generated_Source\PSoC5/MIDI2_UART_INT.c ****     *  MIDI2_UART_rxBufferRead - cyclic index for read from rxBuffer,
  45:.\Generated_Source\PSoC5/MIDI2_UART_INT.c ****     *     checked to detect overflow condition.
  46:.\Generated_Source\PSoC5/MIDI2_UART_INT.c ****     *  MIDI2_UART_rxBufferOverflow - software overflow flag. Set to one
  47:.\Generated_Source\PSoC5/MIDI2_UART_INT.c ****     *     when MIDI2_UART_rxBufferWrite index overtakes
  48:.\Generated_Source\PSoC5/MIDI2_UART_INT.c ****     *     MIDI2_UART_rxBufferRead index.
  49:.\Generated_Source\PSoC5/MIDI2_UART_INT.c ****     *  MIDI2_UART_rxBufferLoopDetect - additional variable to detect overflow.
  50:.\Generated_Source\PSoC5/MIDI2_UART_INT.c ****     *     Set to one when MIDI2_UART_rxBufferWrite is equal to
  51:.\Generated_Source\PSoC5/MIDI2_UART_INT.c ****     *    MIDI2_UART_rxBufferRead
  52:.\Generated_Source\PSoC5/MIDI2_UART_INT.c ****     *  MIDI2_UART_rxAddressMode - this variable contains the Address mode,
  53:.\Generated_Source\PSoC5/MIDI2_UART_INT.c ****     *     selected in customizer or set by UART_SetRxAddressMode() API.
  54:.\Generated_Source\PSoC5/MIDI2_UART_INT.c ****     *  MIDI2_UART_rxAddressDetected - set to 1 when correct address received,
  55:.\Generated_Source\PSoC5/MIDI2_UART_INT.c ****     *     and analysed to store following addressed data bytes to the buffer.
  56:.\Generated_Source\PSoC5/MIDI2_UART_INT.c ****     *     When not correct address received, set to 0 to skip following data bytes.
  57:.\Generated_Source\PSoC5/MIDI2_UART_INT.c ****     *
  58:.\Generated_Source\PSoC5/MIDI2_UART_INT.c ****     *******************************************************************************/
  59:.\Generated_Source\PSoC5/MIDI2_UART_INT.c ****     CY_ISR(MIDI2_UART_RXISR)
  60:.\Generated_Source\PSoC5/MIDI2_UART_INT.c ****     {
  27              		.loc 1 60 0
  28              		.cfi_startproc
  29              		@ args = 0, pretend = 0, frame = 8
  30              		@ frame_needed = 1, uses_anonymous_args = 0
  31 0000 80B5     		push	{r7, lr}
  32              		.cfi_def_cfa_offset 8
  33              		.cfi_offset 7, -8
  34              		.cfi_offset 14, -4
  35 0002 82B0     		sub	sp, sp, #8
  36              		.cfi_def_cfa_offset 16
  37 0004 00AF     		add	r7, sp, #0
  38              		.cfi_def_cfa_register 7
  61:.\Generated_Source\PSoC5/MIDI2_UART_INT.c ****         uint8 readData;
  62:.\Generated_Source\PSoC5/MIDI2_UART_INT.c ****         uint8 readStatus;
  63:.\Generated_Source\PSoC5/MIDI2_UART_INT.c ****         uint8 increment_pointer = 0u;
  39              		.loc 1 63 0
  40 0006 0023     		movs	r3, #0
  41 0008 FB71     		strb	r3, [r7, #7]
  64:.\Generated_Source\PSoC5/MIDI2_UART_INT.c **** 
  65:.\Generated_Source\PSoC5/MIDI2_UART_INT.c ****     #if(CY_PSOC3)
  66:.\Generated_Source\PSoC5/MIDI2_UART_INT.c ****         uint8 int_en;
  67:.\Generated_Source\PSoC5/MIDI2_UART_INT.c ****     #endif /* (CY_PSOC3) */
  68:.\Generated_Source\PSoC5/MIDI2_UART_INT.c **** 
  69:.\Generated_Source\PSoC5/MIDI2_UART_INT.c ****     #ifdef MIDI2_UART_RXISR_ENTRY_CALLBACK
  70:.\Generated_Source\PSoC5/MIDI2_UART_INT.c ****         MIDI2_UART_RXISR_EntryCallback();
  42              		.loc 1 70 0
  43 000a FFF7FEFF 		bl	MIDI2_UART_RXISR_EntryCallback
  44              	.L6:
ARM GAS  C:\Users\LUKASC~1\AppData\Local\Temp\ccGhJFYe.s 			page 3


  71:.\Generated_Source\PSoC5/MIDI2_UART_INT.c ****     #endif /* MIDI2_UART_RXISR_ENTRY_CALLBACK */
  72:.\Generated_Source\PSoC5/MIDI2_UART_INT.c **** 
  73:.\Generated_Source\PSoC5/MIDI2_UART_INT.c ****         /* User code required at start of ISR */
  74:.\Generated_Source\PSoC5/MIDI2_UART_INT.c ****         /* `#START MIDI2_UART_RXISR_START` */
  75:.\Generated_Source\PSoC5/MIDI2_UART_INT.c **** 
  76:.\Generated_Source\PSoC5/MIDI2_UART_INT.c ****         /* `#END` */
  77:.\Generated_Source\PSoC5/MIDI2_UART_INT.c **** 
  78:.\Generated_Source\PSoC5/MIDI2_UART_INT.c ****     #if(CY_PSOC3)   /* Make sure nested interrupt is enabled */
  79:.\Generated_Source\PSoC5/MIDI2_UART_INT.c ****         int_en = EA;
  80:.\Generated_Source\PSoC5/MIDI2_UART_INT.c ****         CyGlobalIntEnable;
  81:.\Generated_Source\PSoC5/MIDI2_UART_INT.c ****     #endif /* (CY_PSOC3) */
  82:.\Generated_Source\PSoC5/MIDI2_UART_INT.c **** 
  83:.\Generated_Source\PSoC5/MIDI2_UART_INT.c ****         do
  84:.\Generated_Source\PSoC5/MIDI2_UART_INT.c ****         {
  85:.\Generated_Source\PSoC5/MIDI2_UART_INT.c ****             /* Read receiver status register */
  86:.\Generated_Source\PSoC5/MIDI2_UART_INT.c ****             readStatus = MIDI2_UART_RXSTATUS_REG;
  45              		.loc 1 86 0
  46 000e 2B4B     		ldr	r3, .L7
  47 0010 1B78     		ldrb	r3, [r3]
  48 0012 BB71     		strb	r3, [r7, #6]
  87:.\Generated_Source\PSoC5/MIDI2_UART_INT.c ****             /* Copy the same status to readData variable for backward compatibility support 
  88:.\Generated_Source\PSoC5/MIDI2_UART_INT.c ****             *  of the user code in MIDI2_UART_RXISR_ERROR` section. 
  89:.\Generated_Source\PSoC5/MIDI2_UART_INT.c ****             */
  90:.\Generated_Source\PSoC5/MIDI2_UART_INT.c ****             readData = readStatus;
  49              		.loc 1 90 0
  50 0014 BB79     		ldrb	r3, [r7, #6]
  51 0016 7B71     		strb	r3, [r7, #5]
  91:.\Generated_Source\PSoC5/MIDI2_UART_INT.c **** 
  92:.\Generated_Source\PSoC5/MIDI2_UART_INT.c ****             if((readStatus & (MIDI2_UART_RX_STS_BREAK | 
  93:.\Generated_Source\PSoC5/MIDI2_UART_INT.c ****                             MIDI2_UART_RX_STS_PAR_ERROR |
  94:.\Generated_Source\PSoC5/MIDI2_UART_INT.c ****                             MIDI2_UART_RX_STS_STOP_ERROR | 
  95:.\Generated_Source\PSoC5/MIDI2_UART_INT.c ****                             MIDI2_UART_RX_STS_OVERRUN)) != 0u)
  52              		.loc 1 95 0
  53 0018 BB79     		ldrb	r3, [r7, #6]	@ zero_extendqisi2
  54 001a 03F01E03 		and	r3, r3, #30
  92:.\Generated_Source\PSoC5/MIDI2_UART_INT.c ****                             MIDI2_UART_RX_STS_PAR_ERROR |
  55              		.loc 1 92 0
  56 001e 002B     		cmp	r3, #0
  57 0020 0BD0     		beq	.L2
  96:.\Generated_Source\PSoC5/MIDI2_UART_INT.c ****             {
  97:.\Generated_Source\PSoC5/MIDI2_UART_INT.c ****                 /* ERROR handling. */
  98:.\Generated_Source\PSoC5/MIDI2_UART_INT.c ****                 MIDI2_UART_errorStatus |= readStatus & ( MIDI2_UART_RX_STS_BREAK | 
  58              		.loc 1 98 0
  59 0022 BB79     		ldrb	r3, [r7, #6]	@ zero_extendqisi2
  60 0024 03F01E03 		and	r3, r3, #30
  61 0028 DAB2     		uxtb	r2, r3
  62 002a 254B     		ldr	r3, .L7+4
  63 002c 1B78     		ldrb	r3, [r3]	@ zero_extendqisi2
  64 002e DBB2     		uxtb	r3, r3
  65 0030 1343     		orrs	r3, r3, r2
  66 0032 DBB2     		uxtb	r3, r3
  67 0034 DAB2     		uxtb	r2, r3
  68 0036 224B     		ldr	r3, .L7+4
  69 0038 1A70     		strb	r2, [r3]
  70              	.L2:
  99:.\Generated_Source\PSoC5/MIDI2_UART_INT.c ****                                                             MIDI2_UART_RX_STS_PAR_ERROR | 
 100:.\Generated_Source\PSoC5/MIDI2_UART_INT.c ****                                                             MIDI2_UART_RX_STS_STOP_ERROR | 
ARM GAS  C:\Users\LUKASC~1\AppData\Local\Temp\ccGhJFYe.s 			page 4


 101:.\Generated_Source\PSoC5/MIDI2_UART_INT.c ****                                                             MIDI2_UART_RX_STS_OVERRUN);
 102:.\Generated_Source\PSoC5/MIDI2_UART_INT.c ****                 /* `#START MIDI2_UART_RXISR_ERROR` */
 103:.\Generated_Source\PSoC5/MIDI2_UART_INT.c **** 
 104:.\Generated_Source\PSoC5/MIDI2_UART_INT.c ****                 /* `#END` */
 105:.\Generated_Source\PSoC5/MIDI2_UART_INT.c ****                 
 106:.\Generated_Source\PSoC5/MIDI2_UART_INT.c ****             #ifdef MIDI2_UART_RXISR_ERROR_CALLBACK
 107:.\Generated_Source\PSoC5/MIDI2_UART_INT.c ****                 MIDI2_UART_RXISR_ERROR_Callback();
 108:.\Generated_Source\PSoC5/MIDI2_UART_INT.c ****             #endif /* MIDI2_UART_RXISR_ERROR_CALLBACK */
 109:.\Generated_Source\PSoC5/MIDI2_UART_INT.c ****             }
 110:.\Generated_Source\PSoC5/MIDI2_UART_INT.c ****             
 111:.\Generated_Source\PSoC5/MIDI2_UART_INT.c ****             if((readStatus & MIDI2_UART_RX_STS_FIFO_NOTEMPTY) != 0u)
  71              		.loc 1 111 0
  72 003a BB79     		ldrb	r3, [r7, #6]	@ zero_extendqisi2
  73 003c 03F02003 		and	r3, r3, #32
  74 0040 002B     		cmp	r3, #0
  75 0042 30D0     		beq	.L3
 112:.\Generated_Source\PSoC5/MIDI2_UART_INT.c ****             {
 113:.\Generated_Source\PSoC5/MIDI2_UART_INT.c ****                 /* Read data from the RX data register */
 114:.\Generated_Source\PSoC5/MIDI2_UART_INT.c ****                 readData = MIDI2_UART_RXDATA_REG;
  76              		.loc 1 114 0
  77 0044 1F4B     		ldr	r3, .L7+8
  78 0046 1B78     		ldrb	r3, [r3]
  79 0048 7B71     		strb	r3, [r7, #5]
 115:.\Generated_Source\PSoC5/MIDI2_UART_INT.c ****             #if (MIDI2_UART_RXHW_ADDRESS_ENABLED)
 116:.\Generated_Source\PSoC5/MIDI2_UART_INT.c ****                 if(MIDI2_UART_rxAddressMode == (uint8)MIDI2_UART__B_UART__AM_SW_DETECT_TO_BUFFER)
 117:.\Generated_Source\PSoC5/MIDI2_UART_INT.c ****                 {
 118:.\Generated_Source\PSoC5/MIDI2_UART_INT.c ****                     if((readStatus & MIDI2_UART_RX_STS_MRKSPC) != 0u)
 119:.\Generated_Source\PSoC5/MIDI2_UART_INT.c ****                     {
 120:.\Generated_Source\PSoC5/MIDI2_UART_INT.c ****                         if ((readStatus & MIDI2_UART_RX_STS_ADDR_MATCH) != 0u)
 121:.\Generated_Source\PSoC5/MIDI2_UART_INT.c ****                         {
 122:.\Generated_Source\PSoC5/MIDI2_UART_INT.c ****                             MIDI2_UART_rxAddressDetected = 1u;
 123:.\Generated_Source\PSoC5/MIDI2_UART_INT.c ****                         }
 124:.\Generated_Source\PSoC5/MIDI2_UART_INT.c ****                         else
 125:.\Generated_Source\PSoC5/MIDI2_UART_INT.c ****                         {
 126:.\Generated_Source\PSoC5/MIDI2_UART_INT.c ****                             MIDI2_UART_rxAddressDetected = 0u;
 127:.\Generated_Source\PSoC5/MIDI2_UART_INT.c ****                         }
 128:.\Generated_Source\PSoC5/MIDI2_UART_INT.c ****                     }
 129:.\Generated_Source\PSoC5/MIDI2_UART_INT.c ****                     if(MIDI2_UART_rxAddressDetected != 0u)
 130:.\Generated_Source\PSoC5/MIDI2_UART_INT.c ****                     {   /* Store only addressed data */
 131:.\Generated_Source\PSoC5/MIDI2_UART_INT.c ****                         MIDI2_UART_rxBuffer[MIDI2_UART_rxBufferWrite] = readData;
 132:.\Generated_Source\PSoC5/MIDI2_UART_INT.c ****                         increment_pointer = 1u;
 133:.\Generated_Source\PSoC5/MIDI2_UART_INT.c ****                     }
 134:.\Generated_Source\PSoC5/MIDI2_UART_INT.c ****                 }
 135:.\Generated_Source\PSoC5/MIDI2_UART_INT.c ****                 else /* Without software addressing */
 136:.\Generated_Source\PSoC5/MIDI2_UART_INT.c ****                 {
 137:.\Generated_Source\PSoC5/MIDI2_UART_INT.c ****                     MIDI2_UART_rxBuffer[MIDI2_UART_rxBufferWrite] = readData;
 138:.\Generated_Source\PSoC5/MIDI2_UART_INT.c ****                     increment_pointer = 1u;
 139:.\Generated_Source\PSoC5/MIDI2_UART_INT.c ****                 }
 140:.\Generated_Source\PSoC5/MIDI2_UART_INT.c ****             #else  /* Without addressing */
 141:.\Generated_Source\PSoC5/MIDI2_UART_INT.c ****                 MIDI2_UART_rxBuffer[MIDI2_UART_rxBufferWrite] = readData;
  80              		.loc 1 141 0
  81 004a 1F4B     		ldr	r3, .L7+12
  82 004c 1B78     		ldrb	r3, [r3]
  83 004e DBB2     		uxtb	r3, r3
  84 0050 1946     		mov	r1, r3
  85 0052 1E4A     		ldr	r2, .L7+16
  86 0054 7B79     		ldrb	r3, [r7, #5]
ARM GAS  C:\Users\LUKASC~1\AppData\Local\Temp\ccGhJFYe.s 			page 5


  87 0056 5354     		strb	r3, [r2, r1]
 142:.\Generated_Source\PSoC5/MIDI2_UART_INT.c ****                 increment_pointer = 1u;
  88              		.loc 1 142 0
  89 0058 0123     		movs	r3, #1
  90 005a FB71     		strb	r3, [r7, #7]
 143:.\Generated_Source\PSoC5/MIDI2_UART_INT.c ****             #endif /* (MIDI2_UART_RXHW_ADDRESS_ENABLED) */
 144:.\Generated_Source\PSoC5/MIDI2_UART_INT.c **** 
 145:.\Generated_Source\PSoC5/MIDI2_UART_INT.c ****                 /* Do not increment buffer pointer when skip not addressed data */
 146:.\Generated_Source\PSoC5/MIDI2_UART_INT.c ****                 if(increment_pointer != 0u)
  91              		.loc 1 146 0
  92 005c FB79     		ldrb	r3, [r7, #7]	@ zero_extendqisi2
  93 005e 002B     		cmp	r3, #0
  94 0060 21D0     		beq	.L3
 147:.\Generated_Source\PSoC5/MIDI2_UART_INT.c ****                 {
 148:.\Generated_Source\PSoC5/MIDI2_UART_INT.c ****                     if(MIDI2_UART_rxBufferLoopDetect != 0u)
  95              		.loc 1 148 0
  96 0062 1B4B     		ldr	r3, .L7+20
  97 0064 1B78     		ldrb	r3, [r3]
  98 0066 DBB2     		uxtb	r3, r3
  99 0068 002B     		cmp	r3, #0
 100 006a 02D0     		beq	.L4
 149:.\Generated_Source\PSoC5/MIDI2_UART_INT.c ****                     {   /* Set Software Buffer status Overflow */
 150:.\Generated_Source\PSoC5/MIDI2_UART_INT.c ****                         MIDI2_UART_rxBufferOverflow = 1u;
 101              		.loc 1 150 0
 102 006c 194B     		ldr	r3, .L7+24
 103 006e 0122     		movs	r2, #1
 104 0070 1A70     		strb	r2, [r3]
 105              	.L4:
 151:.\Generated_Source\PSoC5/MIDI2_UART_INT.c ****                     }
 152:.\Generated_Source\PSoC5/MIDI2_UART_INT.c ****                     /* Set next pointer. */
 153:.\Generated_Source\PSoC5/MIDI2_UART_INT.c ****                     MIDI2_UART_rxBufferWrite++;
 106              		.loc 1 153 0
 107 0072 154B     		ldr	r3, .L7+12
 108 0074 1B78     		ldrb	r3, [r3]
 109 0076 DBB2     		uxtb	r3, r3
 110 0078 0133     		adds	r3, r3, #1
 111 007a DAB2     		uxtb	r2, r3
 112 007c 124B     		ldr	r3, .L7+12
 113 007e 1A70     		strb	r2, [r3]
 154:.\Generated_Source\PSoC5/MIDI2_UART_INT.c **** 
 155:.\Generated_Source\PSoC5/MIDI2_UART_INT.c ****                     /* Check pointer for a loop condition */
 156:.\Generated_Source\PSoC5/MIDI2_UART_INT.c ****                     if(MIDI2_UART_rxBufferWrite >= MIDI2_UART_RX_BUFFER_SIZE)
 114              		.loc 1 156 0
 115 0080 114B     		ldr	r3, .L7+12
 116 0082 1B78     		ldrb	r3, [r3]
 117 0084 DBB2     		uxtb	r3, r3
 118 0086 FF2B     		cmp	r3, #255
 119 0088 02D1     		bne	.L5
 157:.\Generated_Source\PSoC5/MIDI2_UART_INT.c ****                     {
 158:.\Generated_Source\PSoC5/MIDI2_UART_INT.c ****                         MIDI2_UART_rxBufferWrite = 0u;
 120              		.loc 1 158 0
 121 008a 0F4B     		ldr	r3, .L7+12
 122 008c 0022     		movs	r2, #0
 123 008e 1A70     		strb	r2, [r3]
 124              	.L5:
 159:.\Generated_Source\PSoC5/MIDI2_UART_INT.c ****                     }
 160:.\Generated_Source\PSoC5/MIDI2_UART_INT.c **** 
ARM GAS  C:\Users\LUKASC~1\AppData\Local\Temp\ccGhJFYe.s 			page 6


 161:.\Generated_Source\PSoC5/MIDI2_UART_INT.c ****                     /* Detect pre-overload condition and set flag */
 162:.\Generated_Source\PSoC5/MIDI2_UART_INT.c ****                     if(MIDI2_UART_rxBufferWrite == MIDI2_UART_rxBufferRead)
 125              		.loc 1 162 0
 126 0090 0D4B     		ldr	r3, .L7+12
 127 0092 1B78     		ldrb	r3, [r3]
 128 0094 DAB2     		uxtb	r2, r3
 129 0096 104B     		ldr	r3, .L7+28
 130 0098 1B78     		ldrb	r3, [r3]
 131 009a DBB2     		uxtb	r3, r3
 132 009c 9A42     		cmp	r2, r3
 133 009e 02D1     		bne	.L3
 163:.\Generated_Source\PSoC5/MIDI2_UART_INT.c ****                     {
 164:.\Generated_Source\PSoC5/MIDI2_UART_INT.c ****                         MIDI2_UART_rxBufferLoopDetect = 1u;
 134              		.loc 1 164 0
 135 00a0 0B4B     		ldr	r3, .L7+20
 136 00a2 0122     		movs	r2, #1
 137 00a4 1A70     		strb	r2, [r3]
 138              	.L3:
 165:.\Generated_Source\PSoC5/MIDI2_UART_INT.c ****                         /* When Hardware Flow Control selected */
 166:.\Generated_Source\PSoC5/MIDI2_UART_INT.c ****                         #if (MIDI2_UART_FLOW_CONTROL != 0u)
 167:.\Generated_Source\PSoC5/MIDI2_UART_INT.c ****                             /* Disable RX interrupt mask, it is enabled when user read data from th
 168:.\Generated_Source\PSoC5/MIDI2_UART_INT.c ****                             MIDI2_UART_RXSTATUS_MASK_REG  &= (uint8)~MIDI2_UART_RX_STS_FIFO_NOTEMPT
 169:.\Generated_Source\PSoC5/MIDI2_UART_INT.c ****                             CyIntClearPending(MIDI2_UART_RX_VECT_NUM);
 170:.\Generated_Source\PSoC5/MIDI2_UART_INT.c ****                             break; /* Break the reading of the FIFO loop, leave the data there for 
 171:.\Generated_Source\PSoC5/MIDI2_UART_INT.c ****                         #endif /* (MIDI2_UART_FLOW_CONTROL != 0u) */
 172:.\Generated_Source\PSoC5/MIDI2_UART_INT.c ****                     }
 173:.\Generated_Source\PSoC5/MIDI2_UART_INT.c ****                 }
 174:.\Generated_Source\PSoC5/MIDI2_UART_INT.c ****             }
 175:.\Generated_Source\PSoC5/MIDI2_UART_INT.c ****         }while((readStatus & MIDI2_UART_RX_STS_FIFO_NOTEMPTY) != 0u);
 139              		.loc 1 175 0
 140 00a6 BB79     		ldrb	r3, [r7, #6]	@ zero_extendqisi2
 141 00a8 03F02003 		and	r3, r3, #32
 142 00ac 002B     		cmp	r3, #0
 143 00ae AED1     		bne	.L6
 176:.\Generated_Source\PSoC5/MIDI2_UART_INT.c **** 
 177:.\Generated_Source\PSoC5/MIDI2_UART_INT.c ****         /* User code required at end of ISR (Optional) */
 178:.\Generated_Source\PSoC5/MIDI2_UART_INT.c ****         /* `#START MIDI2_UART_RXISR_END` */
 179:.\Generated_Source\PSoC5/MIDI2_UART_INT.c **** 
 180:.\Generated_Source\PSoC5/MIDI2_UART_INT.c ****         /* `#END` */
 181:.\Generated_Source\PSoC5/MIDI2_UART_INT.c **** 
 182:.\Generated_Source\PSoC5/MIDI2_UART_INT.c ****     #ifdef MIDI2_UART_RXISR_EXIT_CALLBACK
 183:.\Generated_Source\PSoC5/MIDI2_UART_INT.c ****         MIDI2_UART_RXISR_ExitCallback();
 144              		.loc 1 183 0
 145 00b0 FFF7FEFF 		bl	MIDI2_UART_RXISR_ExitCallback
 184:.\Generated_Source\PSoC5/MIDI2_UART_INT.c ****     #endif /* MIDI2_UART_RXISR_EXIT_CALLBACK */
 185:.\Generated_Source\PSoC5/MIDI2_UART_INT.c **** 
 186:.\Generated_Source\PSoC5/MIDI2_UART_INT.c ****     #if(CY_PSOC3)
 187:.\Generated_Source\PSoC5/MIDI2_UART_INT.c ****         EA = int_en;
 188:.\Generated_Source\PSoC5/MIDI2_UART_INT.c ****     #endif /* (CY_PSOC3) */
 189:.\Generated_Source\PSoC5/MIDI2_UART_INT.c ****     }
 146              		.loc 1 189 0
 147 00b4 0837     		adds	r7, r7, #8
 148              		.cfi_def_cfa_offset 8
 149 00b6 BD46     		mov	sp, r7
 150              		.cfi_def_cfa_register 13
 151              		@ sp needed
 152 00b8 80BD     		pop	{r7, pc}
ARM GAS  C:\Users\LUKASC~1\AppData\Local\Temp\ccGhJFYe.s 			page 7


 153              	.L8:
 154 00ba 00BF     		.align	2
 155              	.L7:
 156 00bc 64640040 		.word	1073767524
 157 00c0 00000000 		.word	MIDI2_UART_errorStatus
 158 00c4 46650040 		.word	1073767750
 159 00c8 00000000 		.word	MIDI2_UART_rxBufferWrite
 160 00cc 00000000 		.word	MIDI2_UART_rxBuffer
 161 00d0 00000000 		.word	MIDI2_UART_rxBufferLoopDetect
 162 00d4 00000000 		.word	MIDI2_UART_rxBufferOverflow
 163 00d8 00000000 		.word	MIDI2_UART_rxBufferRead
 164              		.cfi_endproc
 165              	.LFE0:
 166              		.size	MIDI2_UART_RXISR, .-MIDI2_UART_RXISR
 167              		.section	.text.MIDI2_UART_TXISR,"ax",%progbits
 168              		.align	2
 169              		.global	MIDI2_UART_TXISR
 170              		.thumb
 171              		.thumb_func
 172              		.type	MIDI2_UART_TXISR, %function
 173              	MIDI2_UART_TXISR:
 174              	.LFB1:
 190:.\Generated_Source\PSoC5/MIDI2_UART_INT.c ****     
 191:.\Generated_Source\PSoC5/MIDI2_UART_INT.c **** #endif /* (MIDI2_UART_RX_INTERRUPT_ENABLED && (MIDI2_UART_RX_ENABLED || MIDI2_UART_HD_ENABLED)) */
 192:.\Generated_Source\PSoC5/MIDI2_UART_INT.c **** 
 193:.\Generated_Source\PSoC5/MIDI2_UART_INT.c **** 
 194:.\Generated_Source\PSoC5/MIDI2_UART_INT.c **** #if (MIDI2_UART_TX_INTERRUPT_ENABLED && MIDI2_UART_TX_ENABLED)
 195:.\Generated_Source\PSoC5/MIDI2_UART_INT.c ****     /*******************************************************************************
 196:.\Generated_Source\PSoC5/MIDI2_UART_INT.c ****     * Function Name: MIDI2_UART_TXISR
 197:.\Generated_Source\PSoC5/MIDI2_UART_INT.c ****     ********************************************************************************
 198:.\Generated_Source\PSoC5/MIDI2_UART_INT.c ****     *
 199:.\Generated_Source\PSoC5/MIDI2_UART_INT.c ****     * Summary:
 200:.\Generated_Source\PSoC5/MIDI2_UART_INT.c ****     * Interrupt Service Routine for the TX portion of the UART
 201:.\Generated_Source\PSoC5/MIDI2_UART_INT.c ****     *
 202:.\Generated_Source\PSoC5/MIDI2_UART_INT.c ****     * Parameters:
 203:.\Generated_Source\PSoC5/MIDI2_UART_INT.c ****     *  None.
 204:.\Generated_Source\PSoC5/MIDI2_UART_INT.c ****     *
 205:.\Generated_Source\PSoC5/MIDI2_UART_INT.c ****     * Return:
 206:.\Generated_Source\PSoC5/MIDI2_UART_INT.c ****     *  None.
 207:.\Generated_Source\PSoC5/MIDI2_UART_INT.c ****     *
 208:.\Generated_Source\PSoC5/MIDI2_UART_INT.c ****     * Global Variables:
 209:.\Generated_Source\PSoC5/MIDI2_UART_INT.c ****     *  MIDI2_UART_txBuffer - RAM buffer pointer for transmit data from.
 210:.\Generated_Source\PSoC5/MIDI2_UART_INT.c ****     *  MIDI2_UART_txBufferRead - cyclic index for read and transmit data
 211:.\Generated_Source\PSoC5/MIDI2_UART_INT.c ****     *     from txBuffer, increments after each transmitted byte.
 212:.\Generated_Source\PSoC5/MIDI2_UART_INT.c ****     *  MIDI2_UART_rxBufferWrite - cyclic index for write to txBuffer,
 213:.\Generated_Source\PSoC5/MIDI2_UART_INT.c ****     *     checked to detect available for transmission bytes.
 214:.\Generated_Source\PSoC5/MIDI2_UART_INT.c ****     *
 215:.\Generated_Source\PSoC5/MIDI2_UART_INT.c ****     *******************************************************************************/
 216:.\Generated_Source\PSoC5/MIDI2_UART_INT.c ****     CY_ISR(MIDI2_UART_TXISR)
 217:.\Generated_Source\PSoC5/MIDI2_UART_INT.c ****     {
 175              		.loc 1 217 0
 176              		.cfi_startproc
 177              		@ args = 0, pretend = 0, frame = 0
 178              		@ frame_needed = 1, uses_anonymous_args = 0
 179              		@ link register save eliminated.
 180 0000 80B4     		push	{r7}
 181              		.cfi_def_cfa_offset 4
ARM GAS  C:\Users\LUKASC~1\AppData\Local\Temp\ccGhJFYe.s 			page 8


 182              		.cfi_offset 7, -4
 183 0002 00AF     		add	r7, sp, #0
 184              		.cfi_def_cfa_register 7
 218:.\Generated_Source\PSoC5/MIDI2_UART_INT.c ****     #if(CY_PSOC3)
 219:.\Generated_Source\PSoC5/MIDI2_UART_INT.c ****         uint8 int_en;
 220:.\Generated_Source\PSoC5/MIDI2_UART_INT.c ****     #endif /* (CY_PSOC3) */
 221:.\Generated_Source\PSoC5/MIDI2_UART_INT.c **** 
 222:.\Generated_Source\PSoC5/MIDI2_UART_INT.c ****     #ifdef MIDI2_UART_TXISR_ENTRY_CALLBACK
 223:.\Generated_Source\PSoC5/MIDI2_UART_INT.c ****         MIDI2_UART_TXISR_EntryCallback();
 224:.\Generated_Source\PSoC5/MIDI2_UART_INT.c ****     #endif /* MIDI2_UART_TXISR_ENTRY_CALLBACK */
 225:.\Generated_Source\PSoC5/MIDI2_UART_INT.c **** 
 226:.\Generated_Source\PSoC5/MIDI2_UART_INT.c ****         /* User code required at start of ISR */
 227:.\Generated_Source\PSoC5/MIDI2_UART_INT.c ****         /* `#START MIDI2_UART_TXISR_START` */
 228:.\Generated_Source\PSoC5/MIDI2_UART_INT.c **** 
 229:.\Generated_Source\PSoC5/MIDI2_UART_INT.c ****         /* `#END` */
 230:.\Generated_Source\PSoC5/MIDI2_UART_INT.c **** 
 231:.\Generated_Source\PSoC5/MIDI2_UART_INT.c ****     #if(CY_PSOC3)   /* Make sure nested interrupt is enabled */
 232:.\Generated_Source\PSoC5/MIDI2_UART_INT.c ****         int_en = EA;
 233:.\Generated_Source\PSoC5/MIDI2_UART_INT.c ****         CyGlobalIntEnable;
 234:.\Generated_Source\PSoC5/MIDI2_UART_INT.c ****     #endif /* (CY_PSOC3) */
 235:.\Generated_Source\PSoC5/MIDI2_UART_INT.c **** 
 236:.\Generated_Source\PSoC5/MIDI2_UART_INT.c ****         while((MIDI2_UART_txBufferRead != MIDI2_UART_txBufferWrite) &&
 185              		.loc 1 236 0
 186 0004 17E0     		b	.L10
 187              	.L13:
 237:.\Generated_Source\PSoC5/MIDI2_UART_INT.c ****              ((MIDI2_UART_TXSTATUS_REG & MIDI2_UART_TX_STS_FIFO_FULL) == 0u))
 238:.\Generated_Source\PSoC5/MIDI2_UART_INT.c ****         {
 239:.\Generated_Source\PSoC5/MIDI2_UART_INT.c ****             /* Check pointer wrap around */
 240:.\Generated_Source\PSoC5/MIDI2_UART_INT.c ****             if(MIDI2_UART_txBufferRead >= MIDI2_UART_TX_BUFFER_SIZE)
 188              		.loc 1 240 0
 189 0006 154B     		ldr	r3, .L14
 190 0008 1B78     		ldrb	r3, [r3]
 191 000a DBB2     		uxtb	r3, r3
 192 000c FF2B     		cmp	r3, #255
 193 000e 02D1     		bne	.L11
 241:.\Generated_Source\PSoC5/MIDI2_UART_INT.c ****             {
 242:.\Generated_Source\PSoC5/MIDI2_UART_INT.c ****                 MIDI2_UART_txBufferRead = 0u;
 194              		.loc 1 242 0
 195 0010 124B     		ldr	r3, .L14
 196 0012 0022     		movs	r2, #0
 197 0014 1A70     		strb	r2, [r3]
 198              	.L11:
 243:.\Generated_Source\PSoC5/MIDI2_UART_INT.c ****             }
 244:.\Generated_Source\PSoC5/MIDI2_UART_INT.c **** 
 245:.\Generated_Source\PSoC5/MIDI2_UART_INT.c ****             MIDI2_UART_TXDATA_REG = MIDI2_UART_txBuffer[MIDI2_UART_txBufferRead];
 199              		.loc 1 245 0
 200 0016 124B     		ldr	r3, .L14+4
 201 0018 104A     		ldr	r2, .L14
 202 001a 1278     		ldrb	r2, [r2]
 203 001c D2B2     		uxtb	r2, r2
 204 001e 1146     		mov	r1, r2
 205 0020 104A     		ldr	r2, .L14+8
 206 0022 525C     		ldrb	r2, [r2, r1]
 207 0024 D2B2     		uxtb	r2, r2
 208 0026 1A70     		strb	r2, [r3]
 246:.\Generated_Source\PSoC5/MIDI2_UART_INT.c **** 
 247:.\Generated_Source\PSoC5/MIDI2_UART_INT.c ****             /* Set next pointer */
ARM GAS  C:\Users\LUKASC~1\AppData\Local\Temp\ccGhJFYe.s 			page 9


 248:.\Generated_Source\PSoC5/MIDI2_UART_INT.c ****             MIDI2_UART_txBufferRead++;
 209              		.loc 1 248 0
 210 0028 0C4B     		ldr	r3, .L14
 211 002a 1B78     		ldrb	r3, [r3]
 212 002c DBB2     		uxtb	r3, r3
 213 002e 0133     		adds	r3, r3, #1
 214 0030 DAB2     		uxtb	r2, r3
 215 0032 0A4B     		ldr	r3, .L14
 216 0034 1A70     		strb	r2, [r3]
 217              	.L10:
 236:.\Generated_Source\PSoC5/MIDI2_UART_INT.c ****              ((MIDI2_UART_TXSTATUS_REG & MIDI2_UART_TX_STS_FIFO_FULL) == 0u))
 218              		.loc 1 236 0
 219 0036 094B     		ldr	r3, .L14
 220 0038 1B78     		ldrb	r3, [r3]
 221 003a DAB2     		uxtb	r2, r3
 222 003c 0A4B     		ldr	r3, .L14+12
 223 003e 1B78     		ldrb	r3, [r3]	@ zero_extendqisi2
 224 0040 9A42     		cmp	r2, r3
 225 0042 06D0     		beq	.L9
 237:.\Generated_Source\PSoC5/MIDI2_UART_INT.c ****         {
 226              		.loc 1 237 0 discriminator 1
 227 0044 094B     		ldr	r3, .L14+16
 228 0046 1B78     		ldrb	r3, [r3]
 229 0048 DBB2     		uxtb	r3, r3
 230 004a 03F00403 		and	r3, r3, #4
 236:.\Generated_Source\PSoC5/MIDI2_UART_INT.c ****              ((MIDI2_UART_TXSTATUS_REG & MIDI2_UART_TX_STS_FIFO_FULL) == 0u))
 231              		.loc 1 236 0 discriminator 1
 232 004e 002B     		cmp	r3, #0
 233 0050 D9D0     		beq	.L13
 234              	.L9:
 249:.\Generated_Source\PSoC5/MIDI2_UART_INT.c ****         }
 250:.\Generated_Source\PSoC5/MIDI2_UART_INT.c **** 
 251:.\Generated_Source\PSoC5/MIDI2_UART_INT.c ****         /* User code required at end of ISR (Optional) */
 252:.\Generated_Source\PSoC5/MIDI2_UART_INT.c ****         /* `#START MIDI2_UART_TXISR_END` */
 253:.\Generated_Source\PSoC5/MIDI2_UART_INT.c **** 
 254:.\Generated_Source\PSoC5/MIDI2_UART_INT.c ****         /* `#END` */
 255:.\Generated_Source\PSoC5/MIDI2_UART_INT.c **** 
 256:.\Generated_Source\PSoC5/MIDI2_UART_INT.c ****     #ifdef MIDI2_UART_TXISR_EXIT_CALLBACK
 257:.\Generated_Source\PSoC5/MIDI2_UART_INT.c ****         MIDI2_UART_TXISR_ExitCallback();
 258:.\Generated_Source\PSoC5/MIDI2_UART_INT.c ****     #endif /* MIDI2_UART_TXISR_EXIT_CALLBACK */
 259:.\Generated_Source\PSoC5/MIDI2_UART_INT.c **** 
 260:.\Generated_Source\PSoC5/MIDI2_UART_INT.c ****     #if(CY_PSOC3)
 261:.\Generated_Source\PSoC5/MIDI2_UART_INT.c ****         EA = int_en;
 262:.\Generated_Source\PSoC5/MIDI2_UART_INT.c ****     #endif /* (CY_PSOC3) */
 263:.\Generated_Source\PSoC5/MIDI2_UART_INT.c ****    }
 235              		.loc 1 263 0
 236 0052 BD46     		mov	sp, r7
 237              		.cfi_def_cfa_register 13
 238              		@ sp needed
 239 0054 5DF8047B 		ldr	r7, [sp], #4
 240              		.cfi_restore 7
 241              		.cfi_def_cfa_offset 0
 242 0058 7047     		bx	lr
 243              	.L15:
 244 005a 00BF     		.align	2
 245              	.L14:
 246 005c 00000000 		.word	MIDI2_UART_txBufferRead
ARM GAS  C:\Users\LUKASC~1\AppData\Local\Temp\ccGhJFYe.s 			page 10


 247 0060 45650040 		.word	1073767749
 248 0064 00000000 		.word	MIDI2_UART_txBuffer
 249 0068 00000000 		.word	MIDI2_UART_txBufferWrite
 250 006c 65650040 		.word	1073767781
 251              		.cfi_endproc
 252              	.LFE1:
 253              		.size	MIDI2_UART_TXISR, .-MIDI2_UART_TXISR
 254              		.text
 255              	.Letext0:
 256              		.file 2 ".\\Generated_Source\\PSoC5\\cytypes.h"
 257              		.file 3 ".\\Generated_Source\\PSoC5\\MIDI2_UART.h"