ARM GAS  C:\Users\LUKASC~1\AppData\Local\Temp\ccLhh5pu.s 			page 1


   1              		.syntax unified
   2              		.cpu cortex-m3
   3              		.fpu softvfp
   4              		.eabi_attribute 20, 1
   5              		.eabi_attribute 21, 1
   6              		.eabi_attribute 23, 3
   7              		.eabi_attribute 24, 1
   8              		.eabi_attribute 25, 1
   9              		.eabi_attribute 26, 1
  10              		.eabi_attribute 30, 6
  11              		.eabi_attribute 34, 1
  12              		.eabi_attribute 18, 4
  13              		.thumb
  14              		.file	"USB.c"
  15              		.text
  16              	.Ltext0:
  17              		.cfi_sections	.debug_frame
  18              		.global	USB_initVar
  19              		.bss
  20              		.type	USB_initVar, %object
  21              		.size	USB_initVar, 1
  22              	USB_initVar:
  23 0000 00       		.space	1
  24              		.section	.text.USB_Start,"ax",%progbits
  25              		.align	2
  26              		.global	USB_Start
  27              		.thumb
  28              		.thumb_func
  29              		.type	USB_Start, %function
  30              	USB_Start:
  31              	.LFB0:
  32              		.file 1 ".\\Generated_Source\\PSoC5\\USB.c"
   1:.\Generated_Source\PSoC5/USB.c **** /***************************************************************************//**
   2:.\Generated_Source\PSoC5/USB.c **** * \file USB.c
   3:.\Generated_Source\PSoC5/USB.c **** * \version 3.0
   4:.\Generated_Source\PSoC5/USB.c **** *
   5:.\Generated_Source\PSoC5/USB.c **** * \brief
   6:.\Generated_Source\PSoC5/USB.c **** *  This file contains the global USBFS API functions.
   7:.\Generated_Source\PSoC5/USB.c **** *
   8:.\Generated_Source\PSoC5/USB.c **** * Note:
   9:.\Generated_Source\PSoC5/USB.c **** *  Many of the functions use an endpoint number. SRAM arrays are sized with 9
  10:.\Generated_Source\PSoC5/USB.c **** *  elements, so they are indexed directly by epNumber.  The SIE and ARB
  11:.\Generated_Source\PSoC5/USB.c **** *  registers are indexed by variations of epNumber - 1.
  12:.\Generated_Source\PSoC5/USB.c **** *
  13:.\Generated_Source\PSoC5/USB.c **** ********************************************************************************
  14:.\Generated_Source\PSoC5/USB.c **** * \copyright
  15:.\Generated_Source\PSoC5/USB.c **** * Copyright 2008-2015, Cypress Semiconductor Corporation.  All rights reserved.
  16:.\Generated_Source\PSoC5/USB.c **** * You may use this file only in accordance with the license, terms, conditions,
  17:.\Generated_Source\PSoC5/USB.c **** * disclaimers, and limitations in the end user license agreement accompanying
  18:.\Generated_Source\PSoC5/USB.c **** * the software package with which this file was provided.
  19:.\Generated_Source\PSoC5/USB.c **** *******************************************************************************/
  20:.\Generated_Source\PSoC5/USB.c **** 
  21:.\Generated_Source\PSoC5/USB.c **** #include "USB_pvt.h"
  22:.\Generated_Source\PSoC5/USB.c **** #include "USB_cydmac.h"
  23:.\Generated_Source\PSoC5/USB.c **** #include "USB_hid.h"
  24:.\Generated_Source\PSoC5/USB.c **** 
  25:.\Generated_Source\PSoC5/USB.c **** 
ARM GAS  C:\Users\LUKASC~1\AppData\Local\Temp\ccLhh5pu.s 			page 2


  26:.\Generated_Source\PSoC5/USB.c **** /***************************************
  27:.\Generated_Source\PSoC5/USB.c **** * Global data allocation
  28:.\Generated_Source\PSoC5/USB.c **** ***************************************/
  29:.\Generated_Source\PSoC5/USB.c **** 
  30:.\Generated_Source\PSoC5/USB.c **** /** Indicates whether the USBFS has been initialized. The variable is
  31:.\Generated_Source\PSoC5/USB.c **** * initialized to 0 after device reset and set to 1 the first time USBFS_Start()
  32:.\Generated_Source\PSoC5/USB.c **** * is called. This allows the Component to restart without reinitialization after
  33:.\Generated_Source\PSoC5/USB.c **** * the first call to the USBFS_Start() routine.
  34:.\Generated_Source\PSoC5/USB.c **** * If re-initialization of the Component is required, the variable should be set
  35:.\Generated_Source\PSoC5/USB.c **** * to 0 before the USBFS_Start() routine is called. Alternatively, the USBFS can
  36:.\Generated_Source\PSoC5/USB.c **** * be reinitialized by calling both USBFS_Init() and USBFS_InitComponent()
  37:.\Generated_Source\PSoC5/USB.c **** * functions.
  38:.\Generated_Source\PSoC5/USB.c **** */
  39:.\Generated_Source\PSoC5/USB.c **** uint8 USB_initVar = 0u;
  40:.\Generated_Source\PSoC5/USB.c **** 
  41:.\Generated_Source\PSoC5/USB.c **** #if (USB_EP_MANAGEMENT_DMA)
  42:.\Generated_Source\PSoC5/USB.c ****     #if (CY_PSOC4)
  43:.\Generated_Source\PSoC5/USB.c ****         static void USB_InitEpDma(void);
  44:.\Generated_Source\PSoC5/USB.c **** 
  45:.\Generated_Source\PSoC5/USB.c ****         /* DMA chanels assigend for endpoints. */
  46:.\Generated_Source\PSoC5/USB.c ****         const uint8 USB_DmaChan[USB_MAX_EP] =
  47:.\Generated_Source\PSoC5/USB.c ****         {
  48:.\Generated_Source\PSoC5/USB.c ****             0u,
  49:.\Generated_Source\PSoC5/USB.c ****             0u,
  50:.\Generated_Source\PSoC5/USB.c ****             0u,
  51:.\Generated_Source\PSoC5/USB.c ****             0u,
  52:.\Generated_Source\PSoC5/USB.c ****             0u,
  53:.\Generated_Source\PSoC5/USB.c ****             0u,
  54:.\Generated_Source\PSoC5/USB.c ****             0u,
  55:.\Generated_Source\PSoC5/USB.c ****             0u,
  56:.\Generated_Source\PSoC5/USB.c ****             0u,
  57:.\Generated_Source\PSoC5/USB.c ****         };        
  58:.\Generated_Source\PSoC5/USB.c ****     #else
  59:.\Generated_Source\PSoC5/USB.c ****         /* DMA chanels assigend for endpoints. */
  60:.\Generated_Source\PSoC5/USB.c ****         uint8 USB_DmaChan[USB_MAX_EP];
  61:.\Generated_Source\PSoC5/USB.c ****         
  62:.\Generated_Source\PSoC5/USB.c ****         /* DMA TDs require for PSoC 3/5LP operation. */
  63:.\Generated_Source\PSoC5/USB.c ****         uint8 USB_DmaTd[USB_MAX_EP];
  64:.\Generated_Source\PSoC5/USB.c ****     #endif /* (CY_PSOC4) */
  65:.\Generated_Source\PSoC5/USB.c **** #endif /* (USB_EP_MANAGEMENT_DMA) */
  66:.\Generated_Source\PSoC5/USB.c **** 
  67:.\Generated_Source\PSoC5/USB.c **** #if (USB_EP_MANAGEMENT_DMA_AUTO)
  68:.\Generated_Source\PSoC5/USB.c **** #if (CY_PSOC4)
  69:.\Generated_Source\PSoC5/USB.c ****     /* Number of DMA bursts. */
  70:.\Generated_Source\PSoC5/USB.c ****     uint8  USB_DmaEpBurstCnt   [USB_MAX_EP];
  71:.\Generated_Source\PSoC5/USB.c ****     
  72:.\Generated_Source\PSoC5/USB.c ****     /* Number of bytes to transfer in last DMA burst. */
  73:.\Generated_Source\PSoC5/USB.c ****     uint8  USB_DmaEpLastBurstEl[USB_MAX_EP];
  74:.\Generated_Source\PSoC5/USB.c **** 
  75:.\Generated_Source\PSoC5/USB.c ****     /* Storage for arrays above. */
  76:.\Generated_Source\PSoC5/USB.c ****     uint8  USB_DmaEpBurstCntBackup  [USB_MAX_EP];
  77:.\Generated_Source\PSoC5/USB.c ****     uint32 USB_DmaEpBufferAddrBackup[USB_MAX_EP];
  78:.\Generated_Source\PSoC5/USB.c ****      
  79:.\Generated_Source\PSoC5/USB.c ****     /* DMA trigger mux output for usb.dma_req[0-7]. */
  80:.\Generated_Source\PSoC5/USB.c ****     const uint8 USB_DmaReqOut[USB_MAX_EP] =
  81:.\Generated_Source\PSoC5/USB.c ****     {
  82:.\Generated_Source\PSoC5/USB.c ****         0u,
ARM GAS  C:\Users\LUKASC~1\AppData\Local\Temp\ccLhh5pu.s 			page 3


  83:.\Generated_Source\PSoC5/USB.c ****         USB_ep1_dma__TR_OUTPUT,
  84:.\Generated_Source\PSoC5/USB.c ****         USB_ep2_dma__TR_OUTPUT,
  85:.\Generated_Source\PSoC5/USB.c ****         0u,
  86:.\Generated_Source\PSoC5/USB.c ****         0u,
  87:.\Generated_Source\PSoC5/USB.c ****         0u,
  88:.\Generated_Source\PSoC5/USB.c ****         0u,
  89:.\Generated_Source\PSoC5/USB.c ****         0u,
  90:.\Generated_Source\PSoC5/USB.c ****         0u,
  91:.\Generated_Source\PSoC5/USB.c ****     };
  92:.\Generated_Source\PSoC5/USB.c **** 
  93:.\Generated_Source\PSoC5/USB.c ****     /* DMA trigger mux output for usb.dma_burstend[0-7]. */
  94:.\Generated_Source\PSoC5/USB.c ****     const uint8 USB_DmaBurstEndOut[USB_MAX_EP] =
  95:.\Generated_Source\PSoC5/USB.c ****     {
  96:.\Generated_Source\PSoC5/USB.c ****         0u,
  97:.\Generated_Source\PSoC5/USB.c ****         USB_BURSTEND_0_TR_OUTPUT,
  98:.\Generated_Source\PSoC5/USB.c ****         USB_BURSTEND_1_TR_OUTPUT,
  99:.\Generated_Source\PSoC5/USB.c ****         USB_BURSTEND_2_TR_OUTPUT,
 100:.\Generated_Source\PSoC5/USB.c ****         USB_BURSTEND_3_TR_OUTPUT,
 101:.\Generated_Source\PSoC5/USB.c ****         USB_BURSTEND_4_TR_OUTPUT,
 102:.\Generated_Source\PSoC5/USB.c ****         USB_BURSTEND_5_TR_OUTPUT,
 103:.\Generated_Source\PSoC5/USB.c ****         USB_BURSTEND_6_TR_OUTPUT,
 104:.\Generated_Source\PSoC5/USB.c ****         USB_BURSTEND_7_TR_OUTPUT
 105:.\Generated_Source\PSoC5/USB.c ****     };
 106:.\Generated_Source\PSoC5/USB.c ****     
 107:.\Generated_Source\PSoC5/USB.c **** #else
 108:.\Generated_Source\PSoC5/USB.c ****     #if (USB_EP_DMA_AUTO_OPT == 0u)
 109:.\Generated_Source\PSoC5/USB.c ****         static uint8 clearInDataRdyStatus = USB_ARB_EPX_CFG_DEFAULT;
 110:.\Generated_Source\PSoC5/USB.c ****         uint8 USB_DmaNextTd[USB_MAX_EP];
 111:.\Generated_Source\PSoC5/USB.c ****         const uint8 USB_epX_TD_TERMOUT_EN[USB_MAX_EP] =
 112:.\Generated_Source\PSoC5/USB.c ****         {
 113:.\Generated_Source\PSoC5/USB.c ****             0u,
 114:.\Generated_Source\PSoC5/USB.c ****             0u,
 115:.\Generated_Source\PSoC5/USB.c ****             0u,
 116:.\Generated_Source\PSoC5/USB.c ****             0u,
 117:.\Generated_Source\PSoC5/USB.c ****             0u,
 118:.\Generated_Source\PSoC5/USB.c ****             0u,
 119:.\Generated_Source\PSoC5/USB.c ****             0u,
 120:.\Generated_Source\PSoC5/USB.c ****             0u,
 121:.\Generated_Source\PSoC5/USB.c ****             0u,
 122:.\Generated_Source\PSoC5/USB.c ****         };
 123:.\Generated_Source\PSoC5/USB.c **** 
 124:.\Generated_Source\PSoC5/USB.c ****         volatile uint16 USB_inLength[USB_MAX_EP];
 125:.\Generated_Source\PSoC5/USB.c ****         const uint8 *USB_inDataPointer[USB_MAX_EP];
 126:.\Generated_Source\PSoC5/USB.c ****         volatile uint8 USB_inBufFull[USB_MAX_EP];
 127:.\Generated_Source\PSoC5/USB.c ****     #endif /* (USB_EP_DMA_AUTO_OPT == 0u) */
 128:.\Generated_Source\PSoC5/USB.c **** #endif /* (CY_PSOC4) */
 129:.\Generated_Source\PSoC5/USB.c **** #endif /* (USB_EP_MANAGEMENT_DMA_AUTO) */
 130:.\Generated_Source\PSoC5/USB.c **** 
 131:.\Generated_Source\PSoC5/USB.c **** 
 132:.\Generated_Source\PSoC5/USB.c **** /*******************************************************************************
 133:.\Generated_Source\PSoC5/USB.c **** * Function Name: USB_Start
 134:.\Generated_Source\PSoC5/USB.c **** ****************************************************************************//**
 135:.\Generated_Source\PSoC5/USB.c **** *
 136:.\Generated_Source\PSoC5/USB.c **** *   This function performs all required initialization for the USBFS component.
 137:.\Generated_Source\PSoC5/USB.c **** *   After this function call, the USB device initiates communication with the
 138:.\Generated_Source\PSoC5/USB.c **** *   host by pull-up D+ line. This is the preferred method to begin component
 139:.\Generated_Source\PSoC5/USB.c **** *   operation.
ARM GAS  C:\Users\LUKASC~1\AppData\Local\Temp\ccLhh5pu.s 			page 4


 140:.\Generated_Source\PSoC5/USB.c **** *
 141:.\Generated_Source\PSoC5/USB.c **** *   Note that global interrupts have to be enabled because interrupts are
 142:.\Generated_Source\PSoC5/USB.c **** *   required for USBFS component operation.
 143:.\Generated_Source\PSoC5/USB.c **** *
 144:.\Generated_Source\PSoC5/USB.c **** *   PSoC 4200L devices: when USBFS component configured to DMA with Automatic
 145:.\Generated_Source\PSoC5/USB.c **** *   Buffer Management, the DMA interrupt priority is changed to the highest
 146:.\Generated_Source\PSoC5/USB.c **** *   (priority 0) inside this function.
 147:.\Generated_Source\PSoC5/USB.c **** *
 148:.\Generated_Source\PSoC5/USB.c **** *   PSoC 3/PSoC 5LP devices: when USBFS component configured to DMA with
 149:.\Generated_Source\PSoC5/USB.c **** *   Automatic Buffer Management, the Arbiter interrupt priority is changed to
 150:.\Generated_Source\PSoC5/USB.c **** *   the highest (priority 0) inside this function.
 151:.\Generated_Source\PSoC5/USB.c **** *
 152:.\Generated_Source\PSoC5/USB.c **** *  \param device
 153:.\Generated_Source\PSoC5/USB.c **** *          Contains the device number of the desired device descriptor.
 154:.\Generated_Source\PSoC5/USB.c **** *          The device number can be found in the Device Descriptor Tab of
 155:.\Generated_Source\PSoC5/USB.c **** *          "Configure" dialog, under the settings of desired Device Descriptor,
 156:.\Generated_Source\PSoC5/USB.c **** *          in the "Device Number" field.
 157:.\Generated_Source\PSoC5/USB.c **** *  \param mode:
 158:.\Generated_Source\PSoC5/USB.c **** *   The operating voltage. This determines whether the voltage regulator
 159:.\Generated_Source\PSoC5/USB.c **** *   is enabled for 5V operation or if pass through mode is used for 3.3V
 160:.\Generated_Source\PSoC5/USB.c **** *   operation. Symbolic names and their associated values are given in the
 161:.\Generated_Source\PSoC5/USB.c **** *   following list.
 162:.\Generated_Source\PSoC5/USB.c **** *
 163:.\Generated_Source\PSoC5/USB.c **** *       *USB_3V_OPERATION* - Disable voltage regulator and pass-
 164:.\Generated_Source\PSoC5/USB.c **** *                                      through Vcc for pull-up
 165:.\Generated_Source\PSoC5/USB.c **** *
 166:.\Generated_Source\PSoC5/USB.c **** *       *USB_5V_OPERATION* - Enable voltage regulator and use
 167:.\Generated_Source\PSoC5/USB.c **** *                                      regulator for pull-up
 168:.\Generated_Source\PSoC5/USB.c **** *
 169:.\Generated_Source\PSoC5/USB.c **** *       *USB_DWR_POWER_OPERATION* - Enable or disable the voltage
 170:.\Generated_Source\PSoC5/USB.c **** *                                      regulator depending on the power supply
 171:.\Generated_Source\PSoC5/USB.c **** *                                      voltage configuration in the DWR tab.
 172:.\Generated_Source\PSoC5/USB.c **** *                                      For PSoC 3/5LP devices, the VDDD supply
 173:.\Generated_Source\PSoC5/USB.c **** *                                      voltage is considered and for PSoC 4A-L,
 174:.\Generated_Source\PSoC5/USB.c **** *                                      the VBUS supply voltage is considered.*
 175:.\Generated_Source\PSoC5/USB.c **** * \globalvars
 176:.\Generated_Source\PSoC5/USB.c **** *  \ref USB_initVar
 177:.\Generated_Source\PSoC5/USB.c **** *
 178:.\Generated_Source\PSoC5/USB.c **** * \sideeffect
 179:.\Generated_Source\PSoC5/USB.c **** *   This function will reset all communication states to default.
 180:.\Generated_Source\PSoC5/USB.c **** *
 181:.\Generated_Source\PSoC5/USB.c **** * \reentrant
 182:.\Generated_Source\PSoC5/USB.c **** *  No.
 183:.\Generated_Source\PSoC5/USB.c **** *
 184:.\Generated_Source\PSoC5/USB.c **** *******************************************************************************/
 185:.\Generated_Source\PSoC5/USB.c **** void USB_Start(uint8 device, uint8 mode) 
 186:.\Generated_Source\PSoC5/USB.c **** {
  33              		.loc 1 186 0
  34              		.cfi_startproc
  35              		@ args = 0, pretend = 0, frame = 8
  36              		@ frame_needed = 1, uses_anonymous_args = 0
  37 0000 80B5     		push	{r7, lr}
  38              		.cfi_def_cfa_offset 8
  39              		.cfi_offset 7, -8
  40              		.cfi_offset 14, -4
  41 0002 82B0     		sub	sp, sp, #8
  42              		.cfi_def_cfa_offset 16
ARM GAS  C:\Users\LUKASC~1\AppData\Local\Temp\ccLhh5pu.s 			page 5


  43 0004 00AF     		add	r7, sp, #0
  44              		.cfi_def_cfa_register 7
  45 0006 0346     		mov	r3, r0
  46 0008 0A46     		mov	r2, r1
  47 000a FB71     		strb	r3, [r7, #7]
  48 000c 1346     		mov	r3, r2
  49 000e BB71     		strb	r3, [r7, #6]
 187:.\Generated_Source\PSoC5/USB.c ****     if (0u == USB_initVar)
  50              		.loc 1 187 0
  51 0010 084B     		ldr	r3, .L3
  52 0012 1B78     		ldrb	r3, [r3]	@ zero_extendqisi2
  53 0014 002B     		cmp	r3, #0
  54 0016 04D1     		bne	.L2
 188:.\Generated_Source\PSoC5/USB.c ****     {
 189:.\Generated_Source\PSoC5/USB.c ****         USB_Init();
  55              		.loc 1 189 0
  56 0018 FFF7FEFF 		bl	USB_Init
 190:.\Generated_Source\PSoC5/USB.c ****         USB_initVar = 1u;
  57              		.loc 1 190 0
  58 001c 054B     		ldr	r3, .L3
  59 001e 0122     		movs	r2, #1
  60 0020 1A70     		strb	r2, [r3]
  61              	.L2:
 191:.\Generated_Source\PSoC5/USB.c ****     }
 192:.\Generated_Source\PSoC5/USB.c **** 
 193:.\Generated_Source\PSoC5/USB.c ****     USB_InitComponent(device, mode);
  62              		.loc 1 193 0
  63 0022 FA79     		ldrb	r2, [r7, #7]	@ zero_extendqisi2
  64 0024 BB79     		ldrb	r3, [r7, #6]	@ zero_extendqisi2
  65 0026 1046     		mov	r0, r2
  66 0028 1946     		mov	r1, r3
  67 002a FFF7FEFF 		bl	USB_InitComponent
 194:.\Generated_Source\PSoC5/USB.c **** }
  68              		.loc 1 194 0
  69 002e 0837     		adds	r7, r7, #8
  70              		.cfi_def_cfa_offset 8
  71 0030 BD46     		mov	sp, r7
  72              		.cfi_def_cfa_register 13
  73              		@ sp needed
  74 0032 80BD     		pop	{r7, pc}
  75              	.L4:
  76              		.align	2
  77              	.L3:
  78 0034 00000000 		.word	USB_initVar
  79              		.cfi_endproc
  80              	.LFE0:
  81              		.size	USB_Start, .-USB_Start
  82              		.section	.text.USB_Init,"ax",%progbits
  83              		.align	2
  84              		.global	USB_Init
  85              		.thumb
  86              		.thumb_func
  87              		.type	USB_Init, %function
  88              	USB_Init:
  89              	.LFB1:
 195:.\Generated_Source\PSoC5/USB.c **** 
 196:.\Generated_Source\PSoC5/USB.c **** 
ARM GAS  C:\Users\LUKASC~1\AppData\Local\Temp\ccLhh5pu.s 			page 6


 197:.\Generated_Source\PSoC5/USB.c **** /*******************************************************************************
 198:.\Generated_Source\PSoC5/USB.c **** * Function Name: USB_Init
 199:.\Generated_Source\PSoC5/USB.c **** ****************************************************************************//**
 200:.\Generated_Source\PSoC5/USB.c **** *
 201:.\Generated_Source\PSoC5/USB.c **** * This function initializes or restores the component according to the
 202:.\Generated_Source\PSoC5/USB.c **** * customizer Configure dialog settings. It is not necessary to call
 203:.\Generated_Source\PSoC5/USB.c **** * USB_Init() because the USB_Start() routine calls
 204:.\Generated_Source\PSoC5/USB.c **** * this function and is the preferred method to begin component operation.
 205:.\Generated_Source\PSoC5/USB.c **** *
 206:.\Generated_Source\PSoC5/USB.c **** * \reentrant
 207:.\Generated_Source\PSoC5/USB.c **** *  No.
 208:.\Generated_Source\PSoC5/USB.c **** *
 209:.\Generated_Source\PSoC5/USB.c **** *******************************************************************************/
 210:.\Generated_Source\PSoC5/USB.c **** void USB_Init(void) 
 211:.\Generated_Source\PSoC5/USB.c **** {
  90              		.loc 1 211 0
  91              		.cfi_startproc
  92              		@ args = 0, pretend = 0, frame = 8
  93              		@ frame_needed = 1, uses_anonymous_args = 0
  94 0000 80B5     		push	{r7, lr}
  95              		.cfi_def_cfa_offset 8
  96              		.cfi_offset 7, -8
  97              		.cfi_offset 14, -4
  98 0002 82B0     		sub	sp, sp, #8
  99              		.cfi_def_cfa_offset 16
 100 0004 00AF     		add	r7, sp, #0
 101              		.cfi_def_cfa_register 7
 212:.\Generated_Source\PSoC5/USB.c **** #if (CY_PSOC4)
 213:.\Generated_Source\PSoC5/USB.c ****     /* Enable clock to USB IP. */
 214:.\Generated_Source\PSoC5/USB.c ****     USB_USB_CLK_EN_REG = USB_USB_CLK_CSR_CLK_EN;
 215:.\Generated_Source\PSoC5/USB.c **** 
 216:.\Generated_Source\PSoC5/USB.c ****     /* The internal regulator (CR1.REG_ENABLE) is enabled in
 217:.\Generated_Source\PSoC5/USB.c ****     * USB_InitComponent() if it is required.
 218:.\Generated_Source\PSoC5/USB.c ****     */
 219:.\Generated_Source\PSoC5/USB.c **** 
 220:.\Generated_Source\PSoC5/USB.c ****     /* Enable USBIO control on drive mode of D+ and D- pins. */
 221:.\Generated_Source\PSoC5/USB.c ****     USB_USBIO_CR1_REG &= ~ (uint32) USB_USBIO_CR1_IOMODE;
 222:.\Generated_Source\PSoC5/USB.c **** 
 223:.\Generated_Source\PSoC5/USB.c ****     /* Set number of LF CLK to detect UBS bus reset. */
 224:.\Generated_Source\PSoC5/USB.c ****     USB_BUS_RST_CNT_REG = USB_DEFUALT_BUS_RST_CNT;
 225:.\Generated_Source\PSoC5/USB.c **** 
 226:.\Generated_Source\PSoC5/USB.c ****     /* Select VBUS detection source and clear PHY isolate. The application level
 227:.\Generated_Source\PSoC5/USB.c ****     * must ensure that VBUS is valid. There is no need to wait 2us before VBUS is valid.
 228:.\Generated_Source\PSoC5/USB.c ****     */
 229:.\Generated_Source\PSoC5/USB.c ****     USB_POWER_CTRL_REG = USB_DEFAULT_POWER_CTRL_VBUS;
 230:.\Generated_Source\PSoC5/USB.c **** 
 231:.\Generated_Source\PSoC5/USB.c ****     /* Enable PHY detector and single-ended and differential receivers. */
 232:.\Generated_Source\PSoC5/USB.c ****     USB_POWER_CTRL_REG |= USB_DEFAULT_POWER_CTRL_PHY;
 233:.\Generated_Source\PSoC5/USB.c **** 
 234:.\Generated_Source\PSoC5/USB.c ****     /* Suspend clear sequence. */
 235:.\Generated_Source\PSoC5/USB.c ****     USB_POWER_CTRL_REG &= (uint32) ~USB_POWER_CTRL_SUSPEND;
 236:.\Generated_Source\PSoC5/USB.c ****     CyDelayUs(USB_WAIT_SUSPEND_DEL_DISABLE);
 237:.\Generated_Source\PSoC5/USB.c ****     USB_POWER_CTRL_REG &= (uint32) ~USB_POWER_CTRL_SUSPEND_DEL;
 238:.\Generated_Source\PSoC5/USB.c **** 
 239:.\Generated_Source\PSoC5/USB.c ****     /* Sets IMO lock options and clear all other bits. */
 240:.\Generated_Source\PSoC5/USB.c ****     USB_CR1_REG = USB_DEFUALT_CR1;
 241:.\Generated_Source\PSoC5/USB.c **** 
ARM GAS  C:\Users\LUKASC~1\AppData\Local\Temp\ccLhh5pu.s 			page 7


 242:.\Generated_Source\PSoC5/USB.c ****     /* Configure level (hi, lo, med) for each interrupt source. */
 243:.\Generated_Source\PSoC5/USB.c ****     USB_INTR_LVL_SEL_REG = USB_DEFAULT_INTR_LVL_SEL;
 244:.\Generated_Source\PSoC5/USB.c **** 
 245:.\Generated_Source\PSoC5/USB.c ****     /* Configure interrupt sources from: SOF, Bus Reset and EP0. */
 246:.\Generated_Source\PSoC5/USB.c ****     USB_INTR_SIE_MASK_REG = USB_DEFAULT_INTR_SIE_MASK;
 247:.\Generated_Source\PSoC5/USB.c **** 
 248:.\Generated_Source\PSoC5/USB.c **** #else
 249:.\Generated_Source\PSoC5/USB.c ****     uint8 enableInterrupts = CyEnterCriticalSection();
 102              		.loc 1 249 0
 103 0006 FFF7FEFF 		bl	CyEnterCriticalSection
 104 000a 0346     		mov	r3, r0
 105 000c FB71     		strb	r3, [r7, #7]
 250:.\Generated_Source\PSoC5/USB.c **** 
 251:.\Generated_Source\PSoC5/USB.c **** #if (USB_EP_MANAGEMENT_DMA)
 252:.\Generated_Source\PSoC5/USB.c ****     uint16 i;
 253:.\Generated_Source\PSoC5/USB.c **** #endif /* (USB_EP_MANAGEMENT_DMA) */
 254:.\Generated_Source\PSoC5/USB.c **** 
 255:.\Generated_Source\PSoC5/USB.c ****     /* Enable USB block. */
 256:.\Generated_Source\PSoC5/USB.c ****     USB_PM_ACT_CFG_REG |= USB_PM_ACT_EN_FSUSB;
 106              		.loc 1 256 0
 107 000e 4F4A     		ldr	r2, .L6
 108 0010 4E4B     		ldr	r3, .L6
 109 0012 1B78     		ldrb	r3, [r3]
 110 0014 DBB2     		uxtb	r3, r3
 111 0016 43F00103 		orr	r3, r3, #1
 112 001a DBB2     		uxtb	r3, r3
 113 001c 1370     		strb	r3, [r2]
 257:.\Generated_Source\PSoC5/USB.c ****     /* Enable USB block for Standby Power Mode. */
 258:.\Generated_Source\PSoC5/USB.c ****     USB_PM_STBY_CFG_REG |= USB_PM_STBY_EN_FSUSB;
 114              		.loc 1 258 0
 115 001e 4C4A     		ldr	r2, .L6+4
 116 0020 4B4B     		ldr	r3, .L6+4
 117 0022 1B78     		ldrb	r3, [r3]
 118 0024 DBB2     		uxtb	r3, r3
 119 0026 43F00103 		orr	r3, r3, #1
 120 002a DBB2     		uxtb	r3, r3
 121 002c 1370     		strb	r3, [r2]
 259:.\Generated_Source\PSoC5/USB.c **** 
 260:.\Generated_Source\PSoC5/USB.c ****     /* Enable core clock. */
 261:.\Generated_Source\PSoC5/USB.c ****     USB_USB_CLK_EN_REG = USB_USB_CLK_ENABLE;
 122              		.loc 1 261 0
 123 002e 494B     		ldr	r3, .L6+8
 124 0030 0122     		movs	r2, #1
 125 0032 1A70     		strb	r2, [r3]
 262:.\Generated_Source\PSoC5/USB.c **** 
 263:.\Generated_Source\PSoC5/USB.c ****     USB_CR1_REG = USB_CR1_ENABLE_LOCK;
 126              		.loc 1 263 0
 127 0034 484B     		ldr	r3, .L6+12
 128 0036 0222     		movs	r2, #2
 129 0038 1A70     		strb	r2, [r3]
 264:.\Generated_Source\PSoC5/USB.c **** 
 265:.\Generated_Source\PSoC5/USB.c ****     /* ENABLING USBIO PADS IN USB MODE FROM I/O MODE. */
 266:.\Generated_Source\PSoC5/USB.c ****     /* Ensure USB transmit enable is low (USB_USBIO_CR0.ten). - Manual Transmission - Disabled. */
 267:.\Generated_Source\PSoC5/USB.c ****     USB_USBIO_CR0_REG &= (uint8) ~USB_USBIO_CR0_TEN;
 130              		.loc 1 267 0
 131 003a 484A     		ldr	r2, .L6+16
 132 003c 474B     		ldr	r3, .L6+16
ARM GAS  C:\Users\LUKASC~1\AppData\Local\Temp\ccLhh5pu.s 			page 8


 133 003e 1B78     		ldrb	r3, [r3]
 134 0040 DBB2     		uxtb	r3, r3
 135 0042 03F07F03 		and	r3, r3, #127
 136 0046 DBB2     		uxtb	r3, r3
 137 0048 1370     		strb	r3, [r2]
 268:.\Generated_Source\PSoC5/USB.c ****     CyDelayUs(USB_WAIT_REG_STABILITY_50NS);  /* ~50ns delay. */
 138              		.loc 1 268 0
 139 004a 0020     		movs	r0, #0
 140 004c FFF7FEFF 		bl	CyDelayUs
 269:.\Generated_Source\PSoC5/USB.c ****     /* Disable USBIO by asserting PM.USB_CR0.fsusbio_pd_n(Inverted.
 270:.\Generated_Source\PSoC5/USB.c ****     *  high. These bits will be set low by the power manager out-of-reset.
 271:.\Generated_Source\PSoC5/USB.c ****     *  Also confirm USBIO pull-up is disabled.
 272:.\Generated_Source\PSoC5/USB.c ****     */
 273:.\Generated_Source\PSoC5/USB.c ****     USB_PM_USB_CR0_REG &= (uint8) ~(USB_PM_USB_CR0_PD_N |
 141              		.loc 1 273 0
 142 0050 434A     		ldr	r2, .L6+20
 143 0052 434B     		ldr	r3, .L6+20
 144 0054 1B78     		ldrb	r3, [r3]
 145 0056 DBB2     		uxtb	r3, r3
 146 0058 23F00603 		bic	r3, r3, #6
 147 005c DBB2     		uxtb	r3, r3
 148 005e 1370     		strb	r3, [r2]
 274:.\Generated_Source\PSoC5/USB.c ****                                                  USB_PM_USB_CR0_PD_PULLUP_N);
 275:.\Generated_Source\PSoC5/USB.c **** 
 276:.\Generated_Source\PSoC5/USB.c ****     /* Select IOMODE to USB mode. */
 277:.\Generated_Source\PSoC5/USB.c ****     USB_USBIO_CR1_REG &= (uint8) ~USB_USBIO_CR1_IOMODE;
 149              		.loc 1 277 0
 150 0060 404A     		ldr	r2, .L6+24
 151 0062 404B     		ldr	r3, .L6+24
 152 0064 1B78     		ldrb	r3, [r3]
 153 0066 DBB2     		uxtb	r3, r3
 154 0068 23F02003 		bic	r3, r3, #32
 155 006c DBB2     		uxtb	r3, r3
 156 006e 1370     		strb	r3, [r2]
 278:.\Generated_Source\PSoC5/USB.c **** 
 279:.\Generated_Source\PSoC5/USB.c ****     /* Enable USBIO reference by setting PM.USB_CR0.fsusbio_ref_en. */
 280:.\Generated_Source\PSoC5/USB.c ****     USB_PM_USB_CR0_REG |= USB_PM_USB_CR0_REF_EN;
 157              		.loc 1 280 0
 158 0070 3B4A     		ldr	r2, .L6+20
 159 0072 3B4B     		ldr	r3, .L6+20
 160 0074 1B78     		ldrb	r3, [r3]
 161 0076 DBB2     		uxtb	r3, r3
 162 0078 43F00103 		orr	r3, r3, #1
 163 007c DBB2     		uxtb	r3, r3
 164 007e 1370     		strb	r3, [r2]
 281:.\Generated_Source\PSoC5/USB.c ****     /* Reference is available for 1us after regulator is enabled. */
 282:.\Generated_Source\PSoC5/USB.c ****     CyDelayUs(USB_WAIT_REG_STABILITY_1US);
 165              		.loc 1 282 0
 166 0080 0120     		movs	r0, #1
 167 0082 FFF7FEFF 		bl	CyDelayUs
 283:.\Generated_Source\PSoC5/USB.c ****     /* OR 40us after power is restored. */
 284:.\Generated_Source\PSoC5/USB.c ****     CyDelayUs(USB_WAIT_VREF_RESTORE);
 168              		.loc 1 284 0
 169 0086 2820     		movs	r0, #40
 170 0088 FFF7FEFF 		bl	CyDelayUs
 285:.\Generated_Source\PSoC5/USB.c ****     /* Ensure single-ended disable bits are low (PRT15.INP_DIS[7:6])(input receiver enabled). */
 286:.\Generated_Source\PSoC5/USB.c ****     USB_DM_INP_DIS_REG &= (uint8) ~USB_DM_MASK;
ARM GAS  C:\Users\LUKASC~1\AppData\Local\Temp\ccLhh5pu.s 			page 9


 171              		.loc 1 286 0
 172 008c 364A     		ldr	r2, .L6+28
 173 008e 364B     		ldr	r3, .L6+28
 174 0090 1B78     		ldrb	r3, [r3]
 175 0092 DBB2     		uxtb	r3, r3
 176 0094 03F07F03 		and	r3, r3, #127
 177 0098 DBB2     		uxtb	r3, r3
 178 009a 1370     		strb	r3, [r2]
 287:.\Generated_Source\PSoC5/USB.c ****     USB_DP_INP_DIS_REG &= (uint8) ~USB_DP_MASK;
 179              		.loc 1 287 0
 180 009c 324A     		ldr	r2, .L6+28
 181 009e 324B     		ldr	r3, .L6+28
 182 00a0 1B78     		ldrb	r3, [r3]
 183 00a2 DBB2     		uxtb	r3, r3
 184 00a4 23F04003 		bic	r3, r3, #64
 185 00a8 DBB2     		uxtb	r3, r3
 186 00aa 1370     		strb	r3, [r2]
 288:.\Generated_Source\PSoC5/USB.c **** 
 289:.\Generated_Source\PSoC5/USB.c ****     /* Enable USBIO. */
 290:.\Generated_Source\PSoC5/USB.c ****     USB_PM_USB_CR0_REG |= USB_PM_USB_CR0_PD_N;
 187              		.loc 1 290 0
 188 00ac 2C4A     		ldr	r2, .L6+20
 189 00ae 2C4B     		ldr	r3, .L6+20
 190 00b0 1B78     		ldrb	r3, [r3]
 191 00b2 DBB2     		uxtb	r3, r3
 192 00b4 43F00203 		orr	r3, r3, #2
 193 00b8 DBB2     		uxtb	r3, r3
 194 00ba 1370     		strb	r3, [r2]
 291:.\Generated_Source\PSoC5/USB.c ****     CyDelayUs(USB_WAIT_PD_PULLUP_N_ENABLE);
 195              		.loc 1 291 0
 196 00bc 0220     		movs	r0, #2
 197 00be FFF7FEFF 		bl	CyDelayUs
 292:.\Generated_Source\PSoC5/USB.c ****     /* Set USBIO pull-up enable. */
 293:.\Generated_Source\PSoC5/USB.c ****     USB_PM_USB_CR0_REG |= USB_PM_USB_CR0_PD_PULLUP_N;
 198              		.loc 1 293 0
 199 00c2 274A     		ldr	r2, .L6+20
 200 00c4 264B     		ldr	r3, .L6+20
 201 00c6 1B78     		ldrb	r3, [r3]
 202 00c8 DBB2     		uxtb	r3, r3
 203 00ca 43F00403 		orr	r3, r3, #4
 204 00ce DBB2     		uxtb	r3, r3
 205 00d0 1370     		strb	r3, [r2]
 294:.\Generated_Source\PSoC5/USB.c **** 
 295:.\Generated_Source\PSoC5/USB.c ****     /* Reset Arbiter Write Address register for endpoint 1. */
 296:.\Generated_Source\PSoC5/USB.c ****     CY_SET_REG8(USB_ARB_RW1_WA_PTR,     0u);
 206              		.loc 1 296 0
 207 00d2 264B     		ldr	r3, .L6+32
 208 00d4 0022     		movs	r2, #0
 209 00d6 1A70     		strb	r2, [r3]
 297:.\Generated_Source\PSoC5/USB.c ****     CY_SET_REG8(USB_ARB_RW1_WA_MSB_PTR, 0u);
 210              		.loc 1 297 0
 211 00d8 254B     		ldr	r3, .L6+36
 212 00da 0022     		movs	r2, #0
 213 00dc 1A70     		strb	r2, [r3]
 298:.\Generated_Source\PSoC5/USB.c **** 
 299:.\Generated_Source\PSoC5/USB.c **** #if (USB_EP_MANAGEMENT_DMA)
 300:.\Generated_Source\PSoC5/USB.c ****     /* Initialize transfer descriptor. This will be used to detect DMA state - initialized or not. 
ARM GAS  C:\Users\LUKASC~1\AppData\Local\Temp\ccLhh5pu.s 			page 10


 301:.\Generated_Source\PSoC5/USB.c ****     for (i = 0u; i < USB_MAX_EP; ++i)
 302:.\Generated_Source\PSoC5/USB.c ****     {
 303:.\Generated_Source\PSoC5/USB.c ****         USB_DmaTd[i] = DMA_INVALID_TD;
 304:.\Generated_Source\PSoC5/USB.c **** 
 305:.\Generated_Source\PSoC5/USB.c ****     #if (USB_EP_MANAGEMENT_DMA_AUTO && (USB_EP_DMA_AUTO_OPT == 0u))
 306:.\Generated_Source\PSoC5/USB.c ****         USB_DmaNextTd[i] = DMA_INVALID_TD;
 307:.\Generated_Source\PSoC5/USB.c ****     #endif /* (USB_EP_MANAGEMENT_DMA_AUTO && (USB_EP_DMA_AUTO_OPT == 0u)) */
 308:.\Generated_Source\PSoC5/USB.c ****     }
 309:.\Generated_Source\PSoC5/USB.c **** #endif /* (USB_EP_MANAGEMENT_DMA) */
 310:.\Generated_Source\PSoC5/USB.c **** 
 311:.\Generated_Source\PSoC5/USB.c ****     CyExitCriticalSection(enableInterrupts);
 214              		.loc 1 311 0
 215 00de FB79     		ldrb	r3, [r7, #7]	@ zero_extendqisi2
 216 00e0 1846     		mov	r0, r3
 217 00e2 FFF7FEFF 		bl	CyExitCriticalSection
 312:.\Generated_Source\PSoC5/USB.c **** #endif /* (CY_PSOC4) */
 313:.\Generated_Source\PSoC5/USB.c **** 
 314:.\Generated_Source\PSoC5/USB.c ****     /* Configure interrupts from USB block. */
 315:.\Generated_Source\PSoC5/USB.c **** #if (CY_PSOC4)
 316:.\Generated_Source\PSoC5/USB.c ****     /* Configure hi_int: set handler and priority. */
 317:.\Generated_Source\PSoC5/USB.c ****     CyIntSetPriority     (USB_INTR_HI_VECT_NUM,  USB_INTR_HI_PRIORITY);
 318:.\Generated_Source\PSoC5/USB.c ****     (void) CyIntSetVector(USB_INTR_HI_VECT_NUM, &USB_INTR_HI_ISR);
 319:.\Generated_Source\PSoC5/USB.c **** 
 320:.\Generated_Source\PSoC5/USB.c ****     /* Configure lo_int: set handler and priority. */
 321:.\Generated_Source\PSoC5/USB.c ****     CyIntSetPriority     (USB_INTR_LO_VECT_NUM,  USB_INTR_LO_PRIORITY);
 322:.\Generated_Source\PSoC5/USB.c ****     (void) CyIntSetVector(USB_INTR_LO_VECT_NUM, &USB_INTR_LO_ISR);
 323:.\Generated_Source\PSoC5/USB.c **** 
 324:.\Generated_Source\PSoC5/USB.c ****     /* Configure med_int: set handler and priority (routed through DSI). */
 325:.\Generated_Source\PSoC5/USB.c ****     CyIntSetPriority     (USB_INTR_MED_VECT_NUM,  USB_INTR_MED_PRIORITY);
 326:.\Generated_Source\PSoC5/USB.c ****     (void) CyIntSetVector(USB_INTR_MED_VECT_NUM, &USB_INTR_MED_ISR);
 327:.\Generated_Source\PSoC5/USB.c **** 
 328:.\Generated_Source\PSoC5/USB.c **** #else
 329:.\Generated_Source\PSoC5/USB.c ****     /* Set bus reset interrupt. */
 330:.\Generated_Source\PSoC5/USB.c ****     CyIntSetPriority(USB_BUS_RESET_VECT_NUM, USB_BUS_RESET_PRIOR);
 218              		.loc 1 330 0
 219 00e6 1720     		movs	r0, #23
 220 00e8 0721     		movs	r1, #7
 221 00ea FFF7FEFF 		bl	CyIntSetPriority
 331:.\Generated_Source\PSoC5/USB.c ****     (void) CyIntSetVector(USB_BUS_RESET_VECT_NUM,   &USB_BUS_RESET_ISR);
 222              		.loc 1 331 0
 223 00ee 1720     		movs	r0, #23
 224 00f0 2049     		ldr	r1, .L6+40
 225 00f2 FFF7FEFF 		bl	CyIntSetVector
 332:.\Generated_Source\PSoC5/USB.c **** 
 333:.\Generated_Source\PSoC5/USB.c ****     /* Set Control Endpoint Interrupt. */
 334:.\Generated_Source\PSoC5/USB.c ****     CyIntSetPriority(USB_EP_0_VECT_NUM, USB_EP_0_PRIOR);
 226              		.loc 1 334 0
 227 00f6 1820     		movs	r0, #24
 228 00f8 0721     		movs	r1, #7
 229 00fa FFF7FEFF 		bl	CyIntSetPriority
 335:.\Generated_Source\PSoC5/USB.c ****     (void) CyIntSetVector(USB_EP_0_VECT_NUM,   &USB_EP_0_ISR);
 230              		.loc 1 335 0
 231 00fe 1820     		movs	r0, #24
 232 0100 1D49     		ldr	r1, .L6+44
 233 0102 FFF7FEFF 		bl	CyIntSetVector
 336:.\Generated_Source\PSoC5/USB.c **** 
 337:.\Generated_Source\PSoC5/USB.c ****     /* Set SOF interrupt. */
ARM GAS  C:\Users\LUKASC~1\AppData\Local\Temp\ccLhh5pu.s 			page 11


 338:.\Generated_Source\PSoC5/USB.c ****     #if (USB_SOF_ISR_ACTIVE)
 339:.\Generated_Source\PSoC5/USB.c ****         CyIntSetPriority     (USB_SOF_VECT_NUM,  USB_SOF_PRIOR);
 234              		.loc 1 339 0
 235 0106 1520     		movs	r0, #21
 236 0108 0721     		movs	r1, #7
 237 010a FFF7FEFF 		bl	CyIntSetPriority
 340:.\Generated_Source\PSoC5/USB.c ****         (void) CyIntSetVector(USB_SOF_VECT_NUM, &USB_SOF_ISR);
 238              		.loc 1 340 0
 239 010e 1520     		movs	r0, #21
 240 0110 1A49     		ldr	r1, .L6+48
 241 0112 FFF7FEFF 		bl	CyIntSetVector
 341:.\Generated_Source\PSoC5/USB.c ****     #endif /* (USB_SOF_ISR_ACTIVE) */
 342:.\Generated_Source\PSoC5/USB.c **** 
 343:.\Generated_Source\PSoC5/USB.c ****     /* Set Data Endpoint 1 Interrupt. */
 344:.\Generated_Source\PSoC5/USB.c ****     #if (USB_EP1_ISR_ACTIVE)
 345:.\Generated_Source\PSoC5/USB.c ****         CyIntSetPriority     (USB_EP_1_VECT_NUM,  USB_EP_1_PRIOR);
 242              		.loc 1 345 0
 243 0116 0520     		movs	r0, #5
 244 0118 0721     		movs	r1, #7
 245 011a FFF7FEFF 		bl	CyIntSetPriority
 346:.\Generated_Source\PSoC5/USB.c ****         (void) CyIntSetVector(USB_EP_1_VECT_NUM,  &USB_EP_1_ISR);
 246              		.loc 1 346 0
 247 011e 0520     		movs	r0, #5
 248 0120 1749     		ldr	r1, .L6+52
 249 0122 FFF7FEFF 		bl	CyIntSetVector
 347:.\Generated_Source\PSoC5/USB.c ****     #endif /* (USB_EP1_ISR_ACTIVE) */
 348:.\Generated_Source\PSoC5/USB.c **** 
 349:.\Generated_Source\PSoC5/USB.c ****     /* Set Data Endpoint 2 Interrupt. */
 350:.\Generated_Source\PSoC5/USB.c ****     #if (USB_EP2_ISR_ACTIVE)
 351:.\Generated_Source\PSoC5/USB.c ****         CyIntSetPriority     (USB_EP_2_VECT_NUM,  USB_EP_2_PRIOR);
 250              		.loc 1 351 0
 251 0126 0620     		movs	r0, #6
 252 0128 0721     		movs	r1, #7
 253 012a FFF7FEFF 		bl	CyIntSetPriority
 352:.\Generated_Source\PSoC5/USB.c ****         (void) CyIntSetVector(USB_EP_2_VECT_NUM, &USB_EP_2_ISR);
 254              		.loc 1 352 0
 255 012e 0620     		movs	r0, #6
 256 0130 1449     		ldr	r1, .L6+56
 257 0132 FFF7FEFF 		bl	CyIntSetVector
 353:.\Generated_Source\PSoC5/USB.c ****     #endif /* (USB_EP2_ISR_ACTIVE) */
 354:.\Generated_Source\PSoC5/USB.c **** 
 355:.\Generated_Source\PSoC5/USB.c ****     /* Set Data Endpoint 3 Interrupt. */
 356:.\Generated_Source\PSoC5/USB.c ****     #if (USB_EP3_ISR_ACTIVE)
 357:.\Generated_Source\PSoC5/USB.c ****         CyIntSetPriority     (USB_EP_3_VECT_NUM,  USB_EP_3_PRIOR);
 358:.\Generated_Source\PSoC5/USB.c ****         (void) CyIntSetVector(USB_EP_3_VECT_NUM, &USB_EP_3_ISR);
 359:.\Generated_Source\PSoC5/USB.c ****     #endif /* (USB_EP3_ISR_ACTIVE) */
 360:.\Generated_Source\PSoC5/USB.c **** 
 361:.\Generated_Source\PSoC5/USB.c ****     /* Set Data Endpoint 4 Interrupt. */
 362:.\Generated_Source\PSoC5/USB.c ****     #if (USB_EP4_ISR_ACTIVE)
 363:.\Generated_Source\PSoC5/USB.c ****         CyIntSetPriority     (USB_EP_4_VECT_NUM,  USB_EP_4_PRIOR);
 364:.\Generated_Source\PSoC5/USB.c ****         (void) CyIntSetVector(USB_EP_4_VECT_NUM, &USB_EP_4_ISR);
 365:.\Generated_Source\PSoC5/USB.c ****     #endif /* (USB_EP4_ISR_ACTIVE) */
 366:.\Generated_Source\PSoC5/USB.c **** 
 367:.\Generated_Source\PSoC5/USB.c ****     /* Set Data Endpoint 5 Interrupt. */
 368:.\Generated_Source\PSoC5/USB.c ****     #if (USB_EP5_ISR_ACTIVE)
 369:.\Generated_Source\PSoC5/USB.c ****         CyIntSetPriority     (USB_EP_5_VECT_NUM,  USB_EP_5_PRIOR);
 370:.\Generated_Source\PSoC5/USB.c ****         (void) CyIntSetVector(USB_EP_5_VECT_NUM, &USB_EP_5_ISR);
ARM GAS  C:\Users\LUKASC~1\AppData\Local\Temp\ccLhh5pu.s 			page 12


 371:.\Generated_Source\PSoC5/USB.c ****     #endif /* (USB_EP5_ISR_ACTIVE) */
 372:.\Generated_Source\PSoC5/USB.c **** 
 373:.\Generated_Source\PSoC5/USB.c ****     /* Set Data Endpoint 6 Interrupt. */
 374:.\Generated_Source\PSoC5/USB.c ****     #if (USB_EP6_ISR_ACTIVE)
 375:.\Generated_Source\PSoC5/USB.c ****         CyIntSetPriority     (USB_EP_6_VECT_NUM,  USB_EP_6_PRIOR);
 376:.\Generated_Source\PSoC5/USB.c ****         (void) CyIntSetVector(USB_EP_6_VECT_NUM, &USB_EP_6_ISR);
 377:.\Generated_Source\PSoC5/USB.c ****     #endif /* (USB_EP6_ISR_ACTIVE) */
 378:.\Generated_Source\PSoC5/USB.c **** 
 379:.\Generated_Source\PSoC5/USB.c ****      /* Set Data Endpoint 7 Interrupt. */
 380:.\Generated_Source\PSoC5/USB.c ****     #if (USB_EP7_ISR_ACTIVE)
 381:.\Generated_Source\PSoC5/USB.c ****         CyIntSetPriority     (USB_EP_7_VECT_NUM,  USB_EP_7_PRIOR);
 382:.\Generated_Source\PSoC5/USB.c ****         (void) CyIntSetVector(USB_EP_7_VECT_NUM, &USB_EP_7_ISR);
 383:.\Generated_Source\PSoC5/USB.c ****     #endif /* (USB_EP7_ISR_ACTIVE) */
 384:.\Generated_Source\PSoC5/USB.c **** 
 385:.\Generated_Source\PSoC5/USB.c ****     /* Set Data Endpoint 8 Interrupt. */
 386:.\Generated_Source\PSoC5/USB.c ****     #if (USB_EP8_ISR_ACTIVE)
 387:.\Generated_Source\PSoC5/USB.c ****         CyIntSetPriority     (USB_EP_8_VECT_NUM,  USB_EP_8_PRIOR);
 388:.\Generated_Source\PSoC5/USB.c ****         (void) CyIntSetVector(USB_EP_8_VECT_NUM, &USB_EP_8_ISR);
 389:.\Generated_Source\PSoC5/USB.c ****     #endif /* (USB_EP8_ISR_ACTIVE) */
 390:.\Generated_Source\PSoC5/USB.c **** 
 391:.\Generated_Source\PSoC5/USB.c ****     /* Set ARB Interrupt. */
 392:.\Generated_Source\PSoC5/USB.c ****     #if (USB_EP_MANAGEMENT_DMA && USB_ARB_ISR_ACTIVE)
 393:.\Generated_Source\PSoC5/USB.c ****         CyIntSetPriority     (USB_ARB_VECT_NUM,  USB_ARB_PRIOR);
 394:.\Generated_Source\PSoC5/USB.c ****         (void) CyIntSetVector(USB_ARB_VECT_NUM, &USB_ARB_ISR);
 395:.\Generated_Source\PSoC5/USB.c ****     #endif /* (USB_EP_MANAGEMENT_DMA && USB_ARB_ISR_ACTIVE) */
 396:.\Generated_Source\PSoC5/USB.c **** #endif /* (CY_PSOC4) */
 397:.\Generated_Source\PSoC5/USB.c **** 
 398:.\Generated_Source\PSoC5/USB.c ****     /* Common: Configure GPIO interrupt for wakeup. */
 399:.\Generated_Source\PSoC5/USB.c **** #if (USB_DP_ISR_ACTIVE)
 400:.\Generated_Source\PSoC5/USB.c ****     CyIntSetPriority     (USB_DP_INTC_VECT_NUM,  USB_DP_INTC_PRIORITY);
 258              		.loc 1 400 0
 259 0136 0C20     		movs	r0, #12
 260 0138 0721     		movs	r1, #7
 261 013a FFF7FEFF 		bl	CyIntSetPriority
 401:.\Generated_Source\PSoC5/USB.c ****     (void) CyIntSetVector(USB_DP_INTC_VECT_NUM, &USB_DP_ISR);
 262              		.loc 1 401 0
 263 013e 0C20     		movs	r0, #12
 264 0140 1149     		ldr	r1, .L6+60
 265 0142 FFF7FEFF 		bl	CyIntSetVector
 402:.\Generated_Source\PSoC5/USB.c **** #endif /* (USB_DP_ISR_ACTIVE) */
 403:.\Generated_Source\PSoC5/USB.c **** 
 404:.\Generated_Source\PSoC5/USB.c **** #if (USB_EP_MANAGEMENT_DMA && CY_PSOC4)
 405:.\Generated_Source\PSoC5/USB.c ****     /* Initialize DMA channels. */
 406:.\Generated_Source\PSoC5/USB.c ****     USB_InitEpDma();
 407:.\Generated_Source\PSoC5/USB.c **** #endif /* (USB_EP_MANAGEMENT_DMA && CY_PSOC4) */
 408:.\Generated_Source\PSoC5/USB.c **** }
 266              		.loc 1 408 0
 267 0146 0837     		adds	r7, r7, #8
 268              		.cfi_def_cfa_offset 8
 269 0148 BD46     		mov	sp, r7
 270              		.cfi_def_cfa_register 13
 271              		@ sp needed
 272 014a 80BD     		pop	{r7, pc}
 273              	.L7:
 274              		.align	2
 275              	.L6:
 276 014c A5430040 		.word	1073759141
ARM GAS  C:\Users\LUKASC~1\AppData\Local\Temp\ccLhh5pu.s 			page 13


 277 0150 B5430040 		.word	1073759157
 278 0154 9D600040 		.word	1073766557
 279 0158 09600040 		.word	1073766409
 280 015c 10600040 		.word	1073766416
 281 0160 94430040 		.word	1073759124
 282 0164 12600040 		.word	1073766418
 283 0168 F8510040 		.word	1073762808
 284 016c 84600040 		.word	1073766532
 285 0170 85600040 		.word	1073766533
 286 0174 00000000 		.word	USB_BUS_RESET_ISR
 287 0178 00000000 		.word	USB_EP_0_ISR
 288 017c 00000000 		.word	USB_SOF_ISR
 289 0180 00000000 		.word	USB_EP_1_ISR
 290 0184 00000000 		.word	USB_EP_2_ISR
 291 0188 00000000 		.word	USB_DP_ISR
 292              		.cfi_endproc
 293              	.LFE1:
 294              		.size	USB_Init, .-USB_Init
 295              		.section	.text.USB_InitComponent,"ax",%progbits
 296              		.align	2
 297              		.global	USB_InitComponent
 298              		.thumb
 299              		.thumb_func
 300              		.type	USB_InitComponent, %function
 301              	USB_InitComponent:
 302              	.LFB2:
 409:.\Generated_Source\PSoC5/USB.c **** 
 410:.\Generated_Source\PSoC5/USB.c **** 
 411:.\Generated_Source\PSoC5/USB.c **** /*******************************************************************************
 412:.\Generated_Source\PSoC5/USB.c **** * Function Name: USB_InitComponent
 413:.\Generated_Source\PSoC5/USB.c **** ****************************************************************************//**
 414:.\Generated_Source\PSoC5/USB.c **** *
 415:.\Generated_Source\PSoC5/USB.c **** *   This function initializes the component’s global variables and initiates
 416:.\Generated_Source\PSoC5/USB.c **** *   communication with the host by pull-up D+ line.
 417:.\Generated_Source\PSoC5/USB.c **** *
 418:.\Generated_Source\PSoC5/USB.c **** * \param device:
 419:.\Generated_Source\PSoC5/USB.c **** *   Contains the device number of the desired device descriptor. The device
 420:.\Generated_Source\PSoC5/USB.c **** *   number can be found in the Device Descriptor Tab of "Configure" dialog,
 421:.\Generated_Source\PSoC5/USB.c **** *   under the settings of desired Device Descriptor, in the *Device Number*
 422:.\Generated_Source\PSoC5/USB.c **** *   field.
 423:.\Generated_Source\PSoC5/USB.c **** *  \param mode:
 424:.\Generated_Source\PSoC5/USB.c **** *   The operating voltage. This determines whether the voltage regulator
 425:.\Generated_Source\PSoC5/USB.c **** *   is enabled for 5V operation or if pass through mode is used for 3.3V
 426:.\Generated_Source\PSoC5/USB.c **** *   operation. Symbolic names and their associated values are given in the
 427:.\Generated_Source\PSoC5/USB.c **** *   following list.
 428:.\Generated_Source\PSoC5/USB.c **** *
 429:.\Generated_Source\PSoC5/USB.c **** *       *USB_3V_OPERATION* - Disable voltage regulator and pass-
 430:.\Generated_Source\PSoC5/USB.c **** *                                      through Vcc for pull-up
 431:.\Generated_Source\PSoC5/USB.c **** *
 432:.\Generated_Source\PSoC5/USB.c **** *       *USB_5V_OPERATION* - Enable voltage regulator and use
 433:.\Generated_Source\PSoC5/USB.c **** *                                      regulator for pull-up
 434:.\Generated_Source\PSoC5/USB.c **** *
 435:.\Generated_Source\PSoC5/USB.c **** *       *USB_DWR_POWER_OPERATION* - Enable or disable the voltage
 436:.\Generated_Source\PSoC5/USB.c **** *                                      regulator depending on the power supply
 437:.\Generated_Source\PSoC5/USB.c **** *                                      voltage configuration in the DWR tab.
 438:.\Generated_Source\PSoC5/USB.c **** *                                      For PSoC 3/5LP devices, the VDDD supply
 439:.\Generated_Source\PSoC5/USB.c **** *                                      voltage is considered and for PSoC 4A-L,
ARM GAS  C:\Users\LUKASC~1\AppData\Local\Temp\ccLhh5pu.s 			page 14


 440:.\Generated_Source\PSoC5/USB.c **** *                                      the VBUS supply voltage is considered.
 441:.\Generated_Source\PSoC5/USB.c **** *
 442:.\Generated_Source\PSoC5/USB.c **** * \globalvars
 443:.\Generated_Source\PSoC5/USB.c **** *   \ref USB_device
 444:.\Generated_Source\PSoC5/USB.c **** *   \ref USB_transferState
 445:.\Generated_Source\PSoC5/USB.c **** *   \ref USB_configuration
 446:.\Generated_Source\PSoC5/USB.c **** *   \ref USB_deviceStatus
 447:.\Generated_Source\PSoC5/USB.c **** *
 448:.\Generated_Source\PSoC5/USB.c **** *   \ref USB_deviceAddress - Contains the current device address. This
 449:.\Generated_Source\PSoC5/USB.c **** *       variable is initialized to zero in this API. The Host starts to communicate
 450:.\Generated_Source\PSoC5/USB.c **** *      to the device with address 0 and then sets it to a whatever value using a
 451:.\Generated_Source\PSoC5/USB.c **** *      SET_ADDRESS request.
 452:.\Generated_Source\PSoC5/USB.c **** *
 453:.\Generated_Source\PSoC5/USB.c **** *   \ref USB_lastPacketSize - Initialized to 0;
 454:.\Generated_Source\PSoC5/USB.c **** *
 455:.\Generated_Source\PSoC5/USB.c **** * \reentrant
 456:.\Generated_Source\PSoC5/USB.c **** *  No.
 457:.\Generated_Source\PSoC5/USB.c **** *
 458:.\Generated_Source\PSoC5/USB.c **** *******************************************************************************/
 459:.\Generated_Source\PSoC5/USB.c **** void USB_InitComponent(uint8 device, uint8 mode) 
 460:.\Generated_Source\PSoC5/USB.c **** {
 303              		.loc 1 460 0
 304              		.cfi_startproc
 305              		@ args = 0, pretend = 0, frame = 8
 306              		@ frame_needed = 1, uses_anonymous_args = 0
 307 0000 80B5     		push	{r7, lr}
 308              		.cfi_def_cfa_offset 8
 309              		.cfi_offset 7, -8
 310              		.cfi_offset 14, -4
 311 0002 82B0     		sub	sp, sp, #8
 312              		.cfi_def_cfa_offset 16
 313 0004 00AF     		add	r7, sp, #0
 314              		.cfi_def_cfa_register 7
 315 0006 0346     		mov	r3, r0
 316 0008 0A46     		mov	r2, r1
 317 000a FB71     		strb	r3, [r7, #7]
 318 000c 1346     		mov	r3, r2
 319 000e BB71     		strb	r3, [r7, #6]
 461:.\Generated_Source\PSoC5/USB.c ****     /* Initialize _hidProtocol variable to comply with
 462:.\Generated_Source\PSoC5/USB.c ****     *  HID 7.2.6 Set_Protocol Request:
 463:.\Generated_Source\PSoC5/USB.c ****     *  "When initialized, all devices default to report protocol."
 464:.\Generated_Source\PSoC5/USB.c ****     */
 465:.\Generated_Source\PSoC5/USB.c **** #if defined(USB_ENABLE_HID_CLASS)
 466:.\Generated_Source\PSoC5/USB.c ****     uint8 i;
 467:.\Generated_Source\PSoC5/USB.c **** 
 468:.\Generated_Source\PSoC5/USB.c ****     for (i = 0u; i < USB_MAX_INTERFACES_NUMBER; i++)
 469:.\Generated_Source\PSoC5/USB.c ****     {
 470:.\Generated_Source\PSoC5/USB.c ****         USB_hidProtocol[i] = USB_PROTOCOL_REPORT;
 471:.\Generated_Source\PSoC5/USB.c ****     }
 472:.\Generated_Source\PSoC5/USB.c **** #endif /* USB_ENABLE_HID_CLASS */
 473:.\Generated_Source\PSoC5/USB.c **** 
 474:.\Generated_Source\PSoC5/USB.c ****     /* Store device number to access descriptor. */
 475:.\Generated_Source\PSoC5/USB.c ****     USB_device = device;
 320              		.loc 1 475 0
 321 0010 2C4A     		ldr	r2, .L14
 322 0012 FB79     		ldrb	r3, [r7, #7]
 323 0014 1370     		strb	r3, [r2]
ARM GAS  C:\Users\LUKASC~1\AppData\Local\Temp\ccLhh5pu.s 			page 15


 476:.\Generated_Source\PSoC5/USB.c **** 
 477:.\Generated_Source\PSoC5/USB.c ****     /* Reset component internal variables. */
 478:.\Generated_Source\PSoC5/USB.c ****     USB_transferState   = USB_TRANS_STATE_IDLE;
 324              		.loc 1 478 0
 325 0016 2C4B     		ldr	r3, .L14+4
 326 0018 0022     		movs	r2, #0
 327 001a 1A70     		strb	r2, [r3]
 479:.\Generated_Source\PSoC5/USB.c ****     USB_configurationChanged = 0u;
 328              		.loc 1 479 0
 329 001c 2B4B     		ldr	r3, .L14+8
 330 001e 0022     		movs	r2, #0
 331 0020 1A70     		strb	r2, [r3]
 480:.\Generated_Source\PSoC5/USB.c ****     USB_configuration   = 0u;
 332              		.loc 1 480 0
 333 0022 2B4B     		ldr	r3, .L14+12
 334 0024 0022     		movs	r2, #0
 335 0026 1A70     		strb	r2, [r3]
 481:.\Generated_Source\PSoC5/USB.c ****     USB_interfaceNumber = 0u;
 336              		.loc 1 481 0
 337 0028 2A4B     		ldr	r3, .L14+16
 338 002a 0022     		movs	r2, #0
 339 002c 1A70     		strb	r2, [r3]
 482:.\Generated_Source\PSoC5/USB.c ****     USB_deviceAddress   = 0u;
 340              		.loc 1 482 0
 341 002e 2A4B     		ldr	r3, .L14+20
 342 0030 0022     		movs	r2, #0
 343 0032 1A70     		strb	r2, [r3]
 483:.\Generated_Source\PSoC5/USB.c ****     USB_deviceStatus    = 0u;
 344              		.loc 1 483 0
 345 0034 294B     		ldr	r3, .L14+24
 346 0036 0022     		movs	r2, #0
 347 0038 1A70     		strb	r2, [r3]
 484:.\Generated_Source\PSoC5/USB.c ****     USB_lastPacketSize  = 0u;
 348              		.loc 1 484 0
 349 003a 294B     		ldr	r3, .L14+28
 350 003c 0022     		movs	r2, #0
 351 003e 1A70     		strb	r2, [r3]
 485:.\Generated_Source\PSoC5/USB.c **** 
 486:.\Generated_Source\PSoC5/USB.c ****     /* Enable component interrupts. */
 487:.\Generated_Source\PSoC5/USB.c **** #if (CY_PSOC4)
 488:.\Generated_Source\PSoC5/USB.c ****     CyIntEnable(USB_INTR_HI_VECT_NUM);
 489:.\Generated_Source\PSoC5/USB.c ****     CyIntEnable(USB_INTR_MED_VECT_NUM);
 490:.\Generated_Source\PSoC5/USB.c ****     CyIntEnable(USB_INTR_LO_VECT_NUM);
 491:.\Generated_Source\PSoC5/USB.c **** #else
 492:.\Generated_Source\PSoC5/USB.c ****     CyIntEnable(USB_BUS_RESET_VECT_NUM);
 352              		.loc 1 492 0
 353 0040 284B     		ldr	r3, .L14+32
 354 0042 4FF40002 		mov	r2, #8388608
 355 0046 1A60     		str	r2, [r3]
 493:.\Generated_Source\PSoC5/USB.c ****     CyIntEnable(USB_EP_0_VECT_NUM);
 356              		.loc 1 493 0
 357 0048 264B     		ldr	r3, .L14+32
 358 004a 4FF08072 		mov	r2, #16777216
 359 004e 1A60     		str	r2, [r3]
 494:.\Generated_Source\PSoC5/USB.c **** 
 495:.\Generated_Source\PSoC5/USB.c ****     #if (USB_SOF_ISR_ACTIVE)
 496:.\Generated_Source\PSoC5/USB.c ****         CyIntEnable(USB_SOF_VECT_NUM);
ARM GAS  C:\Users\LUKASC~1\AppData\Local\Temp\ccLhh5pu.s 			page 16


 360              		.loc 1 496 0
 361 0050 244B     		ldr	r3, .L14+32
 362 0052 4FF40012 		mov	r2, #2097152
 363 0056 1A60     		str	r2, [r3]
 497:.\Generated_Source\PSoC5/USB.c ****     #endif /* (USB_SOF_ISR_ACTIVE) */
 498:.\Generated_Source\PSoC5/USB.c **** 
 499:.\Generated_Source\PSoC5/USB.c ****     #if (USB_EP1_ISR_ACTIVE)
 500:.\Generated_Source\PSoC5/USB.c ****         CyIntEnable(USB_EP_1_VECT_NUM);
 364              		.loc 1 500 0
 365 0058 224B     		ldr	r3, .L14+32
 366 005a 2022     		movs	r2, #32
 367 005c 1A60     		str	r2, [r3]
 501:.\Generated_Source\PSoC5/USB.c ****     #endif /* (USB_EP1_ISR_ACTIVE) */
 502:.\Generated_Source\PSoC5/USB.c **** 
 503:.\Generated_Source\PSoC5/USB.c ****     #if (USB_EP2_ISR_ACTIVE)
 504:.\Generated_Source\PSoC5/USB.c ****         CyIntEnable(USB_EP_2_VECT_NUM);
 368              		.loc 1 504 0
 369 005e 214B     		ldr	r3, .L14+32
 370 0060 4022     		movs	r2, #64
 371 0062 1A60     		str	r2, [r3]
 505:.\Generated_Source\PSoC5/USB.c ****     #endif /* (USB_EP5_ISR_ACTIVE) */
 506:.\Generated_Source\PSoC5/USB.c **** 
 507:.\Generated_Source\PSoC5/USB.c ****     #if (USB_EP3_ISR_ACTIVE)
 508:.\Generated_Source\PSoC5/USB.c ****         CyIntEnable(USB_EP_3_VECT_NUM);
 509:.\Generated_Source\PSoC5/USB.c ****     #endif /* (USB_EP5_ISR_ACTIVE) */
 510:.\Generated_Source\PSoC5/USB.c **** 
 511:.\Generated_Source\PSoC5/USB.c ****     #if (USB_EP4_ISR_ACTIVE)
 512:.\Generated_Source\PSoC5/USB.c ****         CyIntEnable(USB_EP_4_VECT_NUM);
 513:.\Generated_Source\PSoC5/USB.c ****     #endif /* (USB_EP5_ISR_ACTIVE) */
 514:.\Generated_Source\PSoC5/USB.c **** 
 515:.\Generated_Source\PSoC5/USB.c ****     #if (USB_EP5_ISR_ACTIVE)
 516:.\Generated_Source\PSoC5/USB.c ****         CyIntEnable(USB_EP_5_VECT_NUM);
 517:.\Generated_Source\PSoC5/USB.c ****     #endif /* (USB_EP5_ISR_ACTIVE) */
 518:.\Generated_Source\PSoC5/USB.c **** 
 519:.\Generated_Source\PSoC5/USB.c ****     #if (USB_EP6_ISR_ACTIVE)
 520:.\Generated_Source\PSoC5/USB.c ****         CyIntEnable(USB_EP_6_VECT_NUM);
 521:.\Generated_Source\PSoC5/USB.c ****     #endif /* USB_EP6_ISR_REMOVE */
 522:.\Generated_Source\PSoC5/USB.c **** 
 523:.\Generated_Source\PSoC5/USB.c ****     #if (USB_EP7_ISR_ACTIVE)
 524:.\Generated_Source\PSoC5/USB.c ****         CyIntEnable(USB_EP_7_VECT_NUM);
 525:.\Generated_Source\PSoC5/USB.c ****     #endif /* (USB_EP7_ISR_ACTIVE) */
 526:.\Generated_Source\PSoC5/USB.c **** 
 527:.\Generated_Source\PSoC5/USB.c ****     #if (USB_EP8_ISR_ACTIVE)
 528:.\Generated_Source\PSoC5/USB.c ****         CyIntEnable(USB_EP_8_VECT_NUM);
 529:.\Generated_Source\PSoC5/USB.c ****     #endif /* (USB_EP8_ISR_ACTIVE) */
 530:.\Generated_Source\PSoC5/USB.c **** #endif /* (CY_PSOC4) */
 531:.\Generated_Source\PSoC5/USB.c **** 
 532:.\Generated_Source\PSoC5/USB.c **** #if (USB_EP_MANAGEMENT_DMA && USB_ARB_ISR_ACTIVE)
 533:.\Generated_Source\PSoC5/USB.c ****     /* Enable ARB EP interrupt sources. */
 534:.\Generated_Source\PSoC5/USB.c ****     USB_ARB_INT_EN_REG = USB_DEFAULT_ARB_INT_EN;
 535:.\Generated_Source\PSoC5/USB.c **** 
 536:.\Generated_Source\PSoC5/USB.c ****     #if (CY_PSOC3 || CY_PSOC5)
 537:.\Generated_Source\PSoC5/USB.c ****         CyIntEnable(USB_ARB_VECT_NUM);
 538:.\Generated_Source\PSoC5/USB.c ****     #endif /* (CY_PSOC3 || CY_PSOC5) */
 539:.\Generated_Source\PSoC5/USB.c **** #endif   /* (USB_EP_MANAGEMENT_DMA && USB_ARB_ISR_ACTIVE) */
 540:.\Generated_Source\PSoC5/USB.c **** 
 541:.\Generated_Source\PSoC5/USB.c **** /* Arbiter configuration for DMA transfers. */
ARM GAS  C:\Users\LUKASC~1\AppData\Local\Temp\ccLhh5pu.s 			page 17


 542:.\Generated_Source\PSoC5/USB.c **** #if (USB_EP_MANAGEMENT_DMA)
 543:.\Generated_Source\PSoC5/USB.c ****     /* Configure Arbiter for Manual or Auto DMA operation and clear configuration completion. */
 544:.\Generated_Source\PSoC5/USB.c ****     USB_ARB_CFG_REG = USB_DEFAULT_ARB_CFG;
 545:.\Generated_Source\PSoC5/USB.c **** 
 546:.\Generated_Source\PSoC5/USB.c ****     #if (CY_PSOC4)
 547:.\Generated_Source\PSoC5/USB.c ****         /* Enable DMA operation. */
 548:.\Generated_Source\PSoC5/USB.c ****         CyDmaEnable();
 549:.\Generated_Source\PSoC5/USB.c **** 
 550:.\Generated_Source\PSoC5/USB.c ****         #if (USB_EP_MANAGEMENT_DMA_AUTO)
 551:.\Generated_Source\PSoC5/USB.c ****             /* Change DMA priority to be highest. */
 552:.\Generated_Source\PSoC5/USB.c ****              CyIntSetPriority(CYDMA_INTR_NUMBER, USB_DMA_AUTO_INTR_PRIO);
 553:.\Generated_Source\PSoC5/USB.c ****         #endif /* (USB_EP_MANAGEMENT_DMA_AUTO) */
 554:.\Generated_Source\PSoC5/USB.c ****     #endif /* (CY_PSOC4) */
 555:.\Generated_Source\PSoC5/USB.c **** 
 556:.\Generated_Source\PSoC5/USB.c ****     #if (USB_EP_MANAGEMENT_DMA_AUTO)
 557:.\Generated_Source\PSoC5/USB.c ****         #if (CY_PSOC4)
 558:.\Generated_Source\PSoC5/USB.c ****             /* Enable DMA interrupt to handle DMA management. */
 559:.\Generated_Source\PSoC5/USB.c ****             CyIntEnable(CYDMA_INTR_NUMBER);
 560:.\Generated_Source\PSoC5/USB.c ****         #else
 561:.\Generated_Source\PSoC5/USB.c ****             #if (USB_EP_DMA_AUTO_OPT == 0u)
 562:.\Generated_Source\PSoC5/USB.c ****                 /* Initialize interrupts which handle verification of successful DMA transaction. *
 563:.\Generated_Source\PSoC5/USB.c ****                 USB_EP_DMA_Done_isr_StartEx(&USB_EP_DMA_DONE_ISR);
 564:.\Generated_Source\PSoC5/USB.c ****                 USB_EP17_DMA_Done_SR_InterruptEnable();
 565:.\Generated_Source\PSoC5/USB.c ****                 USB_EP8_DMA_Done_SR_InterruptEnable();
 566:.\Generated_Source\PSoC5/USB.c ****             #endif /* (USB_EP_DMA_AUTO_OPT == 0u) */
 567:.\Generated_Source\PSoC5/USB.c ****         #endif /* (CY_PSOC4) */
 568:.\Generated_Source\PSoC5/USB.c ****     #endif /* (USB_EP_MANAGEMENT_DMA_AUTO) */
 569:.\Generated_Source\PSoC5/USB.c **** #endif /* (USB_EP_MANAGEMENT_DMA) */
 570:.\Generated_Source\PSoC5/USB.c **** 
 571:.\Generated_Source\PSoC5/USB.c ****     /* Enable USB regulator depends on operation voltage. IMO Locking is enabled in Init(). */
 572:.\Generated_Source\PSoC5/USB.c ****     switch(mode)
 372              		.loc 1 572 0
 373 0064 BB79     		ldrb	r3, [r7, #6]	@ zero_extendqisi2
 374 0066 002B     		cmp	r3, #0
 375 0068 02D0     		beq	.L10
 376 006a 012B     		cmp	r3, #1
 377 006c 09D0     		beq	.L11
 378 006e 11E0     		b	.L13
 379              	.L10:
 573:.\Generated_Source\PSoC5/USB.c ****     {
 574:.\Generated_Source\PSoC5/USB.c ****     case USB_3V_OPERATION:
 575:.\Generated_Source\PSoC5/USB.c ****         /* Disable regulator for 3V operation. */
 576:.\Generated_Source\PSoC5/USB.c ****         USB_CR1_REG &= (uint8) ~USB_CR1_REG_ENABLE;
 380              		.loc 1 576 0
 381 0070 1D4A     		ldr	r2, .L14+36
 382 0072 1D4B     		ldr	r3, .L14+36
 383 0074 1B78     		ldrb	r3, [r3]
 384 0076 DBB2     		uxtb	r3, r3
 385 0078 23F00103 		bic	r3, r3, #1
 386 007c DBB2     		uxtb	r3, r3
 387 007e 1370     		strb	r3, [r2]
 577:.\Generated_Source\PSoC5/USB.c ****         break;
 388              		.loc 1 577 0
 389 0080 11E0     		b	.L12
 390              	.L11:
 578:.\Generated_Source\PSoC5/USB.c **** 
 579:.\Generated_Source\PSoC5/USB.c ****     case USB_5V_OPERATION:
ARM GAS  C:\Users\LUKASC~1\AppData\Local\Temp\ccLhh5pu.s 			page 18


 580:.\Generated_Source\PSoC5/USB.c ****         /* Enable regulator for 5V operation. */
 581:.\Generated_Source\PSoC5/USB.c ****         USB_CR1_REG |= (uint8)  USB_CR1_REG_ENABLE;
 391              		.loc 1 581 0
 392 0082 194A     		ldr	r2, .L14+36
 393 0084 184B     		ldr	r3, .L14+36
 394 0086 1B78     		ldrb	r3, [r3]
 395 0088 DBB2     		uxtb	r3, r3
 396 008a 43F00103 		orr	r3, r3, #1
 397 008e DBB2     		uxtb	r3, r3
 398 0090 1370     		strb	r3, [r2]
 582:.\Generated_Source\PSoC5/USB.c ****         break;
 399              		.loc 1 582 0
 400 0092 08E0     		b	.L12
 401              	.L13:
 583:.\Generated_Source\PSoC5/USB.c **** 
 584:.\Generated_Source\PSoC5/USB.c ****     default: /* Check DWR settings of USB power supply. */
 585:.\Generated_Source\PSoC5/USB.c ****     #if (USB_VDDD_MV < USB_3500MV)
 586:.\Generated_Source\PSoC5/USB.c ****         /* Disable regulator for 3V operation. */
 587:.\Generated_Source\PSoC5/USB.c ****         USB_CR1_REG &= (uint8) ~USB_CR1_REG_ENABLE;
 588:.\Generated_Source\PSoC5/USB.c ****     #else
 589:.\Generated_Source\PSoC5/USB.c ****         /* Enable regulator for 5V operation. */
 590:.\Generated_Source\PSoC5/USB.c ****         USB_CR1_REG |= (uint8)  USB_CR1_REG_ENABLE;
 402              		.loc 1 590 0
 403 0094 144A     		ldr	r2, .L14+36
 404 0096 144B     		ldr	r3, .L14+36
 405 0098 1B78     		ldrb	r3, [r3]
 406 009a DBB2     		uxtb	r3, r3
 407 009c 43F00103 		orr	r3, r3, #1
 408 00a0 DBB2     		uxtb	r3, r3
 409 00a2 1370     		strb	r3, [r2]
 591:.\Generated_Source\PSoC5/USB.c ****     #endif /* (USB_VDDD_MV < USB_3500MV) */
 592:.\Generated_Source\PSoC5/USB.c ****         break;
 410              		.loc 1 592 0
 411 00a4 00BF     		nop
 412              	.L12:
 593:.\Generated_Source\PSoC5/USB.c ****     }
 594:.\Generated_Source\PSoC5/USB.c **** 
 595:.\Generated_Source\PSoC5/USB.c **** #if (CY_PSOC4)
 596:.\Generated_Source\PSoC5/USB.c ****     /* Clear bus activity. */
 597:.\Generated_Source\PSoC5/USB.c ****     USB_CR1_REG &= (uint32) ~USB_CR1_BUS_ACTIVITY;
 598:.\Generated_Source\PSoC5/USB.c **** 
 599:.\Generated_Source\PSoC5/USB.c ****     /* Clear EP0 count register. */
 600:.\Generated_Source\PSoC5/USB.c ****     USB_EP0_CNT_REG = USB_CLEAR_REG;
 601:.\Generated_Source\PSoC5/USB.c **** 
 602:.\Generated_Source\PSoC5/USB.c ****     /* Set EP0.CR: ACK Setup, NAK IN/OUT. */
 603:.\Generated_Source\PSoC5/USB.c ****     USB_EP0_CR_REG = USB_MODE_NAK_IN_OUT;
 604:.\Generated_Source\PSoC5/USB.c **** 
 605:.\Generated_Source\PSoC5/USB.c ****     #if (USB_LPM_ACTIVE)
 606:.\Generated_Source\PSoC5/USB.c ****         if (NULL != USB_GetBOSPtr())
 607:.\Generated_Source\PSoC5/USB.c ****         {
 608:.\Generated_Source\PSoC5/USB.c ****             /* Enable LPM and acknowledge LPM packets for active device.
 609:.\Generated_Source\PSoC5/USB.c ****             * Reset NYET_EN and SUB_RESP bits in the LPM_CTRL register.
 610:.\Generated_Source\PSoC5/USB.c ****             */
 611:.\Generated_Source\PSoC5/USB.c ****             USB_LPM_CTRL_REG = (USB_LPM_CTRL_LPM_EN | \
 612:.\Generated_Source\PSoC5/USB.c ****                                              USB_LPM_CTRL_LPM_ACK_RESP);
 613:.\Generated_Source\PSoC5/USB.c ****         }
 614:.\Generated_Source\PSoC5/USB.c ****         else
ARM GAS  C:\Users\LUKASC~1\AppData\Local\Temp\ccLhh5pu.s 			page 19


 615:.\Generated_Source\PSoC5/USB.c ****         {
 616:.\Generated_Source\PSoC5/USB.c ****             /* Disable LPM for active device. */
 617:.\Generated_Source\PSoC5/USB.c ****             USB_LPM_CTRL_REG &= (uint32) ~USB_LPM_CTRL_LPM_EN;
 618:.\Generated_Source\PSoC5/USB.c ****         }
 619:.\Generated_Source\PSoC5/USB.c ****     #endif /* (USB_LPM_ACTIVE) */
 620:.\Generated_Source\PSoC5/USB.c **** 
 621:.\Generated_Source\PSoC5/USB.c ****     /* Enable device to responds to USB traffic with address 0. */
 622:.\Generated_Source\PSoC5/USB.c ****     USB_CR0_REG = USB_DEFUALT_CR0;
 623:.\Generated_Source\PSoC5/USB.c **** 
 624:.\Generated_Source\PSoC5/USB.c **** #else
 625:.\Generated_Source\PSoC5/USB.c ****     /* Set EP0.CR: ACK Setup, STALL IN/OUT. */
 626:.\Generated_Source\PSoC5/USB.c ****     USB_EP0_CR_REG = USB_MODE_STALL_IN_OUT;
 413              		.loc 1 626 0
 414 00a6 114B     		ldr	r3, .L14+40
 415 00a8 0322     		movs	r2, #3
 416 00aa 1A70     		strb	r2, [r3]
 627:.\Generated_Source\PSoC5/USB.c **** 
 628:.\Generated_Source\PSoC5/USB.c ****     /* Enable device to respond to USB traffic with address 0. */
 629:.\Generated_Source\PSoC5/USB.c ****     USB_CR0_REG = USB_DEFUALT_CR0;
 417              		.loc 1 629 0
 418 00ac 104B     		ldr	r3, .L14+44
 419 00ae 8022     		movs	r2, #128
 420 00b0 1A70     		strb	r2, [r3]
 630:.\Generated_Source\PSoC5/USB.c ****     CyDelayCycles(USB_WAIT_CR0_REG_STABILITY);
 421              		.loc 1 630 0
 422 00b2 0120     		movs	r0, #1
 423 00b4 FFF7FEFF 		bl	CyDelayCycles
 631:.\Generated_Source\PSoC5/USB.c **** #endif /* (CY_PSOC4) */
 632:.\Generated_Source\PSoC5/USB.c **** 
 633:.\Generated_Source\PSoC5/USB.c ****     /* Enable D+ pull-up and keep USB control on IO. */
 634:.\Generated_Source\PSoC5/USB.c ****     USB_USBIO_CR1_REG = USB_USBIO_CR1_USBPUEN;
 424              		.loc 1 634 0
 425 00b8 0E4B     		ldr	r3, .L14+48
 426 00ba 0422     		movs	r2, #4
 427 00bc 1A70     		strb	r2, [r3]
 635:.\Generated_Source\PSoC5/USB.c **** }
 428              		.loc 1 635 0
 429 00be 0837     		adds	r7, r7, #8
 430              		.cfi_def_cfa_offset 8
 431 00c0 BD46     		mov	sp, r7
 432              		.cfi_def_cfa_register 13
 433              		@ sp needed
 434 00c2 80BD     		pop	{r7, pc}
 435              	.L15:
 436              		.align	2
 437              	.L14:
 438 00c4 00000000 		.word	USB_device
 439 00c8 00000000 		.word	USB_transferState
 440 00cc 00000000 		.word	USB_configurationChanged
 441 00d0 00000000 		.word	USB_configuration
 442 00d4 00000000 		.word	USB_interfaceNumber
 443 00d8 00000000 		.word	USB_deviceAddress
 444 00dc 00000000 		.word	USB_deviceStatus
 445 00e0 00000000 		.word	USB_lastPacketSize
 446 00e4 00E100E0 		.word	-536813312
 447 00e8 09600040 		.word	1073766409
 448 00ec 28600040 		.word	1073766440
ARM GAS  C:\Users\LUKASC~1\AppData\Local\Temp\ccLhh5pu.s 			page 20


 449 00f0 08600040 		.word	1073766408
 450 00f4 12600040 		.word	1073766418
 451              		.cfi_endproc
 452              	.LFE2:
 453              		.size	USB_InitComponent, .-USB_InitComponent
 454              		.section	.text.USB_ReInitComponent,"ax",%progbits
 455              		.align	2
 456              		.global	USB_ReInitComponent
 457              		.thumb
 458              		.thumb_func
 459              		.type	USB_ReInitComponent, %function
 460              	USB_ReInitComponent:
 461              	.LFB3:
 636:.\Generated_Source\PSoC5/USB.c **** 
 637:.\Generated_Source\PSoC5/USB.c **** 
 638:.\Generated_Source\PSoC5/USB.c **** /*******************************************************************************
 639:.\Generated_Source\PSoC5/USB.c **** * Function Name: USB_ReInitComponent
 640:.\Generated_Source\PSoC5/USB.c **** ****************************************************************************//**
 641:.\Generated_Source\PSoC5/USB.c **** *
 642:.\Generated_Source\PSoC5/USB.c **** *  This function reinitialize the component configuration and is
 643:.\Generated_Source\PSoC5/USB.c **** *  intend to be called from the Reset interrupt.
 644:.\Generated_Source\PSoC5/USB.c **** *
 645:.\Generated_Source\PSoC5/USB.c **** * \globalvars
 646:.\Generated_Source\PSoC5/USB.c **** *   USB_device - Contains the device number of the desired Device
 647:.\Generated_Source\PSoC5/USB.c **** *        Descriptor. The device number can be found in the Device Descriptor tab
 648:.\Generated_Source\PSoC5/USB.c **** *       of the Configure dialog, under the settings of the desired Device Descriptor,
 649:.\Generated_Source\PSoC5/USB.c **** *       in the Device Number field.
 650:.\Generated_Source\PSoC5/USB.c **** *   USB_transferState - This variable is used by the communication
 651:.\Generated_Source\PSoC5/USB.c **** *       functions to handle the current transfer state. Initialized to
 652:.\Generated_Source\PSoC5/USB.c **** *       TRANS_STATE_IDLE in this API.
 653:.\Generated_Source\PSoC5/USB.c **** *   USB_configuration - Contains the current configuration number
 654:.\Generated_Source\PSoC5/USB.c **** *       set by the Host using a SET_CONFIGURATION request.
 655:.\Generated_Source\PSoC5/USB.c **** *       Initialized to zero in this API.
 656:.\Generated_Source\PSoC5/USB.c **** *   USB_deviceAddress - Contains the current device address. This
 657:.\Generated_Source\PSoC5/USB.c **** *       variable is initialized to zero in this API. The Host starts to communicate
 658:.\Generated_Source\PSoC5/USB.c **** *      to the device with address 0 and then sets it to a whatever value using
 659:.\Generated_Source\PSoC5/USB.c **** *      a SET_ADDRESS request.
 660:.\Generated_Source\PSoC5/USB.c **** *   USB_deviceStatus - Initialized to 0.
 661:.\Generated_Source\PSoC5/USB.c **** *       This is a two-bit variable which contains the power status in the first bit
 662:.\Generated_Source\PSoC5/USB.c **** *       (DEVICE_STATUS_BUS_POWERED or DEVICE_STATUS_SELF_POWERED) and the remote
 663:.\Generated_Source\PSoC5/USB.c **** *       wakeup status (DEVICE_STATUS_REMOTE_WAKEUP) in the second bit.
 664:.\Generated_Source\PSoC5/USB.c **** *   USB_lastPacketSize - Initialized to 0;
 665:.\Generated_Source\PSoC5/USB.c **** *
 666:.\Generated_Source\PSoC5/USB.c **** * \reentrant
 667:.\Generated_Source\PSoC5/USB.c **** *  No.
 668:.\Generated_Source\PSoC5/USB.c **** *
 669:.\Generated_Source\PSoC5/USB.c **** *******************************************************************************/
 670:.\Generated_Source\PSoC5/USB.c **** void USB_ReInitComponent(void) 
 671:.\Generated_Source\PSoC5/USB.c **** {
 462              		.loc 1 671 0
 463              		.cfi_startproc
 464              		@ args = 0, pretend = 0, frame = 0
 465              		@ frame_needed = 1, uses_anonymous_args = 0
 466              		@ link register save eliminated.
 467 0000 80B4     		push	{r7}
 468              		.cfi_def_cfa_offset 4
 469              		.cfi_offset 7, -4
ARM GAS  C:\Users\LUKASC~1\AppData\Local\Temp\ccLhh5pu.s 			page 21


 470 0002 00AF     		add	r7, sp, #0
 471              		.cfi_def_cfa_register 7
 672:.\Generated_Source\PSoC5/USB.c ****     /* Initialize _hidProtocol variable to comply with HID 7.2.6 Set_Protocol
 673:.\Generated_Source\PSoC5/USB.c ****     *  Request: "When initialized, all devices default to report protocol."
 674:.\Generated_Source\PSoC5/USB.c ****     */
 675:.\Generated_Source\PSoC5/USB.c **** #if defined(USB_ENABLE_HID_CLASS)
 676:.\Generated_Source\PSoC5/USB.c ****     uint8 i;
 677:.\Generated_Source\PSoC5/USB.c **** 
 678:.\Generated_Source\PSoC5/USB.c ****     for (i = 0u; i < USB_MAX_INTERFACES_NUMBER; i++)
 679:.\Generated_Source\PSoC5/USB.c ****     {
 680:.\Generated_Source\PSoC5/USB.c ****         USB_hidProtocol[i] = USB_PROTOCOL_REPORT;
 681:.\Generated_Source\PSoC5/USB.c ****     }
 682:.\Generated_Source\PSoC5/USB.c **** #endif /* USB_ENABLE_HID_CLASS */
 683:.\Generated_Source\PSoC5/USB.c **** 
 684:.\Generated_Source\PSoC5/USB.c ****     /* Reset component internal variables. */
 685:.\Generated_Source\PSoC5/USB.c ****     USB_transferState   = USB_TRANS_STATE_IDLE;
 472              		.loc 1 685 0
 473 0004 0F4B     		ldr	r3, .L17
 474 0006 0022     		movs	r2, #0
 475 0008 1A70     		strb	r2, [r3]
 686:.\Generated_Source\PSoC5/USB.c ****     USB_configurationChanged = 0u;
 476              		.loc 1 686 0
 477 000a 0F4B     		ldr	r3, .L17+4
 478 000c 0022     		movs	r2, #0
 479 000e 1A70     		strb	r2, [r3]
 687:.\Generated_Source\PSoC5/USB.c ****     USB_configuration   = 0u;
 480              		.loc 1 687 0
 481 0010 0E4B     		ldr	r3, .L17+8
 482 0012 0022     		movs	r2, #0
 483 0014 1A70     		strb	r2, [r3]
 688:.\Generated_Source\PSoC5/USB.c ****     USB_interfaceNumber = 0u;
 484              		.loc 1 688 0
 485 0016 0E4B     		ldr	r3, .L17+12
 486 0018 0022     		movs	r2, #0
 487 001a 1A70     		strb	r2, [r3]
 689:.\Generated_Source\PSoC5/USB.c ****     USB_deviceAddress   = 0u;
 488              		.loc 1 689 0
 489 001c 0D4B     		ldr	r3, .L17+16
 490 001e 0022     		movs	r2, #0
 491 0020 1A70     		strb	r2, [r3]
 690:.\Generated_Source\PSoC5/USB.c ****     USB_deviceStatus    = 0u;
 492              		.loc 1 690 0
 493 0022 0D4B     		ldr	r3, .L17+20
 494 0024 0022     		movs	r2, #0
 495 0026 1A70     		strb	r2, [r3]
 691:.\Generated_Source\PSoC5/USB.c ****     USB_lastPacketSize  = 0u;
 496              		.loc 1 691 0
 497 0028 0C4B     		ldr	r3, .L17+24
 498 002a 0022     		movs	r2, #0
 499 002c 1A70     		strb	r2, [r3]
 692:.\Generated_Source\PSoC5/USB.c **** 
 693:.\Generated_Source\PSoC5/USB.c **** #if (CY_PSOC4)
 694:.\Generated_Source\PSoC5/USB.c ****     /* Set EP0.CR: ACK Setup, NAK IN/OUT. */
 695:.\Generated_Source\PSoC5/USB.c ****     USB_EP0_CR_REG = USB_MODE_NAK_IN_OUT;
 696:.\Generated_Source\PSoC5/USB.c **** #else
 697:.\Generated_Source\PSoC5/USB.c ****     /* Set EP0.CR: ACK Setup, STALL IN/OUT. */
 698:.\Generated_Source\PSoC5/USB.c ****     USB_EP0_CR_REG = USB_MODE_STALL_IN_OUT;
ARM GAS  C:\Users\LUKASC~1\AppData\Local\Temp\ccLhh5pu.s 			page 22


 500              		.loc 1 698 0
 501 002e 0C4B     		ldr	r3, .L17+28
 502 0030 0322     		movs	r2, #3
 503 0032 1A70     		strb	r2, [r3]
 699:.\Generated_Source\PSoC5/USB.c **** #endif /* (CY_PSOC4) */
 700:.\Generated_Source\PSoC5/USB.c **** 
 701:.\Generated_Source\PSoC5/USB.c ****     /* Enable device to respond to USB traffic with address 0. */
 702:.\Generated_Source\PSoC5/USB.c ****     USB_CR0_REG = USB_DEFUALT_CR0;
 504              		.loc 1 702 0
 505 0034 0B4B     		ldr	r3, .L17+32
 506 0036 8022     		movs	r2, #128
 507 0038 1A70     		strb	r2, [r3]
 703:.\Generated_Source\PSoC5/USB.c **** }
 508              		.loc 1 703 0
 509 003a BD46     		mov	sp, r7
 510              		.cfi_def_cfa_register 13
 511              		@ sp needed
 512 003c 5DF8047B 		ldr	r7, [sp], #4
 513              		.cfi_restore 7
 514              		.cfi_def_cfa_offset 0
 515 0040 7047     		bx	lr
 516              	.L18:
 517 0042 00BF     		.align	2
 518              	.L17:
 519 0044 00000000 		.word	USB_transferState
 520 0048 00000000 		.word	USB_configurationChanged
 521 004c 00000000 		.word	USB_configuration
 522 0050 00000000 		.word	USB_interfaceNumber
 523 0054 00000000 		.word	USB_deviceAddress
 524 0058 00000000 		.word	USB_deviceStatus
 525 005c 00000000 		.word	USB_lastPacketSize
 526 0060 28600040 		.word	1073766440
 527 0064 08600040 		.word	1073766408
 528              		.cfi_endproc
 529              	.LFE3:
 530              		.size	USB_ReInitComponent, .-USB_ReInitComponent
 531              		.section	.text.USB_Stop,"ax",%progbits
 532              		.align	2
 533              		.global	USB_Stop
 534              		.thumb
 535              		.thumb_func
 536              		.type	USB_Stop, %function
 537              	USB_Stop:
 538              	.LFB4:
 704:.\Generated_Source\PSoC5/USB.c **** 
 705:.\Generated_Source\PSoC5/USB.c **** 
 706:.\Generated_Source\PSoC5/USB.c **** /*******************************************************************************
 707:.\Generated_Source\PSoC5/USB.c **** * Function Name: USB_Stop
 708:.\Generated_Source\PSoC5/USB.c **** ****************************************************************************//**
 709:.\Generated_Source\PSoC5/USB.c **** *
 710:.\Generated_Source\PSoC5/USB.c **** *  This function shuts down the USB function including to release
 711:.\Generated_Source\PSoC5/USB.c **** *  the D+ pull-up and disabling the SIE.
 712:.\Generated_Source\PSoC5/USB.c **** *
 713:.\Generated_Source\PSoC5/USB.c **** * \globalvars
 714:.\Generated_Source\PSoC5/USB.c **** *   \ref USB_configuration
 715:.\Generated_Source\PSoC5/USB.c **** *
 716:.\Generated_Source\PSoC5/USB.c **** *   USB_deviceAddress - Contains the current device address. This
ARM GAS  C:\Users\LUKASC~1\AppData\Local\Temp\ccLhh5pu.s 			page 23


 717:.\Generated_Source\PSoC5/USB.c **** *       variable is initialized to zero in this API. The Host starts to communicate
 718:.\Generated_Source\PSoC5/USB.c **** *      to the device with address 0 and then sets it to a whatever value using
 719:.\Generated_Source\PSoC5/USB.c **** *      a SET_ADDRESS request.
 720:.\Generated_Source\PSoC5/USB.c **** *
 721:.\Generated_Source\PSoC5/USB.c **** *   \ref USB_deviceStatus
 722:.\Generated_Source\PSoC5/USB.c **** *
 723:.\Generated_Source\PSoC5/USB.c **** *   \ref USB_configurationChanged
 724:.\Generated_Source\PSoC5/USB.c **** *
 725:.\Generated_Source\PSoC5/USB.c **** *   USB_intiVar -  This variable is set to zero
 726:.\Generated_Source\PSoC5/USB.c **** *
 727:.\Generated_Source\PSoC5/USB.c **** *******************************************************************************/
 728:.\Generated_Source\PSoC5/USB.c **** void USB_Stop(void) 
 729:.\Generated_Source\PSoC5/USB.c **** {
 539              		.loc 1 729 0
 540              		.cfi_startproc
 541              		@ args = 0, pretend = 0, frame = 8
 542              		@ frame_needed = 1, uses_anonymous_args = 0
 543 0000 80B5     		push	{r7, lr}
 544              		.cfi_def_cfa_offset 8
 545              		.cfi_offset 7, -8
 546              		.cfi_offset 14, -4
 547 0002 82B0     		sub	sp, sp, #8
 548              		.cfi_def_cfa_offset 16
 549 0004 00AF     		add	r7, sp, #0
 550              		.cfi_def_cfa_register 7
 730:.\Generated_Source\PSoC5/USB.c ****     uint8 enableInterrupts;
 731:.\Generated_Source\PSoC5/USB.c **** 
 732:.\Generated_Source\PSoC5/USB.c **** #if (USB_EP_MANAGEMENT_DMA)
 733:.\Generated_Source\PSoC5/USB.c ****     /* Stop all DMA channels. */
 734:.\Generated_Source\PSoC5/USB.c ****     USB_Stop_DMA(USB_MAX_EP);
 735:.\Generated_Source\PSoC5/USB.c **** #endif /* (USB_EP_MANAGEMENT_DMA) */
 736:.\Generated_Source\PSoC5/USB.c **** 
 737:.\Generated_Source\PSoC5/USB.c ****     enableInterrupts = CyEnterCriticalSection();
 551              		.loc 1 737 0
 552 0006 FFF7FEFF 		bl	CyEnterCriticalSection
 553 000a 0346     		mov	r3, r0
 554 000c FB71     		strb	r3, [r7, #7]
 738:.\Generated_Source\PSoC5/USB.c **** 
 739:.\Generated_Source\PSoC5/USB.c ****     /* Disable USB IP to respond to USB traffic. */
 740:.\Generated_Source\PSoC5/USB.c ****     USB_CR0_REG &= (uint8) ~USB_CR0_ENABLE;
 555              		.loc 1 740 0
 556 000e 254A     		ldr	r2, .L20
 557 0010 244B     		ldr	r3, .L20
 558 0012 1B78     		ldrb	r3, [r3]
 559 0014 DBB2     		uxtb	r3, r3
 560 0016 03F07F03 		and	r3, r3, #127
 561 001a DBB2     		uxtb	r3, r3
 562 001c 1370     		strb	r3, [r2]
 741:.\Generated_Source\PSoC5/USB.c **** 
 742:.\Generated_Source\PSoC5/USB.c ****     /* Disable D+ pull-up. */
 743:.\Generated_Source\PSoC5/USB.c ****     USB_USBIO_CR1_REG &= (uint8) ~ USB_USBIO_CR1_USBPUEN;
 563              		.loc 1 743 0
 564 001e 224A     		ldr	r2, .L20+4
 565 0020 214B     		ldr	r3, .L20+4
 566 0022 1B78     		ldrb	r3, [r3]
 567 0024 DBB2     		uxtb	r3, r3
 568 0026 23F00403 		bic	r3, r3, #4
ARM GAS  C:\Users\LUKASC~1\AppData\Local\Temp\ccLhh5pu.s 			page 24


 569 002a DBB2     		uxtb	r3, r3
 570 002c 1370     		strb	r3, [r2]
 744:.\Generated_Source\PSoC5/USB.c **** 
 745:.\Generated_Source\PSoC5/USB.c **** #if (CY_PSOC4)
 746:.\Generated_Source\PSoC5/USB.c ****     /* Disable USBFS block. */
 747:.\Generated_Source\PSoC5/USB.c ****     USB_POWER_CTRL_REG &= (uint32) ~USB_POWER_CTRL_ENABLE;
 748:.\Generated_Source\PSoC5/USB.c **** #else
 749:.\Generated_Source\PSoC5/USB.c ****     /* Clear power active and standby mode templates. */
 750:.\Generated_Source\PSoC5/USB.c ****     USB_PM_ACT_CFG_REG  &= (uint8) ~USB_PM_ACT_EN_FSUSB;
 571              		.loc 1 750 0
 572 002e 1F4A     		ldr	r2, .L20+8
 573 0030 1E4B     		ldr	r3, .L20+8
 574 0032 1B78     		ldrb	r3, [r3]
 575 0034 DBB2     		uxtb	r3, r3
 576 0036 23F00103 		bic	r3, r3, #1
 577 003a DBB2     		uxtb	r3, r3
 578 003c 1370     		strb	r3, [r2]
 751:.\Generated_Source\PSoC5/USB.c ****     USB_PM_STBY_CFG_REG &= (uint8) ~USB_PM_STBY_EN_FSUSB;
 579              		.loc 1 751 0
 580 003e 1C4A     		ldr	r2, .L20+12
 581 0040 1B4B     		ldr	r3, .L20+12
 582 0042 1B78     		ldrb	r3, [r3]
 583 0044 DBB2     		uxtb	r3, r3
 584 0046 23F00103 		bic	r3, r3, #1
 585 004a DBB2     		uxtb	r3, r3
 586 004c 1370     		strb	r3, [r2]
 752:.\Generated_Source\PSoC5/USB.c **** #endif /* (CY_PSOC4) */
 753:.\Generated_Source\PSoC5/USB.c **** 
 754:.\Generated_Source\PSoC5/USB.c ****     CyExitCriticalSection(enableInterrupts);
 587              		.loc 1 754 0
 588 004e FB79     		ldrb	r3, [r7, #7]	@ zero_extendqisi2
 589 0050 1846     		mov	r0, r3
 590 0052 FFF7FEFF 		bl	CyExitCriticalSection
 755:.\Generated_Source\PSoC5/USB.c **** 
 756:.\Generated_Source\PSoC5/USB.c ****     /* Disable component interrupts. */
 757:.\Generated_Source\PSoC5/USB.c **** #if (CY_PSOC4)
 758:.\Generated_Source\PSoC5/USB.c ****     CyIntDisable(USB_INTR_HI_VECT_NUM);
 759:.\Generated_Source\PSoC5/USB.c ****     CyIntDisable(USB_INTR_LO_VECT_NUM);
 760:.\Generated_Source\PSoC5/USB.c ****     CyIntDisable(USB_INTR_MED_VECT_NUM);
 761:.\Generated_Source\PSoC5/USB.c **** #else
 762:.\Generated_Source\PSoC5/USB.c **** 
 763:.\Generated_Source\PSoC5/USB.c ****     CyIntDisable(USB_BUS_RESET_VECT_NUM);
 591              		.loc 1 763 0
 592 0056 174B     		ldr	r3, .L20+16
 593 0058 4FF40002 		mov	r2, #8388608
 594 005c 1A60     		str	r2, [r3]
 764:.\Generated_Source\PSoC5/USB.c ****     CyIntDisable(USB_EP_0_VECT_NUM);
 595              		.loc 1 764 0
 596 005e 154B     		ldr	r3, .L20+16
 597 0060 4FF08072 		mov	r2, #16777216
 598 0064 1A60     		str	r2, [r3]
 765:.\Generated_Source\PSoC5/USB.c **** 
 766:.\Generated_Source\PSoC5/USB.c ****     #if (USB_SOF_ISR_ACTIVE)
 767:.\Generated_Source\PSoC5/USB.c ****         CyIntDisable(USB_SOF_VECT_NUM);
 599              		.loc 1 767 0
 600 0066 134B     		ldr	r3, .L20+16
 601 0068 4FF40012 		mov	r2, #2097152
ARM GAS  C:\Users\LUKASC~1\AppData\Local\Temp\ccLhh5pu.s 			page 25


 602 006c 1A60     		str	r2, [r3]
 768:.\Generated_Source\PSoC5/USB.c ****     #endif /* (USB_SOF_ISR_ACTIVE) */
 769:.\Generated_Source\PSoC5/USB.c **** 
 770:.\Generated_Source\PSoC5/USB.c ****     #if (USB_EP1_ISR_ACTIVE)
 771:.\Generated_Source\PSoC5/USB.c ****         CyIntDisable(USB_EP_1_VECT_NUM);
 603              		.loc 1 771 0
 604 006e 114B     		ldr	r3, .L20+16
 605 0070 2022     		movs	r2, #32
 606 0072 1A60     		str	r2, [r3]
 772:.\Generated_Source\PSoC5/USB.c ****     #endif /* (USB_EP1_ISR_ACTIVE) */
 773:.\Generated_Source\PSoC5/USB.c **** 
 774:.\Generated_Source\PSoC5/USB.c ****     #if (USB_EP2_ISR_ACTIVE)
 775:.\Generated_Source\PSoC5/USB.c ****         CyIntDisable(USB_EP_2_VECT_NUM);
 607              		.loc 1 775 0
 608 0074 0F4B     		ldr	r3, .L20+16
 609 0076 4022     		movs	r2, #64
 610 0078 1A60     		str	r2, [r3]
 776:.\Generated_Source\PSoC5/USB.c ****     #endif /* (USB_EP2_ISR_ACTIVE) */
 777:.\Generated_Source\PSoC5/USB.c **** 
 778:.\Generated_Source\PSoC5/USB.c ****     #if (USB_EP3_ISR_ACTIVE)
 779:.\Generated_Source\PSoC5/USB.c ****         CyIntDisable(USB_EP_3_VECT_NUM);
 780:.\Generated_Source\PSoC5/USB.c ****     #endif /* (USB_EP3_ISR_ACTIVE) */
 781:.\Generated_Source\PSoC5/USB.c **** 
 782:.\Generated_Source\PSoC5/USB.c ****     #if (USB_EP4_ISR_ACTIVE)
 783:.\Generated_Source\PSoC5/USB.c ****         CyIntDisable(USB_EP_4_VECT_NUM);
 784:.\Generated_Source\PSoC5/USB.c ****     #endif /* (USB_EP4_ISR_ACTIVE) */
 785:.\Generated_Source\PSoC5/USB.c **** 
 786:.\Generated_Source\PSoC5/USB.c ****     #if (USB_EP5_ISR_ACTIVE)
 787:.\Generated_Source\PSoC5/USB.c ****         CyIntDisable(USB_EP_5_VECT_NUM);
 788:.\Generated_Source\PSoC5/USB.c ****     #endif /* (USB_EP5_ISR_ACTIVE) */
 789:.\Generated_Source\PSoC5/USB.c **** 
 790:.\Generated_Source\PSoC5/USB.c ****     #if (USB_EP6_ISR_ACTIVE)
 791:.\Generated_Source\PSoC5/USB.c ****         CyIntDisable(USB_EP_6_VECT_NUM);
 792:.\Generated_Source\PSoC5/USB.c ****     #endif /* USB_EP6_ISR_REMOVE */
 793:.\Generated_Source\PSoC5/USB.c **** 
 794:.\Generated_Source\PSoC5/USB.c ****     #if (USB_EP7_ISR_ACTIVE)
 795:.\Generated_Source\PSoC5/USB.c ****         CyIntDisable(USB_EP_7_VECT_NUM);
 796:.\Generated_Source\PSoC5/USB.c ****     #endif /* (USB_EP7_ISR_ACTIVE) */
 797:.\Generated_Source\PSoC5/USB.c **** 
 798:.\Generated_Source\PSoC5/USB.c ****     #if (USB_EP8_ISR_ACTIVE)
 799:.\Generated_Source\PSoC5/USB.c ****         CyIntDisable(USB_EP_8_VECT_NUM);
 800:.\Generated_Source\PSoC5/USB.c ****     #endif /* (USB_EP8_ISR_ACTIVE) */
 801:.\Generated_Source\PSoC5/USB.c **** #endif /* (CY_PSOC4) */
 802:.\Generated_Source\PSoC5/USB.c **** 
 803:.\Generated_Source\PSoC5/USB.c ****     /* Reset component internal variables. */
 804:.\Generated_Source\PSoC5/USB.c ****     USB_configurationChanged = 0u;
 611              		.loc 1 804 0
 612 007a 0F4B     		ldr	r3, .L20+20
 613 007c 0022     		movs	r2, #0
 614 007e 1A70     		strb	r2, [r3]
 805:.\Generated_Source\PSoC5/USB.c ****     USB_configuration   = 0u;
 615              		.loc 1 805 0
 616 0080 0E4B     		ldr	r3, .L20+24
 617 0082 0022     		movs	r2, #0
 618 0084 1A70     		strb	r2, [r3]
 806:.\Generated_Source\PSoC5/USB.c ****     USB_interfaceNumber = 0u;
 619              		.loc 1 806 0
ARM GAS  C:\Users\LUKASC~1\AppData\Local\Temp\ccLhh5pu.s 			page 26


 620 0086 0E4B     		ldr	r3, .L20+28
 621 0088 0022     		movs	r2, #0
 622 008a 1A70     		strb	r2, [r3]
 807:.\Generated_Source\PSoC5/USB.c ****     USB_deviceAddress   = 0u;
 623              		.loc 1 807 0
 624 008c 0D4B     		ldr	r3, .L20+32
 625 008e 0022     		movs	r2, #0
 626 0090 1A70     		strb	r2, [r3]
 808:.\Generated_Source\PSoC5/USB.c ****     USB_deviceStatus    = 0u;
 627              		.loc 1 808 0
 628 0092 0D4B     		ldr	r3, .L20+36
 629 0094 0022     		movs	r2, #0
 630 0096 1A70     		strb	r2, [r3]
 809:.\Generated_Source\PSoC5/USB.c **** 
 810:.\Generated_Source\PSoC5/USB.c ****     /* It is mandatory for correct device startup. */
 811:.\Generated_Source\PSoC5/USB.c ****     USB_initVar = 0u;
 631              		.loc 1 811 0
 632 0098 0C4B     		ldr	r3, .L20+40
 633 009a 0022     		movs	r2, #0
 634 009c 1A70     		strb	r2, [r3]
 812:.\Generated_Source\PSoC5/USB.c **** }
 635              		.loc 1 812 0
 636 009e 0837     		adds	r7, r7, #8
 637              		.cfi_def_cfa_offset 8
 638 00a0 BD46     		mov	sp, r7
 639              		.cfi_def_cfa_register 13
 640              		@ sp needed
 641 00a2 80BD     		pop	{r7, pc}
 642              	.L21:
 643              		.align	2
 644              	.L20:
 645 00a4 08600040 		.word	1073766408
 646 00a8 12600040 		.word	1073766418
 647 00ac A5430040 		.word	1073759141
 648 00b0 B5430040 		.word	1073759157
 649 00b4 80E100E0 		.word	-536813184
 650 00b8 00000000 		.word	USB_configurationChanged
 651 00bc 00000000 		.word	USB_configuration
 652 00c0 00000000 		.word	USB_interfaceNumber
 653 00c4 00000000 		.word	USB_deviceAddress
 654 00c8 00000000 		.word	USB_deviceStatus
 655 00cc 00000000 		.word	USB_initVar
 656              		.cfi_endproc
 657              	.LFE4:
 658              		.size	USB_Stop, .-USB_Stop
 659              		.section	.text.USB_CheckActivity,"ax",%progbits
 660              		.align	2
 661              		.global	USB_CheckActivity
 662              		.thumb
 663              		.thumb_func
 664              		.type	USB_CheckActivity, %function
 665              	USB_CheckActivity:
 666              	.LFB5:
 813:.\Generated_Source\PSoC5/USB.c **** 
 814:.\Generated_Source\PSoC5/USB.c **** 
 815:.\Generated_Source\PSoC5/USB.c **** /*******************************************************************************
 816:.\Generated_Source\PSoC5/USB.c **** * Function Name: USB_CheckActivity
ARM GAS  C:\Users\LUKASC~1\AppData\Local\Temp\ccLhh5pu.s 			page 27


 817:.\Generated_Source\PSoC5/USB.c **** ****************************************************************************//**
 818:.\Generated_Source\PSoC5/USB.c **** *
 819:.\Generated_Source\PSoC5/USB.c **** *  This function returns the activity status of the bus. It clears the hardware
 820:.\Generated_Source\PSoC5/USB.c **** *  status to provide updated status on the next call of this function. It
 821:.\Generated_Source\PSoC5/USB.c **** *  provides a way to determine whether any USB bus activity occurred. The
 822:.\Generated_Source\PSoC5/USB.c **** *  application should use this function to determine if the USB suspend
 823:.\Generated_Source\PSoC5/USB.c **** *  conditions are met.
 824:.\Generated_Source\PSoC5/USB.c **** *
 825:.\Generated_Source\PSoC5/USB.c **** *
 826:.\Generated_Source\PSoC5/USB.c **** * \return
 827:.\Generated_Source\PSoC5/USB.c **** *  cystatus: Status of the bus since the last call of the function.
 828:.\Generated_Source\PSoC5/USB.c **** *  Return Value |   Description
 829:.\Generated_Source\PSoC5/USB.c **** *  -------------|---------------------------------------------------------------
 830:.\Generated_Source\PSoC5/USB.c **** *  1            |Bus activity was detected since the last call to this function
 831:.\Generated_Source\PSoC5/USB.c **** *  0            |Bus activity was not detected since the last call to this function
 832:.\Generated_Source\PSoC5/USB.c **** *
 833:.\Generated_Source\PSoC5/USB.c **** *
 834:.\Generated_Source\PSoC5/USB.c **** *******************************************************************************/
 835:.\Generated_Source\PSoC5/USB.c **** uint8 USB_CheckActivity(void) 
 836:.\Generated_Source\PSoC5/USB.c **** {
 667              		.loc 1 836 0
 668              		.cfi_startproc
 669              		@ args = 0, pretend = 0, frame = 8
 670              		@ frame_needed = 1, uses_anonymous_args = 0
 671              		@ link register save eliminated.
 672 0000 80B4     		push	{r7}
 673              		.cfi_def_cfa_offset 4
 674              		.cfi_offset 7, -4
 675 0002 83B0     		sub	sp, sp, #12
 676              		.cfi_def_cfa_offset 16
 677 0004 00AF     		add	r7, sp, #0
 678              		.cfi_def_cfa_register 7
 837:.\Generated_Source\PSoC5/USB.c ****     uint8 cr1Reg = USB_CR1_REG;
 679              		.loc 1 837 0
 680 0006 0B4B     		ldr	r3, .L26
 681 0008 1B78     		ldrb	r3, [r3]
 682 000a FB71     		strb	r3, [r7, #7]
 838:.\Generated_Source\PSoC5/USB.c **** 
 839:.\Generated_Source\PSoC5/USB.c ****     /* Clear bus activity. */
 840:.\Generated_Source\PSoC5/USB.c ****     USB_CR1_REG = (cr1Reg & (uint8) ~USB_CR1_BUS_ACTIVITY);
 683              		.loc 1 840 0
 684 000c 094A     		ldr	r2, .L26
 685 000e FB79     		ldrb	r3, [r7, #7]
 686 0010 23F00403 		bic	r3, r3, #4
 687 0014 DBB2     		uxtb	r3, r3
 688 0016 1370     		strb	r3, [r2]
 841:.\Generated_Source\PSoC5/USB.c **** 
 842:.\Generated_Source\PSoC5/USB.c ****     /* Get bus activity. */
 843:.\Generated_Source\PSoC5/USB.c ****     return ((0u != (cr1Reg & USB_CR1_BUS_ACTIVITY)) ? (1u) : (0u));
 689              		.loc 1 843 0
 690 0018 FB79     		ldrb	r3, [r7, #7]	@ zero_extendqisi2
 691 001a 03F00403 		and	r3, r3, #4
 692 001e 002B     		cmp	r3, #0
 693 0020 01D0     		beq	.L23
 694              		.loc 1 843 0 is_stmt 0 discriminator 1
 695 0022 0123     		movs	r3, #1
 696 0024 00E0     		b	.L24
ARM GAS  C:\Users\LUKASC~1\AppData\Local\Temp\ccLhh5pu.s 			page 28


 697              	.L23:
 698              		.loc 1 843 0 discriminator 2
 699 0026 0023     		movs	r3, #0
 700              	.L24:
 844:.\Generated_Source\PSoC5/USB.c **** }
 701              		.loc 1 844 0 is_stmt 1 discriminator 4
 702 0028 1846     		mov	r0, r3
 703 002a 0C37     		adds	r7, r7, #12
 704              		.cfi_def_cfa_offset 4
 705 002c BD46     		mov	sp, r7
 706              		.cfi_def_cfa_register 13
 707              		@ sp needed
 708 002e 5DF8047B 		ldr	r7, [sp], #4
 709              		.cfi_restore 7
 710              		.cfi_def_cfa_offset 0
 711 0032 7047     		bx	lr
 712              	.L27:
 713              		.align	2
 714              	.L26:
 715 0034 09600040 		.word	1073766409
 716              		.cfi_endproc
 717              	.LFE5:
 718              		.size	USB_CheckActivity, .-USB_CheckActivity
 719              		.section	.text.USB_GetConfiguration,"ax",%progbits
 720              		.align	2
 721              		.global	USB_GetConfiguration
 722              		.thumb
 723              		.thumb_func
 724              		.type	USB_GetConfiguration, %function
 725              	USB_GetConfiguration:
 726              	.LFB6:
 845:.\Generated_Source\PSoC5/USB.c **** 
 846:.\Generated_Source\PSoC5/USB.c **** 
 847:.\Generated_Source\PSoC5/USB.c **** /*******************************************************************************
 848:.\Generated_Source\PSoC5/USB.c **** * Function Name: USB_GetConfiguration
 849:.\Generated_Source\PSoC5/USB.c **** ****************************************************************************//**
 850:.\Generated_Source\PSoC5/USB.c **** *
 851:.\Generated_Source\PSoC5/USB.c **** *  This function gets the current configuration of the USB device.
 852:.\Generated_Source\PSoC5/USB.c **** *
 853:.\Generated_Source\PSoC5/USB.c **** * \return
 854:.\Generated_Source\PSoC5/USB.c **** *  Returns the currently assigned configuration. Returns 0 if the device
 855:.\Generated_Source\PSoC5/USB.c **** *  is not configured
 856:.\Generated_Source\PSoC5/USB.c **** *
 857:.\Generated_Source\PSoC5/USB.c **** *******************************************************************************/
 858:.\Generated_Source\PSoC5/USB.c **** uint8 USB_GetConfiguration(void) 
 859:.\Generated_Source\PSoC5/USB.c **** {
 727              		.loc 1 859 0
 728              		.cfi_startproc
 729              		@ args = 0, pretend = 0, frame = 0
 730              		@ frame_needed = 1, uses_anonymous_args = 0
 731              		@ link register save eliminated.
 732 0000 80B4     		push	{r7}
 733              		.cfi_def_cfa_offset 4
 734              		.cfi_offset 7, -4
 735 0002 00AF     		add	r7, sp, #0
 736              		.cfi_def_cfa_register 7
 860:.\Generated_Source\PSoC5/USB.c ****     return (USB_configuration);
ARM GAS  C:\Users\LUKASC~1\AppData\Local\Temp\ccLhh5pu.s 			page 29


 737              		.loc 1 860 0
 738 0004 034B     		ldr	r3, .L30
 739 0006 1B78     		ldrb	r3, [r3]
 740 0008 DBB2     		uxtb	r3, r3
 861:.\Generated_Source\PSoC5/USB.c **** }
 741              		.loc 1 861 0
 742 000a 1846     		mov	r0, r3
 743 000c BD46     		mov	sp, r7
 744              		.cfi_def_cfa_register 13
 745              		@ sp needed
 746 000e 5DF8047B 		ldr	r7, [sp], #4
 747              		.cfi_restore 7
 748              		.cfi_def_cfa_offset 0
 749 0012 7047     		bx	lr
 750              	.L31:
 751              		.align	2
 752              	.L30:
 753 0014 00000000 		.word	USB_configuration
 754              		.cfi_endproc
 755              	.LFE6:
 756              		.size	USB_GetConfiguration, .-USB_GetConfiguration
 757              		.section	.text.USB_IsConfigurationChanged,"ax",%progbits
 758              		.align	2
 759              		.global	USB_IsConfigurationChanged
 760              		.thumb
 761              		.thumb_func
 762              		.type	USB_IsConfigurationChanged, %function
 763              	USB_IsConfigurationChanged:
 764              	.LFB7:
 862:.\Generated_Source\PSoC5/USB.c **** 
 863:.\Generated_Source\PSoC5/USB.c **** 
 864:.\Generated_Source\PSoC5/USB.c **** /*******************************************************************************
 865:.\Generated_Source\PSoC5/USB.c **** * Function Name: USB_IsConfigurationChanged
 866:.\Generated_Source\PSoC5/USB.c **** ****************************************************************************//**
 867:.\Generated_Source\PSoC5/USB.c **** *
 868:.\Generated_Source\PSoC5/USB.c **** *  This function returns the clear-on-read configuration state.  It is useful
 869:.\Generated_Source\PSoC5/USB.c **** *  when the host sends double SET_CONFIGURATION request with the same 
 870:.\Generated_Source\PSoC5/USB.c **** *  configuration number or changes alternate settings of the interface. 
 871:.\Generated_Source\PSoC5/USB.c **** *  After configuration has been changed the OUT endpoints must be enabled and IN 
 872:.\Generated_Source\PSoC5/USB.c **** *  endpoint must be loaded with data to start communication with the host.
 873:.\Generated_Source\PSoC5/USB.c **** *
 874:.\Generated_Source\PSoC5/USB.c **** * \return
 875:.\Generated_Source\PSoC5/USB.c **** *  None-zero value when new configuration has been changed, otherwise zero is
 876:.\Generated_Source\PSoC5/USB.c **** *  returned.
 877:.\Generated_Source\PSoC5/USB.c **** *
 878:.\Generated_Source\PSoC5/USB.c **** * \globalvars
 879:.\Generated_Source\PSoC5/USB.c **** *
 880:.\Generated_Source\PSoC5/USB.c **** *  \ref USB_configurationChanged - This variable is set to 1 after
 881:.\Generated_Source\PSoC5/USB.c **** *   a SET_CONFIGURATION request and cleared in this function.
 882:.\Generated_Source\PSoC5/USB.c **** *
 883:.\Generated_Source\PSoC5/USB.c **** *******************************************************************************/
 884:.\Generated_Source\PSoC5/USB.c **** uint8 USB_IsConfigurationChanged(void) 
 885:.\Generated_Source\PSoC5/USB.c **** {
 765              		.loc 1 885 0
 766              		.cfi_startproc
 767              		@ args = 0, pretend = 0, frame = 8
 768              		@ frame_needed = 1, uses_anonymous_args = 0
ARM GAS  C:\Users\LUKASC~1\AppData\Local\Temp\ccLhh5pu.s 			page 30


 769              		@ link register save eliminated.
 770 0000 80B4     		push	{r7}
 771              		.cfi_def_cfa_offset 4
 772              		.cfi_offset 7, -4
 773 0002 83B0     		sub	sp, sp, #12
 774              		.cfi_def_cfa_offset 16
 775 0004 00AF     		add	r7, sp, #0
 776              		.cfi_def_cfa_register 7
 886:.\Generated_Source\PSoC5/USB.c ****     uint8 res = 0u;
 777              		.loc 1 886 0
 778 0006 0023     		movs	r3, #0
 779 0008 FB71     		strb	r3, [r7, #7]
 887:.\Generated_Source\PSoC5/USB.c **** 
 888:.\Generated_Source\PSoC5/USB.c ****     if (USB_configurationChanged != 0u)
 780              		.loc 1 888 0
 781 000a 094B     		ldr	r3, .L35
 782 000c 1B78     		ldrb	r3, [r3]
 783 000e DBB2     		uxtb	r3, r3
 784 0010 002B     		cmp	r3, #0
 785 0012 05D0     		beq	.L33
 889:.\Generated_Source\PSoC5/USB.c ****     {
 890:.\Generated_Source\PSoC5/USB.c ****         res = USB_configurationChanged;
 786              		.loc 1 890 0
 787 0014 064B     		ldr	r3, .L35
 788 0016 1B78     		ldrb	r3, [r3]
 789 0018 FB71     		strb	r3, [r7, #7]
 891:.\Generated_Source\PSoC5/USB.c ****         USB_configurationChanged = 0u;
 790              		.loc 1 891 0
 791 001a 054B     		ldr	r3, .L35
 792 001c 0022     		movs	r2, #0
 793 001e 1A70     		strb	r2, [r3]
 794              	.L33:
 892:.\Generated_Source\PSoC5/USB.c ****     }
 893:.\Generated_Source\PSoC5/USB.c **** 
 894:.\Generated_Source\PSoC5/USB.c ****     return (res);
 795              		.loc 1 894 0
 796 0020 FB79     		ldrb	r3, [r7, #7]	@ zero_extendqisi2
 895:.\Generated_Source\PSoC5/USB.c **** }
 797              		.loc 1 895 0
 798 0022 1846     		mov	r0, r3
 799 0024 0C37     		adds	r7, r7, #12
 800              		.cfi_def_cfa_offset 4
 801 0026 BD46     		mov	sp, r7
 802              		.cfi_def_cfa_register 13
 803              		@ sp needed
 804 0028 5DF8047B 		ldr	r7, [sp], #4
 805              		.cfi_restore 7
 806              		.cfi_def_cfa_offset 0
 807 002c 7047     		bx	lr
 808              	.L36:
 809 002e 00BF     		.align	2
 810              	.L35:
 811 0030 00000000 		.word	USB_configurationChanged
 812              		.cfi_endproc
 813              	.LFE7:
 814              		.size	USB_IsConfigurationChanged, .-USB_IsConfigurationChanged
 815              		.section	.text.USB_GetInterfaceSetting,"ax",%progbits
ARM GAS  C:\Users\LUKASC~1\AppData\Local\Temp\ccLhh5pu.s 			page 31


 816              		.align	2
 817              		.global	USB_GetInterfaceSetting
 818              		.thumb
 819              		.thumb_func
 820              		.type	USB_GetInterfaceSetting, %function
 821              	USB_GetInterfaceSetting:
 822              	.LFB8:
 896:.\Generated_Source\PSoC5/USB.c **** 
 897:.\Generated_Source\PSoC5/USB.c **** 
 898:.\Generated_Source\PSoC5/USB.c **** /*******************************************************************************
 899:.\Generated_Source\PSoC5/USB.c **** * Function Name: USB_GetInterfaceSetting
 900:.\Generated_Source\PSoC5/USB.c **** ****************************************************************************//**
 901:.\Generated_Source\PSoC5/USB.c **** *
 902:.\Generated_Source\PSoC5/USB.c **** *  This function gets the current alternate setting for the specified interface.
 903:.\Generated_Source\PSoC5/USB.c **** *  It is useful to identify which alternate settings are active in the specified 
 904:.\Generated_Source\PSoC5/USB.c **** *  interface.
 905:.\Generated_Source\PSoC5/USB.c **** *
 906:.\Generated_Source\PSoC5/USB.c **** *  \param
 907:.\Generated_Source\PSoC5/USB.c **** *  interfaceNumber interface number
 908:.\Generated_Source\PSoC5/USB.c **** *
 909:.\Generated_Source\PSoC5/USB.c **** * \return
 910:.\Generated_Source\PSoC5/USB.c **** *  Returns the current alternate setting for the specified interface.
 911:.\Generated_Source\PSoC5/USB.c **** *
 912:.\Generated_Source\PSoC5/USB.c **** *******************************************************************************/
 913:.\Generated_Source\PSoC5/USB.c **** uint8  USB_GetInterfaceSetting(uint8 interfaceNumber)
 914:.\Generated_Source\PSoC5/USB.c ****                                                     
 915:.\Generated_Source\PSoC5/USB.c **** {
 823              		.loc 1 915 0
 824              		.cfi_startproc
 825              		@ args = 0, pretend = 0, frame = 8
 826              		@ frame_needed = 1, uses_anonymous_args = 0
 827              		@ link register save eliminated.
 828 0000 80B4     		push	{r7}
 829              		.cfi_def_cfa_offset 4
 830              		.cfi_offset 7, -4
 831 0002 83B0     		sub	sp, sp, #12
 832              		.cfi_def_cfa_offset 16
 833 0004 00AF     		add	r7, sp, #0
 834              		.cfi_def_cfa_register 7
 835 0006 0346     		mov	r3, r0
 836 0008 FB71     		strb	r3, [r7, #7]
 916:.\Generated_Source\PSoC5/USB.c ****     return (USB_interfaceSetting[interfaceNumber]);
 837              		.loc 1 916 0
 838 000a FB79     		ldrb	r3, [r7, #7]	@ zero_extendqisi2
 839 000c 044A     		ldr	r2, .L39
 840 000e D35C     		ldrb	r3, [r2, r3]
 841 0010 DBB2     		uxtb	r3, r3
 917:.\Generated_Source\PSoC5/USB.c **** }
 842              		.loc 1 917 0
 843 0012 1846     		mov	r0, r3
 844 0014 0C37     		adds	r7, r7, #12
 845              		.cfi_def_cfa_offset 4
 846 0016 BD46     		mov	sp, r7
 847              		.cfi_def_cfa_register 13
 848              		@ sp needed
 849 0018 5DF8047B 		ldr	r7, [sp], #4
 850              		.cfi_restore 7
ARM GAS  C:\Users\LUKASC~1\AppData\Local\Temp\ccLhh5pu.s 			page 32


 851              		.cfi_def_cfa_offset 0
 852 001c 7047     		bx	lr
 853              	.L40:
 854 001e 00BF     		.align	2
 855              	.L39:
 856 0020 00000000 		.word	USB_interfaceSetting
 857              		.cfi_endproc
 858              	.LFE8:
 859              		.size	USB_GetInterfaceSetting, .-USB_GetInterfaceSetting
 860              		.section	.text.USB_GetEPState,"ax",%progbits
 861              		.align	2
 862              		.global	USB_GetEPState
 863              		.thumb
 864              		.thumb_func
 865              		.type	USB_GetEPState, %function
 866              	USB_GetEPState:
 867              	.LFB9:
 918:.\Generated_Source\PSoC5/USB.c **** 
 919:.\Generated_Source\PSoC5/USB.c **** 
 920:.\Generated_Source\PSoC5/USB.c **** /*******************************************************************************
 921:.\Generated_Source\PSoC5/USB.c **** * Function Name: USB_GetEPState
 922:.\Generated_Source\PSoC5/USB.c **** ****************************************************************************//**
 923:.\Generated_Source\PSoC5/USB.c **** *
 924:.\Generated_Source\PSoC5/USB.c **** *  This function returns the state of the requested endpoint.
 925:.\Generated_Source\PSoC5/USB.c **** *
 926:.\Generated_Source\PSoC5/USB.c **** * \param epNumber Data endpoint number
 927:.\Generated_Source\PSoC5/USB.c **** *
 928:.\Generated_Source\PSoC5/USB.c **** * \return
 929:.\Generated_Source\PSoC5/USB.c **** *  Returns the current state of the specified USBFS endpoint. Symbolic names and
 930:.\Generated_Source\PSoC5/USB.c **** *  their associated values are given in the following table. Use these constants
 931:.\Generated_Source\PSoC5/USB.c **** *  whenever you write code to change the state of the endpoints, such as ISR
 932:.\Generated_Source\PSoC5/USB.c **** *  code, to handle data sent or received.
 933:.\Generated_Source\PSoC5/USB.c **** *
 934:.\Generated_Source\PSoC5/USB.c **** *  Return Value           | Description
 935:.\Generated_Source\PSoC5/USB.c **** *  -----------------------|-----------------------------------------------------
 936:.\Generated_Source\PSoC5/USB.c **** *  USBFS_NO_EVENT_PENDING |The endpoint is awaiting SIE action
 937:.\Generated_Source\PSoC5/USB.c **** *  USBFS_EVENT_PENDING    |The endpoint is awaiting CPU action
 938:.\Generated_Source\PSoC5/USB.c **** *  USBFS_NO_EVENT_ALLOWED |The endpoint is locked from access
 939:.\Generated_Source\PSoC5/USB.c **** *  USBFS_IN_BUFFER_FULL   |The IN endpoint is loaded and the mode is set to ACK IN
 940:.\Generated_Source\PSoC5/USB.c **** *  USBFS_IN_BUFFER_EMPTY  |An IN transaction occurred and more data can be loaded
 941:.\Generated_Source\PSoC5/USB.c **** *  USBFS_OUT_BUFFER_EMPTY |The OUT endpoint is set to ACK OUT and is waiting for data
 942:.\Generated_Source\PSoC5/USB.c **** *  USBFS_OUT_BUFFER_FULL  |An OUT transaction has occurred and data can be read
 943:.\Generated_Source\PSoC5/USB.c **** *
 944:.\Generated_Source\PSoC5/USB.c **** *******************************************************************************/
 945:.\Generated_Source\PSoC5/USB.c **** uint8 USB_GetEPState(uint8 epNumber) 
 946:.\Generated_Source\PSoC5/USB.c **** {
 868              		.loc 1 946 0
 869              		.cfi_startproc
 870              		@ args = 0, pretend = 0, frame = 8
 871              		@ frame_needed = 1, uses_anonymous_args = 0
 872              		@ link register save eliminated.
 873 0000 80B4     		push	{r7}
 874              		.cfi_def_cfa_offset 4
 875              		.cfi_offset 7, -4
 876 0002 83B0     		sub	sp, sp, #12
 877              		.cfi_def_cfa_offset 16
 878 0004 00AF     		add	r7, sp, #0
ARM GAS  C:\Users\LUKASC~1\AppData\Local\Temp\ccLhh5pu.s 			page 33


 879              		.cfi_def_cfa_register 7
 880 0006 0346     		mov	r3, r0
 881 0008 FB71     		strb	r3, [r7, #7]
 947:.\Generated_Source\PSoC5/USB.c ****     return (USB_EP[epNumber].apiEpState);
 882              		.loc 1 947 0
 883 000a FA79     		ldrb	r2, [r7, #7]	@ zero_extendqisi2
 884 000c 0649     		ldr	r1, .L43
 885 000e 1346     		mov	r3, r2
 886 0010 5B00     		lsls	r3, r3, #1
 887 0012 1344     		add	r3, r3, r2
 888 0014 9B00     		lsls	r3, r3, #2
 889 0016 0B44     		add	r3, r3, r1
 890 0018 5B78     		ldrb	r3, [r3, #1]
 891 001a DBB2     		uxtb	r3, r3
 948:.\Generated_Source\PSoC5/USB.c **** }
 892              		.loc 1 948 0
 893 001c 1846     		mov	r0, r3
 894 001e 0C37     		adds	r7, r7, #12
 895              		.cfi_def_cfa_offset 4
 896 0020 BD46     		mov	sp, r7
 897              		.cfi_def_cfa_register 13
 898              		@ sp needed
 899 0022 5DF8047B 		ldr	r7, [sp], #4
 900              		.cfi_restore 7
 901              		.cfi_def_cfa_offset 0
 902 0026 7047     		bx	lr
 903              	.L44:
 904              		.align	2
 905              	.L43:
 906 0028 00000000 		.word	USB_EP
 907              		.cfi_endproc
 908              	.LFE9:
 909              		.size	USB_GetEPState, .-USB_GetEPState
 910              		.section	.text.USB_GetEPCount,"ax",%progbits
 911              		.align	2
 912              		.global	USB_GetEPCount
 913              		.thumb
 914              		.thumb_func
 915              		.type	USB_GetEPCount, %function
 916              	USB_GetEPCount:
 917              	.LFB10:
 949:.\Generated_Source\PSoC5/USB.c **** 
 950:.\Generated_Source\PSoC5/USB.c **** 
 951:.\Generated_Source\PSoC5/USB.c **** /*******************************************************************************
 952:.\Generated_Source\PSoC5/USB.c **** * Function Name: USB_GetEPCount
 953:.\Generated_Source\PSoC5/USB.c **** ****************************************************************************//**
 954:.\Generated_Source\PSoC5/USB.c **** *
 955:.\Generated_Source\PSoC5/USB.c **** *  This function supports Data Endpoints only(EP1-EP8).
 956:.\Generated_Source\PSoC5/USB.c **** *  Returns the transfer count for the requested endpoint.  The value from
 957:.\Generated_Source\PSoC5/USB.c **** *  the count registers includes 2 counts for the two byte checksum of the
 958:.\Generated_Source\PSoC5/USB.c **** *  packet.  This function subtracts the two counts.
 959:.\Generated_Source\PSoC5/USB.c **** *
 960:.\Generated_Source\PSoC5/USB.c **** *  \param epNumber Data Endpoint Number.
 961:.\Generated_Source\PSoC5/USB.c **** *                   Valid values are between 1 and 8.
 962:.\Generated_Source\PSoC5/USB.c **** *
 963:.\Generated_Source\PSoC5/USB.c **** * \return
 964:.\Generated_Source\PSoC5/USB.c **** *  Returns the current byte count from the specified endpoint or 0 for an
ARM GAS  C:\Users\LUKASC~1\AppData\Local\Temp\ccLhh5pu.s 			page 34


 965:.\Generated_Source\PSoC5/USB.c **** *  invalid endpoint.
 966:.\Generated_Source\PSoC5/USB.c **** *
 967:.\Generated_Source\PSoC5/USB.c **** *******************************************************************************/
 968:.\Generated_Source\PSoC5/USB.c **** uint16 USB_GetEPCount(uint8 epNumber) 
 969:.\Generated_Source\PSoC5/USB.c **** {
 918              		.loc 1 969 0
 919              		.cfi_startproc
 920              		@ args = 0, pretend = 0, frame = 16
 921              		@ frame_needed = 1, uses_anonymous_args = 0
 922              		@ link register save eliminated.
 923 0000 80B4     		push	{r7}
 924              		.cfi_def_cfa_offset 4
 925              		.cfi_offset 7, -4
 926 0002 85B0     		sub	sp, sp, #20
 927              		.cfi_def_cfa_offset 24
 928 0004 00AF     		add	r7, sp, #0
 929              		.cfi_def_cfa_register 7
 930 0006 0346     		mov	r3, r0
 931 0008 FB71     		strb	r3, [r7, #7]
 970:.\Generated_Source\PSoC5/USB.c ****     uint16 cntr = 0u;
 932              		.loc 1 970 0
 933 000a 0023     		movs	r3, #0
 934 000c FB81     		strh	r3, [r7, #14]	@ movhi
 971:.\Generated_Source\PSoC5/USB.c **** 
 972:.\Generated_Source\PSoC5/USB.c ****     if ((epNumber > USB_EP0) && (epNumber < USB_MAX_EP))
 935              		.loc 1 972 0
 936 000e FB79     		ldrb	r3, [r7, #7]	@ zero_extendqisi2
 937 0010 002B     		cmp	r3, #0
 938 0012 1BD0     		beq	.L46
 939              		.loc 1 972 0 is_stmt 0 discriminator 1
 940 0014 FB79     		ldrb	r3, [r7, #7]	@ zero_extendqisi2
 941 0016 082B     		cmp	r3, #8
 942 0018 18D8     		bhi	.L46
 973:.\Generated_Source\PSoC5/USB.c ****     {
 974:.\Generated_Source\PSoC5/USB.c ****         /* Get 11-bits EP counter where epCnt0 - 3 bits MSB and epCnt1 - 8 bits LSB. */
 975:.\Generated_Source\PSoC5/USB.c ****         cntr  = ((uint16) USB_SIE_EP_BASE.sieEp[epNumber].epCnt0) & USB_EPX_CNT0_MASK;
 943              		.loc 1 975 0 is_stmt 1
 944 001a 104A     		ldr	r2, .L48
 945 001c FB79     		ldrb	r3, [r7, #7]	@ zero_extendqisi2
 946 001e 1B01     		lsls	r3, r3, #4
 947 0020 1344     		add	r3, r3, r2
 948 0022 1B78     		ldrb	r3, [r3]
 949 0024 DBB2     		uxtb	r3, r3
 950 0026 9BB2     		uxth	r3, r3
 951 0028 03F00F03 		and	r3, r3, #15
 952 002c FB81     		strh	r3, [r7, #14]	@ movhi
 976:.\Generated_Source\PSoC5/USB.c ****         cntr  = ((uint16) (cntr << 8u)) | ((uint16) USB_SIE_EP_BASE.sieEp[epNumber].epCnt1);
 953              		.loc 1 976 0
 954 002e FB89     		ldrh	r3, [r7, #14]	@ movhi
 955 0030 1B02     		lsls	r3, r3, #8
 956 0032 9AB2     		uxth	r2, r3
 957 0034 0949     		ldr	r1, .L48
 958 0036 FB79     		ldrb	r3, [r7, #7]	@ zero_extendqisi2
 959 0038 1B01     		lsls	r3, r3, #4
 960 003a 0B44     		add	r3, r3, r1
 961 003c 5B78     		ldrb	r3, [r3, #1]
 962 003e DBB2     		uxtb	r3, r3
ARM GAS  C:\Users\LUKASC~1\AppData\Local\Temp\ccLhh5pu.s 			page 35


 963 0040 9BB2     		uxth	r3, r3
 964 0042 1343     		orrs	r3, r3, r2
 965 0044 FB81     		strh	r3, [r7, #14]	@ movhi
 977:.\Generated_Source\PSoC5/USB.c ****         cntr -= USB_EPX_CNTX_CRC_COUNT;
 966              		.loc 1 977 0
 967 0046 FB89     		ldrh	r3, [r7, #14]	@ movhi
 968 0048 023B     		subs	r3, r3, #2
 969 004a FB81     		strh	r3, [r7, #14]	@ movhi
 970              	.L46:
 978:.\Generated_Source\PSoC5/USB.c ****     }
 979:.\Generated_Source\PSoC5/USB.c **** 
 980:.\Generated_Source\PSoC5/USB.c ****     return (cntr);
 971              		.loc 1 980 0
 972 004c FB89     		ldrh	r3, [r7, #14]
 981:.\Generated_Source\PSoC5/USB.c **** }
 973              		.loc 1 981 0
 974 004e 1846     		mov	r0, r3
 975 0050 1437     		adds	r7, r7, #20
 976              		.cfi_def_cfa_offset 4
 977 0052 BD46     		mov	sp, r7
 978              		.cfi_def_cfa_register 13
 979              		@ sp needed
 980 0054 5DF8047B 		ldr	r7, [sp], #4
 981              		.cfi_restore 7
 982              		.cfi_def_cfa_offset 0
 983 0058 7047     		bx	lr
 984              	.L49:
 985 005a 00BF     		.align	2
 986              	.L48:
 987 005c FC5F0040 		.word	1073766396
 988              		.cfi_endproc
 989              	.LFE10:
 990              		.size	USB_GetEPCount, .-USB_GetEPCount
 991              		.section	.text.USB_LoadInEP,"ax",%progbits
 992              		.align	2
 993              		.global	USB_LoadInEP
 994              		.thumb
 995              		.thumb_func
 996              		.type	USB_LoadInEP, %function
 997              	USB_LoadInEP:
 998              	.LFB11:
 982:.\Generated_Source\PSoC5/USB.c **** 
 983:.\Generated_Source\PSoC5/USB.c **** 
 984:.\Generated_Source\PSoC5/USB.c **** #if (USB_EP_MANAGEMENT_DMA)
 985:.\Generated_Source\PSoC5/USB.c **** #if (CY_PSOC4)
 986:.\Generated_Source\PSoC5/USB.c ****     /*******************************************************************************
 987:.\Generated_Source\PSoC5/USB.c ****     * Function Name: USB_InitEpDma
 988:.\Generated_Source\PSoC5/USB.c ****     ****************************************************************************//**
 989:.\Generated_Source\PSoC5/USB.c ****     *
 990:.\Generated_Source\PSoC5/USB.c ****     *  This function configures priority for all DMA channels utilized by the
 991:.\Generated_Source\PSoC5/USB.c ****     *  component. Also sets callbacks for DMA auto mode.
 992:.\Generated_Source\PSoC5/USB.c ****     *
 993:.\Generated_Source\PSoC5/USB.c ****     *******************************************************************************/
 994:.\Generated_Source\PSoC5/USB.c ****     static void USB_InitEpDma(void)
 995:.\Generated_Source\PSoC5/USB.c ****     {
 996:.\Generated_Source\PSoC5/USB.c ****     #if (USB_DMA1_ACTIVE)
 997:.\Generated_Source\PSoC5/USB.c ****         CYDMA_CH_CTL_BASE.ctl[USB_ep1_dma_CHANNEL] = USB_ep1_dma_CHANNEL_CFG;
ARM GAS  C:\Users\LUKASC~1\AppData\Local\Temp\ccLhh5pu.s 			page 36


 998:.\Generated_Source\PSoC5/USB.c ****     #endif /* (USB_DMA1_ACTIVE) */
 999:.\Generated_Source\PSoC5/USB.c **** 
1000:.\Generated_Source\PSoC5/USB.c ****     #if (USB_DMA2_ACTIVE)
1001:.\Generated_Source\PSoC5/USB.c ****         CYDMA_CH_CTL_BASE.ctl[USB_ep2_dma_CHANNEL] = USB_ep2_dma_CHANNEL_CFG;
1002:.\Generated_Source\PSoC5/USB.c ****     #endif /* (USB_DMA2_ACTIVE) */
1003:.\Generated_Source\PSoC5/USB.c **** 
1004:.\Generated_Source\PSoC5/USB.c ****     #if (USB_DMA3_ACTIVE)
1005:.\Generated_Source\PSoC5/USB.c ****         CYDMA_CH_CTL_BASE.ctl[USB_ep3_dma_CHANNEL] = USB_ep3_dma_CHANNEL_CFG;
1006:.\Generated_Source\PSoC5/USB.c ****     #endif /* (USB_DMA3_ACTIVE) */
1007:.\Generated_Source\PSoC5/USB.c **** 
1008:.\Generated_Source\PSoC5/USB.c ****     #if (USB_DMA4_ACTIVE)
1009:.\Generated_Source\PSoC5/USB.c ****         CYDMA_CH_CTL_BASE.ctl[USB_ep4_dma_CHANNEL] = USB_ep4_dma_CHANNEL_CFG;
1010:.\Generated_Source\PSoC5/USB.c ****     #endif /* (USB_DMA4_ACTIVE) */
1011:.\Generated_Source\PSoC5/USB.c **** 
1012:.\Generated_Source\PSoC5/USB.c ****     #if (USB_DMA5_ACTIVE)
1013:.\Generated_Source\PSoC5/USB.c ****         CYDMA_CH_CTL_BASE.ctl[USB_ep5_dma_CHANNEL] = USB_ep5_dma_CHANNEL_CFG;
1014:.\Generated_Source\PSoC5/USB.c ****     #endif /* (USB_DMA5_ACTIVE) */
1015:.\Generated_Source\PSoC5/USB.c **** 
1016:.\Generated_Source\PSoC5/USB.c ****     #if (USB_DMA6_ACTIVE)
1017:.\Generated_Source\PSoC5/USB.c ****         CYDMA_CH_CTL_BASE.ctl[USB_ep6_dma_CHANNEL] = USB_ep6_dma_CHANNEL_CFG;
1018:.\Generated_Source\PSoC5/USB.c ****     #endif /* (USB_DMA6_ACTIVE) */
1019:.\Generated_Source\PSoC5/USB.c **** 
1020:.\Generated_Source\PSoC5/USB.c ****     #if (USB_DMA7_ACTIVE)
1021:.\Generated_Source\PSoC5/USB.c ****         CYDMA_CH_CTL_BASE.ctl[USB_ep7_dma_CHANNEL] = USB_ep7_dma_CHANNEL_CFG;
1022:.\Generated_Source\PSoC5/USB.c ****     #endif /* (USB_DMA7_ACTIVE) */
1023:.\Generated_Source\PSoC5/USB.c **** 
1024:.\Generated_Source\PSoC5/USB.c ****     #if (USB_DMA8_ACTIVE)
1025:.\Generated_Source\PSoC5/USB.c ****         CYDMA_CH_CTL_BASE.ctl[USB_ep8_dma_CHANNEL] = USB_ep8_dma_CHANNEL_CFG;
1026:.\Generated_Source\PSoC5/USB.c ****     #endif /* (USB_DMA8_ACTIVE) */
1027:.\Generated_Source\PSoC5/USB.c **** 
1028:.\Generated_Source\PSoC5/USB.c ****     #if (USB_EP_MANAGEMENT_DMA_AUTO)
1029:.\Generated_Source\PSoC5/USB.c ****         /* Initialize DMA channel callbacks. */
1030:.\Generated_Source\PSoC5/USB.c ****         #if (USB_DMA1_ACTIVE)
1031:.\Generated_Source\PSoC5/USB.c ****             (void) USB_ep1_dma_SetInterruptCallback(&USB_EP1_DMA_DONE_ISR);
1032:.\Generated_Source\PSoC5/USB.c ****         #endif /* (USB_DMA1_ACTIVE) */
1033:.\Generated_Source\PSoC5/USB.c **** 
1034:.\Generated_Source\PSoC5/USB.c ****         #if (USB_DMA2_ACTIVE)
1035:.\Generated_Source\PSoC5/USB.c ****             (void) USB_ep2_dma_SetInterruptCallback(&USB_EP2_DMA_DONE_ISR);
1036:.\Generated_Source\PSoC5/USB.c ****         #endif /* (USB_DMA2_ACTIVE) */
1037:.\Generated_Source\PSoC5/USB.c **** 
1038:.\Generated_Source\PSoC5/USB.c ****         #if (USB_DMA3_ACTIVE)
1039:.\Generated_Source\PSoC5/USB.c ****             (void) USB_ep3_dma_SetInterruptCallback(&USB_EP3_DMA_DONE_ISR);
1040:.\Generated_Source\PSoC5/USB.c ****         #endif /* (USB_DMA3_ACTIVE) */
1041:.\Generated_Source\PSoC5/USB.c **** 
1042:.\Generated_Source\PSoC5/USB.c ****         #if (USB_DMA4_ACTIVE)
1043:.\Generated_Source\PSoC5/USB.c ****             (void) USB_ep4_dma_SetInterruptCallback(&USB_EP4_DMA_DONE_ISR);
1044:.\Generated_Source\PSoC5/USB.c ****         #endif /* (USB_DMA4_ACTIVE) */
1045:.\Generated_Source\PSoC5/USB.c **** 
1046:.\Generated_Source\PSoC5/USB.c ****         #if (USB_DMA5_ACTIVE)
1047:.\Generated_Source\PSoC5/USB.c ****             (void) USB_ep5_dma_SetInterruptCallback(&USB_EP5_DMA_DONE_ISR);
1048:.\Generated_Source\PSoC5/USB.c ****         #endif /* (USB_DMA5_ACTIVE) */
1049:.\Generated_Source\PSoC5/USB.c **** 
1050:.\Generated_Source\PSoC5/USB.c ****         #if (USB_DMA6_ACTIVE)
1051:.\Generated_Source\PSoC5/USB.c ****             (void) USB_ep6_dma_SetInterruptCallback(&USB_EP6_DMA_DONE_ISR);
1052:.\Generated_Source\PSoC5/USB.c ****         #endif /* (USB_DMA6_ACTIVE) */
1053:.\Generated_Source\PSoC5/USB.c **** 
1054:.\Generated_Source\PSoC5/USB.c ****         #if (USB_DMA7_ACTIVE)
ARM GAS  C:\Users\LUKASC~1\AppData\Local\Temp\ccLhh5pu.s 			page 37


1055:.\Generated_Source\PSoC5/USB.c ****             (void) USB_ep7_dma_SetInterruptCallback(&USB_EP7_DMA_DONE_ISR);
1056:.\Generated_Source\PSoC5/USB.c ****         #endif /* (USB_DMA7_ACTIVE) */
1057:.\Generated_Source\PSoC5/USB.c **** 
1058:.\Generated_Source\PSoC5/USB.c ****         #if (USB_DMA8_ACTIVE)
1059:.\Generated_Source\PSoC5/USB.c ****             (void) USB_ep8_dma_SetInterruptCallback(&USB_EP8_DMA_DONE_ISR);
1060:.\Generated_Source\PSoC5/USB.c ****         #endif /* (USB_DMA8_ACTIVE) */
1061:.\Generated_Source\PSoC5/USB.c ****     #endif /* (USB_EP_MANAGEMENT_DMA_AUTO) */
1062:.\Generated_Source\PSoC5/USB.c ****     }
1063:.\Generated_Source\PSoC5/USB.c **** #else
1064:.\Generated_Source\PSoC5/USB.c **** 
1065:.\Generated_Source\PSoC5/USB.c **** 
1066:.\Generated_Source\PSoC5/USB.c ****     /***************************************************************************
1067:.\Generated_Source\PSoC5/USB.c ****     * Function Name: USB_InitEP_DMA
1068:.\Generated_Source\PSoC5/USB.c ****     ************************************************************************//**
1069:.\Generated_Source\PSoC5/USB.c ****     *
1070:.\Generated_Source\PSoC5/USB.c ****     *  This function allocates and initializes a DMA channel to be used by the
1071:.\Generated_Source\PSoC5/USB.c ****     *  USB_LoadInEP() or USB_ReadOutEP() APIs for data
1072:.\Generated_Source\PSoC5/USB.c ****     *  transfer. It is available when the Endpoint Memory Management parameter
1073:.\Generated_Source\PSoC5/USB.c ****     *  is set to DMA.
1074:.\Generated_Source\PSoC5/USB.c ****     *
1075:.\Generated_Source\PSoC5/USB.c ****     *  This function is automatically called from the USBFS_LoadInEP() and USBFS_ReadOutEP() APIs.
1076:.\Generated_Source\PSoC5/USB.c ****     *
1077:.\Generated_Source\PSoC5/USB.c ****     *  \param epNumber Contains the data endpoint number.
1078:.\Generated_Source\PSoC5/USB.c ****     *            Valid values are between 1 and 8.
1079:.\Generated_Source\PSoC5/USB.c ****     *  \param *pData Pointer to a data array that is related to the EP transfers.
1080:.\Generated_Source\PSoC5/USB.c ****     *
1081:.\Generated_Source\PSoC5/USB.c ****     * \reentrant No.
1082:.\Generated_Source\PSoC5/USB.c ****     *
1083:.\Generated_Source\PSoC5/USB.c ****     ***************************************************************************/
1084:.\Generated_Source\PSoC5/USB.c ****     void USB_InitEP_DMA(uint8 epNumber, const uint8 *pData)
1085:.\Generated_Source\PSoC5/USB.c ****                                                                     
1086:.\Generated_Source\PSoC5/USB.c ****     {
1087:.\Generated_Source\PSoC5/USB.c ****         uint16 src;
1088:.\Generated_Source\PSoC5/USB.c ****         uint16 dst;
1089:.\Generated_Source\PSoC5/USB.c **** 
1090:.\Generated_Source\PSoC5/USB.c ****     #if (CY_PSOC3)
1091:.\Generated_Source\PSoC5/USB.c ****         src = HI16(CYDEV_SRAM_BASE);
1092:.\Generated_Source\PSoC5/USB.c ****         dst = HI16(CYDEV_PERIPH_BASE);
1093:.\Generated_Source\PSoC5/USB.c ****         pData = pData;
1094:.\Generated_Source\PSoC5/USB.c ****     #else
1095:.\Generated_Source\PSoC5/USB.c ****         if ((USB_EP[epNumber].addr & USB_DIR_IN) != 0u)
1096:.\Generated_Source\PSoC5/USB.c ****         {
1097:.\Generated_Source\PSoC5/USB.c ****             /* IN endpoint: source is memory buffer. */
1098:.\Generated_Source\PSoC5/USB.c ****             src = HI16(pData);
1099:.\Generated_Source\PSoC5/USB.c ****             dst = HI16(CYDEV_PERIPH_BASE);
1100:.\Generated_Source\PSoC5/USB.c ****         }
1101:.\Generated_Source\PSoC5/USB.c ****         else
1102:.\Generated_Source\PSoC5/USB.c ****         {
1103:.\Generated_Source\PSoC5/USB.c ****             /* OUT endpoint: source is USB IP memory buffer. */
1104:.\Generated_Source\PSoC5/USB.c ****             src = HI16(CYDEV_PERIPH_BASE);
1105:.\Generated_Source\PSoC5/USB.c ****             dst = HI16(pData);
1106:.\Generated_Source\PSoC5/USB.c ****         }
1107:.\Generated_Source\PSoC5/USB.c ****     #endif  /* (CY_PSOC3) */
1108:.\Generated_Source\PSoC5/USB.c **** 
1109:.\Generated_Source\PSoC5/USB.c ****         switch(epNumber)
1110:.\Generated_Source\PSoC5/USB.c ****         {
1111:.\Generated_Source\PSoC5/USB.c ****     #if (USB_DMA1_ACTIVE)
ARM GAS  C:\Users\LUKASC~1\AppData\Local\Temp\ccLhh5pu.s 			page 38


1112:.\Generated_Source\PSoC5/USB.c ****         case USB_EP1:
1113:.\Generated_Source\PSoC5/USB.c ****             USB_DmaChan[epNumber] = USB_ep1_DmaInitialize(USB_DMA_BYTES_PER_BURST,
1114:.\Generated_Source\PSoC5/USB.c ****                                                                                     USB_DMA_REQUEST
1115:.\Generated_Source\PSoC5/USB.c ****             break;
1116:.\Generated_Source\PSoC5/USB.c ****     #endif /* (USB_DMA1_ACTIVE) */
1117:.\Generated_Source\PSoC5/USB.c **** 
1118:.\Generated_Source\PSoC5/USB.c ****     #if (USB_DMA2_ACTIVE)
1119:.\Generated_Source\PSoC5/USB.c ****         case USB_EP2:
1120:.\Generated_Source\PSoC5/USB.c ****             USB_DmaChan[epNumber] = USB_ep2_DmaInitialize(USB_DMA_BYTES_PER_BURST,
1121:.\Generated_Source\PSoC5/USB.c ****                                                                                     USB_DMA_REQUEST
1122:.\Generated_Source\PSoC5/USB.c ****             break;
1123:.\Generated_Source\PSoC5/USB.c ****     #endif /* (USB_DMA2_ACTIVE) */
1124:.\Generated_Source\PSoC5/USB.c **** 
1125:.\Generated_Source\PSoC5/USB.c ****     #if (USB_DMA3_ACTIVE)
1126:.\Generated_Source\PSoC5/USB.c ****             case USB_EP3:
1127:.\Generated_Source\PSoC5/USB.c ****                 USB_DmaChan[epNumber] = USB_ep3_DmaInitialize(USB_DMA_BYTES_PER_BURST,
1128:.\Generated_Source\PSoC5/USB.c ****                                                                                         USB_DMA_REQ
1129:.\Generated_Source\PSoC5/USB.c ****             break;
1130:.\Generated_Source\PSoC5/USB.c ****     #endif /* (USB_DMA3_ACTIVE) */
1131:.\Generated_Source\PSoC5/USB.c **** 
1132:.\Generated_Source\PSoC5/USB.c ****     #if (USB_DMA4_ACTIVE)
1133:.\Generated_Source\PSoC5/USB.c ****             case USB_EP4:
1134:.\Generated_Source\PSoC5/USB.c ****                 USB_DmaChan[epNumber] = USB_ep4_DmaInitialize(USB_DMA_BYTES_PER_BURST,
1135:.\Generated_Source\PSoC5/USB.c ****                                                                                         USB_DMA_REQ
1136:.\Generated_Source\PSoC5/USB.c ****             break;
1137:.\Generated_Source\PSoC5/USB.c ****     #endif /* (USB_DMA4_ACTIVE) */
1138:.\Generated_Source\PSoC5/USB.c **** 
1139:.\Generated_Source\PSoC5/USB.c ****     #if (USB_DMA5_ACTIVE)
1140:.\Generated_Source\PSoC5/USB.c ****             case USB_EP5:
1141:.\Generated_Source\PSoC5/USB.c ****                 USB_DmaChan[epNumber] = USB_ep5_DmaInitialize(USB_DMA_BYTES_PER_BURST,
1142:.\Generated_Source\PSoC5/USB.c ****                                                                                         USB_DMA_REQ
1143:.\Generated_Source\PSoC5/USB.c ****             break;
1144:.\Generated_Source\PSoC5/USB.c ****     #endif /* (USB_DMA5_ACTIVE) */
1145:.\Generated_Source\PSoC5/USB.c **** 
1146:.\Generated_Source\PSoC5/USB.c ****     #if (USB_DMA6_ACTIVE)
1147:.\Generated_Source\PSoC5/USB.c ****         case USB_EP6:
1148:.\Generated_Source\PSoC5/USB.c ****             USB_DmaChan[epNumber] = USB_ep6_DmaInitialize(USB_DMA_BYTES_PER_BURST,
1149:.\Generated_Source\PSoC5/USB.c ****                                                                                     USB_DMA_REQUEST
1150:.\Generated_Source\PSoC5/USB.c ****             break;
1151:.\Generated_Source\PSoC5/USB.c ****     #endif /* (USB_DMA6_ACTIVE) */
1152:.\Generated_Source\PSoC5/USB.c **** 
1153:.\Generated_Source\PSoC5/USB.c ****     #if (USB_DMA7_ACTIVE)
1154:.\Generated_Source\PSoC5/USB.c ****         case USB_EP7:
1155:.\Generated_Source\PSoC5/USB.c ****                 USB_DmaChan[epNumber] = USB_ep7_DmaInitialize(USB_DMA_BYTES_PER_BURST,
1156:.\Generated_Source\PSoC5/USB.c ****                                                                                         USB_DMA_REQ
1157:.\Generated_Source\PSoC5/USB.c ****             break;
1158:.\Generated_Source\PSoC5/USB.c ****     #endif /* (USB_DMA7_ACTIVE) */
1159:.\Generated_Source\PSoC5/USB.c **** 
1160:.\Generated_Source\PSoC5/USB.c ****     #if (USB_DMA8_ACTIVE)
1161:.\Generated_Source\PSoC5/USB.c ****         case USB_EP8:
1162:.\Generated_Source\PSoC5/USB.c ****                 USB_DmaChan[epNumber] = USB_ep8_DmaInitialize(USB_DMA_BYTES_PER_BURST,
1163:.\Generated_Source\PSoC5/USB.c ****                                                                                         USB_DMA_REQ
1164:.\Generated_Source\PSoC5/USB.c ****             break;
1165:.\Generated_Source\PSoC5/USB.c ****     #endif /* (USB_DMA8_ACTIVE) */
1166:.\Generated_Source\PSoC5/USB.c **** 
1167:.\Generated_Source\PSoC5/USB.c ****         default:
1168:.\Generated_Source\PSoC5/USB.c ****             /* Do nothing for endpoints other than 1-8. */
ARM GAS  C:\Users\LUKASC~1\AppData\Local\Temp\ccLhh5pu.s 			page 39


1169:.\Generated_Source\PSoC5/USB.c ****             break;
1170:.\Generated_Source\PSoC5/USB.c ****         }
1171:.\Generated_Source\PSoC5/USB.c **** 
1172:.\Generated_Source\PSoC5/USB.c ****         if ((epNumber > USB_EP0) && (epNumber < USB_MAX_EP))
1173:.\Generated_Source\PSoC5/USB.c ****         {
1174:.\Generated_Source\PSoC5/USB.c ****             USB_DmaTd[epNumber] = CyDmaTdAllocate();
1175:.\Generated_Source\PSoC5/USB.c **** 
1176:.\Generated_Source\PSoC5/USB.c ****         #if (USB_EP_MANAGEMENT_DMA_AUTO && (USB_EP_DMA_AUTO_OPT == 0u))
1177:.\Generated_Source\PSoC5/USB.c ****             USB_DmaNextTd[epNumber] = CyDmaTdAllocate();
1178:.\Generated_Source\PSoC5/USB.c ****         #endif /* (USB_EP_MANAGEMENT_DMA_AUTO && (USB_EP_DMA_AUTO_OPT == 0u)) */
1179:.\Generated_Source\PSoC5/USB.c ****         }
1180:.\Generated_Source\PSoC5/USB.c ****     }
1181:.\Generated_Source\PSoC5/USB.c **** #endif /* (CY_PSOC4) */
1182:.\Generated_Source\PSoC5/USB.c **** 
1183:.\Generated_Source\PSoC5/USB.c ****     /***************************************************************************
1184:.\Generated_Source\PSoC5/USB.c ****     * Function Name: USB_Stop_DMA
1185:.\Generated_Source\PSoC5/USB.c ****     ************************************************************************//**
1186:.\Generated_Source\PSoC5/USB.c ****     *  
1187:.\Generated_Source\PSoC5/USB.c ****     *  This function stops DMA channel associated with endpoint. It is available 
1188:.\Generated_Source\PSoC5/USB.c ****     *  when the Endpoint Buffer Management parameter is set to DMA. Call this 
1189:.\Generated_Source\PSoC5/USB.c ****     *  function when endpoint direction is changed from IN to OUT or vice versa 
1190:.\Generated_Source\PSoC5/USB.c ****     *  to trigger DMA re-configuration when USB_LoadInEP() or 
1191:.\Generated_Source\PSoC5/USB.c ****     *  USB_ReadOutEP() functions are called the first time. 
1192:.\Generated_Source\PSoC5/USB.c ****     *  
1193:.\Generated_Source\PSoC5/USB.c ****     *  \param epNumber: The data endpoint number for which associated DMA 
1194:.\Generated_Source\PSoC5/USB.c ****     *  channel is stopped. The range of valid values is between 1 and 8. To stop 
1195:.\Generated_Source\PSoC5/USB.c ****     *  all DMAs associated with endpoints call this function with 
1196:.\Generated_Source\PSoC5/USB.c ****     *  USB_MAX_EP argument.
1197:.\Generated_Source\PSoC5/USB.c ****     *
1198:.\Generated_Source\PSoC5/USB.c ****     * \reentrant
1199:.\Generated_Source\PSoC5/USB.c ****     *  No.
1200:.\Generated_Source\PSoC5/USB.c ****     *
1201:.\Generated_Source\PSoC5/USB.c ****     ***************************************************************************/
1202:.\Generated_Source\PSoC5/USB.c ****     void USB_Stop_DMA(uint8 epNumber) 
1203:.\Generated_Source\PSoC5/USB.c ****     {
1204:.\Generated_Source\PSoC5/USB.c ****         uint8 i;
1205:.\Generated_Source\PSoC5/USB.c **** 
1206:.\Generated_Source\PSoC5/USB.c ****         i = (epNumber < USB_MAX_EP) ? epNumber : USB_EP1;
1207:.\Generated_Source\PSoC5/USB.c **** 
1208:.\Generated_Source\PSoC5/USB.c ****         do
1209:.\Generated_Source\PSoC5/USB.c ****         {
1210:.\Generated_Source\PSoC5/USB.c ****         #if (CY_PSOC4)
1211:.\Generated_Source\PSoC5/USB.c ****             if (0u != USB_DmaChan[i])
1212:.\Generated_Source\PSoC5/USB.c ****             {
1213:.\Generated_Source\PSoC5/USB.c ****                 USB_CyDmaChDisable(USB_DmaChan[i]);
1214:.\Generated_Source\PSoC5/USB.c ****             }
1215:.\Generated_Source\PSoC5/USB.c ****         #else
1216:.\Generated_Source\PSoC5/USB.c ****             if(USB_DmaTd[i] != DMA_INVALID_TD)
1217:.\Generated_Source\PSoC5/USB.c ****             {
1218:.\Generated_Source\PSoC5/USB.c ****                 (void) CyDmaChDisable(USB_DmaChan[i]);
1219:.\Generated_Source\PSoC5/USB.c ****                 CyDmaTdFree(USB_DmaTd[i]);
1220:.\Generated_Source\PSoC5/USB.c ****                 USB_DmaTd[i] = DMA_INVALID_TD;
1221:.\Generated_Source\PSoC5/USB.c ****             }
1222:.\Generated_Source\PSoC5/USB.c **** 
1223:.\Generated_Source\PSoC5/USB.c ****             #if (USB_EP_MANAGEMENT_DMA_AUTO && (USB_EP_DMA_AUTO_OPT == 0u))
1224:.\Generated_Source\PSoC5/USB.c ****                 if(USB_DmaNextTd[i] != DMA_INVALID_TD)
1225:.\Generated_Source\PSoC5/USB.c ****                 {
ARM GAS  C:\Users\LUKASC~1\AppData\Local\Temp\ccLhh5pu.s 			page 40


1226:.\Generated_Source\PSoC5/USB.c ****                     CyDmaTdFree(USB_DmaNextTd[i]);
1227:.\Generated_Source\PSoC5/USB.c ****                     USB_DmaNextTd[i] = DMA_INVALID_TD;
1228:.\Generated_Source\PSoC5/USB.c ****                 }
1229:.\Generated_Source\PSoC5/USB.c ****             #endif /* (USB_EP_MANAGEMENT_DMA_AUTO && (USB_EP_DMA_AUTO_OPT == 0u)) */
1230:.\Generated_Source\PSoC5/USB.c **** 
1231:.\Generated_Source\PSoC5/USB.c ****         #endif /* (CY_PSOC4) */
1232:.\Generated_Source\PSoC5/USB.c ****             i++;
1233:.\Generated_Source\PSoC5/USB.c ****         }
1234:.\Generated_Source\PSoC5/USB.c ****         while ((i < USB_MAX_EP) && (epNumber == USB_MAX_EP));
1235:.\Generated_Source\PSoC5/USB.c ****     }
1236:.\Generated_Source\PSoC5/USB.c **** #endif /* (USB_EP_MANAGEMENT_DMA) */
1237:.\Generated_Source\PSoC5/USB.c **** 
1238:.\Generated_Source\PSoC5/USB.c **** 
1239:.\Generated_Source\PSoC5/USB.c **** #if (CY_PSOC3 || CY_PSOC5)
1240:.\Generated_Source\PSoC5/USB.c **** #if (USB_EP_MANAGEMENT_DMA_AUTO && (USB_EP_DMA_AUTO_OPT == 0u))
1241:.\Generated_Source\PSoC5/USB.c ****     /***************************************************************************
1242:.\Generated_Source\PSoC5/USB.c ****     * Function Name: USB_LoadNextInEP
1243:.\Generated_Source\PSoC5/USB.c ****     ************************************************************************//**
1244:.\Generated_Source\PSoC5/USB.c ****     *
1245:.\Generated_Source\PSoC5/USB.c ****     * Summary:
1246:.\Generated_Source\PSoC5/USB.c ****     *  This internal function is used for IN endpoint DMA reconfiguration in
1247:.\Generated_Source\PSoC5/USB.c ****     *  Auto DMA mode.
1248:.\Generated_Source\PSoC5/USB.c ****     *
1249:.\Generated_Source\PSoC5/USB.c ****     * Parameters:
1250:.\Generated_Source\PSoC5/USB.c ****     *  epNumber: Contains the data endpoint number.
1251:.\Generated_Source\PSoC5/USB.c ****     *  mode:   0 - Configure DMA to send the the rest of data.
1252:.\Generated_Source\PSoC5/USB.c ****     *          1 - Configure DMA to repeat 2 last bytes of the first burst.
1253:.\Generated_Source\PSoC5/USB.c ****     *
1254:.\Generated_Source\PSoC5/USB.c ****     ***************************************************************************/
1255:.\Generated_Source\PSoC5/USB.c ****     void USB_LoadNextInEP(uint8 epNumber, uint8 mode) 
1256:.\Generated_Source\PSoC5/USB.c ****     {
1257:.\Generated_Source\PSoC5/USB.c ****         reg16 *convert;
1258:.\Generated_Source\PSoC5/USB.c **** 
1259:.\Generated_Source\PSoC5/USB.c ****         if (mode == 0u)
1260:.\Generated_Source\PSoC5/USB.c ****         {
1261:.\Generated_Source\PSoC5/USB.c ****             /* Configure DMA to send rest of data. */
1262:.\Generated_Source\PSoC5/USB.c ****             /* CyDmaTdSetConfiguration API is optimized to change transfer length only and configur
1263:.\Generated_Source\PSoC5/USB.c ****             convert = (reg16 *) &CY_DMA_TDMEM_STRUCT_PTR[USB_DmaTd[epNumber]].TD0[0u];
1264:.\Generated_Source\PSoC5/USB.c ****             /* Set transfer length. */
1265:.\Generated_Source\PSoC5/USB.c ****             CY_SET_REG16(convert, USB_inLength[epNumber] - USB_DMA_BYTES_PER_BURST);
1266:.\Generated_Source\PSoC5/USB.c ****             /* CyDmaTdSetAddress API is optimized to change source address only. */
1267:.\Generated_Source\PSoC5/USB.c ****             convert = (reg16 *) &CY_DMA_TDMEM_STRUCT_PTR[USB_DmaTd[epNumber]].TD1[0u];
1268:.\Generated_Source\PSoC5/USB.c ****             CY_SET_REG16(convert, LO16((uint32)USB_inDataPointer[epNumber] +
1269:.\Generated_Source\PSoC5/USB.c ****                                             USB_DMA_BYTES_PER_BURST));
1270:.\Generated_Source\PSoC5/USB.c ****             USB_inBufFull[epNumber] = 1u;
1271:.\Generated_Source\PSoC5/USB.c ****         }
1272:.\Generated_Source\PSoC5/USB.c ****         else
1273:.\Generated_Source\PSoC5/USB.c ****         {
1274:.\Generated_Source\PSoC5/USB.c ****             /* Configure DMA to repeat 2 last bytes of the first burst. */
1275:.\Generated_Source\PSoC5/USB.c ****             /* CyDmaTdSetConfiguration API is optimized to change transfer length only and configur
1276:.\Generated_Source\PSoC5/USB.c ****             convert = (reg16 *) &CY_DMA_TDMEM_STRUCT_PTR[USB_DmaTd[epNumber]].TD0[0u];
1277:.\Generated_Source\PSoC5/USB.c ****             /* Set transfer length. */
1278:.\Generated_Source\PSoC5/USB.c ****             CY_SET_REG16(convert, USB_DMA_BYTES_REPEAT);
1279:.\Generated_Source\PSoC5/USB.c ****             /* CyDmaTdSetAddress API is optimized to change source address only. */
1280:.\Generated_Source\PSoC5/USB.c ****             convert = (reg16 *) &CY_DMA_TDMEM_STRUCT_PTR[USB_DmaTd[epNumber]].TD1[0u];
1281:.\Generated_Source\PSoC5/USB.c ****             CY_SET_REG16(convert,  LO16((uint32)USB_inDataPointer[epNumber] +
1282:.\Generated_Source\PSoC5/USB.c ****                                    (USB_DMA_BYTES_PER_BURST - USB_DMA_BYTES_REPEAT)));
ARM GAS  C:\Users\LUKASC~1\AppData\Local\Temp\ccLhh5pu.s 			page 41


1283:.\Generated_Source\PSoC5/USB.c ****         }
1284:.\Generated_Source\PSoC5/USB.c **** 
1285:.\Generated_Source\PSoC5/USB.c ****         /* CyDmaChSetInitialTd API is optimized to initialize TD. */
1286:.\Generated_Source\PSoC5/USB.c ****         CY_DMA_CH_STRUCT_PTR[USB_DmaChan[epNumber]].basic_status[1u] = USB_DmaTd[epNumber];
1287:.\Generated_Source\PSoC5/USB.c ****     }
1288:.\Generated_Source\PSoC5/USB.c **** #endif /* (USB_EP_MANAGEMENT_DMA_AUTO && (USB_EP_DMA_AUTO_OPT == 0u)) */
1289:.\Generated_Source\PSoC5/USB.c **** #endif /* (CY_PSOC3 || CY_PSOC5) */
1290:.\Generated_Source\PSoC5/USB.c **** 
1291:.\Generated_Source\PSoC5/USB.c **** 
1292:.\Generated_Source\PSoC5/USB.c **** /*******************************************************************************
1293:.\Generated_Source\PSoC5/USB.c **** * Function Name: USB_LoadInEP
1294:.\Generated_Source\PSoC5/USB.c **** ****************************************************************************//**
1295:.\Generated_Source\PSoC5/USB.c **** *
1296:.\Generated_Source\PSoC5/USB.c **** *  This function performs different functionality depending on the Component’s
1297:.\Generated_Source\PSoC5/USB.c **** *  configured Endpoint Buffer Management. This parameter is defined in
1298:.\Generated_Source\PSoC5/USB.c **** *  the Descriptor Root in Component Configure window.
1299:.\Generated_Source\PSoC5/USB.c **** *
1300:.\Generated_Source\PSoC5/USB.c **** *  *Manual (Static/Dynamic Allocation):*
1301:.\Generated_Source\PSoC5/USB.c **** *  This function loads and enables the specified USB data endpoint for an IN
1302:.\Generated_Source\PSoC5/USB.c **** *  data transfer.
1303:.\Generated_Source\PSoC5/USB.c **** *
1304:.\Generated_Source\PSoC5/USB.c **** *  *DMA with Manual Buffer Management:*
1305:.\Generated_Source\PSoC5/USB.c **** *  Configures DMA for a data transfer from system RAM to endpoint buffer.
1306:.\Generated_Source\PSoC5/USB.c **** *  Generates request for a transfer.
1307:.\Generated_Source\PSoC5/USB.c **** *
1308:.\Generated_Source\PSoC5/USB.c **** *  *DMA with Automatic Buffer Management:*
1309:.\Generated_Source\PSoC5/USB.c **** *  Configures DMA. This is required only once, so it is done only when parameter
1310:.\Generated_Source\PSoC5/USB.c **** *  pData is not NULL. When the pData pointer is NULL, the function skips this
1311:.\Generated_Source\PSoC5/USB.c **** *  task. Sets Data ready status: This generates the first DMA transfer and
1312:.\Generated_Source\PSoC5/USB.c **** *  prepares data in endpoint buffer.
1313:.\Generated_Source\PSoC5/USB.c **** *
1314:.\Generated_Source\PSoC5/USB.c **** *  \param epNumber Contains the data endpoint number.
1315:.\Generated_Source\PSoC5/USB.c **** *            Valid values are between 1 and 8.
1316:.\Generated_Source\PSoC5/USB.c **** *  \param *pData A pointer to a data array from which the data for the endpoint space
1317:.\Generated_Source\PSoC5/USB.c **** *          is loaded.
1318:.\Generated_Source\PSoC5/USB.c **** *  \param length The number of bytes to transfer from the array and then send as
1319:.\Generated_Source\PSoC5/USB.c **** *          a result of an IN request. Valid values are between 0 and 512
1320:.\Generated_Source\PSoC5/USB.c **** *          (1023 for DMA with Automatic Buffer Management mode). The value 512
1321:.\Generated_Source\PSoC5/USB.c **** *          is applicable if only one endpoint is used.
1322:.\Generated_Source\PSoC5/USB.c **** *
1323:.\Generated_Source\PSoC5/USB.c **** *
1324:.\Generated_Source\PSoC5/USB.c **** * \reentrant
1325:.\Generated_Source\PSoC5/USB.c **** *  No.
1326:.\Generated_Source\PSoC5/USB.c **** *
1327:.\Generated_Source\PSoC5/USB.c **** *******************************************************************************/
1328:.\Generated_Source\PSoC5/USB.c **** void USB_LoadInEP(uint8 epNumber, const uint8 pData[], uint16 length)
1329:.\Generated_Source\PSoC5/USB.c ****                                                                         
1330:.\Generated_Source\PSoC5/USB.c **** {
 999              		.loc 1 1330 0
 1000              		.cfi_startproc
 1001              		@ args = 0, pretend = 0, frame = 16
 1002              		@ frame_needed = 1, uses_anonymous_args = 0
 1003              		@ link register save eliminated.
 1004 0000 B0B4     		push	{r4, r5, r7}
 1005              		.cfi_def_cfa_offset 12
 1006              		.cfi_offset 4, -12
 1007              		.cfi_offset 5, -8
ARM GAS  C:\Users\LUKASC~1\AppData\Local\Temp\ccLhh5pu.s 			page 42


 1008              		.cfi_offset 7, -4
 1009 0002 85B0     		sub	sp, sp, #20
 1010              		.cfi_def_cfa_offset 32
 1011 0004 00AF     		add	r7, sp, #0
 1012              		.cfi_def_cfa_register 7
 1013 0006 0346     		mov	r3, r0
 1014 0008 3960     		str	r1, [r7]
 1015 000a FB71     		strb	r3, [r7, #7]
 1016 000c 1346     		mov	r3, r2	@ movhi
 1017 000e BB80     		strh	r3, [r7, #4]	@ movhi
1331:.\Generated_Source\PSoC5/USB.c ****     if ((epNumber > USB_EP0) && (epNumber < USB_MAX_EP))
 1018              		.loc 1 1331 0
 1019 0010 FB79     		ldrb	r3, [r7, #7]	@ zero_extendqisi2
 1020 0012 002B     		cmp	r3, #0
 1021 0014 66D0     		beq	.L50
 1022              		.loc 1 1331 0 is_stmt 0 discriminator 1
 1023 0016 FB79     		ldrb	r3, [r7, #7]	@ zero_extendqisi2
 1024 0018 082B     		cmp	r3, #8
 1025 001a 63D8     		bhi	.L50
1332:.\Generated_Source\PSoC5/USB.c ****     {
1333:.\Generated_Source\PSoC5/USB.c ****     #if (!USB_EP_MANAGEMENT_DMA_AUTO)
1334:.\Generated_Source\PSoC5/USB.c ****         /* Limit length to available buffer USB IP buffer size.*/
1335:.\Generated_Source\PSoC5/USB.c ****         if (length > (USB_EPX_DATA_BUF_MAX - USB_EP[epNumber].buffOffset))
 1026              		.loc 1 1335 0 is_stmt 1
 1027 001c B988     		ldrh	r1, [r7, #4]
 1028 001e FA79     		ldrb	r2, [r7, #7]	@ zero_extendqisi2
 1029 0020 3248     		ldr	r0, .L56
 1030 0022 1346     		mov	r3, r2
 1031 0024 5B00     		lsls	r3, r3, #1
 1032 0026 1344     		add	r3, r3, r2
 1033 0028 9B00     		lsls	r3, r3, #2
 1034 002a 0344     		add	r3, r3, r0
 1035 002c DB88     		ldrh	r3, [r3, #6]	@ movhi
 1036 002e 9BB2     		uxth	r3, r3
 1037 0030 C3F50073 		rsb	r3, r3, #512
 1038 0034 9942     		cmp	r1, r3
 1039 0036 0BD9     		bls	.L52
1336:.\Generated_Source\PSoC5/USB.c ****         {
1337:.\Generated_Source\PSoC5/USB.c ****             length = USB_EPX_DATA_BUF_MAX - USB_EP[epNumber].buffOffset;
 1040              		.loc 1 1337 0
 1041 0038 FA79     		ldrb	r2, [r7, #7]	@ zero_extendqisi2
 1042 003a 2C49     		ldr	r1, .L56
 1043 003c 1346     		mov	r3, r2
 1044 003e 5B00     		lsls	r3, r3, #1
 1045 0040 1344     		add	r3, r3, r2
 1046 0042 9B00     		lsls	r3, r3, #2
 1047 0044 0B44     		add	r3, r3, r1
 1048 0046 DB88     		ldrh	r3, [r3, #6]	@ movhi
 1049 0048 9BB2     		uxth	r3, r3
 1050 004a C3F50073 		rsb	r3, r3, #512
 1051 004e BB80     		strh	r3, [r7, #4]	@ movhi
 1052              	.L52:
1338:.\Generated_Source\PSoC5/USB.c ****         }
1339:.\Generated_Source\PSoC5/USB.c ****     #endif /* (!USB_EP_MANAGEMENT_DMA_AUTO) */
1340:.\Generated_Source\PSoC5/USB.c **** 
1341:.\Generated_Source\PSoC5/USB.c ****         /* Set count and data toggle. */
1342:.\Generated_Source\PSoC5/USB.c ****         USB_SIE_EP_BASE.sieEp[epNumber].epCnt0 = (uint8) HI8(length) | USB_EP[epNumber].epToggle;
ARM GAS  C:\Users\LUKASC~1\AppData\Local\Temp\ccLhh5pu.s 			page 43


 1053              		.loc 1 1342 0
 1054 0050 274C     		ldr	r4, .L56+4
 1055 0052 F979     		ldrb	r1, [r7, #7]	@ zero_extendqisi2
 1056 0054 BB88     		ldrh	r3, [r7, #4]
 1057 0056 1B0A     		lsrs	r3, r3, #8
 1058 0058 9BB2     		uxth	r3, r3
 1059 005a D8B2     		uxtb	r0, r3
 1060 005c FA79     		ldrb	r2, [r7, #7]	@ zero_extendqisi2
 1061 005e 234D     		ldr	r5, .L56
 1062 0060 1346     		mov	r3, r2
 1063 0062 5B00     		lsls	r3, r3, #1
 1064 0064 1344     		add	r3, r3, r2
 1065 0066 9B00     		lsls	r3, r3, #2
 1066 0068 2B44     		add	r3, r3, r5
 1067 006a DB78     		ldrb	r3, [r3, #3]
 1068 006c DBB2     		uxtb	r3, r3
 1069 006e 0343     		orrs	r3, r3, r0
 1070 0070 DAB2     		uxtb	r2, r3
 1071 0072 0B01     		lsls	r3, r1, #4
 1072 0074 2344     		add	r3, r3, r4
 1073 0076 1A70     		strb	r2, [r3]
1343:.\Generated_Source\PSoC5/USB.c ****         USB_SIE_EP_BASE.sieEp[epNumber].epCnt1 = (uint8) LO8(length);
 1074              		.loc 1 1343 0
 1075 0078 1D4A     		ldr	r2, .L56+4
 1076 007a FB79     		ldrb	r3, [r7, #7]	@ zero_extendqisi2
 1077 007c B988     		ldrh	r1, [r7, #4]	@ movhi
 1078 007e C9B2     		uxtb	r1, r1
 1079 0080 1B01     		lsls	r3, r3, #4
 1080 0082 1344     		add	r3, r3, r2
 1081 0084 0A46     		mov	r2, r1
 1082 0086 5A70     		strb	r2, [r3, #1]
1344:.\Generated_Source\PSoC5/USB.c **** 
1345:.\Generated_Source\PSoC5/USB.c ****     #if (USB_EP_MANAGEMENT_MANUAL)
1346:.\Generated_Source\PSoC5/USB.c ****         if (NULL != pData)
 1083              		.loc 1 1346 0
 1084 0088 3B68     		ldr	r3, [r7]
 1085 008a 002B     		cmp	r3, #0
 1086 008c 13D0     		beq	.L53
 1087              	.LBB2:
1347:.\Generated_Source\PSoC5/USB.c ****         {
1348:.\Generated_Source\PSoC5/USB.c **** 			/* Copy data using arbiter data register. */
1349:.\Generated_Source\PSoC5/USB.c ****             uint16 i;
1350:.\Generated_Source\PSoC5/USB.c ****             for (i = 0u; i < length; ++i)
 1088              		.loc 1 1350 0
 1089 008e 0023     		movs	r3, #0
 1090 0090 FB81     		strh	r3, [r7, #14]	@ movhi
 1091 0092 0CE0     		b	.L54
 1092              	.L55:
1351:.\Generated_Source\PSoC5/USB.c ****             {
1352:.\Generated_Source\PSoC5/USB.c ****                 USB_ARB_EP_BASE.arbEp[epNumber].rwDr = pData[i];
 1093              		.loc 1 1352 0 discriminator 3
 1094 0094 1748     		ldr	r0, .L56+8
 1095 0096 FB79     		ldrb	r3, [r7, #7]	@ zero_extendqisi2
 1096 0098 FA89     		ldrh	r2, [r7, #14]
 1097 009a 3968     		ldr	r1, [r7]
 1098 009c 0A44     		add	r2, r2, r1
 1099 009e 1278     		ldrb	r2, [r2]	@ zero_extendqisi2
ARM GAS  C:\Users\LUKASC~1\AppData\Local\Temp\ccLhh5pu.s 			page 44


 1100 00a0 1B01     		lsls	r3, r3, #4
 1101 00a2 0344     		add	r3, r3, r0
 1102 00a4 0833     		adds	r3, r3, #8
 1103 00a6 1A70     		strb	r2, [r3]
1350:.\Generated_Source\PSoC5/USB.c ****             {
 1104              		.loc 1 1350 0 discriminator 3
 1105 00a8 FB89     		ldrh	r3, [r7, #14]	@ movhi
 1106 00aa 0133     		adds	r3, r3, #1
 1107 00ac FB81     		strh	r3, [r7, #14]	@ movhi
 1108              	.L54:
1350:.\Generated_Source\PSoC5/USB.c ****             {
 1109              		.loc 1 1350 0 is_stmt 0 discriminator 1
 1110 00ae FA89     		ldrh	r2, [r7, #14]
 1111 00b0 BB88     		ldrh	r3, [r7, #4]
 1112 00b2 9A42     		cmp	r2, r3
 1113 00b4 EED3     		bcc	.L55
 1114              	.L53:
 1115              	.LBE2:
1353:.\Generated_Source\PSoC5/USB.c ****             }
1354:.\Generated_Source\PSoC5/USB.c ****         }
1355:.\Generated_Source\PSoC5/USB.c **** 
1356:.\Generated_Source\PSoC5/USB.c ****         /* IN endpoint buffer is full - read to be read. */
1357:.\Generated_Source\PSoC5/USB.c ****         USB_EP[epNumber].apiEpState = USB_NO_EVENT_PENDING;
 1116              		.loc 1 1357 0 is_stmt 1
 1117 00b6 FA79     		ldrb	r2, [r7, #7]	@ zero_extendqisi2
 1118 00b8 0C49     		ldr	r1, .L56
 1119 00ba 1346     		mov	r3, r2
 1120 00bc 5B00     		lsls	r3, r3, #1
 1121 00be 1344     		add	r3, r3, r2
 1122 00c0 9B00     		lsls	r3, r3, #2
 1123 00c2 0B44     		add	r3, r3, r1
 1124 00c4 0022     		movs	r2, #0
 1125 00c6 5A70     		strb	r2, [r3, #1]
1358:.\Generated_Source\PSoC5/USB.c **** 
1359:.\Generated_Source\PSoC5/USB.c ****         /* Arm IN endpoint. */
1360:.\Generated_Source\PSoC5/USB.c ****         USB_SIE_EP_BASE.sieEp[epNumber].epCr0 = USB_EP[epNumber].epMode;
 1126              		.loc 1 1360 0
 1127 00c8 0948     		ldr	r0, .L56+4
 1128 00ca F979     		ldrb	r1, [r7, #7]	@ zero_extendqisi2
 1129 00cc FA79     		ldrb	r2, [r7, #7]	@ zero_extendqisi2
 1130 00ce 074C     		ldr	r4, .L56
 1131 00d0 1346     		mov	r3, r2
 1132 00d2 5B00     		lsls	r3, r3, #1
 1133 00d4 1344     		add	r3, r3, r2
 1134 00d6 9B00     		lsls	r3, r3, #2
 1135 00d8 2344     		add	r3, r3, r4
 1136 00da 5B79     		ldrb	r3, [r3, #5]
 1137 00dc DAB2     		uxtb	r2, r3
 1138 00de 0B01     		lsls	r3, r1, #4
 1139 00e0 0344     		add	r3, r3, r0
 1140 00e2 9A70     		strb	r2, [r3, #2]
 1141              	.L50:
1361:.\Generated_Source\PSoC5/USB.c **** 
1362:.\Generated_Source\PSoC5/USB.c ****     #else
1363:.\Generated_Source\PSoC5/USB.c **** 
1364:.\Generated_Source\PSoC5/USB.c ****         #if (CY_PSOC3 || CY_PSOC5LP)
1365:.\Generated_Source\PSoC5/USB.c ****             /* Initialize DMA if it was not initialized. */
ARM GAS  C:\Users\LUKASC~1\AppData\Local\Temp\ccLhh5pu.s 			page 45


1366:.\Generated_Source\PSoC5/USB.c ****             if (DMA_INVALID_TD == USB_DmaTd[epNumber])
1367:.\Generated_Source\PSoC5/USB.c ****             {
1368:.\Generated_Source\PSoC5/USB.c ****                 USB_InitEP_DMA(epNumber, pData);
1369:.\Generated_Source\PSoC5/USB.c ****             }
1370:.\Generated_Source\PSoC5/USB.c ****         #endif /* (CY_PSOC3 || CY_PSOC5LP) */
1371:.\Generated_Source\PSoC5/USB.c **** 
1372:.\Generated_Source\PSoC5/USB.c ****         #if (USB_EP_MANAGEMENT_DMA_MANUAL)
1373:.\Generated_Source\PSoC5/USB.c ****             /* IN endpoint buffer will be fully loaded by DMA shortly. */
1374:.\Generated_Source\PSoC5/USB.c ****             USB_EP[epNumber].apiEpState = USB_NO_EVENT_PENDING;
1375:.\Generated_Source\PSoC5/USB.c **** 
1376:.\Generated_Source\PSoC5/USB.c ****             if ((pData != NULL) && (length > 0u))
1377:.\Generated_Source\PSoC5/USB.c ****             {
1378:.\Generated_Source\PSoC5/USB.c ****             #if (CY_PSOC4)
1379:.\Generated_Source\PSoC5/USB.c ****                 uint32 channelNum = (uint32) USB_DmaChan[epNumber];
1380:.\Generated_Source\PSoC5/USB.c **** 
1381:.\Generated_Source\PSoC5/USB.c ****                 /* Disable DMA channel: start configuration. */
1382:.\Generated_Source\PSoC5/USB.c ****                 USB_CyDmaChDisable(channelNum);
1383:.\Generated_Source\PSoC5/USB.c **** 
1384:.\Generated_Source\PSoC5/USB.c ****                 /* Configure source and destination. */
1385:.\Generated_Source\PSoC5/USB.c ****                 USB_CyDmaSetSrcAddress(channelNum, USB_DMA_DESCR0, (void*) pData);
1386:.\Generated_Source\PSoC5/USB.c ****                 USB_CyDmaSetDstAddress(channelNum, USB_DMA_DESCR0, (void*) &USB_ARB_EP_BASE.arbEp[e
1387:.\Generated_Source\PSoC5/USB.c **** 
1388:.\Generated_Source\PSoC5/USB.c ****                 /* Configure DMA descriptor. */
1389:.\Generated_Source\PSoC5/USB.c ****                 --length;
1390:.\Generated_Source\PSoC5/USB.c ****                 USB_CyDmaSetConfiguration(channelNum, USB_DMA_DESCR0, USB_DMA_COMMON_CFG | length |
1391:.\Generated_Source\PSoC5/USB.c ****                                                         CYDMA_BYTE | CYDMA_ELEMENT_WORD | CYDMA_INC
1392:.\Generated_Source\PSoC5/USB.c **** 
1393:.\Generated_Source\PSoC5/USB.c ****                 /* Validate descriptor to execute on following DMA request. */
1394:.\Generated_Source\PSoC5/USB.c ****                 USB_CyDmaValidateDescriptor(channelNum, USB_DMA_DESCR0);
1395:.\Generated_Source\PSoC5/USB.c **** 
1396:.\Generated_Source\PSoC5/USB.c ****                 /* Enable DMA channel: configuration complete. */
1397:.\Generated_Source\PSoC5/USB.c ****                 USB_CyDmaChEnable(channelNum);
1398:.\Generated_Source\PSoC5/USB.c ****             #else
1399:.\Generated_Source\PSoC5/USB.c ****                 /* Configure DMA to transfer data. */
1400:.\Generated_Source\PSoC5/USB.c ****                 (void) CyDmaChDisable(USB_DmaChan[epNumber]);
1401:.\Generated_Source\PSoC5/USB.c ****                 (void) CyDmaTdSetConfiguration(USB_DmaTd[epNumber], length, CY_DMA_DISABLE_TD, TD_T
1402:.\Generated_Source\PSoC5/USB.c ****                 (void) CyDmaTdSetAddress(USB_DmaTd[epNumber], LO16((uint32) pData), LO16((uint32) &
1403:.\Generated_Source\PSoC5/USB.c **** 
1404:.\Generated_Source\PSoC5/USB.c ****                 /* Enable DMA channel. */
1405:.\Generated_Source\PSoC5/USB.c ****                 (void) CyDmaChSetInitialTd(USB_DmaChan[epNumber], USB_DmaTd[epNumber]);
1406:.\Generated_Source\PSoC5/USB.c ****                 (void) CyDmaChEnable(USB_DmaChan[epNumber], 1u);
1407:.\Generated_Source\PSoC5/USB.c ****             #endif /* (CY_PSOC4) */
1408:.\Generated_Source\PSoC5/USB.c **** 
1409:.\Generated_Source\PSoC5/USB.c ****                 /* Generate DMA request. */
1410:.\Generated_Source\PSoC5/USB.c ****                 USB_ARB_EP_BASE.arbEp[epNumber].epCfg |=  (uint8)  USB_ARB_EPX_CFG_DMA_REQ;
1411:.\Generated_Source\PSoC5/USB.c ****                 USB_ARB_EP_BASE.arbEp[epNumber].epCfg &=  (uint8) ~USB_ARB_EPX_CFG_DMA_REQ;
1412:.\Generated_Source\PSoC5/USB.c **** 
1413:.\Generated_Source\PSoC5/USB.c ****                 /* IN endpoint will be armed in ARB_ISR(source: IN_BUF_FULL) after first DMA transf
1414:.\Generated_Source\PSoC5/USB.c ****             }
1415:.\Generated_Source\PSoC5/USB.c ****             else
1416:.\Generated_Source\PSoC5/USB.c ****             {
1417:.\Generated_Source\PSoC5/USB.c ****                 /* When zero-length packet: arm IN endpoint directly. */
1418:.\Generated_Source\PSoC5/USB.c ****                 USB_SIE_EP_BASE.sieEp[epNumber].epCr0 = USB_EP[epNumber].epMode;
1419:.\Generated_Source\PSoC5/USB.c ****             }
1420:.\Generated_Source\PSoC5/USB.c ****         #endif /* (USB_EP_MANAGEMENT_DMA_MANUAL) */
1421:.\Generated_Source\PSoC5/USB.c **** 
1422:.\Generated_Source\PSoC5/USB.c ****         #if (USB_EP_MANAGEMENT_DMA_AUTO)
ARM GAS  C:\Users\LUKASC~1\AppData\Local\Temp\ccLhh5pu.s 			page 46


1423:.\Generated_Source\PSoC5/USB.c ****             if (pData != NULL)
1424:.\Generated_Source\PSoC5/USB.c ****             {
1425:.\Generated_Source\PSoC5/USB.c ****             #if (CY_PSOC4)
1426:.\Generated_Source\PSoC5/USB.c ****                 uint32 channelNum = (uint32) USB_DmaChan[epNumber];
1427:.\Generated_Source\PSoC5/USB.c **** 
1428:.\Generated_Source\PSoC5/USB.c ****                 /* Store address of buffer. */
1429:.\Generated_Source\PSoC5/USB.c ****                 USB_DmaEpBufferAddrBackup[epNumber] = (uint32) pData;
1430:.\Generated_Source\PSoC5/USB.c **** 
1431:.\Generated_Source\PSoC5/USB.c ****                 /* Disable DMA channel: start configuration. */
1432:.\Generated_Source\PSoC5/USB.c ****                 USB_CyDmaChDisable(channelNum);
1433:.\Generated_Source\PSoC5/USB.c **** 
1434:.\Generated_Source\PSoC5/USB.c ****                 /* Set destination address. */
1435:.\Generated_Source\PSoC5/USB.c ****                 USB_CyDmaSetDstAddress(channelNum, USB_DMA_DESCR0, (void*) &USB_ARB_EP_BASE.arbEp[e
1436:.\Generated_Source\PSoC5/USB.c ****                 USB_CyDmaSetDstAddress(channelNum, USB_DMA_DESCR1, (void*) &USB_ARB_EP_BASE.arbEp[e
1437:.\Generated_Source\PSoC5/USB.c **** 
1438:.\Generated_Source\PSoC5/USB.c ****                 /* Configure DMA descriptor. */
1439:.\Generated_Source\PSoC5/USB.c ****                 USB_CyDmaSetConfiguration(channelNum, USB_DMA_DESCR0, USB_DMA_COMMON_CFG  |
1440:.\Generated_Source\PSoC5/USB.c ****                                                         CYDMA_BYTE | CYDMA_ELEMENT_WORD | CYDMA_INC
1441:.\Generated_Source\PSoC5/USB.c **** 
1442:.\Generated_Source\PSoC5/USB.c ****                 /* Configure DMA descriptor. */
1443:.\Generated_Source\PSoC5/USB.c ****                 USB_CyDmaSetConfiguration(channelNum, USB_DMA_DESCR1, USB_DMA_COMMON_CFG  |
1444:.\Generated_Source\PSoC5/USB.c ****                                                         CYDMA_BYTE | CYDMA_ELEMENT_WORD | CYDMA_INC
1445:.\Generated_Source\PSoC5/USB.c **** 
1446:.\Generated_Source\PSoC5/USB.c ****                 /* Enable interrupt from DMA channel. */
1447:.\Generated_Source\PSoC5/USB.c ****                 USB_CyDmaSetInterruptMask(channelNum);
1448:.\Generated_Source\PSoC5/USB.c **** 
1449:.\Generated_Source\PSoC5/USB.c ****                 /* Validate descriptor 1. It will not be invalided during operation. */
1450:.\Generated_Source\PSoC5/USB.c ****                 USB_CyDmaValidateDescriptor(channelNum, USB_DMA_DESCR1);
1451:.\Generated_Source\PSoC5/USB.c **** 
1452:.\Generated_Source\PSoC5/USB.c ****                 /* Enable DMA channel: configuration complete. */
1453:.\Generated_Source\PSoC5/USB.c ****                 USB_CyDmaChEnable(channelNum);
1454:.\Generated_Source\PSoC5/USB.c **** 
1455:.\Generated_Source\PSoC5/USB.c ****             #else
1456:.\Generated_Source\PSoC5/USB.c ****                 (void) CyDmaChDisable(USB_DmaChan[epNumber]);
1457:.\Generated_Source\PSoC5/USB.c **** 
1458:.\Generated_Source\PSoC5/USB.c ****                 #if (USB_EP_DMA_AUTO_OPT == 0u)
1459:.\Generated_Source\PSoC5/USB.c ****                     USB_inLength[epNumber] = length;
1460:.\Generated_Source\PSoC5/USB.c ****                     USB_inDataPointer[epNumber] = pData;
1461:.\Generated_Source\PSoC5/USB.c **** 
1462:.\Generated_Source\PSoC5/USB.c ****                     /* Configure DMA to send data only for first burst */
1463:.\Generated_Source\PSoC5/USB.c ****                     (void) CyDmaTdSetConfiguration(USB_DmaTd[epNumber],
1464:.\Generated_Source\PSoC5/USB.c ****                         (length > USB_DMA_BYTES_PER_BURST) ? USB_DMA_BYTES_PER_BURST : length,
1465:.\Generated_Source\PSoC5/USB.c ****                         USB_DmaNextTd[epNumber], TD_TERMIN_EN | TD_INC_SRC_ADR);
1466:.\Generated_Source\PSoC5/USB.c ****                     (void) CyDmaTdSetAddress(USB_DmaTd[epNumber], LO16((uint32) pData),
1467:.\Generated_Source\PSoC5/USB.c ****                                                                                LO16((uint32) &USB_A
1468:.\Generated_Source\PSoC5/USB.c **** 
1469:.\Generated_Source\PSoC5/USB.c ****                     /* The second TD will be executed only when the first one fails.
1470:.\Generated_Source\PSoC5/USB.c ****                     *  The intention of this TD is to generate NRQ interrupt
1471:.\Generated_Source\PSoC5/USB.c ****                     *  and repeat 2 last bytes of the first burst.
1472:.\Generated_Source\PSoC5/USB.c ****                     */
1473:.\Generated_Source\PSoC5/USB.c ****                     (void) CyDmaTdSetConfiguration(USB_DmaNextTd[epNumber], 1u,
1474:.\Generated_Source\PSoC5/USB.c ****                                                    USB_DmaNextTd[epNumber],
1475:.\Generated_Source\PSoC5/USB.c ****                                                    USB_epX_TD_TERMOUT_EN[epNumber]);
1476:.\Generated_Source\PSoC5/USB.c **** 
1477:.\Generated_Source\PSoC5/USB.c ****                     /* Configure DmaNextTd to clear Data Ready status. */
1478:.\Generated_Source\PSoC5/USB.c ****                     (void) CyDmaTdSetAddress(USB_DmaNextTd[epNumber], LO16((uint32) &clearInDataRdy
1479:.\Generated_Source\PSoC5/USB.c ****                                                                                    LO16((uint32) &U
ARM GAS  C:\Users\LUKASC~1\AppData\Local\Temp\ccLhh5pu.s 			page 47


1480:.\Generated_Source\PSoC5/USB.c ****                 #else
1481:.\Generated_Source\PSoC5/USB.c ****                     /* Configure DMA to send all data. */
1482:.\Generated_Source\PSoC5/USB.c ****                     (void) CyDmaTdSetConfiguration(USB_DmaTd[epNumber], length,
1483:.\Generated_Source\PSoC5/USB.c ****                                                    USB_DmaTd[epNumber], TD_TERMIN_EN | TD_INC_SRC_A
1484:.\Generated_Source\PSoC5/USB.c ****                     (void) CyDmaTdSetAddress(USB_DmaTd[epNumber], LO16((uint32) pData),
1485:.\Generated_Source\PSoC5/USB.c ****                                                                                LO16((uint32) &USB_A
1486:.\Generated_Source\PSoC5/USB.c ****                 #endif /* (USB_EP_DMA_AUTO_OPT == 0u) */
1487:.\Generated_Source\PSoC5/USB.c **** 
1488:.\Generated_Source\PSoC5/USB.c ****                 /* Clear any potential pending DMA requests before starting DMA channel to transfer
1489:.\Generated_Source\PSoC5/USB.c ****                 (void) CyDmaClearPendingDrq(USB_DmaChan[epNumber]);
1490:.\Generated_Source\PSoC5/USB.c ****                 /* Enable DMA. */
1491:.\Generated_Source\PSoC5/USB.c ****                 (void) CyDmaChSetInitialTd(USB_DmaChan[epNumber], USB_DmaTd[epNumber]);
1492:.\Generated_Source\PSoC5/USB.c ****                 (void) CyDmaChEnable(USB_DmaChan[epNumber], 1u);
1493:.\Generated_Source\PSoC5/USB.c ****             #endif /* (CY_PSOC4) */
1494:.\Generated_Source\PSoC5/USB.c ****             }
1495:.\Generated_Source\PSoC5/USB.c ****             else
1496:.\Generated_Source\PSoC5/USB.c ****             {
1497:.\Generated_Source\PSoC5/USB.c ****                 /* IN endpoint buffer (32 bytes) will shortly be preloaded by DMA. */
1498:.\Generated_Source\PSoC5/USB.c ****                 USB_EP[epNumber].apiEpState = USB_NO_EVENT_PENDING;
1499:.\Generated_Source\PSoC5/USB.c **** 
1500:.\Generated_Source\PSoC5/USB.c ****                 if (length > 0u)
1501:.\Generated_Source\PSoC5/USB.c ****                 {
1502:.\Generated_Source\PSoC5/USB.c ****                 #if (CY_PSOC4)
1503:.\Generated_Source\PSoC5/USB.c ****                     uint32 lengthDescr0, lengthDescr1;
1504:.\Generated_Source\PSoC5/USB.c ****                     uint32 channelNum = (uint32) USB_DmaChan[epNumber];
1505:.\Generated_Source\PSoC5/USB.c **** 
1506:.\Generated_Source\PSoC5/USB.c ****                     /* Get number of full bursts. */
1507:.\Generated_Source\PSoC5/USB.c ****                     USB_DmaEpBurstCnt[epNumber] = (uint8) (length / USB_DMA_BYTES_PER_BURST);
1508:.\Generated_Source\PSoC5/USB.c **** 
1509:.\Generated_Source\PSoC5/USB.c ****                     /* Get number of elements in the last burst. */
1510:.\Generated_Source\PSoC5/USB.c ****                     USB_DmaEpLastBurstEl[epNumber] = (uint8) (length % USB_DMA_BYTES_PER_BURST);
1511:.\Generated_Source\PSoC5/USB.c **** 
1512:.\Generated_Source\PSoC5/USB.c ****                     /* Get total number of bursts. */
1513:.\Generated_Source\PSoC5/USB.c ****                     USB_DmaEpBurstCnt[epNumber] += (0u != USB_DmaEpLastBurstEl[epNumber]) ? 1u : 0u
1514:.\Generated_Source\PSoC5/USB.c **** 
1515:.\Generated_Source\PSoC5/USB.c ****                     /* Adjust number of data elements transferred in last burst. */
1516:.\Generated_Source\PSoC5/USB.c ****                     USB_DmaEpLastBurstEl[epNumber] = (0u != USB_DmaEpLastBurstEl[epNumber]) ?
1517:.\Generated_Source\PSoC5/USB.c ****                                                                           (USB_DmaEpLastBurstEl[epN
1518:.\Generated_Source\PSoC5/USB.c ****                                                                           (USB_DMA_BYTES_PER_BURST 
1519:.\Generated_Source\PSoC5/USB.c **** 
1520:.\Generated_Source\PSoC5/USB.c ****                     /* Get number of data elements to transfer for descriptor 0 and 1. */
1521:.\Generated_Source\PSoC5/USB.c ****                     lengthDescr0 = (1u == USB_DmaEpBurstCnt[epNumber]) ? USB_DmaEpLastBurstEl[epNum
1522:.\Generated_Source\PSoC5/USB.c ****                     lengthDescr1 = (2u == USB_DmaEpBurstCnt[epNumber]) ? USB_DmaEpLastBurstEl[epNum
1523:.\Generated_Source\PSoC5/USB.c **** 
1524:.\Generated_Source\PSoC5/USB.c **** 
1525:.\Generated_Source\PSoC5/USB.c ****                     /* Mark which descriptor is last one to execute. */
1526:.\Generated_Source\PSoC5/USB.c ****                     USB_DmaEpLastBurstEl[epNumber] |= (0u != (USB_DmaEpBurstCnt[epNumber] & 0x1u)) 
1527:.\Generated_Source\PSoC5/USB.c ****                                                                             USB_DMA_DESCR0_MASK : U
1528:.\Generated_Source\PSoC5/USB.c **** 
1529:.\Generated_Source\PSoC5/USB.c ****                     /* Adjust burst counter taking to account: 2 valid descriptors and interrupt tr
1530:.\Generated_Source\PSoC5/USB.c ****                     USB_DmaEpBurstCnt[epNumber] = USB_DMA_GET_BURST_CNT(USB_DmaEpBurstCnt[epNumber]
1531:.\Generated_Source\PSoC5/USB.c **** 
1532:.\Generated_Source\PSoC5/USB.c ****                     /* Restore DMA settings for current transfer. */
1533:.\Generated_Source\PSoC5/USB.c ****                     USB_CyDmaChDisable(channelNum);
1534:.\Generated_Source\PSoC5/USB.c **** 
1535:.\Generated_Source\PSoC5/USB.c ****                     /* Restore destination address for input endpoint. */
1536:.\Generated_Source\PSoC5/USB.c ****                     USB_CyDmaSetSrcAddress(channelNum, USB_DMA_DESCR0, (void*) ((uint32) USB_DmaEpB
ARM GAS  C:\Users\LUKASC~1\AppData\Local\Temp\ccLhh5pu.s 			page 48


1537:.\Generated_Source\PSoC5/USB.c ****                     USB_CyDmaSetSrcAddress(channelNum, USB_DMA_DESCR1, (void*) ((uint32) USB_DmaEpB
1538:.\Generated_Source\PSoC5/USB.c ****                                                                                                    
1539:.\Generated_Source\PSoC5/USB.c **** 
1540:.\Generated_Source\PSoC5/USB.c ****                     /* Set number of elements to transfer. */
1541:.\Generated_Source\PSoC5/USB.c ****                     USB_CyDmaSetNumDataElements(channelNum, USB_DMA_DESCR0, lengthDescr0);
1542:.\Generated_Source\PSoC5/USB.c ****                     USB_CyDmaSetNumDataElements(channelNum, USB_DMA_DESCR1, lengthDescr1);
1543:.\Generated_Source\PSoC5/USB.c **** 
1544:.\Generated_Source\PSoC5/USB.c ****                     /* Validate descriptor 0 and command to start with it. */
1545:.\Generated_Source\PSoC5/USB.c ****                     USB_CyDmaValidateDescriptor(channelNum, USB_DMA_DESCR0);
1546:.\Generated_Source\PSoC5/USB.c ****                     USB_CyDmaSetDescriptor0Next(channelNum);
1547:.\Generated_Source\PSoC5/USB.c **** 
1548:.\Generated_Source\PSoC5/USB.c ****                     /* Enable DMA channel: configuration complete. */
1549:.\Generated_Source\PSoC5/USB.c ****                     USB_CyDmaChEnable(channelNum);
1550:.\Generated_Source\PSoC5/USB.c **** 
1551:.\Generated_Source\PSoC5/USB.c ****                 #elif (USB_EP_DMA_AUTO_OPT == 0u)
1552:.\Generated_Source\PSoC5/USB.c ****                     USB_inLength[epNumber]  = length;
1553:.\Generated_Source\PSoC5/USB.c ****                     USB_inBufFull[epNumber] = 0u;
1554:.\Generated_Source\PSoC5/USB.c **** 
1555:.\Generated_Source\PSoC5/USB.c ****                     (void) CyDmaChDisable(USB_DmaChan[epNumber]);
1556:.\Generated_Source\PSoC5/USB.c ****                     /* Configure DMA to send data only for first burst. */
1557:.\Generated_Source\PSoC5/USB.c ****                     (void) CyDmaTdSetConfiguration(
1558:.\Generated_Source\PSoC5/USB.c ****                         USB_DmaTd[epNumber], (length > USB_DMA_BYTES_PER_BURST) ?
1559:.\Generated_Source\PSoC5/USB.c ****                         USB_DMA_BYTES_PER_BURST : length,
1560:.\Generated_Source\PSoC5/USB.c ****                         USB_DmaNextTd[epNumber], TD_TERMIN_EN | TD_INC_SRC_ADR );
1561:.\Generated_Source\PSoC5/USB.c ****                     (void) CyDmaTdSetAddress(USB_DmaTd[epNumber], LO16((uint32)  USB_inDataPointer[
1562:.\Generated_Source\PSoC5/USB.c ****                                                                                LO16((uint32) &USB_A
1563:.\Generated_Source\PSoC5/USB.c ****                     /* Clear Any potential pending DMA requests before starting DMA channel to tran
1564:.\Generated_Source\PSoC5/USB.c ****                     (void) CyDmaClearPendingDrq(USB_DmaChan[epNumber]);
1565:.\Generated_Source\PSoC5/USB.c ****                     /* Enable DMA. */
1566:.\Generated_Source\PSoC5/USB.c ****                     (void) CyDmaChSetInitialTd(USB_DmaChan[epNumber], USB_DmaTd[epNumber]);
1567:.\Generated_Source\PSoC5/USB.c ****                     (void) CyDmaChEnable(USB_DmaChan[epNumber], 1u);
1568:.\Generated_Source\PSoC5/USB.c ****                 #endif /* (CY_PSOC4) */
1569:.\Generated_Source\PSoC5/USB.c **** 
1570:.\Generated_Source\PSoC5/USB.c ****                 #if !defined (USB_MANUAL_IN_EP_ARM)
1571:.\Generated_Source\PSoC5/USB.c ****                     /* Set IN data ready to generate DMA request to load data into endpoint buffer.
1572:.\Generated_Source\PSoC5/USB.c ****                     USB_ARB_EP_BASE.arbEp[epNumber].epCfg |= USB_ARB_EPX_CFG_IN_DATA_RDY;
1573:.\Generated_Source\PSoC5/USB.c ****                 #endif  /* (USB_MANUAL_IN_EP_ARM) */
1574:.\Generated_Source\PSoC5/USB.c **** 
1575:.\Generated_Source\PSoC5/USB.c ****                     /* IN endpoint will be armed in ARB_ISR(source: IN_BUF_FULL) after first DMA tr
1576:.\Generated_Source\PSoC5/USB.c ****                 }
1577:.\Generated_Source\PSoC5/USB.c ****                 else
1578:.\Generated_Source\PSoC5/USB.c ****                 {
1579:.\Generated_Source\PSoC5/USB.c ****                     /* When zero-length packet: arm IN endpoint directly. */
1580:.\Generated_Source\PSoC5/USB.c ****                     USB_SIE_EP_BASE.sieEp[epNumber].epCr0 = USB_EP[epNumber].epMode;
1581:.\Generated_Source\PSoC5/USB.c ****                 }
1582:.\Generated_Source\PSoC5/USB.c ****             }
1583:.\Generated_Source\PSoC5/USB.c ****         #endif /* (USB_EP_MANAGEMENT_DMA_AUTO) */
1584:.\Generated_Source\PSoC5/USB.c ****     #endif /* (USB_EP_MANAGEMENT_MANUAL) */
1585:.\Generated_Source\PSoC5/USB.c ****     }
1586:.\Generated_Source\PSoC5/USB.c **** }
 1142              		.loc 1 1586 0
 1143 00e4 1437     		adds	r7, r7, #20
 1144              		.cfi_def_cfa_offset 12
 1145 00e6 BD46     		mov	sp, r7
 1146              		.cfi_def_cfa_register 13
 1147              		@ sp needed
 1148 00e8 B0BC     		pop	{r4, r5, r7}
ARM GAS  C:\Users\LUKASC~1\AppData\Local\Temp\ccLhh5pu.s 			page 49


 1149              		.cfi_restore 7
 1150              		.cfi_restore 5
 1151              		.cfi_restore 4
 1152              		.cfi_def_cfa_offset 0
 1153 00ea 7047     		bx	lr
 1154              	.L57:
 1155              		.align	2
 1156              	.L56:
 1157 00ec 00000000 		.word	USB_EP
 1158 00f0 FC5F0040 		.word	1073766396
 1159 00f4 70600040 		.word	1073766512
 1160              		.cfi_endproc
 1161              	.LFE11:
 1162              		.size	USB_LoadInEP, .-USB_LoadInEP
 1163              		.section	.text.USB_ReadOutEP,"ax",%progbits
 1164              		.align	2
 1165              		.global	USB_ReadOutEP
 1166              		.thumb
 1167              		.thumb_func
 1168              		.type	USB_ReadOutEP, %function
 1169              	USB_ReadOutEP:
 1170              	.LFB12:
1587:.\Generated_Source\PSoC5/USB.c **** 
1588:.\Generated_Source\PSoC5/USB.c **** 
1589:.\Generated_Source\PSoC5/USB.c **** /*******************************************************************************
1590:.\Generated_Source\PSoC5/USB.c **** * Function Name: USB_ReadOutEP
1591:.\Generated_Source\PSoC5/USB.c **** ****************************************************************************//**
1592:.\Generated_Source\PSoC5/USB.c **** *
1593:.\Generated_Source\PSoC5/USB.c **** *   This function performs different functionality depending on the Component’s
1594:.\Generated_Source\PSoC5/USB.c **** *   configured Endpoint Buffer Management. This parameter is defined in the
1595:.\Generated_Source\PSoC5/USB.c **** *   Descriptor Root in Component Configure window.
1596:.\Generated_Source\PSoC5/USB.c **** *
1597:.\Generated_Source\PSoC5/USB.c **** *   *Manual (Static/Dynamic Allocation):*
1598:.\Generated_Source\PSoC5/USB.c **** *   This function moves the specified number of bytes from endpoint buffer to
1599:.\Generated_Source\PSoC5/USB.c **** *   system RAM. The number of bytes actually transferred from endpoint buffer to
1600:.\Generated_Source\PSoC5/USB.c **** *   system RAM is the lesser of the actual number of bytes sent by the host or
1601:.\Generated_Source\PSoC5/USB.c **** *   the number of bytes requested by the length parameter.
1602:.\Generated_Source\PSoC5/USB.c **** *
1603:.\Generated_Source\PSoC5/USB.c **** *   *DMA with Manual Buffer Management:*
1604:.\Generated_Source\PSoC5/USB.c **** *   Configure DMA to transfer data from endpoint buffer to system RAM. Generate
1605:.\Generated_Source\PSoC5/USB.c **** *   a DMA request. The firmware must wait until the DMA completes the data
1606:.\Generated_Source\PSoC5/USB.c **** *   transfer after calling the USB_ReadOutEP() API. For example,
1607:.\Generated_Source\PSoC5/USB.c **** *   by checking EPstate:
1608:.\Generated_Source\PSoC5/USB.c **** *
1609:.\Generated_Source\PSoC5/USB.c **** *   \snippet /USBFS_sut_02.cydsn/main.c checking EPstatey
1610:.\Generated_Source\PSoC5/USB.c **** *
1611:.\Generated_Source\PSoC5/USB.c **** *   The USBFS_EnableOutEP() has to be called to allow host to write data into
1612:.\Generated_Source\PSoC5/USB.c **** *   the endpoint buffer after DMA has completed transfer data from OUT endpoint
1613:.\Generated_Source\PSoC5/USB.c **** *   buffer to SRAM.
1614:.\Generated_Source\PSoC5/USB.c **** *
1615:.\Generated_Source\PSoC5/USB.c **** *   *DMA with Automatic Buffer Management:*
1616:.\Generated_Source\PSoC5/USB.c **** *   Configure DMA. This is required only once and automatically generates DMA
1617:.\Generated_Source\PSoC5/USB.c **** *   requests as data arrives
1618:.\Generated_Source\PSoC5/USB.c **** *
1619:.\Generated_Source\PSoC5/USB.c **** *  \param epNumber: Contains the data endpoint number.
1620:.\Generated_Source\PSoC5/USB.c **** *            Valid values are between 1 and 8.
1621:.\Generated_Source\PSoC5/USB.c **** *  \param pData: A pointer to a data array from which the data for the endpoint
ARM GAS  C:\Users\LUKASC~1\AppData\Local\Temp\ccLhh5pu.s 			page 50


1622:.\Generated_Source\PSoC5/USB.c **** *         space is loaded.
1623:.\Generated_Source\PSoC5/USB.c **** *  \param length: The number of bytes to transfer from the USB Out endpoint and
1624:.\Generated_Source\PSoC5/USB.c **** *          loads it into data array. Valid values are between 0 and 1023. The
1625:.\Generated_Source\PSoC5/USB.c **** *          function moves fewer than the requested number of bytes if the host
1626:.\Generated_Source\PSoC5/USB.c **** *          sends fewer bytes than requested.
1627:.\Generated_Source\PSoC5/USB.c **** *
1628:.\Generated_Source\PSoC5/USB.c **** * \return
1629:.\Generated_Source\PSoC5/USB.c **** *  Number of bytes received, 0 for an invalid endpoint.
1630:.\Generated_Source\PSoC5/USB.c **** *
1631:.\Generated_Source\PSoC5/USB.c **** * \reentrant
1632:.\Generated_Source\PSoC5/USB.c **** *  No.
1633:.\Generated_Source\PSoC5/USB.c **** *
1634:.\Generated_Source\PSoC5/USB.c **** *******************************************************************************/
1635:.\Generated_Source\PSoC5/USB.c **** uint16 USB_ReadOutEP(uint8 epNumber, uint8 pData[], uint16 length)
1636:.\Generated_Source\PSoC5/USB.c ****                                                                         
1637:.\Generated_Source\PSoC5/USB.c **** {
 1171              		.loc 1 1637 0
 1172              		.cfi_startproc
 1173              		@ args = 0, pretend = 0, frame = 16
 1174              		@ frame_needed = 1, uses_anonymous_args = 0
 1175 0000 80B5     		push	{r7, lr}
 1176              		.cfi_def_cfa_offset 8
 1177              		.cfi_offset 7, -8
 1178              		.cfi_offset 14, -4
 1179 0002 84B0     		sub	sp, sp, #16
 1180              		.cfi_def_cfa_offset 24
 1181 0004 00AF     		add	r7, sp, #0
 1182              		.cfi_def_cfa_register 7
 1183 0006 0346     		mov	r3, r0
 1184 0008 3960     		str	r1, [r7]
 1185 000a FB71     		strb	r3, [r7, #7]
 1186 000c 1346     		mov	r3, r2	@ movhi
 1187 000e BB80     		strh	r3, [r7, #4]	@ movhi
1638:.\Generated_Source\PSoC5/USB.c ****     if ((pData != NULL) && (epNumber > USB_EP0) && (epNumber < USB_MAX_EP))
 1188              		.loc 1 1638 0
 1189 0010 3B68     		ldr	r3, [r7]
 1190 0012 002B     		cmp	r3, #0
 1191 0014 30D0     		beq	.L59
 1192              		.loc 1 1638 0 is_stmt 0 discriminator 1
 1193 0016 FB79     		ldrb	r3, [r7, #7]	@ zero_extendqisi2
 1194 0018 002B     		cmp	r3, #0
 1195 001a 2DD0     		beq	.L59
 1196              		.loc 1 1638 0 discriminator 2
 1197 001c FB79     		ldrb	r3, [r7, #7]	@ zero_extendqisi2
 1198 001e 082B     		cmp	r3, #8
 1199 0020 2AD8     		bhi	.L59
1639:.\Generated_Source\PSoC5/USB.c ****     {
1640:.\Generated_Source\PSoC5/USB.c ****     #if (!USB_EP_MANAGEMENT_DMA_AUTO)
1641:.\Generated_Source\PSoC5/USB.c ****         /* Adjust requested length to available data. */
1642:.\Generated_Source\PSoC5/USB.c ****         length = (length > USB_GetEPCount(epNumber)) ? USB_GetEPCount(epNumber) : length;
 1200              		.loc 1 1642 0 is_stmt 1
 1201 0022 FB79     		ldrb	r3, [r7, #7]	@ zero_extendqisi2
 1202 0024 1846     		mov	r0, r3
 1203 0026 FFF7FEFF 		bl	USB_GetEPCount
 1204 002a 0346     		mov	r3, r0
 1205 002c 1A46     		mov	r2, r3
 1206 002e BB88     		ldrh	r3, [r7, #4]
ARM GAS  C:\Users\LUKASC~1\AppData\Local\Temp\ccLhh5pu.s 			page 51


 1207 0030 9342     		cmp	r3, r2
 1208 0032 05D9     		bls	.L60
 1209              		.loc 1 1642 0 is_stmt 0 discriminator 1
 1210 0034 FB79     		ldrb	r3, [r7, #7]	@ zero_extendqisi2
 1211 0036 1846     		mov	r0, r3
 1212 0038 FFF7FEFF 		bl	USB_GetEPCount
 1213 003c 0346     		mov	r3, r0
 1214 003e 00E0     		b	.L61
 1215              	.L60:
 1216              		.loc 1 1642 0 discriminator 2
 1217 0040 BB88     		ldrh	r3, [r7, #4]
 1218              	.L61:
 1219              		.loc 1 1642 0 discriminator 4
 1220 0042 BB80     		strh	r3, [r7, #4]	@ movhi
 1221              	.LBB3:
1643:.\Generated_Source\PSoC5/USB.c ****     #endif /* (!USB_EP_MANAGEMENT_DMA_AUTO) */
1644:.\Generated_Source\PSoC5/USB.c **** 
1645:.\Generated_Source\PSoC5/USB.c ****     #if (USB_EP_MANAGEMENT_MANUAL)
1646:.\Generated_Source\PSoC5/USB.c ****         {
1647:.\Generated_Source\PSoC5/USB.c ****             /* Copy data using arbiter data register. */
1648:.\Generated_Source\PSoC5/USB.c ****             uint16 i;
1649:.\Generated_Source\PSoC5/USB.c ****             for (i = 0u; i < length; ++i)
 1222              		.loc 1 1649 0 is_stmt 1 discriminator 4
 1223 0044 0023     		movs	r3, #0
 1224 0046 FB81     		strh	r3, [r7, #14]	@ movhi
 1225 0048 0DE0     		b	.L62
 1226              	.L63:
1650:.\Generated_Source\PSoC5/USB.c ****             {
1651:.\Generated_Source\PSoC5/USB.c ****                 pData[i] = (uint8) USB_ARB_EP_BASE.arbEp[epNumber].rwDr;
 1227              		.loc 1 1651 0 discriminator 3
 1228 004a FB89     		ldrh	r3, [r7, #14]
 1229 004c 3A68     		ldr	r2, [r7]
 1230 004e 1344     		add	r3, r3, r2
 1231 0050 0D49     		ldr	r1, .L66
 1232 0052 FA79     		ldrb	r2, [r7, #7]	@ zero_extendqisi2
 1233 0054 1201     		lsls	r2, r2, #4
 1234 0056 0A44     		add	r2, r2, r1
 1235 0058 0832     		adds	r2, r2, #8
 1236 005a 1278     		ldrb	r2, [r2]
 1237 005c D2B2     		uxtb	r2, r2
 1238 005e 1A70     		strb	r2, [r3]
1649:.\Generated_Source\PSoC5/USB.c ****             {
 1239              		.loc 1 1649 0 discriminator 3
 1240 0060 FB89     		ldrh	r3, [r7, #14]	@ movhi
 1241 0062 0133     		adds	r3, r3, #1
 1242 0064 FB81     		strh	r3, [r7, #14]	@ movhi
 1243              	.L62:
1649:.\Generated_Source\PSoC5/USB.c ****             {
 1244              		.loc 1 1649 0 is_stmt 0 discriminator 1
 1245 0066 FA89     		ldrh	r2, [r7, #14]
 1246 0068 BB88     		ldrh	r3, [r7, #4]
 1247 006a 9A42     		cmp	r2, r3
 1248 006c EDD3     		bcc	.L63
 1249              	.LBE3:
1652:.\Generated_Source\PSoC5/USB.c ****             }
1653:.\Generated_Source\PSoC5/USB.c ****         }
1654:.\Generated_Source\PSoC5/USB.c **** 
ARM GAS  C:\Users\LUKASC~1\AppData\Local\Temp\ccLhh5pu.s 			page 52


1655:.\Generated_Source\PSoC5/USB.c ****         /* Arm OUT endpoint after data has been copied from endpoint buffer. */
1656:.\Generated_Source\PSoC5/USB.c ****         USB_EnableOutEP(epNumber);
 1250              		.loc 1 1656 0 is_stmt 1
 1251 006e FB79     		ldrb	r3, [r7, #7]	@ zero_extendqisi2
 1252 0070 1846     		mov	r0, r3
 1253 0072 FFF7FEFF 		bl	USB_EnableOutEP
 1254 0076 01E0     		b	.L64
 1255              	.L59:
1657:.\Generated_Source\PSoC5/USB.c ****     #else
1658:.\Generated_Source\PSoC5/USB.c **** 
1659:.\Generated_Source\PSoC5/USB.c ****         #if (CY_PSOC3 || CY_PSOC5LP)
1660:.\Generated_Source\PSoC5/USB.c ****             /* Initialize DMA if it was not initialized. */
1661:.\Generated_Source\PSoC5/USB.c ****             if (DMA_INVALID_TD == USB_DmaTd[epNumber])
1662:.\Generated_Source\PSoC5/USB.c ****             {
1663:.\Generated_Source\PSoC5/USB.c ****                 USB_InitEP_DMA(epNumber, pData);
1664:.\Generated_Source\PSoC5/USB.c ****             }
1665:.\Generated_Source\PSoC5/USB.c ****         #endif /* (CY_PSOC3 || CY_PSOC5LP) */
1666:.\Generated_Source\PSoC5/USB.c **** 
1667:.\Generated_Source\PSoC5/USB.c ****         #if (USB_EP_MANAGEMENT_DMA_MANUAL)
1668:.\Generated_Source\PSoC5/USB.c ****         #if (CY_PSOC4)
1669:.\Generated_Source\PSoC5/USB.c ****         {
1670:.\Generated_Source\PSoC5/USB.c ****             uint32 channelNum = (uint32) USB_DmaChan[epNumber];
1671:.\Generated_Source\PSoC5/USB.c **** 
1672:.\Generated_Source\PSoC5/USB.c ****             /* Disable DMA channel: start configuration. */
1673:.\Generated_Source\PSoC5/USB.c ****             USB_CyDmaChDisable(channelNum);
1674:.\Generated_Source\PSoC5/USB.c **** 
1675:.\Generated_Source\PSoC5/USB.c ****             /* Configure source and destination. */
1676:.\Generated_Source\PSoC5/USB.c ****             USB_CyDmaSetSrcAddress(channelNum, USB_DMA_DESCR0, (void*) &USB_ARB_EP_BASE.arbEp[epNum
1677:.\Generated_Source\PSoC5/USB.c ****             USB_CyDmaSetDstAddress(channelNum, USB_DMA_DESCR0, (void*) pData);
1678:.\Generated_Source\PSoC5/USB.c **** 
1679:.\Generated_Source\PSoC5/USB.c ****             /* Configure DMA descriptor. */
1680:.\Generated_Source\PSoC5/USB.c ****             USB_CyDmaSetConfiguration(channelNum, USB_DMA_DESCR0, USB_DMA_COMMON_CFG | (uint16)(len
1681:.\Generated_Source\PSoC5/USB.c ****                                                     CYDMA_BYTE | CYDMA_WORD_ELEMENT | CYDMA_INC_DST
1682:.\Generated_Source\PSoC5/USB.c **** 
1683:.\Generated_Source\PSoC5/USB.c ****             /* Validate descriptor to execute on following DMA request. */
1684:.\Generated_Source\PSoC5/USB.c ****             USB_CyDmaValidateDescriptor(channelNum, USB_DMA_DESCR0);
1685:.\Generated_Source\PSoC5/USB.c **** 
1686:.\Generated_Source\PSoC5/USB.c ****             /* Enable DMA channel: configuration complete. */
1687:.\Generated_Source\PSoC5/USB.c ****             USB_CyDmaChEnable(channelNum);
1688:.\Generated_Source\PSoC5/USB.c ****         }
1689:.\Generated_Source\PSoC5/USB.c ****         #else
1690:.\Generated_Source\PSoC5/USB.c ****             /* Configure DMA to transfer data. */
1691:.\Generated_Source\PSoC5/USB.c ****             (void) CyDmaChDisable(USB_DmaChan[epNumber]);
1692:.\Generated_Source\PSoC5/USB.c ****             (void) CyDmaTdSetConfiguration(USB_DmaTd[epNumber], length, CY_DMA_DISABLE_TD, TD_TERMI
1693:.\Generated_Source\PSoC5/USB.c ****             (void) CyDmaTdSetAddress(USB_DmaTd[epNumber], LO16((uint32) &USB_ARB_EP_BASE.arbEp[epNu
1694:.\Generated_Source\PSoC5/USB.c **** 
1695:.\Generated_Source\PSoC5/USB.c ****             /* Enable DMA channel. */
1696:.\Generated_Source\PSoC5/USB.c ****             (void) CyDmaChSetInitialTd(USB_DmaChan[epNumber], USB_DmaTd[epNumber]);
1697:.\Generated_Source\PSoC5/USB.c ****             (void) CyDmaChEnable(USB_DmaChan[epNumber], 1u);
1698:.\Generated_Source\PSoC5/USB.c ****         #endif /* (CY_PSOC4) */
1699:.\Generated_Source\PSoC5/USB.c **** 
1700:.\Generated_Source\PSoC5/USB.c ****             /* Generate DMA request. */
1701:.\Generated_Source\PSoC5/USB.c ****             USB_ARB_EP_BASE.arbEp[epNumber].epCfg |=  (uint8)  USB_ARB_EPX_CFG_DMA_REQ;
1702:.\Generated_Source\PSoC5/USB.c ****             USB_ARB_EP_BASE.arbEp[epNumber].epCfg &=  (uint8) ~USB_ARB_EPX_CFG_DMA_REQ;
1703:.\Generated_Source\PSoC5/USB.c **** 
1704:.\Generated_Source\PSoC5/USB.c ****             /* OUT endpoint has to be armed again by user when DMA transfers have been completed.
1705:.\Generated_Source\PSoC5/USB.c ****             * NO_EVENT_PENDING: notifies that data has been copied from endpoint buffer.
ARM GAS  C:\Users\LUKASC~1\AppData\Local\Temp\ccLhh5pu.s 			page 53


1706:.\Generated_Source\PSoC5/USB.c ****             */
1707:.\Generated_Source\PSoC5/USB.c **** 
1708:.\Generated_Source\PSoC5/USB.c ****         #endif /* (USB_EP_MANAGEMENT_DMA_MANUAL) */
1709:.\Generated_Source\PSoC5/USB.c **** 
1710:.\Generated_Source\PSoC5/USB.c ****         #if (USB_EP_MANAGEMENT_DMA_AUTO)
1711:.\Generated_Source\PSoC5/USB.c ****         #if (CY_PSOC4)
1712:.\Generated_Source\PSoC5/USB.c ****         {
1713:.\Generated_Source\PSoC5/USB.c ****             uint32 channelNum = (uint32) USB_DmaChan[epNumber];
1714:.\Generated_Source\PSoC5/USB.c ****             uint32 lengthDescr0, lengthDescr1;
1715:.\Generated_Source\PSoC5/USB.c **** 
1716:.\Generated_Source\PSoC5/USB.c ****             /* Get number of full bursts. */
1717:.\Generated_Source\PSoC5/USB.c ****             USB_DmaEpBurstCnt[epNumber] = (uint8) (length / USB_DMA_BYTES_PER_BURST);
1718:.\Generated_Source\PSoC5/USB.c **** 
1719:.\Generated_Source\PSoC5/USB.c ****             /* Get number of elements in the last burst. */
1720:.\Generated_Source\PSoC5/USB.c ****             USB_DmaEpLastBurstEl[epNumber] = (uint8) (length % USB_DMA_BYTES_PER_BURST);
1721:.\Generated_Source\PSoC5/USB.c **** 
1722:.\Generated_Source\PSoC5/USB.c ****             /* Get total number of bursts. */
1723:.\Generated_Source\PSoC5/USB.c ****             USB_DmaEpBurstCnt[epNumber] += (0u != USB_DmaEpLastBurstEl[epNumber]) ? 1u : 0u;
1724:.\Generated_Source\PSoC5/USB.c **** 
1725:.\Generated_Source\PSoC5/USB.c ****             /* Adjust number of the data elements transfered in last burst. */
1726:.\Generated_Source\PSoC5/USB.c ****             USB_DmaEpLastBurstEl[epNumber] = (0u != USB_DmaEpLastBurstEl[epNumber]) ?
1727:.\Generated_Source\PSoC5/USB.c ****                                                                   (USB_DmaEpLastBurstEl[epNumber] -
1728:.\Generated_Source\PSoC5/USB.c ****                                                                   (USB_DMA_BYTES_PER_BURST - 1u);
1729:.\Generated_Source\PSoC5/USB.c **** 
1730:.\Generated_Source\PSoC5/USB.c ****             /* Get number of data elements to transfer for descriptor 0 and 1. */
1731:.\Generated_Source\PSoC5/USB.c ****             lengthDescr0 = (1u == USB_DmaEpBurstCnt[epNumber]) ? USB_DmaEpLastBurstEl[epNumber] : (
1732:.\Generated_Source\PSoC5/USB.c ****             lengthDescr1 = (2u == USB_DmaEpBurstCnt[epNumber]) ? USB_DmaEpLastBurstEl[epNumber] : (
1733:.\Generated_Source\PSoC5/USB.c **** 
1734:.\Generated_Source\PSoC5/USB.c ****             /* Mark if revert number of data elements in descriptor after transfer completion. */
1735:.\Generated_Source\PSoC5/USB.c ****             USB_DmaEpLastBurstEl[epNumber] |= (USB_DmaEpBurstCnt[epNumber] > 2u) ? USB_DMA_DESCR_RE
1736:.\Generated_Source\PSoC5/USB.c **** 
1737:.\Generated_Source\PSoC5/USB.c ****             /* Mark last descriptor to be executed. */
1738:.\Generated_Source\PSoC5/USB.c ****             USB_DmaEpLastBurstEl[epNumber] |= (0u != (USB_DmaEpBurstCnt[epNumber] & 0x1u)) ?
1739:.\Generated_Source\PSoC5/USB.c ****                                                                     USB_DMA_DESCR0_MASK : USB_DMA_D
1740:.\Generated_Source\PSoC5/USB.c **** 
1741:.\Generated_Source\PSoC5/USB.c ****             /* Adjust burst counter taking to account: 2 valid descriptors and interrupt trigger af
1742:.\Generated_Source\PSoC5/USB.c ****             USB_DmaEpBurstCnt[epNumber] = USB_DMA_GET_BURST_CNT(USB_DmaEpBurstCnt[epNumber]);
1743:.\Generated_Source\PSoC5/USB.c **** 
1744:.\Generated_Source\PSoC5/USB.c ****             /* Store address of buffer and burst counter for endpoint. */
1745:.\Generated_Source\PSoC5/USB.c ****             USB_DmaEpBufferAddrBackup[epNumber] = (uint32) pData;
1746:.\Generated_Source\PSoC5/USB.c ****             USB_DmaEpBurstCntBackup[epNumber]   = USB_DmaEpBurstCnt[epNumber];
1747:.\Generated_Source\PSoC5/USB.c **** 
1748:.\Generated_Source\PSoC5/USB.c ****             /* Disable DMA channel: start configuration. */
1749:.\Generated_Source\PSoC5/USB.c ****             USB_CyDmaChDisable(channelNum);
1750:.\Generated_Source\PSoC5/USB.c **** 
1751:.\Generated_Source\PSoC5/USB.c ****             /* Set destination address. */
1752:.\Generated_Source\PSoC5/USB.c ****             USB_CyDmaSetSrcAddress(channelNum, USB_DMA_DESCR0, (void*) &USB_ARB_EP_BASE.arbEp[epNum
1753:.\Generated_Source\PSoC5/USB.c ****             USB_CyDmaSetSrcAddress(channelNum, USB_DMA_DESCR1, (void*) &USB_ARB_EP_BASE.arbEp[epNum
1754:.\Generated_Source\PSoC5/USB.c **** 
1755:.\Generated_Source\PSoC5/USB.c ****             USB_CyDmaSetDstAddress(channelNum, USB_DMA_DESCR0, (void*) ((uint32) pData));
1756:.\Generated_Source\PSoC5/USB.c ****             USB_CyDmaSetDstAddress(channelNum, USB_DMA_DESCR1, (void*) ((uint32) pData + USB_DMA_BY
1757:.\Generated_Source\PSoC5/USB.c **** 
1758:.\Generated_Source\PSoC5/USB.c ****             /* Configure DMA descriptor. */
1759:.\Generated_Source\PSoC5/USB.c ****             USB_CyDmaSetConfiguration(channelNum, USB_DMA_DESCR0, USB_DMA_COMMON_CFG  | lengthDescr
1760:.\Generated_Source\PSoC5/USB.c ****                                                     CYDMA_BYTE | CYDMA_WORD_ELEMENT | CYDMA_INC_DST
1761:.\Generated_Source\PSoC5/USB.c **** 
1762:.\Generated_Source\PSoC5/USB.c ****             /* Configure DMA descriptor. */
ARM GAS  C:\Users\LUKASC~1\AppData\Local\Temp\ccLhh5pu.s 			page 54


1763:.\Generated_Source\PSoC5/USB.c ****             USB_CyDmaSetConfiguration(channelNum, USB_DMA_DESCR1, USB_DMA_COMMON_CFG  | lengthDescr
1764:.\Generated_Source\PSoC5/USB.c ****                                                     CYDMA_BYTE | CYDMA_WORD_ELEMENT | CYDMA_INC_DST
1765:.\Generated_Source\PSoC5/USB.c **** 
1766:.\Generated_Source\PSoC5/USB.c ****             /* Enable interrupt from DMA channel. */
1767:.\Generated_Source\PSoC5/USB.c ****             USB_CyDmaSetInterruptMask(channelNum);
1768:.\Generated_Source\PSoC5/USB.c **** 
1769:.\Generated_Source\PSoC5/USB.c ****             /* Validate DMA descriptor 0 and 1. */
1770:.\Generated_Source\PSoC5/USB.c ****             USB_CyDmaValidateDescriptor(channelNum, USB_DMA_DESCR0);
1771:.\Generated_Source\PSoC5/USB.c ****             USB_CyDmaValidateDescriptor(channelNum, USB_DMA_DESCR1);
1772:.\Generated_Source\PSoC5/USB.c **** 
1773:.\Generated_Source\PSoC5/USB.c ****             /* Enable DMA channel: configuration complete. */
1774:.\Generated_Source\PSoC5/USB.c ****             USB_CyDmaChEnable(channelNum);
1775:.\Generated_Source\PSoC5/USB.c ****         }
1776:.\Generated_Source\PSoC5/USB.c ****         #else
1777:.\Generated_Source\PSoC5/USB.c ****             (void) CyDmaChDisable(USB_DmaChan[epNumber]);
1778:.\Generated_Source\PSoC5/USB.c ****             (void) CyDmaTdSetConfiguration(USB_DmaTd[epNumber], length,  USB_DmaTd[epNumber], TD_TE
1779:.\Generated_Source\PSoC5/USB.c ****             (void) CyDmaTdSetAddress(USB_DmaTd[epNumber], LO16((uint32) &USB_ARB_EP_BASE.arbEp[epNu
1780:.\Generated_Source\PSoC5/USB.c **** 
1781:.\Generated_Source\PSoC5/USB.c ****             /* Clear Any potential pending DMA requests before starting DMA channel to transfer dat
1782:.\Generated_Source\PSoC5/USB.c ****             (void) CyDmaClearPendingDrq(USB_DmaChan[epNumber]);
1783:.\Generated_Source\PSoC5/USB.c **** 
1784:.\Generated_Source\PSoC5/USB.c ****             /* Enable DMA channel. */
1785:.\Generated_Source\PSoC5/USB.c ****             (void) CyDmaChSetInitialTd(USB_DmaChan[epNumber], USB_DmaTd[epNumber]);
1786:.\Generated_Source\PSoC5/USB.c ****             (void) CyDmaChEnable(USB_DmaChan[epNumber], 1u);
1787:.\Generated_Source\PSoC5/USB.c ****         #endif /* (CY_PSOC4) */
1788:.\Generated_Source\PSoC5/USB.c **** 
1789:.\Generated_Source\PSoC5/USB.c ****             /* OUT endpoint has to be armed again by user when DMA transfers have been completed.
1790:.\Generated_Source\PSoC5/USB.c ****             * NO_EVENT_PENDING: notifies that data has been copied from endpoint buffer.
1791:.\Generated_Source\PSoC5/USB.c ****             */
1792:.\Generated_Source\PSoC5/USB.c **** 
1793:.\Generated_Source\PSoC5/USB.c ****         #endif /* (USB_EP_MANAGEMENT_DMA_AUTO) */
1794:.\Generated_Source\PSoC5/USB.c ****     #endif /* (USB_EP_MANAGEMENT_MANUAL) */
1795:.\Generated_Source\PSoC5/USB.c ****     }
1796:.\Generated_Source\PSoC5/USB.c ****     else
1797:.\Generated_Source\PSoC5/USB.c ****     {
1798:.\Generated_Source\PSoC5/USB.c ****         length = 0u;
 1256              		.loc 1 1798 0
 1257 0078 0023     		movs	r3, #0
 1258 007a BB80     		strh	r3, [r7, #4]	@ movhi
 1259              	.L64:
1799:.\Generated_Source\PSoC5/USB.c ****     }
1800:.\Generated_Source\PSoC5/USB.c **** 
1801:.\Generated_Source\PSoC5/USB.c ****     return (length);
 1260              		.loc 1 1801 0
 1261 007c BB88     		ldrh	r3, [r7, #4]
1802:.\Generated_Source\PSoC5/USB.c **** }
 1262              		.loc 1 1802 0
 1263 007e 1846     		mov	r0, r3
 1264 0080 1037     		adds	r7, r7, #16
 1265              		.cfi_def_cfa_offset 8
 1266 0082 BD46     		mov	sp, r7
 1267              		.cfi_def_cfa_register 13
 1268              		@ sp needed
 1269 0084 80BD     		pop	{r7, pc}
 1270              	.L67:
 1271 0086 00BF     		.align	2
 1272              	.L66:
ARM GAS  C:\Users\LUKASC~1\AppData\Local\Temp\ccLhh5pu.s 			page 55


 1273 0088 70600040 		.word	1073766512
 1274              		.cfi_endproc
 1275              	.LFE12:
 1276              		.size	USB_ReadOutEP, .-USB_ReadOutEP
 1277              		.section	.text.USB_EnableOutEP,"ax",%progbits
 1278              		.align	2
 1279              		.global	USB_EnableOutEP
 1280              		.thumb
 1281              		.thumb_func
 1282              		.type	USB_EnableOutEP, %function
 1283              	USB_EnableOutEP:
 1284              	.LFB13:
1803:.\Generated_Source\PSoC5/USB.c **** 
1804:.\Generated_Source\PSoC5/USB.c **** 
1805:.\Generated_Source\PSoC5/USB.c **** #if (USB_16BITS_EP_ACCESS_ENABLE)
1806:.\Generated_Source\PSoC5/USB.c **** /*******************************************************************************
1807:.\Generated_Source\PSoC5/USB.c **** * Function Name: USB_LoadInEP16
1808:.\Generated_Source\PSoC5/USB.c **** ****************************************************************************//**
1809:.\Generated_Source\PSoC5/USB.c **** *
1810:.\Generated_Source\PSoC5/USB.c **** *  This function performs different functionality depending on the Component’s
1811:.\Generated_Source\PSoC5/USB.c **** *  configured Endpoint Buffer Management. This parameter is defined in
1812:.\Generated_Source\PSoC5/USB.c **** *  the Descriptor Root in Component Configure window.
1813:.\Generated_Source\PSoC5/USB.c **** *
1814:.\Generated_Source\PSoC5/USB.c **** *  *Manual (Static/Dynamic Allocation):*
1815:.\Generated_Source\PSoC5/USB.c **** *  This function loads and enables the specified USB data endpoint for an IN
1816:.\Generated_Source\PSoC5/USB.c **** *  data transfer.
1817:.\Generated_Source\PSoC5/USB.c **** *
1818:.\Generated_Source\PSoC5/USB.c **** *  *DMA with Manual Buffer Management:*
1819:.\Generated_Source\PSoC5/USB.c **** *  Configures DMA for a data transfer from system RAM to endpoint buffer.
1820:.\Generated_Source\PSoC5/USB.c **** *  Generates request for a transfer.
1821:.\Generated_Source\PSoC5/USB.c **** *
1822:.\Generated_Source\PSoC5/USB.c **** *  *DMA with Automatic Buffer Management:*
1823:.\Generated_Source\PSoC5/USB.c **** *  Configures DMA. This is required only once, so it is done only when parameter
1824:.\Generated_Source\PSoC5/USB.c **** *  pData is not NULL. When the pData pointer is NULL, the function skips this
1825:.\Generated_Source\PSoC5/USB.c **** *  task. Sets Data ready status: This generates the first DMA transfer and
1826:.\Generated_Source\PSoC5/USB.c **** *  prepares data in endpoint buffer.
1827:.\Generated_Source\PSoC5/USB.c **** *
1828:.\Generated_Source\PSoC5/USB.c **** *  \param epNumber Contains the data endpoint number.
1829:.\Generated_Source\PSoC5/USB.c **** *        Valid values are between 1 and 8.
1830:.\Generated_Source\PSoC5/USB.c **** *  \param *pData A pointer to a data array from which the data for the endpoint
1831:.\Generated_Source\PSoC5/USB.c **** *        space is loaded. It shall be ensured that this pointer address is even
1832:.\Generated_Source\PSoC5/USB.c **** *        to ensure the 16-bit transfer is aligned to even address. Else, a hard
1833:.\Generated_Source\PSoC5/USB.c **** *        fault condition can occur.
1834:.\Generated_Source\PSoC5/USB.c **** *  \param length The number of bytes to transfer from the array and then send as
1835:.\Generated_Source\PSoC5/USB.c **** *        a result of an IN request. Valid values are between 0 and 512 (1023 for
1836:.\Generated_Source\PSoC5/USB.c **** *        DMA with Automatic Buffer Management mode). The value 512 is applicable
1837:.\Generated_Source\PSoC5/USB.c **** *        if only one endpoint is used.
1838:.\Generated_Source\PSoC5/USB.c **** *
1839:.\Generated_Source\PSoC5/USB.c **** * \reentrant
1840:.\Generated_Source\PSoC5/USB.c **** *  No.
1841:.\Generated_Source\PSoC5/USB.c **** *
1842:.\Generated_Source\PSoC5/USB.c **** *******************************************************************************/
1843:.\Generated_Source\PSoC5/USB.c **** void USB_LoadInEP16(uint8 epNumber, const uint8 pData[], uint16 length)
1844:.\Generated_Source\PSoC5/USB.c **** {
1845:.\Generated_Source\PSoC5/USB.c ****     /* Check array alignment on half-word boundary. */
1846:.\Generated_Source\PSoC5/USB.c ****     CYASSERT(0u == (((uint32) pData) & 0x01u));
1847:.\Generated_Source\PSoC5/USB.c **** 
ARM GAS  C:\Users\LUKASC~1\AppData\Local\Temp\ccLhh5pu.s 			page 56


1848:.\Generated_Source\PSoC5/USB.c ****     if ((epNumber > USB_EP0) && (epNumber < USB_MAX_EP))
1849:.\Generated_Source\PSoC5/USB.c ****     {
1850:.\Generated_Source\PSoC5/USB.c ****     #if (!USB_EP_MANAGEMENT_DMA_AUTO)
1851:.\Generated_Source\PSoC5/USB.c ****         /* Limit length to available buffer USB IP buffer size. */
1852:.\Generated_Source\PSoC5/USB.c ****         if (length > (USB_EPX_DATA_BUF_MAX - USB_EP[epNumber].buffOffset))
1853:.\Generated_Source\PSoC5/USB.c ****         {
1854:.\Generated_Source\PSoC5/USB.c ****             length = USB_EPX_DATA_BUF_MAX - USB_EP[epNumber].buffOffset;
1855:.\Generated_Source\PSoC5/USB.c ****         }
1856:.\Generated_Source\PSoC5/USB.c ****     #endif /* (!USB_EP_MANAGEMENT_DMA_AUTO) */
1857:.\Generated_Source\PSoC5/USB.c **** 
1858:.\Generated_Source\PSoC5/USB.c ****         /* Set count and data toggle. */
1859:.\Generated_Source\PSoC5/USB.c ****         USB_SIE_EP_BASE.sieEp[epNumber].epCnt0 = (uint32) HI8(length) | USB_EP[epNumber].epToggle;
1860:.\Generated_Source\PSoC5/USB.c ****         USB_SIE_EP_BASE.sieEp[epNumber].epCnt1 = (uint32) LO8(length);
1861:.\Generated_Source\PSoC5/USB.c **** 
1862:.\Generated_Source\PSoC5/USB.c ****         /* Adjust requested length: 2 bytes are handled at one data register access. */
1863:.\Generated_Source\PSoC5/USB.c ****         length += (length & 0x01u);
1864:.\Generated_Source\PSoC5/USB.c **** 
1865:.\Generated_Source\PSoC5/USB.c ****     #if (USB_EP_MANAGEMENT_MANUAL)
1866:.\Generated_Source\PSoC5/USB.c ****         if (NULL != pData)
1867:.\Generated_Source\PSoC5/USB.c ****         {
1868:.\Generated_Source\PSoC5/USB.c ****             /* Convert uint8 array to uint16. */
1869:.\Generated_Source\PSoC5/USB.c ****             const uint16 *dataBuf = (uint16 *) pData;
1870:.\Generated_Source\PSoC5/USB.c **** 
1871:.\Generated_Source\PSoC5/USB.c ****             /* Copy data using 16-bits arbiter data register. */
1872:.\Generated_Source\PSoC5/USB.c ****             uint16 i;
1873:.\Generated_Source\PSoC5/USB.c ****             for (i = 0u; i < (length >> 1u); ++i)
1874:.\Generated_Source\PSoC5/USB.c ****             {
1875:.\Generated_Source\PSoC5/USB.c ****                 USB_ARB_EP16_BASE.arbEp[epNumber].rwDr16 = dataBuf[i];
1876:.\Generated_Source\PSoC5/USB.c ****             }
1877:.\Generated_Source\PSoC5/USB.c ****         }
1878:.\Generated_Source\PSoC5/USB.c **** 
1879:.\Generated_Source\PSoC5/USB.c ****         /* IN endpoint buffer is full - read to be read. */
1880:.\Generated_Source\PSoC5/USB.c ****         USB_EP[epNumber].apiEpState = USB_NO_EVENT_PENDING;
1881:.\Generated_Source\PSoC5/USB.c **** 
1882:.\Generated_Source\PSoC5/USB.c ****         /* Arm IN endpoint. */
1883:.\Generated_Source\PSoC5/USB.c ****         USB_SIE_EP_BASE.sieEp[epNumber].epCr0 = USB_EP[epNumber].epMode;
1884:.\Generated_Source\PSoC5/USB.c **** 
1885:.\Generated_Source\PSoC5/USB.c ****     #else
1886:.\Generated_Source\PSoC5/USB.c **** 
1887:.\Generated_Source\PSoC5/USB.c ****         #if (USB_EP_MANAGEMENT_DMA_MANUAL)
1888:.\Generated_Source\PSoC5/USB.c ****             /* IN endpoint buffer will be fully loaded by DMA shortly. */
1889:.\Generated_Source\PSoC5/USB.c ****             USB_EP[epNumber].apiEpState = USB_NO_EVENT_PENDING;
1890:.\Generated_Source\PSoC5/USB.c **** 
1891:.\Generated_Source\PSoC5/USB.c ****             if ((pData != NULL) && (length > 0u))
1892:.\Generated_Source\PSoC5/USB.c ****             {
1893:.\Generated_Source\PSoC5/USB.c ****                 uint32 channelNum = (uint32) USB_DmaChan[epNumber];
1894:.\Generated_Source\PSoC5/USB.c **** 
1895:.\Generated_Source\PSoC5/USB.c ****                 /* Disable DMA channel: start configuration. */
1896:.\Generated_Source\PSoC5/USB.c ****                 USB_CyDmaChDisable(channelNum);
1897:.\Generated_Source\PSoC5/USB.c **** 
1898:.\Generated_Source\PSoC5/USB.c ****                 /* Configure source and destination. */
1899:.\Generated_Source\PSoC5/USB.c ****                 USB_CyDmaSetSrcAddress(channelNum, USB_DMA_DESCR0, (void*) pData);
1900:.\Generated_Source\PSoC5/USB.c ****                 USB_CyDmaSetDstAddress(channelNum, USB_DMA_DESCR0, (void*) &USB_ARB_EP16_BASE.arbEp
1901:.\Generated_Source\PSoC5/USB.c **** 
1902:.\Generated_Source\PSoC5/USB.c ****                 /* Configure DMA descriptor. */
1903:.\Generated_Source\PSoC5/USB.c ****                 length = (length >> 1u) - 1u;
1904:.\Generated_Source\PSoC5/USB.c ****                 USB_CyDmaSetConfiguration(channelNum, USB_DMA_DESCR0, USB_DMA_COMMON_CFG | length |
ARM GAS  C:\Users\LUKASC~1\AppData\Local\Temp\ccLhh5pu.s 			page 57


1905:.\Generated_Source\PSoC5/USB.c ****                                                         CYDMA_HALFWORD | CYDMA_ELEMENT_WORD | CYDMA
1906:.\Generated_Source\PSoC5/USB.c **** 
1907:.\Generated_Source\PSoC5/USB.c ****                 /* Validate descriptor to execute on following DMA request. */
1908:.\Generated_Source\PSoC5/USB.c ****                 USB_CyDmaValidateDescriptor(channelNum, USB_DMA_DESCR0);
1909:.\Generated_Source\PSoC5/USB.c **** 
1910:.\Generated_Source\PSoC5/USB.c ****                 /* Enable DMA channel: configuration complete. */
1911:.\Generated_Source\PSoC5/USB.c ****                 USB_CyDmaChEnable(channelNum);
1912:.\Generated_Source\PSoC5/USB.c **** 
1913:.\Generated_Source\PSoC5/USB.c ****                 /* Generate DMA request. */
1914:.\Generated_Source\PSoC5/USB.c ****                 USB_ARB_EP_BASE.arbEp[epNumber].epCfg |=  (uint32)  USB_ARB_EPX_CFG_DMA_REQ;
1915:.\Generated_Source\PSoC5/USB.c ****                 USB_ARB_EP_BASE.arbEp[epNumber].epCfg &=  (uint32) ~USB_ARB_EPX_CFG_DMA_REQ;
1916:.\Generated_Source\PSoC5/USB.c **** 
1917:.\Generated_Source\PSoC5/USB.c ****                 /* IN endpoint will be armed in ARB_ISR(source: IN_BUF_FULL) after first DMA transf
1918:.\Generated_Source\PSoC5/USB.c ****             }
1919:.\Generated_Source\PSoC5/USB.c ****             else
1920:.\Generated_Source\PSoC5/USB.c ****             {
1921:.\Generated_Source\PSoC5/USB.c ****                 /* When zero-length packet: arm IN endpoint directly. */
1922:.\Generated_Source\PSoC5/USB.c ****                 USB_SIE_EP_BASE.sieEp[epNumber].epCr0 = USB_EP[epNumber].epMode;
1923:.\Generated_Source\PSoC5/USB.c ****             }
1924:.\Generated_Source\PSoC5/USB.c ****         #endif /* (USB_EP_MANAGEMENT_DMA_MANUAL) */
1925:.\Generated_Source\PSoC5/USB.c **** 
1926:.\Generated_Source\PSoC5/USB.c ****         #if (USB_EP_MANAGEMENT_DMA_AUTO)
1927:.\Generated_Source\PSoC5/USB.c ****             if (pData != NULL)
1928:.\Generated_Source\PSoC5/USB.c ****             {
1929:.\Generated_Source\PSoC5/USB.c ****                 uint32 channelNum = (uint32) USB_DmaChan[epNumber];
1930:.\Generated_Source\PSoC5/USB.c **** 
1931:.\Generated_Source\PSoC5/USB.c ****                 /* Store address of buffer. */
1932:.\Generated_Source\PSoC5/USB.c ****                 USB_DmaEpBufferAddrBackup[epNumber] = (uint32) pData;
1933:.\Generated_Source\PSoC5/USB.c **** 
1934:.\Generated_Source\PSoC5/USB.c ****                 /* Disable DMA channel: start configuration. */
1935:.\Generated_Source\PSoC5/USB.c ****                 USB_CyDmaChDisable(channelNum);
1936:.\Generated_Source\PSoC5/USB.c **** 
1937:.\Generated_Source\PSoC5/USB.c ****                 /* Set destination address. */
1938:.\Generated_Source\PSoC5/USB.c ****                 USB_CyDmaSetDstAddress(channelNum, USB_DMA_DESCR0, (void*) &USB_ARB_EP16_BASE.arbEp
1939:.\Generated_Source\PSoC5/USB.c ****                 USB_CyDmaSetDstAddress(channelNum, USB_DMA_DESCR1, (void*) &USB_ARB_EP16_BASE.arbEp
1940:.\Generated_Source\PSoC5/USB.c **** 
1941:.\Generated_Source\PSoC5/USB.c ****                 /* Configure DMA descriptor. */
1942:.\Generated_Source\PSoC5/USB.c ****                 USB_CyDmaSetConfiguration(channelNum, USB_DMA_DESCR0, USB_DMA_COMMON_CFG  |
1943:.\Generated_Source\PSoC5/USB.c ****                                                         CYDMA_HALFWORD | CYDMA_ELEMENT_WORD | CYDMA
1944:.\Generated_Source\PSoC5/USB.c **** 
1945:.\Generated_Source\PSoC5/USB.c ****                 /* Configure DMA descriptor. */
1946:.\Generated_Source\PSoC5/USB.c ****                 USB_CyDmaSetConfiguration(channelNum, USB_DMA_DESCR1, USB_DMA_COMMON_CFG  |
1947:.\Generated_Source\PSoC5/USB.c ****                                                         CYDMA_HALFWORD | CYDMA_ELEMENT_WORD | CYDMA
1948:.\Generated_Source\PSoC5/USB.c **** 
1949:.\Generated_Source\PSoC5/USB.c ****                 /* Enable interrupt from DMA channel. */
1950:.\Generated_Source\PSoC5/USB.c ****                 USB_CyDmaSetInterruptMask(channelNum);
1951:.\Generated_Source\PSoC5/USB.c **** 
1952:.\Generated_Source\PSoC5/USB.c ****                 /* Validate descriptor 1. It will not be invalided during operation. */
1953:.\Generated_Source\PSoC5/USB.c ****                 USB_CyDmaValidateDescriptor(channelNum, USB_DMA_DESCR1);
1954:.\Generated_Source\PSoC5/USB.c **** 
1955:.\Generated_Source\PSoC5/USB.c ****                 /* Enable DMA channel: configuration complete. */
1956:.\Generated_Source\PSoC5/USB.c ****                 USB_CyDmaChEnable(channelNum);
1957:.\Generated_Source\PSoC5/USB.c ****             }
1958:.\Generated_Source\PSoC5/USB.c ****             else
1959:.\Generated_Source\PSoC5/USB.c ****             {
1960:.\Generated_Source\PSoC5/USB.c ****                 /* IN endpoint buffer (32 bytes) will shortly be preloaded by DMA. */
1961:.\Generated_Source\PSoC5/USB.c ****                 USB_EP[epNumber].apiEpState = USB_NO_EVENT_PENDING;
ARM GAS  C:\Users\LUKASC~1\AppData\Local\Temp\ccLhh5pu.s 			page 58


1962:.\Generated_Source\PSoC5/USB.c **** 
1963:.\Generated_Source\PSoC5/USB.c ****                 if (length > 0u)
1964:.\Generated_Source\PSoC5/USB.c ****                 {
1965:.\Generated_Source\PSoC5/USB.c ****                     uint32 lengthDescr0, lengthDescr1;
1966:.\Generated_Source\PSoC5/USB.c ****                     uint32 channelNum = (uint32) USB_DmaChan[epNumber];
1967:.\Generated_Source\PSoC5/USB.c **** 
1968:.\Generated_Source\PSoC5/USB.c ****                     /* Get number of full bursts. */
1969:.\Generated_Source\PSoC5/USB.c ****                     USB_DmaEpBurstCnt[epNumber] = (uint8) (length / USB_DMA_BYTES_PER_BURST);
1970:.\Generated_Source\PSoC5/USB.c **** 
1971:.\Generated_Source\PSoC5/USB.c ****                     /* Get number of elements in the last burst. */
1972:.\Generated_Source\PSoC5/USB.c ****                     USB_DmaEpLastBurstEl[epNumber] = (uint8) (length % USB_DMA_BYTES_PER_BURST);
1973:.\Generated_Source\PSoC5/USB.c **** 
1974:.\Generated_Source\PSoC5/USB.c ****                     /* Get total number of bursts. */
1975:.\Generated_Source\PSoC5/USB.c ****                     USB_DmaEpBurstCnt[epNumber] += (0u != USB_DmaEpLastBurstEl[epNumber]) ? 1u : 0u
1976:.\Generated_Source\PSoC5/USB.c **** 
1977:.\Generated_Source\PSoC5/USB.c ****                     /* Adjust number of data elements transferred in last burst. */
1978:.\Generated_Source\PSoC5/USB.c ****                     USB_DmaEpLastBurstEl[epNumber] = (0u != USB_DmaEpLastBurstEl[epNumber]) ?
1979:.\Generated_Source\PSoC5/USB.c ****                                                                           ((USB_DmaEpLastBurstEl[ep
1980:.\Generated_Source\PSoC5/USB.c ****                                                                            (USB_DMA_HALFWORDS_PER_B
1981:.\Generated_Source\PSoC5/USB.c **** 
1982:.\Generated_Source\PSoC5/USB.c ****                     /* Get number of data elements to transfer for descriptor 0 and 1. */
1983:.\Generated_Source\PSoC5/USB.c ****                     lengthDescr0 = (1u == USB_DmaEpBurstCnt[epNumber]) ? USB_DmaEpLastBurstEl[epNum
1984:.\Generated_Source\PSoC5/USB.c ****                     lengthDescr1 = (2u == USB_DmaEpBurstCnt[epNumber]) ? USB_DmaEpLastBurstEl[epNum
1985:.\Generated_Source\PSoC5/USB.c **** 
1986:.\Generated_Source\PSoC5/USB.c ****                     /* Mark which descriptor is last one to execute. */
1987:.\Generated_Source\PSoC5/USB.c ****                     USB_DmaEpLastBurstEl[epNumber] |= (0u != (USB_DmaEpBurstCnt[epNumber] & 0x1u)) 
1988:.\Generated_Source\PSoC5/USB.c ****                                                                             USB_DMA_DESCR0_MASK : U
1989:.\Generated_Source\PSoC5/USB.c **** 
1990:.\Generated_Source\PSoC5/USB.c ****                     /* Adjust burst counter taking to account: 2 valid descriptors and interrupt tr
1991:.\Generated_Source\PSoC5/USB.c ****                     USB_DmaEpBurstCnt[epNumber] = USB_DMA_GET_BURST_CNT(USB_DmaEpBurstCnt[epNumber]
1992:.\Generated_Source\PSoC5/USB.c **** 
1993:.\Generated_Source\PSoC5/USB.c ****                     /* Restore DMA settings for current transfer. */
1994:.\Generated_Source\PSoC5/USB.c ****                     USB_CyDmaChDisable(channelNum);
1995:.\Generated_Source\PSoC5/USB.c **** 
1996:.\Generated_Source\PSoC5/USB.c ****                     /* Restore destination address for input endpoint. */
1997:.\Generated_Source\PSoC5/USB.c ****                     USB_CyDmaSetSrcAddress(channelNum, USB_DMA_DESCR0, (void*) ((uint32) USB_DmaEpB
1998:.\Generated_Source\PSoC5/USB.c ****                     USB_CyDmaSetSrcAddress(channelNum, USB_DMA_DESCR1, (void*) ((uint32) USB_DmaEpB
1999:.\Generated_Source\PSoC5/USB.c ****                                                                                                    
2000:.\Generated_Source\PSoC5/USB.c **** 
2001:.\Generated_Source\PSoC5/USB.c ****                     /* Set number of elements to transfer. */
2002:.\Generated_Source\PSoC5/USB.c ****                     USB_CyDmaSetNumDataElements(channelNum, USB_DMA_DESCR0, lengthDescr0);
2003:.\Generated_Source\PSoC5/USB.c ****                     USB_CyDmaSetNumDataElements(channelNum, USB_DMA_DESCR1, lengthDescr1);
2004:.\Generated_Source\PSoC5/USB.c **** 
2005:.\Generated_Source\PSoC5/USB.c ****                     /* Validate descriptor 0 and command to start with it. */
2006:.\Generated_Source\PSoC5/USB.c ****                     USB_CyDmaValidateDescriptor(channelNum, USB_DMA_DESCR0);
2007:.\Generated_Source\PSoC5/USB.c ****                     USB_CyDmaSetDescriptor0Next(channelNum);
2008:.\Generated_Source\PSoC5/USB.c **** 
2009:.\Generated_Source\PSoC5/USB.c ****                     /* Enable DMA channel: configuration complete. */
2010:.\Generated_Source\PSoC5/USB.c ****                     USB_CyDmaChEnable(channelNum);
2011:.\Generated_Source\PSoC5/USB.c **** 
2012:.\Generated_Source\PSoC5/USB.c ****                 #if !defined (USB_MANUAL_IN_EP_ARM)
2013:.\Generated_Source\PSoC5/USB.c ****                     /* Set IN data ready to generate DMA request to load data into endpoint buffer.
2014:.\Generated_Source\PSoC5/USB.c ****                     USB_ARB_EP_BASE.arbEp[epNumber].epCfg |= USB_ARB_EPX_CFG_IN_DATA_RDY;
2015:.\Generated_Source\PSoC5/USB.c ****                 #endif  /* (USB_MANUAL_IN_EP_ARM) */
2016:.\Generated_Source\PSoC5/USB.c **** 
2017:.\Generated_Source\PSoC5/USB.c ****                     /* IN endpoint will be armed in ARB_ISR(source: IN_BUF_FULL) after first DMA tr
2018:.\Generated_Source\PSoC5/USB.c ****                 }
ARM GAS  C:\Users\LUKASC~1\AppData\Local\Temp\ccLhh5pu.s 			page 59


2019:.\Generated_Source\PSoC5/USB.c ****                 else
2020:.\Generated_Source\PSoC5/USB.c ****                 {
2021:.\Generated_Source\PSoC5/USB.c ****                     /* When zero-length packet: arm IN endpoint directly. */
2022:.\Generated_Source\PSoC5/USB.c ****                     USB_SIE_EP_BASE.sieEp[epNumber].epCr0 = USB_EP[epNumber].epMode;
2023:.\Generated_Source\PSoC5/USB.c ****                 }
2024:.\Generated_Source\PSoC5/USB.c ****             }
2025:.\Generated_Source\PSoC5/USB.c ****         #endif /* (USB_EP_MANAGEMENT_DMA_AUTO) */
2026:.\Generated_Source\PSoC5/USB.c ****     #endif /* (USB_EP_MANAGEMENT_MANUAL) */
2027:.\Generated_Source\PSoC5/USB.c ****     }
2028:.\Generated_Source\PSoC5/USB.c **** }
2029:.\Generated_Source\PSoC5/USB.c **** 
2030:.\Generated_Source\PSoC5/USB.c **** 
2031:.\Generated_Source\PSoC5/USB.c **** /*******************************************************************************
2032:.\Generated_Source\PSoC5/USB.c **** * Function Name: USB_ReadOutEP16
2033:.\Generated_Source\PSoC5/USB.c **** ****************************************************************************//**
2034:.\Generated_Source\PSoC5/USB.c **** *
2035:.\Generated_Source\PSoC5/USB.c **** *   This function performs different functionality depending on the Component’s
2036:.\Generated_Source\PSoC5/USB.c **** *   configured Endpoint Buffer Management. This parameter is defined in the
2037:.\Generated_Source\PSoC5/USB.c **** *   Descriptor Root in Component Configure window.
2038:.\Generated_Source\PSoC5/USB.c **** *
2039:.\Generated_Source\PSoC5/USB.c **** *   *Manual (Static/Dynamic Allocation):*
2040:.\Generated_Source\PSoC5/USB.c **** *   This function moves the specified number of bytes from endpoint buffer to
2041:.\Generated_Source\PSoC5/USB.c **** *   system RAM. The number of bytes actually transferred from endpoint buffer to
2042:.\Generated_Source\PSoC5/USB.c **** *   system RAM is the lesser of the actual number of bytes sent by the host or
2043:.\Generated_Source\PSoC5/USB.c **** *   the number of bytes requested by the length parameter.
2044:.\Generated_Source\PSoC5/USB.c **** *
2045:.\Generated_Source\PSoC5/USB.c **** *   *DMA with Manual Buffer Management:*
2046:.\Generated_Source\PSoC5/USB.c **** *   Configure DMA to transfer data from endpoint buffer to system RAM. Generate
2047:.\Generated_Source\PSoC5/USB.c **** *   a DMA request. The firmware must wait until the DMA completes the data
2048:.\Generated_Source\PSoC5/USB.c **** *   transfer after calling the USB_ReadOutEP() API. For example,
2049:.\Generated_Source\PSoC5/USB.c **** *   by checking EPstate:
2050:.\Generated_Source\PSoC5/USB.c **** *
2051:.\Generated_Source\PSoC5/USB.c **** *   \snippet /USBFS_sut_02.cydsn/main.c checking EPstatey
2052:.\Generated_Source\PSoC5/USB.c **** *
2053:.\Generated_Source\PSoC5/USB.c **** *   The USBFS_EnableOutEP() has to be called to allow host to write data into
2054:.\Generated_Source\PSoC5/USB.c **** *   the endpoint buffer after DMA has completed transfer data from OUT endpoint
2055:.\Generated_Source\PSoC5/USB.c **** *   buffer to SRAM.
2056:.\Generated_Source\PSoC5/USB.c **** *
2057:.\Generated_Source\PSoC5/USB.c **** *   *DMA with Automatic Buffer Management:*
2058:.\Generated_Source\PSoC5/USB.c **** *   Configure DMA. This is required only once and automatically generates DMA
2059:.\Generated_Source\PSoC5/USB.c **** *   requests as data arrives
2060:.\Generated_Source\PSoC5/USB.c **** *
2061:.\Generated_Source\PSoC5/USB.c **** *  \param epNumber: Contains the data endpoint number.
2062:.\Generated_Source\PSoC5/USB.c **** *         Valid values are between 1 and 8.
2063:.\Generated_Source\PSoC5/USB.c **** *  \param pData: A pointer to a data array into which the data for the endpoint
2064:.\Generated_Source\PSoC5/USB.c **** *         space is copied. It shall be ensured that this pointer address is
2065:.\Generated_Source\PSoC5/USB.c **** *         even to ensure the 16-bit transfer is aligned to even address. Else,
2066:.\Generated_Source\PSoC5/USB.c **** *         a hard fault condition can occur.
2067:.\Generated_Source\PSoC5/USB.c **** *  \param length: The number of bytes to transfer from the USB Out endpoint and
2068:.\Generated_Source\PSoC5/USB.c **** *         loads it into data array. Valid values are between 0 and 1023. The
2069:.\Generated_Source\PSoC5/USB.c **** *         function moves fewer than the requested number of bytes if the host
2070:.\Generated_Source\PSoC5/USB.c **** *         sends fewer bytes than requested.
2071:.\Generated_Source\PSoC5/USB.c **** *
2072:.\Generated_Source\PSoC5/USB.c **** * \return
2073:.\Generated_Source\PSoC5/USB.c **** *  Number of bytes received, 0 for an invalid endpoint.
2074:.\Generated_Source\PSoC5/USB.c **** *
2075:.\Generated_Source\PSoC5/USB.c **** * \reentrant
ARM GAS  C:\Users\LUKASC~1\AppData\Local\Temp\ccLhh5pu.s 			page 60


2076:.\Generated_Source\PSoC5/USB.c **** *  No.
2077:.\Generated_Source\PSoC5/USB.c **** *
2078:.\Generated_Source\PSoC5/USB.c **** *******************************************************************************/
2079:.\Generated_Source\PSoC5/USB.c **** uint16 USB_ReadOutEP16(uint8 epNumber, uint8 pData[], uint16 length)
2080:.\Generated_Source\PSoC5/USB.c **** {
2081:.\Generated_Source\PSoC5/USB.c ****     uint32 adjLength;
2082:.\Generated_Source\PSoC5/USB.c **** 
2083:.\Generated_Source\PSoC5/USB.c ****     /* Check array alignment on half-word boundary */
2084:.\Generated_Source\PSoC5/USB.c ****     CYASSERT(0u == (((uint32) pData) & 0x01u));
2085:.\Generated_Source\PSoC5/USB.c **** 
2086:.\Generated_Source\PSoC5/USB.c ****     if ((pData != NULL) && (epNumber > USB_EP0) && (epNumber < USB_MAX_EP))
2087:.\Generated_Source\PSoC5/USB.c ****     {
2088:.\Generated_Source\PSoC5/USB.c ****     #if (!USB_EP_MANAGEMENT_DMA_AUTO)
2089:.\Generated_Source\PSoC5/USB.c ****         /* Adjust requested length to available data. */
2090:.\Generated_Source\PSoC5/USB.c ****         length = (length > USB_GetEPCount(epNumber)) ? USB_GetEPCount(epNumber) : length;
2091:.\Generated_Source\PSoC5/USB.c ****     #endif /* (!USB_EP_MANAGEMENT_DMA_AUTO) */
2092:.\Generated_Source\PSoC5/USB.c **** 
2093:.\Generated_Source\PSoC5/USB.c ****     /* Adjust requested length: 2 bytes are handled at one data register access. */
2094:.\Generated_Source\PSoC5/USB.c ****     adjLength =  length + ((uint32)length & 1u);
2095:.\Generated_Source\PSoC5/USB.c **** 
2096:.\Generated_Source\PSoC5/USB.c ****     #if (USB_EP_MANAGEMENT_MANUAL)
2097:.\Generated_Source\PSoC5/USB.c ****         {
2098:.\Generated_Source\PSoC5/USB.c ****             /* Convert uint8 array to uint16. */
2099:.\Generated_Source\PSoC5/USB.c ****             uint16 *dataBuf = (uint16 *) pData;
2100:.\Generated_Source\PSoC5/USB.c **** 
2101:.\Generated_Source\PSoC5/USB.c ****             /* Copy data using 16-bits arbiter data register. */
2102:.\Generated_Source\PSoC5/USB.c ****             uint16 i;
2103:.\Generated_Source\PSoC5/USB.c ****             for (i = 0u; i < (adjLength >> 1u); ++i)
2104:.\Generated_Source\PSoC5/USB.c ****             {
2105:.\Generated_Source\PSoC5/USB.c ****                 dataBuf[i] = (uint16) USB_ARB_EP16_BASE.arbEp[epNumber].rwDr16;
2106:.\Generated_Source\PSoC5/USB.c ****             }
2107:.\Generated_Source\PSoC5/USB.c ****         }
2108:.\Generated_Source\PSoC5/USB.c **** 
2109:.\Generated_Source\PSoC5/USB.c ****         /* Arm OUT endpoint after data has been read from endpoint buffer. */
2110:.\Generated_Source\PSoC5/USB.c ****         USB_EnableOutEP(epNumber);
2111:.\Generated_Source\PSoC5/USB.c ****     #else
2112:.\Generated_Source\PSoC5/USB.c **** 
2113:.\Generated_Source\PSoC5/USB.c ****         #if (USB_EP_MANAGEMENT_DMA_MANUAL)
2114:.\Generated_Source\PSoC5/USB.c ****         {
2115:.\Generated_Source\PSoC5/USB.c ****             uint32 channelNum = (uint32) USB_DmaChan[epNumber];
2116:.\Generated_Source\PSoC5/USB.c **** 
2117:.\Generated_Source\PSoC5/USB.c ****             /* Disable DMA channel: start configuration. */
2118:.\Generated_Source\PSoC5/USB.c ****             USB_CyDmaChDisable(channelNum);
2119:.\Generated_Source\PSoC5/USB.c **** 
2120:.\Generated_Source\PSoC5/USB.c ****             /* Configure source and destination. */
2121:.\Generated_Source\PSoC5/USB.c ****             USB_CyDmaSetSrcAddress(channelNum, USB_DMA_DESCR0, (void*) &USB_ARB_EP16_BASE.arbEp[epN
2122:.\Generated_Source\PSoC5/USB.c ****             USB_CyDmaSetDstAddress(channelNum, USB_DMA_DESCR0, (void*) pData);
2123:.\Generated_Source\PSoC5/USB.c **** 
2124:.\Generated_Source\PSoC5/USB.c ****             /* Configure DMA descriptor. */
2125:.\Generated_Source\PSoC5/USB.c ****             USB_CyDmaSetConfiguration(channelNum, USB_DMA_DESCR0, USB_DMA_COMMON_CFG | (uint16)((ad
2126:.\Generated_Source\PSoC5/USB.c ****                                                     CYDMA_HALFWORD | CYDMA_WORD_ELEMENT | CYDMA_INC
2127:.\Generated_Source\PSoC5/USB.c **** 
2128:.\Generated_Source\PSoC5/USB.c ****             /* Validate descriptor to execute on following DMA request. */
2129:.\Generated_Source\PSoC5/USB.c ****             USB_CyDmaValidateDescriptor(channelNum, USB_DMA_DESCR0);
2130:.\Generated_Source\PSoC5/USB.c **** 
2131:.\Generated_Source\PSoC5/USB.c ****             /* Enable DMA channel: configuration complete. */
2132:.\Generated_Source\PSoC5/USB.c ****             USB_CyDmaChEnable(channelNum);
ARM GAS  C:\Users\LUKASC~1\AppData\Local\Temp\ccLhh5pu.s 			page 61


2133:.\Generated_Source\PSoC5/USB.c **** 
2134:.\Generated_Source\PSoC5/USB.c ****             /* Generate DMA request. */
2135:.\Generated_Source\PSoC5/USB.c ****             USB_ARB_EP_BASE.arbEp[epNumber].epCfg |=  (uint32)  USB_ARB_EPX_CFG_DMA_REQ;
2136:.\Generated_Source\PSoC5/USB.c ****             USB_ARB_EP_BASE.arbEp[epNumber].epCfg &=  (uint32) ~USB_ARB_EPX_CFG_DMA_REQ;
2137:.\Generated_Source\PSoC5/USB.c **** 
2138:.\Generated_Source\PSoC5/USB.c ****             /* OUT endpoint has to be armed again by user when DMA transfers have been completed.
2139:.\Generated_Source\PSoC5/USB.c ****             * NO_EVENT_PENDING: notifies that data has been copied from endpoint buffer.
2140:.\Generated_Source\PSoC5/USB.c ****             */
2141:.\Generated_Source\PSoC5/USB.c ****         }
2142:.\Generated_Source\PSoC5/USB.c ****         #endif /* (USB_EP_MANAGEMENT_DMA_MANUAL) */
2143:.\Generated_Source\PSoC5/USB.c **** 
2144:.\Generated_Source\PSoC5/USB.c ****         #if (USB_EP_MANAGEMENT_DMA_AUTO)
2145:.\Generated_Source\PSoC5/USB.c ****         {
2146:.\Generated_Source\PSoC5/USB.c ****             uint32 lengthDescr0, lengthDescr1;
2147:.\Generated_Source\PSoC5/USB.c ****             uint32 channelNum = (uint32) USB_DmaChan[epNumber];
2148:.\Generated_Source\PSoC5/USB.c **** 
2149:.\Generated_Source\PSoC5/USB.c ****             /* Get number of full bursts. */
2150:.\Generated_Source\PSoC5/USB.c ****             USB_DmaEpBurstCnt[epNumber] = (uint8) (adjLength / USB_DMA_BYTES_PER_BURST);
2151:.\Generated_Source\PSoC5/USB.c **** 
2152:.\Generated_Source\PSoC5/USB.c ****             /* Get number of elements in last burst. */
2153:.\Generated_Source\PSoC5/USB.c ****             USB_DmaEpLastBurstEl[epNumber] = (uint8) (adjLength % USB_DMA_BYTES_PER_BURST);
2154:.\Generated_Source\PSoC5/USB.c **** 
2155:.\Generated_Source\PSoC5/USB.c ****             /* Get total number of bursts. */
2156:.\Generated_Source\PSoC5/USB.c ****             USB_DmaEpBurstCnt[epNumber] += (0u != USB_DmaEpLastBurstEl[epNumber]) ? 1u : 0u;
2157:.\Generated_Source\PSoC5/USB.c **** 
2158:.\Generated_Source\PSoC5/USB.c ****             /* Adjust number of data elements transferred in last burst. */
2159:.\Generated_Source\PSoC5/USB.c ****             USB_DmaEpLastBurstEl[epNumber] = (0u != USB_DmaEpLastBurstEl[epNumber]) ?
2160:.\Generated_Source\PSoC5/USB.c ****                                                                   ((USB_DmaEpLastBurstEl[epNumber] 
2161:.\Generated_Source\PSoC5/USB.c ****                                                                    (USB_DMA_HALFWORDS_PER_BURST - 1
2162:.\Generated_Source\PSoC5/USB.c **** 
2163:.\Generated_Source\PSoC5/USB.c ****             /* Get number of data elements to transfer for descriptor 0 and 1. */
2164:.\Generated_Source\PSoC5/USB.c ****             lengthDescr0 = (1u == USB_DmaEpBurstCnt[epNumber]) ? USB_DmaEpLastBurstEl[epNumber] : (
2165:.\Generated_Source\PSoC5/USB.c ****             lengthDescr1 = (2u == USB_DmaEpBurstCnt[epNumber]) ? USB_DmaEpLastBurstEl[epNumber] : (
2166:.\Generated_Source\PSoC5/USB.c **** 
2167:.\Generated_Source\PSoC5/USB.c ****             /* Mark last descriptor to be executed. */
2168:.\Generated_Source\PSoC5/USB.c ****             USB_DmaEpLastBurstEl[epNumber] |= (0u != (USB_DmaEpBurstCnt[epNumber] & 0x1u)) ?
2169:.\Generated_Source\PSoC5/USB.c ****                                                                     USB_DMA_DESCR0_MASK : USB_DMA_D
2170:.\Generated_Source\PSoC5/USB.c **** 
2171:.\Generated_Source\PSoC5/USB.c ****             /* Mark if revert number of data elements in descriptor after transfer completion. */
2172:.\Generated_Source\PSoC5/USB.c ****             USB_DmaEpLastBurstEl[epNumber] |= (USB_DmaEpBurstCnt[epNumber] > 2u) ? USB_DMA_DESCR_RE
2173:.\Generated_Source\PSoC5/USB.c **** 
2174:.\Generated_Source\PSoC5/USB.c ****             /* Mark that 16-bits access to data register is performed. */
2175:.\Generated_Source\PSoC5/USB.c ****             USB_DmaEpLastBurstEl[epNumber] |= USB_DMA_DESCR_16BITS;
2176:.\Generated_Source\PSoC5/USB.c **** 
2177:.\Generated_Source\PSoC5/USB.c ****             /* Adjust burst counter taking to account: 2 valid descriptors and interrupt trigger af
2178:.\Generated_Source\PSoC5/USB.c ****             USB_DmaEpBurstCnt[epNumber] = USB_DMA_GET_BURST_CNT(USB_DmaEpBurstCnt[epNumber]);
2179:.\Generated_Source\PSoC5/USB.c **** 
2180:.\Generated_Source\PSoC5/USB.c ****             /* Store address of buffer and burst counter for endpoint. */
2181:.\Generated_Source\PSoC5/USB.c ****             USB_DmaEpBufferAddrBackup[epNumber] = (uint32) pData;
2182:.\Generated_Source\PSoC5/USB.c ****             USB_DmaEpBurstCntBackup[epNumber]   = USB_DmaEpBurstCnt[epNumber];
2183:.\Generated_Source\PSoC5/USB.c **** 
2184:.\Generated_Source\PSoC5/USB.c ****             /* Disable DMA channel: start configuration. */
2185:.\Generated_Source\PSoC5/USB.c ****             USB_CyDmaChDisable(channelNum);
2186:.\Generated_Source\PSoC5/USB.c **** 
2187:.\Generated_Source\PSoC5/USB.c ****             /* Set destination address. */
2188:.\Generated_Source\PSoC5/USB.c ****             USB_CyDmaSetSrcAddress(channelNum, USB_DMA_DESCR0, (void*) &USB_ARB_EP16_BASE.arbEp[epN
2189:.\Generated_Source\PSoC5/USB.c ****             USB_CyDmaSetSrcAddress(channelNum, USB_DMA_DESCR1, (void*) &USB_ARB_EP16_BASE.arbEp[epN
ARM GAS  C:\Users\LUKASC~1\AppData\Local\Temp\ccLhh5pu.s 			page 62


2190:.\Generated_Source\PSoC5/USB.c **** 
2191:.\Generated_Source\PSoC5/USB.c ****             USB_CyDmaSetDstAddress(channelNum, USB_DMA_DESCR0, (void*) ((uint32) pData));
2192:.\Generated_Source\PSoC5/USB.c ****             USB_CyDmaSetDstAddress(channelNum, USB_DMA_DESCR1, (void*) ((uint32) pData + USB_DMA_BY
2193:.\Generated_Source\PSoC5/USB.c **** 
2194:.\Generated_Source\PSoC5/USB.c ****             /* Configure DMA descriptor 0. */
2195:.\Generated_Source\PSoC5/USB.c ****             USB_CyDmaSetConfiguration(channelNum, USB_DMA_DESCR0, USB_DMA_COMMON_CFG  | lengthDescr
2196:.\Generated_Source\PSoC5/USB.c ****                                                     CYDMA_HALFWORD | CYDMA_WORD_ELEMENT | CYDMA_INC
2197:.\Generated_Source\PSoC5/USB.c **** 
2198:.\Generated_Source\PSoC5/USB.c ****             /* Configure DMA descriptor 1. */
2199:.\Generated_Source\PSoC5/USB.c ****             USB_CyDmaSetConfiguration(channelNum, USB_DMA_DESCR1, USB_DMA_COMMON_CFG  | lengthDescr
2200:.\Generated_Source\PSoC5/USB.c ****                                                     CYDMA_HALFWORD | CYDMA_WORD_ELEMENT | CYDMA_INC
2201:.\Generated_Source\PSoC5/USB.c **** 
2202:.\Generated_Source\PSoC5/USB.c ****             /* Enable interrupt from DMA channel. */
2203:.\Generated_Source\PSoC5/USB.c ****             USB_CyDmaSetInterruptMask(channelNum);
2204:.\Generated_Source\PSoC5/USB.c **** 
2205:.\Generated_Source\PSoC5/USB.c ****             /* Validate DMA descriptor 0 and 1. */
2206:.\Generated_Source\PSoC5/USB.c ****             USB_CyDmaValidateDescriptor(channelNum, USB_DMA_DESCR0);
2207:.\Generated_Source\PSoC5/USB.c ****             USB_CyDmaValidateDescriptor(channelNum, USB_DMA_DESCR1);
2208:.\Generated_Source\PSoC5/USB.c **** 
2209:.\Generated_Source\PSoC5/USB.c ****             /* Enable DMA channel: configuration complete. */
2210:.\Generated_Source\PSoC5/USB.c ****             USB_CyDmaChEnable(channelNum);
2211:.\Generated_Source\PSoC5/USB.c **** 
2212:.\Generated_Source\PSoC5/USB.c ****             /* OUT endpoint has to be armed again by user when DMA transfers have been completed.
2213:.\Generated_Source\PSoC5/USB.c ****             * NO_EVENT_PENDING: notifies that data has been copied from endpoint buffer.
2214:.\Generated_Source\PSoC5/USB.c ****             */
2215:.\Generated_Source\PSoC5/USB.c ****         }
2216:.\Generated_Source\PSoC5/USB.c ****         #endif /* (USB_EP_MANAGEMENT_DMA_AUTO) */
2217:.\Generated_Source\PSoC5/USB.c ****     #endif /* (USB_EP_MANAGEMENT_MANUAL) */
2218:.\Generated_Source\PSoC5/USB.c ****     }
2219:.\Generated_Source\PSoC5/USB.c ****     else
2220:.\Generated_Source\PSoC5/USB.c ****     {
2221:.\Generated_Source\PSoC5/USB.c ****         length = 0u;
2222:.\Generated_Source\PSoC5/USB.c ****     }
2223:.\Generated_Source\PSoC5/USB.c **** 
2224:.\Generated_Source\PSoC5/USB.c ****     return (length);
2225:.\Generated_Source\PSoC5/USB.c **** }
2226:.\Generated_Source\PSoC5/USB.c **** #endif /* (USB_16BITS_EP_ACCESS_ENABLE) */
2227:.\Generated_Source\PSoC5/USB.c **** 
2228:.\Generated_Source\PSoC5/USB.c **** 
2229:.\Generated_Source\PSoC5/USB.c **** /*******************************************************************************
2230:.\Generated_Source\PSoC5/USB.c **** * Function Name: USB_EnableOutEP
2231:.\Generated_Source\PSoC5/USB.c **** ****************************************************************************//**
2232:.\Generated_Source\PSoC5/USB.c **** *
2233:.\Generated_Source\PSoC5/USB.c **** *  This function enables the specified endpoint for OUT transfers. Do not call
2234:.\Generated_Source\PSoC5/USB.c **** *  this function for IN endpoints.
2235:.\Generated_Source\PSoC5/USB.c **** *
2236:.\Generated_Source\PSoC5/USB.c **** *  \param epNumber: Contains the data endpoint number. Valid values are between
2237:.\Generated_Source\PSoC5/USB.c **** *  1 and 8.
2238:.\Generated_Source\PSoC5/USB.c **** *
2239:.\Generated_Source\PSoC5/USB.c **** * \globalvars
2240:.\Generated_Source\PSoC5/USB.c **** *
2241:.\Generated_Source\PSoC5/USB.c **** *  \ref USB_EP[epNumber].apiEpState - set to NO_EVENT_PENDING
2242:.\Generated_Source\PSoC5/USB.c **** *
2243:.\Generated_Source\PSoC5/USB.c **** * \reentrant
2244:.\Generated_Source\PSoC5/USB.c **** *  No.
2245:.\Generated_Source\PSoC5/USB.c **** *
2246:.\Generated_Source\PSoC5/USB.c **** *******************************************************************************/
ARM GAS  C:\Users\LUKASC~1\AppData\Local\Temp\ccLhh5pu.s 			page 63


2247:.\Generated_Source\PSoC5/USB.c **** void USB_EnableOutEP(uint8 epNumber) 
2248:.\Generated_Source\PSoC5/USB.c **** {
 1285              		.loc 1 2248 0
 1286              		.cfi_startproc
 1287              		@ args = 0, pretend = 0, frame = 8
 1288              		@ frame_needed = 1, uses_anonymous_args = 0
 1289              		@ link register save eliminated.
 1290 0000 90B4     		push	{r4, r7}
 1291              		.cfi_def_cfa_offset 8
 1292              		.cfi_offset 4, -8
 1293              		.cfi_offset 7, -4
 1294 0002 82B0     		sub	sp, sp, #8
 1295              		.cfi_def_cfa_offset 16
 1296 0004 00AF     		add	r7, sp, #0
 1297              		.cfi_def_cfa_register 7
 1298 0006 0346     		mov	r3, r0
 1299 0008 FB71     		strb	r3, [r7, #7]
2249:.\Generated_Source\PSoC5/USB.c ****     if ((epNumber > USB_EP0) && (epNumber < USB_MAX_EP))
 1300              		.loc 1 2249 0
 1301 000a FB79     		ldrb	r3, [r7, #7]	@ zero_extendqisi2
 1302 000c 002B     		cmp	r3, #0
 1303 000e 19D0     		beq	.L68
 1304              		.loc 1 2249 0 is_stmt 0 discriminator 1
 1305 0010 FB79     		ldrb	r3, [r7, #7]	@ zero_extendqisi2
 1306 0012 082B     		cmp	r3, #8
 1307 0014 16D8     		bhi	.L68
2250:.\Generated_Source\PSoC5/USB.c ****     {
2251:.\Generated_Source\PSoC5/USB.c ****         USB_EP[epNumber].apiEpState = USB_NO_EVENT_PENDING;
 1308              		.loc 1 2251 0 is_stmt 1
 1309 0016 FA79     		ldrb	r2, [r7, #7]	@ zero_extendqisi2
 1310 0018 0C49     		ldr	r1, .L70
 1311 001a 1346     		mov	r3, r2
 1312 001c 5B00     		lsls	r3, r3, #1
 1313 001e 1344     		add	r3, r3, r2
 1314 0020 9B00     		lsls	r3, r3, #2
 1315 0022 0B44     		add	r3, r3, r1
 1316 0024 0022     		movs	r2, #0
 1317 0026 5A70     		strb	r2, [r3, #1]
2252:.\Generated_Source\PSoC5/USB.c **** 
2253:.\Generated_Source\PSoC5/USB.c ****         /* Enable OUT endpoint to be written by Host. */
2254:.\Generated_Source\PSoC5/USB.c ****         USB_SIE_EP_BASE.sieEp[epNumber].epCr0 = USB_EP[epNumber].epMode;
 1318              		.loc 1 2254 0
 1319 0028 0948     		ldr	r0, .L70+4
 1320 002a F979     		ldrb	r1, [r7, #7]	@ zero_extendqisi2
 1321 002c FA79     		ldrb	r2, [r7, #7]	@ zero_extendqisi2
 1322 002e 074C     		ldr	r4, .L70
 1323 0030 1346     		mov	r3, r2
 1324 0032 5B00     		lsls	r3, r3, #1
 1325 0034 1344     		add	r3, r3, r2
 1326 0036 9B00     		lsls	r3, r3, #2
 1327 0038 2344     		add	r3, r3, r4
 1328 003a 5B79     		ldrb	r3, [r3, #5]
 1329 003c DAB2     		uxtb	r2, r3
 1330 003e 0B01     		lsls	r3, r1, #4
 1331 0040 0344     		add	r3, r3, r0
 1332 0042 9A70     		strb	r2, [r3, #2]
 1333              	.L68:
ARM GAS  C:\Users\LUKASC~1\AppData\Local\Temp\ccLhh5pu.s 			page 64


2255:.\Generated_Source\PSoC5/USB.c ****         
2256:.\Generated_Source\PSoC5/USB.c ****     }
2257:.\Generated_Source\PSoC5/USB.c **** }
 1334              		.loc 1 2257 0
 1335 0044 0837     		adds	r7, r7, #8
 1336              		.cfi_def_cfa_offset 8
 1337 0046 BD46     		mov	sp, r7
 1338              		.cfi_def_cfa_register 13
 1339              		@ sp needed
 1340 0048 90BC     		pop	{r4, r7}
 1341              		.cfi_restore 7
 1342              		.cfi_restore 4
 1343              		.cfi_def_cfa_offset 0
 1344 004a 7047     		bx	lr
 1345              	.L71:
 1346              		.align	2
 1347              	.L70:
 1348 004c 00000000 		.word	USB_EP
 1349 0050 FC5F0040 		.word	1073766396
 1350              		.cfi_endproc
 1351              	.LFE13:
 1352              		.size	USB_EnableOutEP, .-USB_EnableOutEP
 1353              		.section	.text.USB_DisableOutEP,"ax",%progbits
 1354              		.align	2
 1355              		.global	USB_DisableOutEP
 1356              		.thumb
 1357              		.thumb_func
 1358              		.type	USB_DisableOutEP, %function
 1359              	USB_DisableOutEP:
 1360              	.LFB14:
2258:.\Generated_Source\PSoC5/USB.c **** 
2259:.\Generated_Source\PSoC5/USB.c **** 
2260:.\Generated_Source\PSoC5/USB.c **** /*******************************************************************************
2261:.\Generated_Source\PSoC5/USB.c **** * Function Name: USB_DisableOutEP
2262:.\Generated_Source\PSoC5/USB.c **** ****************************************************************************//**
2263:.\Generated_Source\PSoC5/USB.c **** *
2264:.\Generated_Source\PSoC5/USB.c **** *  This function disables the specified USBFS OUT endpoint. Do not call this
2265:.\Generated_Source\PSoC5/USB.c **** *  function for IN endpoints.
2266:.\Generated_Source\PSoC5/USB.c **** *
2267:.\Generated_Source\PSoC5/USB.c **** *  \param epNumber: Contains the data endpoint number.
2268:.\Generated_Source\PSoC5/USB.c **** *            Valid values are between 1 and 8.
2269:.\Generated_Source\PSoC5/USB.c **** *
2270:.\Generated_Source\PSoC5/USB.c **** *******************************************************************************/
2271:.\Generated_Source\PSoC5/USB.c **** void USB_DisableOutEP(uint8 epNumber) 
2272:.\Generated_Source\PSoC5/USB.c **** {
 1361              		.loc 1 2272 0
 1362              		.cfi_startproc
 1363              		@ args = 0, pretend = 0, frame = 8
 1364              		@ frame_needed = 1, uses_anonymous_args = 0
 1365              		@ link register save eliminated.
 1366 0000 80B4     		push	{r7}
 1367              		.cfi_def_cfa_offset 4
 1368              		.cfi_offset 7, -4
 1369 0002 83B0     		sub	sp, sp, #12
 1370              		.cfi_def_cfa_offset 16
 1371 0004 00AF     		add	r7, sp, #0
 1372              		.cfi_def_cfa_register 7
ARM GAS  C:\Users\LUKASC~1\AppData\Local\Temp\ccLhh5pu.s 			page 65


 1373 0006 0346     		mov	r3, r0
 1374 0008 FB71     		strb	r3, [r7, #7]
2273:.\Generated_Source\PSoC5/USB.c ****     if ((epNumber > USB_EP0) && (epNumber < USB_MAX_EP))
 1375              		.loc 1 2273 0
 1376 000a FB79     		ldrb	r3, [r7, #7]	@ zero_extendqisi2
 1377 000c 002B     		cmp	r3, #0
 1378 000e 08D0     		beq	.L72
 1379              		.loc 1 2273 0 is_stmt 0 discriminator 1
 1380 0010 FB79     		ldrb	r3, [r7, #7]	@ zero_extendqisi2
 1381 0012 082B     		cmp	r3, #8
 1382 0014 05D8     		bhi	.L72
2274:.\Generated_Source\PSoC5/USB.c ****     {
2275:.\Generated_Source\PSoC5/USB.c ****         /* Set NAK response for OUT endpoint. */
2276:.\Generated_Source\PSoC5/USB.c ****         USB_SIE_EP_BASE.sieEp[epNumber].epCr0 = USB_MODE_NAK_OUT;
 1383              		.loc 1 2276 0 is_stmt 1
 1384 0016 054A     		ldr	r2, .L74
 1385 0018 FB79     		ldrb	r3, [r7, #7]	@ zero_extendqisi2
 1386 001a 1B01     		lsls	r3, r3, #4
 1387 001c 1344     		add	r3, r3, r2
 1388 001e 0822     		movs	r2, #8
 1389 0020 9A70     		strb	r2, [r3, #2]
 1390              	.L72:
2277:.\Generated_Source\PSoC5/USB.c ****     }
2278:.\Generated_Source\PSoC5/USB.c **** }
 1391              		.loc 1 2278 0
 1392 0022 0C37     		adds	r7, r7, #12
 1393              		.cfi_def_cfa_offset 4
 1394 0024 BD46     		mov	sp, r7
 1395              		.cfi_def_cfa_register 13
 1396              		@ sp needed
 1397 0026 5DF8047B 		ldr	r7, [sp], #4
 1398              		.cfi_restore 7
 1399              		.cfi_def_cfa_offset 0
 1400 002a 7047     		bx	lr
 1401              	.L75:
 1402              		.align	2
 1403              	.L74:
 1404 002c FC5F0040 		.word	1073766396
 1405              		.cfi_endproc
 1406              	.LFE14:
 1407              		.size	USB_DisableOutEP, .-USB_DisableOutEP
 1408              		.section	.text.USB_Force,"ax",%progbits
 1409              		.align	2
 1410              		.global	USB_Force
 1411              		.thumb
 1412              		.thumb_func
 1413              		.type	USB_Force, %function
 1414              	USB_Force:
 1415              	.LFB15:
2279:.\Generated_Source\PSoC5/USB.c **** 
2280:.\Generated_Source\PSoC5/USB.c **** 
2281:.\Generated_Source\PSoC5/USB.c **** /*******************************************************************************
2282:.\Generated_Source\PSoC5/USB.c **** * Function Name: USB_Force
2283:.\Generated_Source\PSoC5/USB.c **** ****************************************************************************//**
2284:.\Generated_Source\PSoC5/USB.c **** *
2285:.\Generated_Source\PSoC5/USB.c **** *  This function forces a USB J, K, or SE0 state on the D+/D– lines. It provides
2286:.\Generated_Source\PSoC5/USB.c **** *  the necessary mechanism for a USB device application to perform a USB Remote
ARM GAS  C:\Users\LUKASC~1\AppData\Local\Temp\ccLhh5pu.s 			page 66


2287:.\Generated_Source\PSoC5/USB.c **** *  Wakeup. For more information, see the USB 2.0 Specification for details on
2288:.\Generated_Source\PSoC5/USB.c **** *  Suspend and Resume.
2289:.\Generated_Source\PSoC5/USB.c **** *
2290:.\Generated_Source\PSoC5/USB.c **** *  \param state A byte indicating which of the four bus states to enable.
2291:.\Generated_Source\PSoC5/USB.c **** *        Symbolic names  and their associated values are listed here:
2292:.\Generated_Source\PSoC5/USB.c **** *    State                      |Description
2293:.\Generated_Source\PSoC5/USB.c **** *    ---------------------------|----------------------------------------------
2294:.\Generated_Source\PSoC5/USB.c **** *    USB_FORCE_J   | Force a J State onto the D+/D– lines
2295:.\Generated_Source\PSoC5/USB.c **** *    USB_FORCE_K   | Force a K State onto the D+/D– lines
2296:.\Generated_Source\PSoC5/USB.c **** *    USB_FORCE_SE0 | Force a Single Ended 0 onto the D+/D– lines
2297:.\Generated_Source\PSoC5/USB.c **** *    USB_FORCE_NONE| Return bus to SIE control
2298:.\Generated_Source\PSoC5/USB.c **** *
2299:.\Generated_Source\PSoC5/USB.c **** *
2300:.\Generated_Source\PSoC5/USB.c **** *******************************************************************************/
2301:.\Generated_Source\PSoC5/USB.c **** void USB_Force(uint8 bState) 
2302:.\Generated_Source\PSoC5/USB.c **** {
 1416              		.loc 1 2302 0
 1417              		.cfi_startproc
 1418              		@ args = 0, pretend = 0, frame = 8
 1419              		@ frame_needed = 1, uses_anonymous_args = 0
 1420              		@ link register save eliminated.
 1421 0000 80B4     		push	{r7}
 1422              		.cfi_def_cfa_offset 4
 1423              		.cfi_offset 7, -4
 1424 0002 83B0     		sub	sp, sp, #12
 1425              		.cfi_def_cfa_offset 16
 1426 0004 00AF     		add	r7, sp, #0
 1427              		.cfi_def_cfa_register 7
 1428 0006 0346     		mov	r3, r0
 1429 0008 FB71     		strb	r3, [r7, #7]
2303:.\Generated_Source\PSoC5/USB.c ****     /* This registers is used only for manual control of SIE (no masking is
2304:.\Generated_Source\PSoC5/USB.c ****     * needed before write into it).
2305:.\Generated_Source\PSoC5/USB.c ****     */
2306:.\Generated_Source\PSoC5/USB.c ****     USB_USBIO_CR0_REG = bState;
 1430              		.loc 1 2306 0
 1431 000a 044A     		ldr	r2, .L77
 1432 000c FB79     		ldrb	r3, [r7, #7]
 1433 000e 1370     		strb	r3, [r2]
2307:.\Generated_Source\PSoC5/USB.c **** }
 1434              		.loc 1 2307 0
 1435 0010 0C37     		adds	r7, r7, #12
 1436              		.cfi_def_cfa_offset 4
 1437 0012 BD46     		mov	sp, r7
 1438              		.cfi_def_cfa_register 13
 1439              		@ sp needed
 1440 0014 5DF8047B 		ldr	r7, [sp], #4
 1441              		.cfi_restore 7
 1442              		.cfi_def_cfa_offset 0
 1443 0018 7047     		bx	lr
 1444              	.L78:
 1445 001a 00BF     		.align	2
 1446              	.L77:
 1447 001c 10600040 		.word	1073766416
 1448              		.cfi_endproc
 1449              	.LFE15:
 1450              		.size	USB_Force, .-USB_Force
 1451              		.section	.text.USB_GetEPAckState,"ax",%progbits
ARM GAS  C:\Users\LUKASC~1\AppData\Local\Temp\ccLhh5pu.s 			page 67


 1452              		.align	2
 1453              		.global	USB_GetEPAckState
 1454              		.thumb
 1455              		.thumb_func
 1456              		.type	USB_GetEPAckState, %function
 1457              	USB_GetEPAckState:
 1458              	.LFB16:
2308:.\Generated_Source\PSoC5/USB.c **** 
2309:.\Generated_Source\PSoC5/USB.c **** 
2310:.\Generated_Source\PSoC5/USB.c **** /*******************************************************************************
2311:.\Generated_Source\PSoC5/USB.c **** * Function Name: USB_GetEPAckState
2312:.\Generated_Source\PSoC5/USB.c **** ****************************************************************************//**
2313:.\Generated_Source\PSoC5/USB.c **** *
2314:.\Generated_Source\PSoC5/USB.c **** *  This function determines whether an ACK transaction occurred on this endpoint
2315:.\Generated_Source\PSoC5/USB.c **** *  by reading the ACK bit in the control register of the endpoint. It does not
2316:.\Generated_Source\PSoC5/USB.c **** *  clear the ACK bit.
2317:.\Generated_Source\PSoC5/USB.c **** *
2318:.\Generated_Source\PSoC5/USB.c **** *  \param epNumber Contains the data endpoint number.
2319:.\Generated_Source\PSoC5/USB.c **** *            Valid values are between 1 and 8.
2320:.\Generated_Source\PSoC5/USB.c **** *
2321:.\Generated_Source\PSoC5/USB.c **** *  \return
2322:.\Generated_Source\PSoC5/USB.c **** *  If an ACKed transaction occurred, this function returns a non-zero value.
2323:.\Generated_Source\PSoC5/USB.c **** *  Otherwise, it returns zero.
2324:.\Generated_Source\PSoC5/USB.c **** *
2325:.\Generated_Source\PSoC5/USB.c **** *******************************************************************************/
2326:.\Generated_Source\PSoC5/USB.c **** uint8 USB_GetEPAckState(uint8 epNumber) 
2327:.\Generated_Source\PSoC5/USB.c **** {
 1459              		.loc 1 2327 0
 1460              		.cfi_startproc
 1461              		@ args = 0, pretend = 0, frame = 16
 1462              		@ frame_needed = 1, uses_anonymous_args = 0
 1463              		@ link register save eliminated.
 1464 0000 80B4     		push	{r7}
 1465              		.cfi_def_cfa_offset 4
 1466              		.cfi_offset 7, -4
 1467 0002 85B0     		sub	sp, sp, #20
 1468              		.cfi_def_cfa_offset 24
 1469 0004 00AF     		add	r7, sp, #0
 1470              		.cfi_def_cfa_register 7
 1471 0006 0346     		mov	r3, r0
 1472 0008 FB71     		strb	r3, [r7, #7]
2328:.\Generated_Source\PSoC5/USB.c ****     uint8 cr = 0u;
 1473              		.loc 1 2328 0
