ARM GAS  C:\Users\LUKASC~1\AppData\Local\Temp\ccFORT3E.s 			page 1


   1              		.syntax unified
   2              		.cpu cortex-m3
   3              		.fpu softvfp
   4              		.eabi_attribute 20, 1
   5              		.eabi_attribute 21, 1
   6              		.eabi_attribute 23, 3
   7              		.eabi_attribute 24, 1
   8              		.eabi_attribute 25, 1
   9              		.eabi_attribute 26, 1
  10              		.eabi_attribute 30, 6
  11              		.eabi_attribute 34, 1
  12              		.eabi_attribute 18, 4
  13              		.thumb
  14              		.file	"USB_audio.c"
  15              		.text
  16              	.Ltext0:
  17              		.cfi_sections	.debug_frame
  18              		.section	.text.USB_DispatchAUDIOClassRqst,"ax",%progbits
  19              		.align	2
  20              		.global	USB_DispatchAUDIOClassRqst
  21              		.thumb
  22              		.thumb_func
  23              		.type	USB_DispatchAUDIOClassRqst, %function
  24              	USB_DispatchAUDIOClassRqst:
  25              	.LFB0:
  26              		.file 1 ".\\Generated_Source\\PSoC5\\USB_audio.c"
   1:.\Generated_Source\PSoC5/USB_audio.c **** /***************************************************************************//**
   2:.\Generated_Source\PSoC5/USB_audio.c **** * \file USB_audio.c
   3:.\Generated_Source\PSoC5/USB_audio.c **** * \version 3.0
   4:.\Generated_Source\PSoC5/USB_audio.c **** *
   5:.\Generated_Source\PSoC5/USB_audio.c **** * \brief
   6:.\Generated_Source\PSoC5/USB_audio.c **** *  This file contains the USB AUDIO Class request handler.
   7:.\Generated_Source\PSoC5/USB_audio.c **** *
   8:.\Generated_Source\PSoC5/USB_audio.c **** * Related Document:
   9:.\Generated_Source\PSoC5/USB_audio.c **** *  Universal Serial Bus Device Class Definition for Audio Devices Release 1.0
  10:.\Generated_Source\PSoC5/USB_audio.c **** *
  11:.\Generated_Source\PSoC5/USB_audio.c **** ********************************************************************************
  12:.\Generated_Source\PSoC5/USB_audio.c **** * \copyright
  13:.\Generated_Source\PSoC5/USB_audio.c **** * Copyright 2008-2015, Cypress Semiconductor Corporation.  All rights reserved.
  14:.\Generated_Source\PSoC5/USB_audio.c **** * You may use this file only in accordance with the license, terms, conditions,
  15:.\Generated_Source\PSoC5/USB_audio.c **** * disclaimers, and limitations in the end user license agreement accompanying
  16:.\Generated_Source\PSoC5/USB_audio.c **** * the software package with which this file was provided.
  17:.\Generated_Source\PSoC5/USB_audio.c **** *******************************************************************************/
  18:.\Generated_Source\PSoC5/USB_audio.c **** 
  19:.\Generated_Source\PSoC5/USB_audio.c **** #include "USB_audio.h"
  20:.\Generated_Source\PSoC5/USB_audio.c **** #include "USB_pvt.h"
  21:.\Generated_Source\PSoC5/USB_audio.c **** #include "cyapicallbacks.h"
  22:.\Generated_Source\PSoC5/USB_audio.c **** 
  23:.\Generated_Source\PSoC5/USB_audio.c **** #if defined(USB_ENABLE_AUDIO_CLASS)
  24:.\Generated_Source\PSoC5/USB_audio.c **** 
  25:.\Generated_Source\PSoC5/USB_audio.c **** /***************************************
  26:.\Generated_Source\PSoC5/USB_audio.c **** * Custom Declarations
  27:.\Generated_Source\PSoC5/USB_audio.c **** ***************************************/
  28:.\Generated_Source\PSoC5/USB_audio.c **** 
  29:.\Generated_Source\PSoC5/USB_audio.c **** /* `#START CUSTOM_DECLARATIONS` Place your declaration here */
  30:.\Generated_Source\PSoC5/USB_audio.c **** 
  31:.\Generated_Source\PSoC5/USB_audio.c **** /* `#END` */
ARM GAS  C:\Users\LUKASC~1\AppData\Local\Temp\ccFORT3E.s 			page 2


  32:.\Generated_Source\PSoC5/USB_audio.c **** 
  33:.\Generated_Source\PSoC5/USB_audio.c **** 
  34:.\Generated_Source\PSoC5/USB_audio.c **** #if !defined(USER_SUPPLIED_AUDIO_HANDLER)
  35:.\Generated_Source\PSoC5/USB_audio.c **** 
  36:.\Generated_Source\PSoC5/USB_audio.c **** /***************************************
  37:.\Generated_Source\PSoC5/USB_audio.c **** *    AUDIO Variables
  38:.\Generated_Source\PSoC5/USB_audio.c **** ***************************************/
  39:.\Generated_Source\PSoC5/USB_audio.c **** 
  40:.\Generated_Source\PSoC5/USB_audio.c **** #if defined(USB_ENABLE_AUDIO_STREAMING)
  41:.\Generated_Source\PSoC5/USB_audio.c ****     /** Contains the current audio sample frequency. It is set by the host using a SET_CUR request 
  42:.\Generated_Source\PSoC5/USB_audio.c ****     volatile uint8 USB_currentSampleFrequency[USB_MAX_EP][USB_SAMPLE_FREQ_LEN];
  43:.\Generated_Source\PSoC5/USB_audio.c ****     /** Used as a flag for the user code, to inform it that the host has been sent a request 
  44:.\Generated_Source\PSoC5/USB_audio.c ****      * to change the sample frequency. The sample frequency will be sent on the next OUT transactio
  45:.\Generated_Source\PSoC5/USB_audio.c ****      * It contains the endpoint address when set. The following code is recommended for 
  46:.\Generated_Source\PSoC5/USB_audio.c ****      * detecting new sample frequency in main code:
  47:.\Generated_Source\PSoC5/USB_audio.c ****      * \snippet  /USBFS_sut_02.cydsn/main.c Detecting new Sample Frequency
  48:.\Generated_Source\PSoC5/USB_audio.c ****      *     
  49:.\Generated_Source\PSoC5/USB_audio.c ****      * The USBFS_transferState variable is checked to make sure that the transfer completes. */
  50:.\Generated_Source\PSoC5/USB_audio.c ****     volatile uint8 USB_frequencyChanged;
  51:.\Generated_Source\PSoC5/USB_audio.c ****     /** Contains the mute configuration set by the host.*/
  52:.\Generated_Source\PSoC5/USB_audio.c ****     volatile uint8 USB_currentMute;
  53:.\Generated_Source\PSoC5/USB_audio.c ****     /** Contains the volume level set by the host.*/
  54:.\Generated_Source\PSoC5/USB_audio.c ****     volatile uint8 USB_currentVolume[USB_VOLUME_LEN];
  55:.\Generated_Source\PSoC5/USB_audio.c ****     volatile uint8 USB_minimumVolume[USB_VOLUME_LEN] = {USB_VOL_MIN_LSB,
  56:.\Generated_Source\PSoC5/USB_audio.c ****                                                                                   USB_VOL_MIN_MSB};
  57:.\Generated_Source\PSoC5/USB_audio.c ****     volatile uint8 USB_maximumVolume[USB_VOLUME_LEN] = {USB_VOL_MAX_LSB,
  58:.\Generated_Source\PSoC5/USB_audio.c ****                                                                                   USB_VOL_MAX_MSB};
  59:.\Generated_Source\PSoC5/USB_audio.c ****     volatile uint8 USB_resolutionVolume[USB_VOLUME_LEN] = {USB_VOL_RES_LSB,
  60:.\Generated_Source\PSoC5/USB_audio.c ****                                                                                      USB_VOL_RES_MS
  61:.\Generated_Source\PSoC5/USB_audio.c **** #endif /*  USB_ENABLE_AUDIO_STREAMING */
  62:.\Generated_Source\PSoC5/USB_audio.c **** 
  63:.\Generated_Source\PSoC5/USB_audio.c **** 
  64:.\Generated_Source\PSoC5/USB_audio.c **** /*******************************************************************************
  65:.\Generated_Source\PSoC5/USB_audio.c **** * Function Name: USB_DispatchAUDIOClassRqst
  66:.\Generated_Source\PSoC5/USB_audio.c **** ****************************************************************************//**
  67:.\Generated_Source\PSoC5/USB_audio.c **** *
  68:.\Generated_Source\PSoC5/USB_audio.c **** *  This routine dispatches class requests
  69:.\Generated_Source\PSoC5/USB_audio.c **** *
  70:.\Generated_Source\PSoC5/USB_audio.c **** * \return
  71:.\Generated_Source\PSoC5/USB_audio.c **** *  Results of Audio Class request handling: 
  72:.\Generated_Source\PSoC5/USB_audio.c **** *  - USB_TRUE  - request was handled without errors
  73:.\Generated_Source\PSoC5/USB_audio.c **** *  - USB_FALSE - error occurs during handling of request     
  74:.\Generated_Source\PSoC5/USB_audio.c **** *
  75:.\Generated_Source\PSoC5/USB_audio.c **** * \globalvars
  76:.\Generated_Source\PSoC5/USB_audio.c **** *   USB_currentSampleFrequency: Contains the current audio Sample
  77:.\Generated_Source\PSoC5/USB_audio.c **** *       Frequency. It is set by the Host using SET_CUR request to the endpoint.
  78:.\Generated_Source\PSoC5/USB_audio.c **** *   USB_frequencyChanged: This variable is used as a flag for the
  79:.\Generated_Source\PSoC5/USB_audio.c **** *       user code, to be aware that Host has been sent request for changing
  80:.\Generated_Source\PSoC5/USB_audio.c **** *       Sample Frequency. Sample frequency will be sent on the next OUT
  81:.\Generated_Source\PSoC5/USB_audio.c **** *       transaction. It is contains endpoint address when set. The following
  82:.\Generated_Source\PSoC5/USB_audio.c **** *       code is recommended for detecting new Sample Frequency in main code:
  83:.\Generated_Source\PSoC5/USB_audio.c **** *       
  84:.\Generated_Source\PSoC5/USB_audio.c **** *  \snippet  /USBFS_sut_02.cydsn/main.c Detecting new Sample Frequency
  85:.\Generated_Source\PSoC5/USB_audio.c **** *      
  86:.\Generated_Source\PSoC5/USB_audio.c **** *   USB_transferState variable is checked to be sure that transfer
  87:.\Generated_Source\PSoC5/USB_audio.c **** *              completes.
  88:.\Generated_Source\PSoC5/USB_audio.c **** *   USB_currentMute: Contains mute configuration set by Host.
ARM GAS  C:\Users\LUKASC~1\AppData\Local\Temp\ccFORT3E.s 			page 3


  89:.\Generated_Source\PSoC5/USB_audio.c **** *   USB_currentVolume: Contains volume level set by Host.
  90:.\Generated_Source\PSoC5/USB_audio.c **** *
  91:.\Generated_Source\PSoC5/USB_audio.c **** * \reentrant
  92:.\Generated_Source\PSoC5/USB_audio.c **** *  No.
  93:.\Generated_Source\PSoC5/USB_audio.c **** *
  94:.\Generated_Source\PSoC5/USB_audio.c **** *******************************************************************************/
  95:.\Generated_Source\PSoC5/USB_audio.c **** uint8 USB_DispatchAUDIOClassRqst(void) 
  96:.\Generated_Source\PSoC5/USB_audio.c **** {
  27              		.loc 1 96 0
  28              		.cfi_startproc
  29              		@ args = 0, pretend = 0, frame = 8
  30              		@ frame_needed = 1, uses_anonymous_args = 0
  31              		@ link register save eliminated.
  32 0000 80B4     		push	{r7}
  33              		.cfi_def_cfa_offset 4
  34              		.cfi_offset 7, -4
  35 0002 83B0     		sub	sp, sp, #12
  36              		.cfi_def_cfa_offset 16
  37 0004 00AF     		add	r7, sp, #0
  38              		.cfi_def_cfa_register 7
  97:.\Generated_Source\PSoC5/USB_audio.c ****     uint8 requestHandled = USB_FALSE;
  39              		.loc 1 97 0
  40 0006 0023     		movs	r3, #0
  41 0008 FB71     		strb	r3, [r7, #7]
  98:.\Generated_Source\PSoC5/USB_audio.c ****     
  99:.\Generated_Source\PSoC5/USB_audio.c ****     uint8 RqstRcpt = (uint8)(USB_bmRequestTypeReg & USB_RQST_RCPT_MASK);
  42              		.loc 1 99 0
  43 000a 1F4B     		ldr	r3, .L23
  44 000c 1B78     		ldrb	r3, [r3]
  45 000e DBB2     		uxtb	r3, r3
  46 0010 03F00303 		and	r3, r3, #3
  47 0014 BB71     		strb	r3, [r7, #6]
 100:.\Generated_Source\PSoC5/USB_audio.c **** #if defined(USB_ENABLE_AUDIO_STREAMING)
 101:.\Generated_Source\PSoC5/USB_audio.c ****     uint8 wValueHi = (uint8) USB_wValueHiReg;
 102:.\Generated_Source\PSoC5/USB_audio.c ****     uint8 epNumber = (uint8) USB_wIndexLoReg & USB_DIR_UNUSED;
 103:.\Generated_Source\PSoC5/USB_audio.c **** #endif /* (USB_ENABLE_AUDIO_STREAMING) */
 104:.\Generated_Source\PSoC5/USB_audio.c ****     
 105:.\Generated_Source\PSoC5/USB_audio.c ****     /* Check request direction: D2H or H2D. */
 106:.\Generated_Source\PSoC5/USB_audio.c ****     if (0u != (USB_bmRequestTypeReg & USB_RQST_DIR_D2H))
  48              		.loc 1 106 0
  49 0016 1C4B     		ldr	r3, .L23
  50 0018 1B78     		ldrb	r3, [r3]
  51 001a DBB2     		uxtb	r3, r3
  52 001c DBB2     		uxtb	r3, r3
  53 001e 5BB2     		sxtb	r3, r3
  54 0020 002B     		cmp	r3, #0
  55 0022 15DA     		bge	.L2
 107:.\Generated_Source\PSoC5/USB_audio.c ****     {
 108:.\Generated_Source\PSoC5/USB_audio.c ****         /* Handle direction from device to host. */
 109:.\Generated_Source\PSoC5/USB_audio.c ****         
 110:.\Generated_Source\PSoC5/USB_audio.c ****         if (USB_RQST_RCPT_EP == RqstRcpt)
  56              		.loc 1 110 0
  57 0024 BB79     		ldrb	r3, [r7, #6]	@ zero_extendqisi2
  58 0026 022B     		cmp	r3, #2
  59 0028 07D1     		bne	.L3
 111:.\Generated_Source\PSoC5/USB_audio.c ****         {
 112:.\Generated_Source\PSoC5/USB_audio.c ****             /* Request recipient is to endpoint. */
ARM GAS  C:\Users\LUKASC~1\AppData\Local\Temp\ccFORT3E.s 			page 4


 113:.\Generated_Source\PSoC5/USB_audio.c ****             switch (USB_bRequestReg)
  60              		.loc 1 113 0
  61 002a 174B     		ldr	r3, .L23
  62 002c 5B78     		ldrb	r3, [r3, #1]
  63 002e DBB2     		uxtb	r3, r3
  64 0030 812B     		cmp	r3, #129
  65 0032 00D0     		beq	.L19
 114:.\Generated_Source\PSoC5/USB_audio.c ****             {
 115:.\Generated_Source\PSoC5/USB_audio.c ****                 case USB_GET_CUR:
 116:.\Generated_Source\PSoC5/USB_audio.c ****                 #if defined(USB_ENABLE_AUDIO_STREAMING)
 117:.\Generated_Source\PSoC5/USB_audio.c ****                     if (wValueHi == USB_SAMPLING_FREQ_CONTROL)
 118:.\Generated_Source\PSoC5/USB_audio.c ****                     {
 119:.\Generated_Source\PSoC5/USB_audio.c ****                          /* point Control Selector is Sampling Frequency */
 120:.\Generated_Source\PSoC5/USB_audio.c ****                         USB_currentTD.wCount = USB_SAMPLE_FREQ_LEN;
 121:.\Generated_Source\PSoC5/USB_audio.c ****                         USB_currentTD.pData  = USB_currentSampleFrequency[epNumber];
 122:.\Generated_Source\PSoC5/USB_audio.c ****                         
 123:.\Generated_Source\PSoC5/USB_audio.c ****                         requestHandled   = USB_InitControlRead();
 124:.\Generated_Source\PSoC5/USB_audio.c ****                     }
 125:.\Generated_Source\PSoC5/USB_audio.c ****                 #endif /* (USB_ENABLE_AUDIO_STREAMING) */
 126:.\Generated_Source\PSoC5/USB_audio.c ****                 
 127:.\Generated_Source\PSoC5/USB_audio.c ****                     /* `#START AUDIO_READ_REQUESTS` Place other request handler here */
 128:.\Generated_Source\PSoC5/USB_audio.c **** 
 129:.\Generated_Source\PSoC5/USB_audio.c ****                     /* `#END` */
 130:.\Generated_Source\PSoC5/USB_audio.c ****                 
 131:.\Generated_Source\PSoC5/USB_audio.c ****                 #ifdef USB_DISPATCH_AUDIO_CLASS_AUDIO_READ_REQUESTS_CALLBACK    
 132:.\Generated_Source\PSoC5/USB_audio.c ****                     USB_DispatchAUDIOClass_AUDIO_READ_REQUESTS_Callback();
 133:.\Generated_Source\PSoC5/USB_audio.c ****                 #endif /* (USB_DISPATCH_AUDIO_CLASS_AUDIO_READ_REQUESTS_CALLBACK) */               
 134:.\Generated_Source\PSoC5/USB_audio.c ****                 break;
 135:.\Generated_Source\PSoC5/USB_audio.c ****                 
 136:.\Generated_Source\PSoC5/USB_audio.c ****                 default:
 137:.\Generated_Source\PSoC5/USB_audio.c ****                     /* Do not handle this request unless callback is defined. */
 138:.\Generated_Source\PSoC5/USB_audio.c ****                     break;
  66              		.loc 1 138 0
  67 0034 00E0     		b	.L6
  68              	.L19:
 134:.\Generated_Source\PSoC5/USB_audio.c ****                 
  69              		.loc 1 134 0
  70 0036 00BF     		nop
  71              	.L6:
  72 0038 1FE0     		b	.L7
  73              	.L3:
 139:.\Generated_Source\PSoC5/USB_audio.c ****             }
 140:.\Generated_Source\PSoC5/USB_audio.c ****         
 141:.\Generated_Source\PSoC5/USB_audio.c ****         }
 142:.\Generated_Source\PSoC5/USB_audio.c ****         else if (USB_RQST_RCPT_IFC == RqstRcpt)
  74              		.loc 1 142 0
  75 003a BB79     		ldrb	r3, [r7, #6]	@ zero_extendqisi2
  76 003c 012B     		cmp	r3, #1
  77 003e 1CD1     		bne	.L7
 143:.\Generated_Source\PSoC5/USB_audio.c ****         {
 144:.\Generated_Source\PSoC5/USB_audio.c ****             /* Request recipient is interface or entity ID. */
 145:.\Generated_Source\PSoC5/USB_audio.c ****             switch (USB_bRequestReg)
  78              		.loc 1 145 0
  79 0040 114B     		ldr	r3, .L23
  80 0042 5B78     		ldrb	r3, [r3, #1]
  81 0044 DBB2     		uxtb	r3, r3
  82 0046 812B     		cmp	r3, #129
ARM GAS  C:\Users\LUKASC~1\AppData\Local\Temp\ccFORT3E.s 			page 5


  83 0048 00D0     		beq	.L20
 146:.\Generated_Source\PSoC5/USB_audio.c ****             {
 147:.\Generated_Source\PSoC5/USB_audio.c ****                 case USB_GET_CUR:
 148:.\Generated_Source\PSoC5/USB_audio.c ****                 #if defined(USB_ENABLE_AUDIO_STREAMING)
 149:.\Generated_Source\PSoC5/USB_audio.c ****                     if (wValueHi == USB_MUTE_CONTROL)
 150:.\Generated_Source\PSoC5/USB_audio.c ****                     {
 151:.\Generated_Source\PSoC5/USB_audio.c ****                         /* `#START MUTE_CONTROL_GET_REQUEST` Place multi-channel handler here */
 152:.\Generated_Source\PSoC5/USB_audio.c **** 
 153:.\Generated_Source\PSoC5/USB_audio.c ****                         /* `#END` */
 154:.\Generated_Source\PSoC5/USB_audio.c **** 
 155:.\Generated_Source\PSoC5/USB_audio.c ****                     #ifdef USB_DISPATCH_AUDIO_CLASS_MUTE_CONTROL_GET_REQUEST_CALLBACK
 156:.\Generated_Source\PSoC5/USB_audio.c ****                         USB_DispatchAUDIOClass_MUTE_CONTROL_GET_REQUEST_Callback();
 157:.\Generated_Source\PSoC5/USB_audio.c ****                     #endif /* (USB_DISPATCH_AUDIO_CLASS_MUTE_CONTROL_GET_REQUEST_CALLBACK) */
 158:.\Generated_Source\PSoC5/USB_audio.c **** 
 159:.\Generated_Source\PSoC5/USB_audio.c ****                         /* Entity ID Control Selector is MUTE */
 160:.\Generated_Source\PSoC5/USB_audio.c ****                         USB_currentTD.wCount = 1u;
 161:.\Generated_Source\PSoC5/USB_audio.c ****                         USB_currentTD.pData  = &USB_currentMute;
 162:.\Generated_Source\PSoC5/USB_audio.c ****                         
 163:.\Generated_Source\PSoC5/USB_audio.c ****                         requestHandled = USB_InitControlRead();
 164:.\Generated_Source\PSoC5/USB_audio.c ****                     }
 165:.\Generated_Source\PSoC5/USB_audio.c ****                     else if (wValueHi == USB_VOLUME_CONTROL)
 166:.\Generated_Source\PSoC5/USB_audio.c ****                     {
 167:.\Generated_Source\PSoC5/USB_audio.c ****                         /* `#START VOLUME_CONTROL_GET_REQUEST` Place multi-channel handler here */
 168:.\Generated_Source\PSoC5/USB_audio.c **** 
 169:.\Generated_Source\PSoC5/USB_audio.c ****                         /* `#END` */
 170:.\Generated_Source\PSoC5/USB_audio.c **** 
 171:.\Generated_Source\PSoC5/USB_audio.c ****                     #ifdef USB_DISPATCH_AUDIO_CLASS_VOLUME_CONTROL_GET_REQUEST_CALLBACK
 172:.\Generated_Source\PSoC5/USB_audio.c ****                         USB_DispatchAUDIOClass_VOLUME_CONTROL_GET_REQUEST_Callback();
 173:.\Generated_Source\PSoC5/USB_audio.c ****                     #endif /* (USB_DISPATCH_AUDIO_CLASS_VOLUME_CONTROL_GET_REQUEST_CALLBACK) */
 174:.\Generated_Source\PSoC5/USB_audio.c **** 
 175:.\Generated_Source\PSoC5/USB_audio.c ****                         /* Entity ID Control Selector is VOLUME, */
 176:.\Generated_Source\PSoC5/USB_audio.c ****                         USB_currentTD.wCount = USB_VOLUME_LEN;
 177:.\Generated_Source\PSoC5/USB_audio.c ****                         USB_currentTD.pData  = USB_currentVolume;
 178:.\Generated_Source\PSoC5/USB_audio.c ****                         
 179:.\Generated_Source\PSoC5/USB_audio.c ****                         requestHandled = USB_InitControlRead();
 180:.\Generated_Source\PSoC5/USB_audio.c ****                     }
 181:.\Generated_Source\PSoC5/USB_audio.c ****                     else
 182:.\Generated_Source\PSoC5/USB_audio.c ****                     {
 183:.\Generated_Source\PSoC5/USB_audio.c ****                         /* `#START OTHER_GET_CUR_REQUESTS` Place other request handler here */
 184:.\Generated_Source\PSoC5/USB_audio.c **** 
 185:.\Generated_Source\PSoC5/USB_audio.c ****                         /* `#END` */
 186:.\Generated_Source\PSoC5/USB_audio.c **** 
 187:.\Generated_Source\PSoC5/USB_audio.c ****                     #ifdef USB_DISPATCH_AUDIO_CLASS_OTHER_GET_CUR_REQUESTS_CALLBACK
 188:.\Generated_Source\PSoC5/USB_audio.c ****                         USB_DispatchAUDIOClass_OTHER_GET_CUR_REQUESTS_Callback();
 189:.\Generated_Source\PSoC5/USB_audio.c ****                     #endif /* (USB_DISPATCH_AUDIO_CLASS_OTHER_GET_CUR_REQUESTS_CALLBACK) */
 190:.\Generated_Source\PSoC5/USB_audio.c ****                     }
 191:.\Generated_Source\PSoC5/USB_audio.c ****                     break;
 192:.\Generated_Source\PSoC5/USB_audio.c ****                     
 193:.\Generated_Source\PSoC5/USB_audio.c ****                 case USB_GET_MIN:
 194:.\Generated_Source\PSoC5/USB_audio.c ****                     if (wValueHi == USB_VOLUME_CONTROL)
 195:.\Generated_Source\PSoC5/USB_audio.c ****                     {
 196:.\Generated_Source\PSoC5/USB_audio.c ****                         /* Entity ID Control Selector is VOLUME, */
 197:.\Generated_Source\PSoC5/USB_audio.c ****                         USB_currentTD.wCount = USB_VOLUME_LEN;
 198:.\Generated_Source\PSoC5/USB_audio.c ****                         USB_currentTD.pData  = &USB_minimumVolume[0];
 199:.\Generated_Source\PSoC5/USB_audio.c ****                         
 200:.\Generated_Source\PSoC5/USB_audio.c ****                         requestHandled = USB_InitControlRead();
 201:.\Generated_Source\PSoC5/USB_audio.c ****                     }
ARM GAS  C:\Users\LUKASC~1\AppData\Local\Temp\ccFORT3E.s 			page 6


 202:.\Generated_Source\PSoC5/USB_audio.c ****                     break;
 203:.\Generated_Source\PSoC5/USB_audio.c ****                     
 204:.\Generated_Source\PSoC5/USB_audio.c ****                 case USB_GET_MAX:
 205:.\Generated_Source\PSoC5/USB_audio.c ****                     if (wValueHi == USB_VOLUME_CONTROL)
 206:.\Generated_Source\PSoC5/USB_audio.c ****                     {
 207:.\Generated_Source\PSoC5/USB_audio.c ****                         /* Entity ID Control Selector is VOLUME, */
 208:.\Generated_Source\PSoC5/USB_audio.c ****                         USB_currentTD.wCount = USB_VOLUME_LEN;
 209:.\Generated_Source\PSoC5/USB_audio.c ****                         USB_currentTD.pData  = &USB_maximumVolume[0];
 210:.\Generated_Source\PSoC5/USB_audio.c ****                         
 211:.\Generated_Source\PSoC5/USB_audio.c ****                         requestHandled = USB_InitControlRead();
 212:.\Generated_Source\PSoC5/USB_audio.c ****                     }
 213:.\Generated_Source\PSoC5/USB_audio.c ****                     break;
 214:.\Generated_Source\PSoC5/USB_audio.c ****                     
 215:.\Generated_Source\PSoC5/USB_audio.c ****                 case USB_GET_RES:
 216:.\Generated_Source\PSoC5/USB_audio.c ****                     if (wValueHi == USB_VOLUME_CONTROL)
 217:.\Generated_Source\PSoC5/USB_audio.c ****                     {
 218:.\Generated_Source\PSoC5/USB_audio.c ****                          /* Entity ID Control Selector is VOLUME, */
 219:.\Generated_Source\PSoC5/USB_audio.c ****                         USB_currentTD.wCount = USB_VOLUME_LEN;
 220:.\Generated_Source\PSoC5/USB_audio.c ****                         USB_currentTD.pData  = &USB_resolutionVolume[0];
 221:.\Generated_Source\PSoC5/USB_audio.c ****                         
 222:.\Generated_Source\PSoC5/USB_audio.c ****                         requestHandled   = USB_InitControlRead();
 223:.\Generated_Source\PSoC5/USB_audio.c ****                     }
 224:.\Generated_Source\PSoC5/USB_audio.c ****                     break;
 225:.\Generated_Source\PSoC5/USB_audio.c ****                     
 226:.\Generated_Source\PSoC5/USB_audio.c ****                 /* The contents of the status message is reserved for future use.
 227:.\Generated_Source\PSoC5/USB_audio.c ****                 * For the time being, a null packet should be returned in the data stage of the
 228:.\Generated_Source\PSoC5/USB_audio.c ****                 * control transfer, and the received null packet should be ACKed.
 229:.\Generated_Source\PSoC5/USB_audio.c ****                 */
 230:.\Generated_Source\PSoC5/USB_audio.c ****                 case USB_GET_STAT:
 231:.\Generated_Source\PSoC5/USB_audio.c ****                     USB_currentTD.wCount = 0u;    
 232:.\Generated_Source\PSoC5/USB_audio.c ****                     
 233:.\Generated_Source\PSoC5/USB_audio.c ****                     requestHandled = USB_InitControlWrite();
 234:.\Generated_Source\PSoC5/USB_audio.c **** 
 235:.\Generated_Source\PSoC5/USB_audio.c ****                 #endif /* (USB_ENABLE_AUDIO_STREAMING) */
 236:.\Generated_Source\PSoC5/USB_audio.c ****                 
 237:.\Generated_Source\PSoC5/USB_audio.c ****                     /* `#START AUDIO_WRITE_REQUESTS` Place other request handler here */
 238:.\Generated_Source\PSoC5/USB_audio.c **** 
 239:.\Generated_Source\PSoC5/USB_audio.c ****                     /* `#END` */
 240:.\Generated_Source\PSoC5/USB_audio.c ****                 
 241:.\Generated_Source\PSoC5/USB_audio.c ****                 #ifdef USB_DISPATCH_AUDIO_CLASS_AUDIO_WRITE_REQUESTS_CALLBACK
 242:.\Generated_Source\PSoC5/USB_audio.c ****                     USB_DispatchAUDIOClass_AUDIO_WRITE_REQUESTS_Callback();
 243:.\Generated_Source\PSoC5/USB_audio.c ****                 #endif /* (USB_DISPATCH_AUDIO_CLASS_AUDIO_WRITE_REQUESTS_CALLBACK) */
 244:.\Generated_Source\PSoC5/USB_audio.c ****                     break;
 245:.\Generated_Source\PSoC5/USB_audio.c ****                 
 246:.\Generated_Source\PSoC5/USB_audio.c ****                 default:
 247:.\Generated_Source\PSoC5/USB_audio.c ****                     /* Do not handle this request. */
 248:.\Generated_Source\PSoC5/USB_audio.c ****                     break;
  84              		.loc 1 248 0
  85 004a 00E0     		b	.L10
  86              	.L20:
 244:.\Generated_Source\PSoC5/USB_audio.c ****                 
  87              		.loc 1 244 0
  88 004c 00BF     		nop
  89              	.L10:
  90 004e 14E0     		b	.L7
  91              	.L2:
 249:.\Generated_Source\PSoC5/USB_audio.c ****             }
ARM GAS  C:\Users\LUKASC~1\AppData\Local\Temp\ccFORT3E.s 			page 7


 250:.\Generated_Source\PSoC5/USB_audio.c ****         }
 251:.\Generated_Source\PSoC5/USB_audio.c ****         else
 252:.\Generated_Source\PSoC5/USB_audio.c ****         {   
 253:.\Generated_Source\PSoC5/USB_audio.c ****             /* Do not handle other requests recipients. */
 254:.\Generated_Source\PSoC5/USB_audio.c ****         }
 255:.\Generated_Source\PSoC5/USB_audio.c ****     }
 256:.\Generated_Source\PSoC5/USB_audio.c ****     else
 257:.\Generated_Source\PSoC5/USB_audio.c ****     {
 258:.\Generated_Source\PSoC5/USB_audio.c ****         /* Handle direction from host to device. */
 259:.\Generated_Source\PSoC5/USB_audio.c ****         
 260:.\Generated_Source\PSoC5/USB_audio.c ****         if (USB_RQST_RCPT_EP == RqstRcpt)
  92              		.loc 1 260 0
  93 0050 BB79     		ldrb	r3, [r7, #6]	@ zero_extendqisi2
  94 0052 022B     		cmp	r3, #2
  95 0054 07D1     		bne	.L11
 261:.\Generated_Source\PSoC5/USB_audio.c ****         {
 262:.\Generated_Source\PSoC5/USB_audio.c ****             /* Request recipient is endpoint. */
 263:.\Generated_Source\PSoC5/USB_audio.c ****             switch (USB_bRequestReg)
  96              		.loc 1 263 0
  97 0056 0C4B     		ldr	r3, .L23
  98 0058 5B78     		ldrb	r3, [r3, #1]
  99 005a DBB2     		uxtb	r3, r3
 100 005c 012B     		cmp	r3, #1
 101 005e 00D0     		beq	.L21
 264:.\Generated_Source\PSoC5/USB_audio.c ****             {
 265:.\Generated_Source\PSoC5/USB_audio.c ****                 case USB_SET_CUR:
 266:.\Generated_Source\PSoC5/USB_audio.c ****                 #if defined(USB_ENABLE_AUDIO_STREAMING)
 267:.\Generated_Source\PSoC5/USB_audio.c ****                     if (wValueHi == USB_SAMPLING_FREQ_CONTROL)
 268:.\Generated_Source\PSoC5/USB_audio.c ****                     {
 269:.\Generated_Source\PSoC5/USB_audio.c ****                          /* point Control Selector is Sampling Frequency */
 270:.\Generated_Source\PSoC5/USB_audio.c ****                         USB_currentTD.wCount = USB_SAMPLE_FREQ_LEN;
 271:.\Generated_Source\PSoC5/USB_audio.c ****                         USB_currentTD.pData  = USB_currentSampleFrequency[epNumber];
 272:.\Generated_Source\PSoC5/USB_audio.c ****                         USB_frequencyChanged = (uint8) epNumber;
 273:.\Generated_Source\PSoC5/USB_audio.c ****                         
 274:.\Generated_Source\PSoC5/USB_audio.c ****                         requestHandled   = USB_InitControlWrite();
 275:.\Generated_Source\PSoC5/USB_audio.c ****                     }
 276:.\Generated_Source\PSoC5/USB_audio.c ****                 #endif /* (USB_ENABLE_AUDIO_STREAMING) */
 277:.\Generated_Source\PSoC5/USB_audio.c **** 
 278:.\Generated_Source\PSoC5/USB_audio.c ****                     /* `#START AUDIO_SAMPLING_FREQ_REQUESTS` Place other request handler here */
 279:.\Generated_Source\PSoC5/USB_audio.c **** 
 280:.\Generated_Source\PSoC5/USB_audio.c ****                     /* `#END` */
 281:.\Generated_Source\PSoC5/USB_audio.c **** 
 282:.\Generated_Source\PSoC5/USB_audio.c ****                 #ifdef USB_DISPATCH_AUDIO_CLASS_AUDIO_SAMPLING_FREQ_REQUESTS_CALLBACK
 283:.\Generated_Source\PSoC5/USB_audio.c ****                     USB_DispatchAUDIOClass_AUDIO_SAMPLING_FREQ_REQUESTS_Callback();
 284:.\Generated_Source\PSoC5/USB_audio.c ****                 #endif /* (USB_DISPATCH_AUDIO_CLASS_AUDIO_SAMPLING_FREQ_REQUESTS_CALLBACK) */
 285:.\Generated_Source\PSoC5/USB_audio.c ****                     break;
 286:.\Generated_Source\PSoC5/USB_audio.c ****                 
 287:.\Generated_Source\PSoC5/USB_audio.c ****                 default:
 288:.\Generated_Source\PSoC5/USB_audio.c ****                     /* Do not handle this request. */
 289:.\Generated_Source\PSoC5/USB_audio.c ****                     break;
 102              		.loc 1 289 0
 103 0060 00E0     		b	.L14
 104              	.L21:
 285:.\Generated_Source\PSoC5/USB_audio.c ****                 
 105              		.loc 1 285 0
 106 0062 00BF     		nop
 107              	.L14:
ARM GAS  C:\Users\LUKASC~1\AppData\Local\Temp\ccFORT3E.s 			page 8


 108 0064 09E0     		b	.L7
 109              	.L11:
 290:.\Generated_Source\PSoC5/USB_audio.c ****             }
 291:.\Generated_Source\PSoC5/USB_audio.c ****         }
 292:.\Generated_Source\PSoC5/USB_audio.c ****         else if(USB_RQST_RCPT_IFC == RqstRcpt)
 110              		.loc 1 292 0
 111 0066 BB79     		ldrb	r3, [r7, #6]	@ zero_extendqisi2
 112 0068 012B     		cmp	r3, #1
 113 006a 06D1     		bne	.L7
 293:.\Generated_Source\PSoC5/USB_audio.c ****         {
 294:.\Generated_Source\PSoC5/USB_audio.c ****             /* Request recipient is interface or entity ID. */
 295:.\Generated_Source\PSoC5/USB_audio.c ****             switch (USB_bRequestReg)
 114              		.loc 1 295 0
 115 006c 064B     		ldr	r3, .L23
 116 006e 5B78     		ldrb	r3, [r3, #1]
 117 0070 DBB2     		uxtb	r3, r3
 118 0072 012B     		cmp	r3, #1
 119 0074 00D0     		beq	.L22
 296:.\Generated_Source\PSoC5/USB_audio.c ****             {
 297:.\Generated_Source\PSoC5/USB_audio.c ****                 case USB_SET_CUR:
 298:.\Generated_Source\PSoC5/USB_audio.c ****                 #if defined(USB_ENABLE_AUDIO_STREAMING)
 299:.\Generated_Source\PSoC5/USB_audio.c ****                     if (wValueHi == USB_MUTE_CONTROL)
 300:.\Generated_Source\PSoC5/USB_audio.c ****                     {
 301:.\Generated_Source\PSoC5/USB_audio.c ****                         /* `#START MUTE_SET_REQUEST` Place multi-channel handler here */
 302:.\Generated_Source\PSoC5/USB_audio.c **** 
 303:.\Generated_Source\PSoC5/USB_audio.c ****                         /* `#END` */
 304:.\Generated_Source\PSoC5/USB_audio.c **** 
 305:.\Generated_Source\PSoC5/USB_audio.c ****                     #ifdef USB_DISPATCH_AUDIO_CLASS_MUTE_SET_REQUEST_CALLBACK
 306:.\Generated_Source\PSoC5/USB_audio.c ****                         USB_DispatchAUDIOClass_MUTE_SET_REQUEST_Callback();
 307:.\Generated_Source\PSoC5/USB_audio.c ****                     #endif /* (USB_DISPATCH_AUDIO_CLASS_MUTE_SET_REQUEST_CALLBACK) */
 308:.\Generated_Source\PSoC5/USB_audio.c **** 
 309:.\Generated_Source\PSoC5/USB_audio.c ****                         /* Entity ID Control Selector is MUTE */
 310:.\Generated_Source\PSoC5/USB_audio.c ****                         USB_currentTD.wCount = 1u;
 311:.\Generated_Source\PSoC5/USB_audio.c ****                         USB_currentTD.pData  = &USB_currentMute;
 312:.\Generated_Source\PSoC5/USB_audio.c ****                         
 313:.\Generated_Source\PSoC5/USB_audio.c ****                         requestHandled = USB_InitControlWrite();
 314:.\Generated_Source\PSoC5/USB_audio.c ****                     }
 315:.\Generated_Source\PSoC5/USB_audio.c ****                     else if (wValueHi == USB_VOLUME_CONTROL)
 316:.\Generated_Source\PSoC5/USB_audio.c ****                     {
 317:.\Generated_Source\PSoC5/USB_audio.c ****                         /* `#START VOLUME_CONTROL_SET_REQUEST` Place multi-channel handler here */
 318:.\Generated_Source\PSoC5/USB_audio.c **** 
 319:.\Generated_Source\PSoC5/USB_audio.c ****                         /* `#END` */
 320:.\Generated_Source\PSoC5/USB_audio.c **** 
 321:.\Generated_Source\PSoC5/USB_audio.c ****                     #ifdef USB_DISPATCH_AUDIO_CLASS_VOLUME_CONTROL_SET_REQUEST_CALLBACK
 322:.\Generated_Source\PSoC5/USB_audio.c ****                         USB_DispatchAUDIOClass_VOLUME_CONTROL_SET_REQUEST_Callback();
 323:.\Generated_Source\PSoC5/USB_audio.c ****                     #endif /* (USB_DISPATCH_AUDIO_CLASS_VOLUME_CONTROL_SET_REQUEST_CALLBACK) */
 324:.\Generated_Source\PSoC5/USB_audio.c **** 
 325:.\Generated_Source\PSoC5/USB_audio.c ****                         /* Entity ID Control Selector is VOLUME */
 326:.\Generated_Source\PSoC5/USB_audio.c ****                         USB_currentTD.wCount = USB_VOLUME_LEN;
 327:.\Generated_Source\PSoC5/USB_audio.c ****                         USB_currentTD.pData  = USB_currentVolume;
 328:.\Generated_Source\PSoC5/USB_audio.c ****                         
 329:.\Generated_Source\PSoC5/USB_audio.c ****                         requestHandled = USB_InitControlWrite();
 330:.\Generated_Source\PSoC5/USB_audio.c ****                     }
 331:.\Generated_Source\PSoC5/USB_audio.c ****                     else
 332:.\Generated_Source\PSoC5/USB_audio.c ****                     {
 333:.\Generated_Source\PSoC5/USB_audio.c ****                         /* `#START OTHER_SET_CUR_REQUESTS` Place other request handler here */
 334:.\Generated_Source\PSoC5/USB_audio.c **** 
ARM GAS  C:\Users\LUKASC~1\AppData\Local\Temp\ccFORT3E.s 			page 9


 335:.\Generated_Source\PSoC5/USB_audio.c ****                         /* `#END` */
 336:.\Generated_Source\PSoC5/USB_audio.c **** 
 337:.\Generated_Source\PSoC5/USB_audio.c ****                     #ifdef USB_DISPATCH_AUDIO_CLASS_OTHER_SET_CUR_REQUESTS_CALLBACK
 338:.\Generated_Source\PSoC5/USB_audio.c ****                         USB_DispatchAUDIOClass_OTHER_SET_CUR_REQUESTS_Callback();
 339:.\Generated_Source\PSoC5/USB_audio.c ****                     #endif /* (USB_DISPATCH_AUDIO_CLASS_OTHER_SET_CUR_REQUESTS_CALLBACK) */
 340:.\Generated_Source\PSoC5/USB_audio.c ****                     }
 341:.\Generated_Source\PSoC5/USB_audio.c ****                 #endif /*  USB_ENABLE_AUDIO_STREAMING */
 342:.\Generated_Source\PSoC5/USB_audio.c ****                 
 343:.\Generated_Source\PSoC5/USB_audio.c ****                 
 344:.\Generated_Source\PSoC5/USB_audio.c ****                     /* `#START AUDIO_CONTROL_SEL_REQUESTS` Place other request handler here */
 345:.\Generated_Source\PSoC5/USB_audio.c **** 
 346:.\Generated_Source\PSoC5/USB_audio.c ****                     /* `#END` */
 347:.\Generated_Source\PSoC5/USB_audio.c ****                     
 348:.\Generated_Source\PSoC5/USB_audio.c ****                 #ifdef USB_DISPATCH_AUDIO_CLASS_AUDIO_CONTROL_SEL_REQUESTS_CALLBACK
 349:.\Generated_Source\PSoC5/USB_audio.c ****                     USB_DispatchAUDIOClass_AUDIO_CONTROL_SEL_REQUESTS_Callback();
 350:.\Generated_Source\PSoC5/USB_audio.c ****                 #endif /* (USB_DISPATCH_AUDIO_CLASS_AUDIO_CONTROL_SEL_REQUESTS_CALLBACK) */
 351:.\Generated_Source\PSoC5/USB_audio.c ****                 break;
 352:.\Generated_Source\PSoC5/USB_audio.c **** 
 353:.\Generated_Source\PSoC5/USB_audio.c ****                 default:
 354:.\Generated_Source\PSoC5/USB_audio.c ****                     /* Do not handle this request. */
 355:.\Generated_Source\PSoC5/USB_audio.c ****                 break;
 120              		.loc 1 355 0
 121 0076 00E0     		b	.L17
 122              	.L22:
 351:.\Generated_Source\PSoC5/USB_audio.c **** 
 123              		.loc 1 351 0
 124 0078 00BF     		nop
 125              	.L17:
 126              	.L7:
 356:.\Generated_Source\PSoC5/USB_audio.c ****             }
 357:.\Generated_Source\PSoC5/USB_audio.c ****         }
 358:.\Generated_Source\PSoC5/USB_audio.c ****         else
 359:.\Generated_Source\PSoC5/USB_audio.c ****         {
 360:.\Generated_Source\PSoC5/USB_audio.c ****             /* Do not handle other requests recipients. */
 361:.\Generated_Source\PSoC5/USB_audio.c ****         }
 362:.\Generated_Source\PSoC5/USB_audio.c ****     }
 363:.\Generated_Source\PSoC5/USB_audio.c **** 
 364:.\Generated_Source\PSoC5/USB_audio.c ****     return (requestHandled);
 127              		.loc 1 364 0
 128 007a FB79     		ldrb	r3, [r7, #7]	@ zero_extendqisi2
 365:.\Generated_Source\PSoC5/USB_audio.c **** }
 129              		.loc 1 365 0
 130 007c 1846     		mov	r0, r3
 131 007e 0C37     		adds	r7, r7, #12
 132              		.cfi_def_cfa_offset 4
 133 0080 BD46     		mov	sp, r7
 134              		.cfi_def_cfa_register 13
 135              		@ sp needed
 136 0082 5DF8047B 		ldr	r7, [sp], #4
 137              		.cfi_restore 7
 138              		.cfi_def_cfa_offset 0
 139 0086 7047     		bx	lr
 140              	.L24:
 141              		.align	2
 142              	.L23:
 143 0088 00600040 		.word	1073766400
 144              		.cfi_endproc
ARM GAS  C:\Users\LUKASC~1\AppData\Local\Temp\ccFORT3E.s 			page 10


 145              	.LFE0:
 146              		.size	USB_DispatchAUDIOClassRqst, .-USB_DispatchAUDIOClassRqst
 147              		.text
 148              	.Letext0:
 149              		.file 2 ".\\Generated_Source\\PSoC5\\cytypes.h"
 150              		.file 3 ".\\Generated_Source\\PSoC5\\USB.h"