ARM GAS  C:\Users\LUKASC~1\AppData\Local\Temp\ccIt7ba2.s 			page 1


   1              		.syntax unified
   2              		.cpu cortex-m3
   3              		.fpu softvfp
   4              		.eabi_attribute 20, 1
   5              		.eabi_attribute 21, 1
   6              		.eabi_attribute 23, 3
   7              		.eabi_attribute 24, 1
   8              		.eabi_attribute 25, 1
   9              		.eabi_attribute 26, 1
  10              		.eabi_attribute 30, 6
  11              		.eabi_attribute 34, 1
  12              		.eabi_attribute 18, 4
  13              		.thumb
  14              		.file	"USB_midi.c"
  15              		.text
  16              	.Ltext0:
  17              		.cfi_sections	.debug_frame
  18              		.section	.rodata
  19              		.align	2
  20              		.type	USB_MIDI_SIZE, %object
  21              		.size	USB_MIDI_SIZE, 16
  22              	USB_MIDI_SIZE:
  23 0000 03       		.byte	3
  24 0001 03       		.byte	3
  25 0002 02       		.byte	2
  26 0003 03       		.byte	3
  27 0004 03       		.byte	3
  28 0005 01       		.byte	1
  29 0006 02       		.byte	2
  30 0007 03       		.byte	3
  31 0008 03       		.byte	3
  32 0009 03       		.byte	3
  33 000a 03       		.byte	3
  34 000b 03       		.byte	3
  35 000c 02       		.byte	2
  36 000d 02       		.byte	2
  37 000e 03       		.byte	3
  38 000f 01       		.byte	1
  39              		.comm	USB_midiInPointer,1,1
  40              		.comm	USB_midi_in_ep,1,1
  41              		.comm	USB_midiInBuffer,32,4
  42              		.comm	USB_midi_out_ep,1,1
  43              		.comm	USB_midiOutBuffer,32,4
  44              		.bss
  45              		.align	2
  46              	USB_MIDI1_Event:
  47 0000 00000000 		.space	8
  47      00000000 
  48              	USB_MIDI1_TxRunStat:
  49 0008 00       		.space	1
  50              		.comm	USB_MIDI1_InqFlags,1,1
  51 0009 000000   		.align	2
  52              	USB_MIDI2_Event:
  53 000c 00000000 		.space	8
  53      00000000 
  54              	USB_MIDI2_TxRunStat:
  55 0014 00       		.space	1
ARM GAS  C:\Users\LUKASC~1\AppData\Local\Temp\ccIt7ba2.s 			page 2


  56              		.comm	USB_MIDI2_InqFlags,1,1
  57 0015 000000   		.section	.text.USB_MIDI_Init,"ax",%progbits
  58              		.align	2
  59              		.global	USB_MIDI_Init
  60              		.thumb
  61              		.thumb_func
  62              		.type	USB_MIDI_Init, %function
  63              	USB_MIDI_Init:
  64              	.LFB0:
  65              		.file 1 ".\\Generated_Source\\PSoC5\\USB_midi.c"
   1:.\Generated_Source\PSoC5/USB_midi.c **** /***************************************************************************//**
   2:.\Generated_Source\PSoC5/USB_midi.c **** * \file USB_midi.c
   3:.\Generated_Source\PSoC5/USB_midi.c **** * \version 3.0
   4:.\Generated_Source\PSoC5/USB_midi.c **** *
   5:.\Generated_Source\PSoC5/USB_midi.c **** * \brief
   6:.\Generated_Source\PSoC5/USB_midi.c **** *  MIDI Streaming request handler.
   7:.\Generated_Source\PSoC5/USB_midi.c **** *  This file contains routines for sending and receiving MIDI
   8:.\Generated_Source\PSoC5/USB_midi.c **** *  messages, and handles running status in both directions.
   9:.\Generated_Source\PSoC5/USB_midi.c **** *
  10:.\Generated_Source\PSoC5/USB_midi.c **** * Related Document:
  11:.\Generated_Source\PSoC5/USB_midi.c **** *  Universal Serial Bus Device Class Definition for MIDI Devices Release 1.0
  12:.\Generated_Source\PSoC5/USB_midi.c **** *  MIDI 1.0 Detailed Specification Document Version 4.2
  13:.\Generated_Source\PSoC5/USB_midi.c **** *
  14:.\Generated_Source\PSoC5/USB_midi.c **** ********************************************************************************
  15:.\Generated_Source\PSoC5/USB_midi.c **** * \copyright
  16:.\Generated_Source\PSoC5/USB_midi.c **** * Copyright 2008-2015, Cypress Semiconductor Corporation.  All rights reserved.
  17:.\Generated_Source\PSoC5/USB_midi.c **** * You may use this file only in accordance with the license, terms, conditions,
  18:.\Generated_Source\PSoC5/USB_midi.c **** * disclaimers, and limitations in the end user license agreement accompanying
  19:.\Generated_Source\PSoC5/USB_midi.c **** * the software package with which this file was provided.
  20:.\Generated_Source\PSoC5/USB_midi.c **** *******************************************************************************/
  21:.\Generated_Source\PSoC5/USB_midi.c **** 
  22:.\Generated_Source\PSoC5/USB_midi.c **** #include "USB_midi.h"
  23:.\Generated_Source\PSoC5/USB_midi.c **** #include "USB_pvt.h"
  24:.\Generated_Source\PSoC5/USB_midi.c **** #include "cyapicallbacks.h"
  25:.\Generated_Source\PSoC5/USB_midi.c **** 
  26:.\Generated_Source\PSoC5/USB_midi.c **** #if defined(USB_ENABLE_MIDI_STREAMING)
  27:.\Generated_Source\PSoC5/USB_midi.c **** 
  28:.\Generated_Source\PSoC5/USB_midi.c **** /***************************************
  29:.\Generated_Source\PSoC5/USB_midi.c **** *    MIDI Constants
  30:.\Generated_Source\PSoC5/USB_midi.c **** ***************************************/
  31:.\Generated_Source\PSoC5/USB_midi.c **** 
  32:.\Generated_Source\PSoC5/USB_midi.c **** #if (USB_MIDI_EXT_MODE >= USB_ONE_EXT_INTRF)
  33:.\Generated_Source\PSoC5/USB_midi.c ****     /* The Size of the MIDI messages (MIDI Table 4-1) */
  34:.\Generated_Source\PSoC5/USB_midi.c ****     static const uint8 CYCODE USB_MIDI_SIZE[] = {
  35:.\Generated_Source\PSoC5/USB_midi.c ****     /*  Miscellaneous function codes(Reserved)  */ 0x03u,
  36:.\Generated_Source\PSoC5/USB_midi.c ****     /*  Cable events (Reserved)                 */ 0x03u,
  37:.\Generated_Source\PSoC5/USB_midi.c ****     /*  Two-byte System Common messages         */ 0x02u,
  38:.\Generated_Source\PSoC5/USB_midi.c ****     /*  Three-byte System Common messages       */ 0x03u,
  39:.\Generated_Source\PSoC5/USB_midi.c ****     /*  SysEx starts or continues               */ 0x03u,
  40:.\Generated_Source\PSoC5/USB_midi.c ****     /*  Single-byte System Common Message or
  41:.\Generated_Source\PSoC5/USB_midi.c ****         SysEx ends with following single byte   */ 0x01u,
  42:.\Generated_Source\PSoC5/USB_midi.c ****     /*  SysEx ends with following two bytes     */ 0x02u,
  43:.\Generated_Source\PSoC5/USB_midi.c ****     /*  SysEx ends with following three bytes   */ 0x03u,
  44:.\Generated_Source\PSoC5/USB_midi.c ****     /*  Note-off                                */ 0x03u,
  45:.\Generated_Source\PSoC5/USB_midi.c ****     /*  Note-on                                 */ 0x03u,
  46:.\Generated_Source\PSoC5/USB_midi.c ****     /*  Poly-KeyPress                           */ 0x03u,
  47:.\Generated_Source\PSoC5/USB_midi.c ****     /*  Control Change                          */ 0x03u,
ARM GAS  C:\Users\LUKASC~1\AppData\Local\Temp\ccIt7ba2.s 			page 3


  48:.\Generated_Source\PSoC5/USB_midi.c ****     /*  Program Change                          */ 0x02u,
  49:.\Generated_Source\PSoC5/USB_midi.c ****     /*  Channel Pressure                        */ 0x02u,
  50:.\Generated_Source\PSoC5/USB_midi.c ****     /*  PitchBend Change                        */ 0x03u,
  51:.\Generated_Source\PSoC5/USB_midi.c ****     /*  Single Byte                             */ 0x01u
  52:.\Generated_Source\PSoC5/USB_midi.c ****     };
  53:.\Generated_Source\PSoC5/USB_midi.c **** #endif  /* USB_MIDI_EXT_MODE >= USB_ONE_EXT_INTRF */
  54:.\Generated_Source\PSoC5/USB_midi.c **** 
  55:.\Generated_Source\PSoC5/USB_midi.c **** 
  56:.\Generated_Source\PSoC5/USB_midi.c **** 
  57:.\Generated_Source\PSoC5/USB_midi.c **** /***************************************
  58:.\Generated_Source\PSoC5/USB_midi.c **** *  Global variables
  59:.\Generated_Source\PSoC5/USB_midi.c **** ***************************************/
  60:.\Generated_Source\PSoC5/USB_midi.c **** 
  61:.\Generated_Source\PSoC5/USB_midi.c **** 
  62:.\Generated_Source\PSoC5/USB_midi.c **** #if (USB_MIDI_IN_BUFF_SIZE > 0)
  63:.\Generated_Source\PSoC5/USB_midi.c ****     #if (USB_MIDI_IN_BUFF_SIZE >= 256)
  64:.\Generated_Source\PSoC5/USB_midi.c ****         /** Input endpoint buffer pointer. This pointer is used as an index for the
  65:.\Generated_Source\PSoC5/USB_midi.c ****         * USBMIDI_midiInBuffer to write data. It is cleared to zero by the
  66:.\Generated_Source\PSoC5/USB_midi.c ****         * USBMIDI_MIDI_EP_Init() function.*/
  67:.\Generated_Source\PSoC5/USB_midi.c ****         volatile uint16 USB_midiInPointer;                            /* Input endpoint buffer poin
  68:.\Generated_Source\PSoC5/USB_midi.c ****     #else
  69:.\Generated_Source\PSoC5/USB_midi.c ****         volatile uint8 USB_midiInPointer;                             /* Input endpoint buffer poin
  70:.\Generated_Source\PSoC5/USB_midi.c ****     #endif /* (USB_MIDI_IN_BUFF_SIZE >= 256) */
  71:.\Generated_Source\PSoC5/USB_midi.c ****     /** Contains the midi IN endpoint number, It is initialized after a
  72:.\Generated_Source\PSoC5/USB_midi.c ****      * SET_CONFIGURATION request based on a user descriptor. It is used in MIDI
  73:.\Generated_Source\PSoC5/USB_midi.c ****      * APIs to send data to the host.*/
  74:.\Generated_Source\PSoC5/USB_midi.c ****     volatile uint8 USB_midi_in_ep;
  75:.\Generated_Source\PSoC5/USB_midi.c ****     /** Input endpoint buffer with a length equal to MIDI IN EP Max Packet Size.
  76:.\Generated_Source\PSoC5/USB_midi.c ****      * This buffer is used to save and combine the data received from the UARTs,
  77:.\Generated_Source\PSoC5/USB_midi.c ****      * generated internally by USBMIDI_PutUsbMidiIn() function messages, or both.
  78:.\Generated_Source\PSoC5/USB_midi.c ****      * The USBMIDI_MIDI_IN_Service() function transfers the data from this buffer to the host.*/
  79:.\Generated_Source\PSoC5/USB_midi.c ****     uint8 USB_midiInBuffer[USB_MIDI_IN_BUFF_SIZE];       /* Input endpoint buffer */
  80:.\Generated_Source\PSoC5/USB_midi.c **** #endif /* (USB_MIDI_IN_BUFF_SIZE > 0) */
  81:.\Generated_Source\PSoC5/USB_midi.c **** 
  82:.\Generated_Source\PSoC5/USB_midi.c **** #if (USB_MIDI_OUT_BUFF_SIZE > 0)
  83:.\Generated_Source\PSoC5/USB_midi.c ****     /** Contains the midi OUT endpoint number. It is initialized after a
  84:.\Generated_Source\PSoC5/USB_midi.c ****      * SET_CONFIGURATION request based on a user descriptor. It is used in
  85:.\Generated_Source\PSoC5/USB_midi.c ****      * MIDI APIs to receive data from the host.*/
  86:.\Generated_Source\PSoC5/USB_midi.c ****     volatile uint8 USB_midi_out_ep;                                   /* Output endpoint number */
  87:.\Generated_Source\PSoC5/USB_midi.c ****     /** Output endpoint buffer with a length equal to MIDI OUT EP Max Packet Size.
  88:.\Generated_Source\PSoC5/USB_midi.c ****      * This buffer is used by the USBMIDI_MIDI_OUT_EP_Service() function to save
  89:.\Generated_Source\PSoC5/USB_midi.c ****      * the data received from the host. The received data is then parsed. The
  90:.\Generated_Source\PSoC5/USB_midi.c ****      * parsed data is transferred to the UARTs buffer and also used for internal
  91:.\Generated_Source\PSoC5/USB_midi.c ****      * processing by the USBMIDI_callbackLocalMidiEvent() function.*/
  92:.\Generated_Source\PSoC5/USB_midi.c ****     uint8 USB_midiOutBuffer[USB_MIDI_OUT_BUFF_SIZE];     /* Output endpoint buffer */
  93:.\Generated_Source\PSoC5/USB_midi.c **** #endif /* (USB_MIDI_OUT_BUFF_SIZE > 0) */
  94:.\Generated_Source\PSoC5/USB_midi.c **** 
  95:.\Generated_Source\PSoC5/USB_midi.c **** #if (USB_MIDI_EXT_MODE >= USB_ONE_EXT_INTRF)
  96:.\Generated_Source\PSoC5/USB_midi.c **** 
  97:.\Generated_Source\PSoC5/USB_midi.c ****     static USB_MIDI_RX_STATUS USB_MIDI1_Event;            /* MIDI RX status structure */
  98:.\Generated_Source\PSoC5/USB_midi.c ****     static volatile uint8 USB_MIDI1_TxRunStat;                         /* MIDI Output running statu
  99:.\Generated_Source\PSoC5/USB_midi.c ****     /** The USBFS supports a maximum of two external Jacks. The two flag variables
 100:.\Generated_Source\PSoC5/USB_midi.c ****      * are used to represent the status of two external Jacks. These optional variables
 101:.\Generated_Source\PSoC5/USB_midi.c ****      * are allocated when External Mode is enabled. The following flags help to
 102:.\Generated_Source\PSoC5/USB_midi.c ****      * detect and generate responses for SysEx messages. The USBMIDI_MIDI2_InqFlags
 103:.\Generated_Source\PSoC5/USB_midi.c ****      * is optional and is not available when only one external Jack is configured.
 104:.\Generated_Source\PSoC5/USB_midi.c ****      * Flag                          | Description
ARM GAS  C:\Users\LUKASC~1\AppData\Local\Temp\ccIt7ba2.s 			page 4


 105:.\Generated_Source\PSoC5/USB_midi.c ****      * ------------------------------|---------------------------------------
 106:.\Generated_Source\PSoC5/USB_midi.c ****      * USBMIDI_INQ_SYSEX_FLAG        | Non-real-time SysEx message received.
 107:.\Generated_Source\PSoC5/USB_midi.c ****      * USBMIDI_INQ_IDENTITY_REQ_FLAG | Identity Request received. You should clear this bit when an
 108:.\Generated_Source\PSoC5/USB_midi.c ****      * SysEX messages are intended for local device and shouldn't go out on the
 109:.\Generated_Source\PSoC5/USB_midi.c ****      * external MIDI jack, this flag indicates when a MIDI SysEx OUT message is
 110:.\Generated_Source\PSoC5/USB_midi.c ****      * in progress for the application */
 111:.\Generated_Source\PSoC5/USB_midi.c ****     volatile uint8 USB_MIDI1_InqFlags;                                 /* Device inquiry flag */
 112:.\Generated_Source\PSoC5/USB_midi.c **** 
 113:.\Generated_Source\PSoC5/USB_midi.c ****     #if (USB_MIDI_EXT_MODE >= USB_TWO_EXT_INTRF)
 114:.\Generated_Source\PSoC5/USB_midi.c ****         static USB_MIDI_RX_STATUS USB_MIDI2_Event;        /* MIDI RX status structure */
 115:.\Generated_Source\PSoC5/USB_midi.c ****         static volatile uint8 USB_MIDI2_TxRunStat;                     /* MIDI Output running statu
 116:.\Generated_Source\PSoC5/USB_midi.c ****         /** See description of \ref USB_MIDI1_InqFlags*/
 117:.\Generated_Source\PSoC5/USB_midi.c ****         volatile uint8 USB_MIDI2_InqFlags;                             /* Device inquiry flag */
 118:.\Generated_Source\PSoC5/USB_midi.c ****     #endif /* (USB_MIDI_EXT_MODE >= USB_TWO_EXT_INTRF) */
 119:.\Generated_Source\PSoC5/USB_midi.c **** #endif /* (USB_MIDI_EXT_MODE >= USB_ONE_EXT_INTRF) */
 120:.\Generated_Source\PSoC5/USB_midi.c **** 
 121:.\Generated_Source\PSoC5/USB_midi.c **** 
 122:.\Generated_Source\PSoC5/USB_midi.c **** /***************************************
 123:.\Generated_Source\PSoC5/USB_midi.c **** * Custom Declarations
 124:.\Generated_Source\PSoC5/USB_midi.c **** ***************************************/
 125:.\Generated_Source\PSoC5/USB_midi.c **** 
 126:.\Generated_Source\PSoC5/USB_midi.c **** /* `#START MIDI_CUSTOM_DECLARATIONS` Place your declaration here */
 127:.\Generated_Source\PSoC5/USB_midi.c **** 
 128:.\Generated_Source\PSoC5/USB_midi.c **** /* `#END` */
 129:.\Generated_Source\PSoC5/USB_midi.c **** 
 130:.\Generated_Source\PSoC5/USB_midi.c **** 
 131:.\Generated_Source\PSoC5/USB_midi.c **** #if (USB_ENABLE_MIDI_API != 0u)
 132:.\Generated_Source\PSoC5/USB_midi.c **** /*******************************************************************************
 133:.\Generated_Source\PSoC5/USB_midi.c **** * Function Name: USB_MIDI_Init
 134:.\Generated_Source\PSoC5/USB_midi.c **** ****************************************************************************//**
 135:.\Generated_Source\PSoC5/USB_midi.c **** *
 136:.\Generated_Source\PSoC5/USB_midi.c **** *  This function initializes the MIDI interface and UART(s) to be ready to
 137:.\Generated_Source\PSoC5/USB_midi.c **** *   receive data from the PC and MIDI ports.
 138:.\Generated_Source\PSoC5/USB_midi.c **** *
 139:.\Generated_Source\PSoC5/USB_midi.c **** * \globalvars
 140:.\Generated_Source\PSoC5/USB_midi.c **** *
 141:.\Generated_Source\PSoC5/USB_midi.c **** *  \ref USB_midiInBuffer: This buffer is used for saving and combining
 142:.\Generated_Source\PSoC5/USB_midi.c **** *    the received data from UART(s) and(or) generated internally by
 143:.\Generated_Source\PSoC5/USB_midi.c **** *    PutUsbMidiIn() function messages. USB_MIDI_IN_EP_Service()
 144:.\Generated_Source\PSoC5/USB_midi.c **** *    function transfers the data from this buffer to the PC.
 145:.\Generated_Source\PSoC5/USB_midi.c **** *
 146:.\Generated_Source\PSoC5/USB_midi.c **** *  \ref USB_midiOutBuffer: This buffer is used by the
 147:.\Generated_Source\PSoC5/USB_midi.c **** *    USB_MIDI_OUT_Service() function for saving the received
 148:.\Generated_Source\PSoC5/USB_midi.c **** *    from the PC data, then the data are parsed and transferred to UART(s)
 149:.\Generated_Source\PSoC5/USB_midi.c **** *    buffer and to the internal processing by the
 150:.\Generated_Source\PSoC5/USB_midi.c **** *
 151:.\Generated_Source\PSoC5/USB_midi.c **** *  \ref USB_callbackLocalMidiEvent function.
 152:.\Generated_Source\PSoC5/USB_midi.c **** *
 153:.\Generated_Source\PSoC5/USB_midi.c **** *  \ref USB_midi_out_ep: Used as an OUT endpoint number.
 154:.\Generated_Source\PSoC5/USB_midi.c **** *
 155:.\Generated_Source\PSoC5/USB_midi.c **** *  \ref USB_midi_in_ep: Used as an IN endpoint number.
 156:.\Generated_Source\PSoC5/USB_midi.c **** *
 157:.\Generated_Source\PSoC5/USB_midi.c **** *   \ref USB_midiInPointer: Initialized to zero.
 158:.\Generated_Source\PSoC5/USB_midi.c **** *
 159:.\Generated_Source\PSoC5/USB_midi.c **** * \sideeffect
 160:.\Generated_Source\PSoC5/USB_midi.c **** *   The priority of the UART RX ISR should be higher than UART TX ISR. To do
 161:.\Generated_Source\PSoC5/USB_midi.c **** *   that this function changes the priority of the UARTs TX and RX interrupts.
ARM GAS  C:\Users\LUKASC~1\AppData\Local\Temp\ccIt7ba2.s 			page 5


 162:.\Generated_Source\PSoC5/USB_midi.c **** *
 163:.\Generated_Source\PSoC5/USB_midi.c **** * \reentrant
 164:.\Generated_Source\PSoC5/USB_midi.c **** *  No
 165:.\Generated_Source\PSoC5/USB_midi.c **** *
 166:.\Generated_Source\PSoC5/USB_midi.c **** *******************************************************************************/
 167:.\Generated_Source\PSoC5/USB_midi.c **** void USB_MIDI_Init(void) 
 168:.\Generated_Source\PSoC5/USB_midi.c **** {
  66              		.loc 1 168 0
  67              		.cfi_startproc
  68              		@ args = 0, pretend = 0, frame = 0
  69              		@ frame_needed = 1, uses_anonymous_args = 0
  70 0000 80B5     		push	{r7, lr}
  71              		.cfi_def_cfa_offset 8
  72              		.cfi_offset 7, -8
  73              		.cfi_offset 14, -4
  74 0002 00AF     		add	r7, sp, #0
  75              		.cfi_def_cfa_register 7
 169:.\Generated_Source\PSoC5/USB_midi.c **** #if (USB_MIDI_IN_BUFF_SIZE > 0)
 170:.\Generated_Source\PSoC5/USB_midi.c ****    USB_midiInPointer = 0u;
  76              		.loc 1 170 0
  77 0004 054B     		ldr	r3, .L2
  78 0006 0022     		movs	r2, #0
  79 0008 1A70     		strb	r2, [r3]
 171:.\Generated_Source\PSoC5/USB_midi.c **** #endif /* (USB_MIDI_IN_BUFF_SIZE > 0) */
 172:.\Generated_Source\PSoC5/USB_midi.c **** 
 173:.\Generated_Source\PSoC5/USB_midi.c **** #if (USB_EP_MANAGEMENT_DMA_AUTO)
 174:.\Generated_Source\PSoC5/USB_midi.c ****     #if (USB_MIDI_IN_BUFF_SIZE > 0)
 175:.\Generated_Source\PSoC5/USB_midi.c ****         /* Provide buffer for IN endpoint. */
 176:.\Generated_Source\PSoC5/USB_midi.c ****         USB_LoadInEP(USB_midi_in_ep, USB_midiInBuffer,
 177:.\Generated_Source\PSoC5/USB_midi.c ****                                                                USB_MIDI_IN_BUFF_SIZE);
 178:.\Generated_Source\PSoC5/USB_midi.c ****     #endif  /* (USB_MIDI_IN_BUFF_SIZE > 0) */
 179:.\Generated_Source\PSoC5/USB_midi.c **** 
 180:.\Generated_Source\PSoC5/USB_midi.c ****     #if (USB_MIDI_OUT_BUFF_SIZE > 0)
 181:.\Generated_Source\PSoC5/USB_midi.c ****         /* Provide buffer for OUT endpoint. */
 182:.\Generated_Source\PSoC5/USB_midi.c ****         (void)USB_ReadOutEP(USB_midi_out_ep, USB_midiOutBuffer,
 183:.\Generated_Source\PSoC5/USB_midi.c ****                                                                        USB_MIDI_OUT_BUFF_SIZE);
 184:.\Generated_Source\PSoC5/USB_midi.c ****     #endif /* (USB_MIDI_OUT_BUFF_SIZE > 0) */
 185:.\Generated_Source\PSoC5/USB_midi.c **** #endif /* (USB_EP_MANAGEMENT_DMA_AUTO) */
 186:.\Generated_Source\PSoC5/USB_midi.c **** 
 187:.\Generated_Source\PSoC5/USB_midi.c **** #if (USB_MIDI_OUT_BUFF_SIZE > 0)
 188:.\Generated_Source\PSoC5/USB_midi.c ****     USB_EnableOutEP(USB_midi_out_ep);
  80              		.loc 1 188 0
  81 000a 054B     		ldr	r3, .L2+4
  82 000c 1B78     		ldrb	r3, [r3]
  83 000e DBB2     		uxtb	r3, r3
  84 0010 1846     		mov	r0, r3
  85 0012 FFF7FEFF 		bl	USB_EnableOutEP
 189:.\Generated_Source\PSoC5/USB_midi.c **** #endif /* (USB_MIDI_OUT_BUFF_SIZE > 0) */
 190:.\Generated_Source\PSoC5/USB_midi.c **** 
 191:.\Generated_Source\PSoC5/USB_midi.c ****     /* Initialize the MIDI port(s) */
 192:.\Generated_Source\PSoC5/USB_midi.c **** #if (USB_MIDI_EXT_MODE >= USB_ONE_EXT_INTRF)
 193:.\Generated_Source\PSoC5/USB_midi.c ****     USB_MIDI_InitInterface();
  86              		.loc 1 193 0
  87 0016 FFF7FEFF 		bl	USB_MIDI_InitInterface
 194:.\Generated_Source\PSoC5/USB_midi.c **** #endif /* (USB_MIDI_EXT_MODE >= USB_ONE_EXT_INTRF) */
 195:.\Generated_Source\PSoC5/USB_midi.c **** }
  88              		.loc 1 195 0
ARM GAS  C:\Users\LUKASC~1\AppData\Local\Temp\ccIt7ba2.s 			page 6


  89 001a 80BD     		pop	{r7, pc}
  90              	.L3:
  91              		.align	2
  92              	.L2:
  93 001c 00000000 		.word	USB_midiInPointer
  94 0020 00000000 		.word	USB_midi_out_ep
  95              		.cfi_endproc
  96              	.LFE0:
  97              		.size	USB_MIDI_Init, .-USB_MIDI_Init
  98              		.section	.text.USB_MIDI_OUT_Service,"ax",%progbits
  99              		.align	2
 100              		.global	USB_MIDI_OUT_Service
 101              		.thumb
 102              		.thumb_func
 103              		.type	USB_MIDI_OUT_Service, %function
 104              	USB_MIDI_OUT_Service:
 105              	.LFB1:
 196:.\Generated_Source\PSoC5/USB_midi.c **** 
 197:.\Generated_Source\PSoC5/USB_midi.c **** 
 198:.\Generated_Source\PSoC5/USB_midi.c **** #if (USB_MIDI_OUT_BUFF_SIZE > 0)
 199:.\Generated_Source\PSoC5/USB_midi.c ****     /*******************************************************************************
 200:.\Generated_Source\PSoC5/USB_midi.c ****     * Function Name: USB_MIDI_OUT_Service
 201:.\Generated_Source\PSoC5/USB_midi.c ****     ****************************************************************************//**
 202:.\Generated_Source\PSoC5/USB_midi.c ****     *
 203:.\Generated_Source\PSoC5/USB_midi.c ****     *  This function services the traffic from the USBMIDI OUT endpoint and
 204:.\Generated_Source\PSoC5/USB_midi.c ****     *  sends the data to the MIDI output ports (TX UARTs). It is blocked by the
 205:.\Generated_Source\PSoC5/USB_midi.c ****     *  UART when not enough space is available in the UART TX buffer.
 206:.\Generated_Source\PSoC5/USB_midi.c ****     *  This function is automatically called from OUT EP ISR in DMA with
 207:.\Generated_Source\PSoC5/USB_midi.c ****     *  Automatic Memory Management mode. In Manual and DMA with Manual EP
 208:.\Generated_Source\PSoC5/USB_midi.c ****     *  Management modes you must call it from the main foreground task.
 209:.\Generated_Source\PSoC5/USB_midi.c ****     *
 210:.\Generated_Source\PSoC5/USB_midi.c ****     * \globalvars
 211:.\Generated_Source\PSoC5/USB_midi.c ****     *
 212:.\Generated_Source\PSoC5/USB_midi.c ****     *  \ref USB_midiOutBuffer: Used as temporary buffer between USB
 213:.\Generated_Source\PSoC5/USB_midi.c ****     *       internal memory and UART TX buffer.
 214:.\Generated_Source\PSoC5/USB_midi.c ****     *
 215:.\Generated_Source\PSoC5/USB_midi.c ****     *  \ref USB_midi_out_ep: Used as an OUT endpoint number.
 216:.\Generated_Source\PSoC5/USB_midi.c ****     *
 217:.\Generated_Source\PSoC5/USB_midi.c ****     * \reentrant
 218:.\Generated_Source\PSoC5/USB_midi.c ****     *  No
 219:.\Generated_Source\PSoC5/USB_midi.c ****     *
 220:.\Generated_Source\PSoC5/USB_midi.c ****     *******************************************************************************/
 221:.\Generated_Source\PSoC5/USB_midi.c ****     void USB_MIDI_OUT_Service(void) 
 222:.\Generated_Source\PSoC5/USB_midi.c ****     {
 106              		.loc 1 222 0
 107              		.cfi_startproc
 108              		@ args = 0, pretend = 0, frame = 8
 109              		@ frame_needed = 1, uses_anonymous_args = 0
 110 0000 80B5     		push	{r7, lr}
 111              		.cfi_def_cfa_offset 8
 112              		.cfi_offset 7, -8
 113              		.cfi_offset 14, -4
 114 0002 82B0     		sub	sp, sp, #8
 115              		.cfi_def_cfa_offset 16
 116 0004 00AF     		add	r7, sp, #0
 117              		.cfi_def_cfa_register 7
 223:.\Generated_Source\PSoC5/USB_midi.c ****     #if (USB_MIDI_OUT_BUFF_SIZE >= 256)
ARM GAS  C:\Users\LUKASC~1\AppData\Local\Temp\ccIt7ba2.s 			page 7


 224:.\Generated_Source\PSoC5/USB_midi.c ****         uint16 outLength;
 225:.\Generated_Source\PSoC5/USB_midi.c ****         uint16 outPointer;
 226:.\Generated_Source\PSoC5/USB_midi.c ****     #else
 227:.\Generated_Source\PSoC5/USB_midi.c ****         uint8 outLength;
 228:.\Generated_Source\PSoC5/USB_midi.c ****         uint8 outPointer;
 229:.\Generated_Source\PSoC5/USB_midi.c ****     #endif /* (USB_MIDI_OUT_BUFF_SIZE >= 256) */
 230:.\Generated_Source\PSoC5/USB_midi.c **** 
 231:.\Generated_Source\PSoC5/USB_midi.c ****         /* Service the USB MIDI output endpoint. */
 232:.\Generated_Source\PSoC5/USB_midi.c ****         if (USB_OUT_BUFFER_FULL == USB_GetEPState(USB_midi_out_ep))
 118              		.loc 1 232 0
 119 0006 2E4B     		ldr	r3, .L11
 120 0008 1B78     		ldrb	r3, [r3]
 121 000a DBB2     		uxtb	r3, r3
 122 000c 1846     		mov	r0, r3
 123 000e FFF7FEFF 		bl	USB_GetEPState
 124 0012 0346     		mov	r3, r0
 125 0014 012B     		cmp	r3, #1
 126 0016 4FD1     		bne	.L4
 233:.\Generated_Source\PSoC5/USB_midi.c ****         {
 234:.\Generated_Source\PSoC5/USB_midi.c ****         #if (USB_MIDI_OUT_BUFF_SIZE >= 256)
 235:.\Generated_Source\PSoC5/USB_midi.c ****             outLength = USB_GetEPCount(USB_midi_out_ep);
 236:.\Generated_Source\PSoC5/USB_midi.c ****         #else
 237:.\Generated_Source\PSoC5/USB_midi.c ****             outLength = (uint8)USB_GetEPCount(USB_midi_out_ep);
 127              		.loc 1 237 0
 128 0018 294B     		ldr	r3, .L11
 129 001a 1B78     		ldrb	r3, [r3]
 130 001c DBB2     		uxtb	r3, r3
 131 001e 1846     		mov	r0, r3
 132 0020 FFF7FEFF 		bl	USB_GetEPCount
 133 0024 0346     		mov	r3, r0
 134 0026 BB71     		strb	r3, [r7, #6]
 238:.\Generated_Source\PSoC5/USB_midi.c ****         #endif /* (USB_MIDI_OUT_BUFF_SIZE >= 256) */
 239:.\Generated_Source\PSoC5/USB_midi.c **** 
 240:.\Generated_Source\PSoC5/USB_midi.c ****         #if (!USB_EP_MANAGEMENT_DMA_AUTO)
 241:.\Generated_Source\PSoC5/USB_midi.c ****             #if (USB_MIDI_OUT_BUFF_SIZE >= 256)
 242:.\Generated_Source\PSoC5/USB_midi.c ****                 outLength = USB_ReadOutEP(USB_midi_out_ep,
 243:.\Generated_Source\PSoC5/USB_midi.c ****                                                        USB_midiOutBuffer, outLength);
 244:.\Generated_Source\PSoC5/USB_midi.c ****             #else
 245:.\Generated_Source\PSoC5/USB_midi.c ****                 outLength = (uint8)USB_ReadOutEP(USB_midi_out_ep,
 135              		.loc 1 245 0
 136 0028 254B     		ldr	r3, .L11
 137 002a 1B78     		ldrb	r3, [r3]
 138 002c DAB2     		uxtb	r2, r3
 139 002e BB79     		ldrb	r3, [r7, #6]	@ zero_extendqisi2
 140 0030 9BB2     		uxth	r3, r3
 141 0032 1046     		mov	r0, r2
 142 0034 2349     		ldr	r1, .L11+4
 143 0036 1A46     		mov	r2, r3
 144 0038 FFF7FEFF 		bl	USB_ReadOutEP
 145 003c 0346     		mov	r3, r0
 146 003e BB71     		strb	r3, [r7, #6]
 246:.\Generated_Source\PSoC5/USB_midi.c ****                                                               USB_midiOutBuffer, (uint16) outLength
 247:.\Generated_Source\PSoC5/USB_midi.c ****             #endif /* (USB_MIDI_OUT_BUFF_SIZE >= 256) */
 248:.\Generated_Source\PSoC5/USB_midi.c **** 
 249:.\Generated_Source\PSoC5/USB_midi.c ****             #if (USB_EP_MANAGEMENT_DMA_MANUAL)
 250:.\Generated_Source\PSoC5/USB_midi.c ****                 /* Wait until DMA complete transferring data from OUT endpoint buffer. */
 251:.\Generated_Source\PSoC5/USB_midi.c ****                 while (USB_OUT_BUFFER_FULL == USB_GetEPState(USB_midi_out_ep))
ARM GAS  C:\Users\LUKASC~1\AppData\Local\Temp\ccIt7ba2.s 			page 8


 252:.\Generated_Source\PSoC5/USB_midi.c ****                 {
 253:.\Generated_Source\PSoC5/USB_midi.c ****                 }
 254:.\Generated_Source\PSoC5/USB_midi.c **** 
 255:.\Generated_Source\PSoC5/USB_midi.c ****                 /* Enable OUT endpoint for communication with host. */
 256:.\Generated_Source\PSoC5/USB_midi.c ****                 USB_EnableOutEP(USB_midi_out_ep);
 257:.\Generated_Source\PSoC5/USB_midi.c ****             #endif /* (USB_EP_MANAGEMENT_DMA_MANUAL) */
 258:.\Generated_Source\PSoC5/USB_midi.c ****         #endif /* (!USB_EP_MANAGEMENT_DMA_AUTO) */
 259:.\Generated_Source\PSoC5/USB_midi.c **** 
 260:.\Generated_Source\PSoC5/USB_midi.c ****             if (outLength >= USB_EVENT_LENGTH)
 147              		.loc 1 260 0
 148 0040 BB79     		ldrb	r3, [r7, #6]	@ zero_extendqisi2
 149 0042 032B     		cmp	r3, #3
 150 0044 38D9     		bls	.L4
 261:.\Generated_Source\PSoC5/USB_midi.c ****             {
 262:.\Generated_Source\PSoC5/USB_midi.c ****                 outPointer = 0u;
 151              		.loc 1 262 0
 152 0046 0023     		movs	r3, #0
 153 0048 FB71     		strb	r3, [r7, #7]
 263:.\Generated_Source\PSoC5/USB_midi.c ****                 while (outPointer < outLength)
 154              		.loc 1 263 0
 155 004a 31E0     		b	.L6
 156              	.L10:
 264:.\Generated_Source\PSoC5/USB_midi.c ****                 {
 265:.\Generated_Source\PSoC5/USB_midi.c ****                     /* In some OS OUT packet could be appended by nulls which could be skipped. */
 266:.\Generated_Source\PSoC5/USB_midi.c ****                     if (USB_midiOutBuffer[outPointer] == 0u)
 157              		.loc 1 266 0
 158 004c FB79     		ldrb	r3, [r7, #7]	@ zero_extendqisi2
 159 004e 1D4A     		ldr	r2, .L11+4
 160 0050 D35C     		ldrb	r3, [r2, r3]	@ zero_extendqisi2
 161 0052 002B     		cmp	r3, #0
 162 0054 00D1     		bne	.L7
 267:.\Generated_Source\PSoC5/USB_midi.c ****                     {
 268:.\Generated_Source\PSoC5/USB_midi.c ****                         break;
 163              		.loc 1 268 0
 164 0056 2FE0     		b	.L4
 165              	.L7:
 269:.\Generated_Source\PSoC5/USB_midi.c ****                     }
 270:.\Generated_Source\PSoC5/USB_midi.c **** 
 271:.\Generated_Source\PSoC5/USB_midi.c ****                 /* Route USB MIDI to the External connection */
 272:.\Generated_Source\PSoC5/USB_midi.c ****                 #if (USB_MIDI_EXT_MODE >= USB_ONE_EXT_INTRF)
 273:.\Generated_Source\PSoC5/USB_midi.c ****                     if ((USB_midiOutBuffer[outPointer] & USB_CABLE_MASK) ==
 166              		.loc 1 273 0
 167 0058 FB79     		ldrb	r3, [r7, #7]	@ zero_extendqisi2
 168 005a 1A4A     		ldr	r2, .L11+4
 169 005c D35C     		ldrb	r3, [r2, r3]	@ zero_extendqisi2
 170 005e 03F0F003 		and	r3, r3, #240
 171 0062 002B     		cmp	r3, #0
 172 0064 06D1     		bne	.L8
 274:.\Generated_Source\PSoC5/USB_midi.c ****                          USB_MIDI_CABLE_00)
 275:.\Generated_Source\PSoC5/USB_midi.c ****                     {
 276:.\Generated_Source\PSoC5/USB_midi.c ****                         USB_MIDI1_ProcessUsbOut(&USB_midiOutBuffer[outPointer]);
 173              		.loc 1 276 0
 174 0066 FB79     		ldrb	r3, [r7, #7]	@ zero_extendqisi2
 175 0068 164A     		ldr	r2, .L11+4
 176 006a 1344     		add	r3, r3, r2
 177 006c 1846     		mov	r0, r3
 178 006e FFF7FEFF 		bl	USB_MIDI1_ProcessUsbOut
ARM GAS  C:\Users\LUKASC~1\AppData\Local\Temp\ccIt7ba2.s 			page 9


 179 0072 0CE0     		b	.L9
 180              	.L8:
 277:.\Generated_Source\PSoC5/USB_midi.c ****                     }
 278:.\Generated_Source\PSoC5/USB_midi.c ****                     else if ((USB_midiOutBuffer[outPointer] & USB_CABLE_MASK) ==
 181              		.loc 1 278 0
 182 0074 FB79     		ldrb	r3, [r7, #7]	@ zero_extendqisi2
 183 0076 134A     		ldr	r2, .L11+4
 184 0078 D35C     		ldrb	r3, [r2, r3]	@ zero_extendqisi2
 185 007a 03F0F003 		and	r3, r3, #240
 186 007e 102B     		cmp	r3, #16
 187 0080 05D1     		bne	.L9
 279:.\Generated_Source\PSoC5/USB_midi.c ****                              USB_MIDI_CABLE_01)
 280:.\Generated_Source\PSoC5/USB_midi.c ****                     {
 281:.\Generated_Source\PSoC5/USB_midi.c ****                     #if (USB_MIDI_EXT_MODE >= USB_TWO_EXT_INTRF)
 282:.\Generated_Source\PSoC5/USB_midi.c ****                          USB_MIDI2_ProcessUsbOut(&USB_midiOutBuffer[outPointer]);
 188              		.loc 1 282 0
 189 0082 FB79     		ldrb	r3, [r7, #7]	@ zero_extendqisi2
 190 0084 0F4A     		ldr	r2, .L11+4
 191 0086 1344     		add	r3, r3, r2
 192 0088 1846     		mov	r0, r3
 193 008a FFF7FEFF 		bl	USB_MIDI2_ProcessUsbOut
 194              	.L9:
 283:.\Generated_Source\PSoC5/USB_midi.c ****                     #endif /*  USB_MIDI_EXT_MODE >= USB_TWO_EXT_INTRF */
 284:.\Generated_Source\PSoC5/USB_midi.c ****                     }
 285:.\Generated_Source\PSoC5/USB_midi.c ****                     else
 286:.\Generated_Source\PSoC5/USB_midi.c ****                     {
 287:.\Generated_Source\PSoC5/USB_midi.c ****                         /* `#START CUSTOM_MIDI_OUT_EP_SERV` Place your code here */
 288:.\Generated_Source\PSoC5/USB_midi.c **** 
 289:.\Generated_Source\PSoC5/USB_midi.c ****                         /* `#END` */
 290:.\Generated_Source\PSoC5/USB_midi.c **** 
 291:.\Generated_Source\PSoC5/USB_midi.c ****                         #ifdef USB_MIDI_OUT_EP_SERVICE_CALLBACK
 292:.\Generated_Source\PSoC5/USB_midi.c ****                             USB_MIDI_OUT_EP_Service_Callback();
 293:.\Generated_Source\PSoC5/USB_midi.c ****                         #endif /* USB_MIDI_OUT_EP_SERVICE_CALLBACK */
 294:.\Generated_Source\PSoC5/USB_midi.c ****                     }
 295:.\Generated_Source\PSoC5/USB_midi.c ****                 #endif /* (USB_MIDI_EXT_MODE >= USB_ONE_EXT_INTRF) */
 296:.\Generated_Source\PSoC5/USB_midi.c **** 
 297:.\Generated_Source\PSoC5/USB_midi.c ****                     /* Process any local MIDI output functions */
 298:.\Generated_Source\PSoC5/USB_midi.c ****                     USB_callbackLocalMidiEvent(USB_midiOutBuffer[outPointer] & USB_CABLE_MASK,
 195              		.loc 1 298 0
 196 008e FB79     		ldrb	r3, [r7, #7]	@ zero_extendqisi2
 197 0090 0C4A     		ldr	r2, .L11+4
 198 0092 D35C     		ldrb	r3, [r2, r3]	@ zero_extendqisi2
 199 0094 23F00F03 		bic	r3, r3, #15
 200 0098 D9B2     		uxtb	r1, r3
 299:.\Generated_Source\PSoC5/USB_midi.c ****                                                             &USB_midiOutBuffer[outPointer + USB_EVE
 201              		.loc 1 299 0
 202 009a FB79     		ldrb	r3, [r7, #7]	@ zero_extendqisi2
 203 009c 0133     		adds	r3, r3, #1
 298:.\Generated_Source\PSoC5/USB_midi.c ****                                                             &USB_midiOutBuffer[outPointer + USB_EVE
 204              		.loc 1 298 0
 205 009e 094A     		ldr	r2, .L11+4
 206 00a0 1344     		add	r3, r3, r2
 207 00a2 0846     		mov	r0, r1
 208 00a4 1946     		mov	r1, r3
 209 00a6 FFF7FEFF 		bl	USB_callbackLocalMidiEvent
 300:.\Generated_Source\PSoC5/USB_midi.c ****                     outPointer += USB_EVENT_LENGTH;
 210              		.loc 1 300 0
ARM GAS  C:\Users\LUKASC~1\AppData\Local\Temp\ccIt7ba2.s 			page 10


 211 00aa FB79     		ldrb	r3, [r7, #7]
 212 00ac 0433     		adds	r3, r3, #4
 213 00ae FB71     		strb	r3, [r7, #7]
 214              	.L6:
 263:.\Generated_Source\PSoC5/USB_midi.c ****                 {
 215              		.loc 1 263 0
 216 00b0 FA79     		ldrb	r2, [r7, #7]	@ zero_extendqisi2
 217 00b2 BB79     		ldrb	r3, [r7, #6]	@ zero_extendqisi2
 218 00b4 9A42     		cmp	r2, r3
 219 00b6 C9D3     		bcc	.L10
 220              	.L4:
 301:.\Generated_Source\PSoC5/USB_midi.c ****                 }
 302:.\Generated_Source\PSoC5/USB_midi.c ****             }
 303:.\Generated_Source\PSoC5/USB_midi.c **** 
 304:.\Generated_Source\PSoC5/USB_midi.c ****         #if (USB_EP_MANAGEMENT_DMA_AUTO)
 305:.\Generated_Source\PSoC5/USB_midi.c ****             /* Enable OUT endpoint for communiation. */
 306:.\Generated_Source\PSoC5/USB_midi.c ****             USB_EnableOutEP(USB_midi_out_ep);
 307:.\Generated_Source\PSoC5/USB_midi.c ****         #endif  /* (USB_EP_MANAGEMENT_DMA_AUTO) */
 308:.\Generated_Source\PSoC5/USB_midi.c ****         }
 309:.\Generated_Source\PSoC5/USB_midi.c ****     }
 221              		.loc 1 309 0
 222 00b8 0837     		adds	r7, r7, #8
 223              		.cfi_def_cfa_offset 8
 224 00ba BD46     		mov	sp, r7
 225              		.cfi_def_cfa_register 13
 226              		@ sp needed
 227 00bc 80BD     		pop	{r7, pc}
 228              	.L12:
 229 00be 00BF     		.align	2
 230              	.L11:
 231 00c0 00000000 		.word	USB_midi_out_ep
 232 00c4 00000000 		.word	USB_midiOutBuffer
 233              		.cfi_endproc
 234              	.LFE1:
 235              		.size	USB_MIDI_OUT_Service, .-USB_MIDI_OUT_Service
 236              		.section	.text.USB_MIDI_IN_EP_Service,"ax",%progbits
 237              		.align	2
 238              		.global	USB_MIDI_IN_EP_Service
 239              		.thumb
 240              		.thumb_func
 241              		.type	USB_MIDI_IN_EP_Service, %function
 242              	USB_MIDI_IN_EP_Service:
 243              	.LFB2:
 310:.\Generated_Source\PSoC5/USB_midi.c **** #endif /* (USB_MIDI_OUT_BUFF_SIZE > 0) */
 311:.\Generated_Source\PSoC5/USB_midi.c **** 
 312:.\Generated_Source\PSoC5/USB_midi.c **** 
 313:.\Generated_Source\PSoC5/USB_midi.c **** #if (USB_MIDI_IN_BUFF_SIZE > 0)
 314:.\Generated_Source\PSoC5/USB_midi.c ****     /*******************************************************************************
 315:.\Generated_Source\PSoC5/USB_midi.c ****     * Function Name: USB_MIDI_IN_EP_Service
 316:.\Generated_Source\PSoC5/USB_midi.c ****     ****************************************************************************//**
 317:.\Generated_Source\PSoC5/USB_midi.c ****     *
 318:.\Generated_Source\PSoC5/USB_midi.c ****     *  Services the USB MIDI IN endpoint. Non-blocking.
 319:.\Generated_Source\PSoC5/USB_midi.c ****     *  Checks that previous packet was processed by HOST, otherwise service the
 320:.\Generated_Source\PSoC5/USB_midi.c ****     *  input endpoint on the subsequent call. It is called from the
 321:.\Generated_Source\PSoC5/USB_midi.c ****     *  USB_MIDI_IN_Service() and from the
 322:.\Generated_Source\PSoC5/USB_midi.c ****     *  USB_PutUsbMidiIn() function.
 323:.\Generated_Source\PSoC5/USB_midi.c ****     *
ARM GAS  C:\Users\LUKASC~1\AppData\Local\Temp\ccIt7ba2.s 			page 11


 324:.\Generated_Source\PSoC5/USB_midi.c ****     * \globalvars
 325:.\Generated_Source\PSoC5/USB_midi.c ****     *  USB_midi_in_ep: Used as an IN endpoint number.
 326:.\Generated_Source\PSoC5/USB_midi.c ****     *  USB_midiInBuffer: Function loads the data from this buffer to
 327:.\Generated_Source\PSoC5/USB_midi.c ****     *    the USB IN endpoint.
 328:.\Generated_Source\PSoC5/USB_midi.c ****     *   USB_midiInPointer: Cleared to zero when data are sent.
 329:.\Generated_Source\PSoC5/USB_midi.c ****     *
 330:.\Generated_Source\PSoC5/USB_midi.c ****     * \reentrant
 331:.\Generated_Source\PSoC5/USB_midi.c ****     *  No
 332:.\Generated_Source\PSoC5/USB_midi.c ****     *
 333:.\Generated_Source\PSoC5/USB_midi.c ****     *******************************************************************************/
 334:.\Generated_Source\PSoC5/USB_midi.c ****     void USB_MIDI_IN_EP_Service(void) 
 335:.\Generated_Source\PSoC5/USB_midi.c ****     {
 244              		.loc 1 335 0
 245              		.cfi_startproc
 246              		@ args = 0, pretend = 0, frame = 0
 247              		@ frame_needed = 1, uses_anonymous_args = 0
 248 0000 80B5     		push	{r7, lr}
 249              		.cfi_def_cfa_offset 8
 250              		.cfi_offset 7, -8
 251              		.cfi_offset 14, -4
 252 0002 00AF     		add	r7, sp, #0
 253              		.cfi_def_cfa_register 7
 336:.\Generated_Source\PSoC5/USB_midi.c ****         /* Service the USB MIDI input endpoint */
 337:.\Generated_Source\PSoC5/USB_midi.c ****         /* Check that previous packet was processed by HOST, otherwise service the USB later */
 338:.\Generated_Source\PSoC5/USB_midi.c ****         if (USB_midiInPointer != 0u)
 254              		.loc 1 338 0
 255 0004 0E4B     		ldr	r3, .L15
 256 0006 1B78     		ldrb	r3, [r3]
 257 0008 DBB2     		uxtb	r3, r3
 258 000a 002B     		cmp	r3, #0
 259 000c 17D0     		beq	.L13
 339:.\Generated_Source\PSoC5/USB_midi.c ****         {
 340:.\Generated_Source\PSoC5/USB_midi.c ****             if(USB_GetEPState(USB_midi_in_ep) == USB_EVENT_PENDING)
 260              		.loc 1 340 0
 261 000e 0D4B     		ldr	r3, .L15+4
 262 0010 1B78     		ldrb	r3, [r3]
 263 0012 DBB2     		uxtb	r3, r3
 264 0014 1846     		mov	r0, r3
 265 0016 FFF7FEFF 		bl	USB_GetEPState
 266 001a 0346     		mov	r3, r0
 267 001c 012B     		cmp	r3, #1
 268 001e 0ED1     		bne	.L13
 341:.\Generated_Source\PSoC5/USB_midi.c ****             {
 342:.\Generated_Source\PSoC5/USB_midi.c ****             #if (USB_EP_MANAGEMENT_DMA_AUTO)
 343:.\Generated_Source\PSoC5/USB_midi.c ****                 USB_LoadInEP(USB_midi_in_ep, NULL, (uint16)USB_midiInPointer);
 344:.\Generated_Source\PSoC5/USB_midi.c ****             #else
 345:.\Generated_Source\PSoC5/USB_midi.c ****                 USB_LoadInEP(USB_midi_in_ep, USB_midiInBuffer,
 269              		.loc 1 345 0
 270 0020 084B     		ldr	r3, .L15+4
 271 0022 1B78     		ldrb	r3, [r3]
 272 0024 DAB2     		uxtb	r2, r3
 273 0026 064B     		ldr	r3, .L15
 274 0028 1B78     		ldrb	r3, [r3]
 275 002a DBB2     		uxtb	r3, r3
 276 002c 9BB2     		uxth	r3, r3
 277 002e 1046     		mov	r0, r2
 278 0030 0549     		ldr	r1, .L15+8
ARM GAS  C:\Users\LUKASC~1\AppData\Local\Temp\ccIt7ba2.s 			page 12


 279 0032 1A46     		mov	r2, r3
 280 0034 FFF7FEFF 		bl	USB_LoadInEP
 346:.\Generated_Source\PSoC5/USB_midi.c ****                                                               (uint16) USB_midiInPointer);
 347:.\Generated_Source\PSoC5/USB_midi.c ****             #endif /* (USB_EP_MANAGEMENT_DMA_AUTO) */
 348:.\Generated_Source\PSoC5/USB_midi.c **** 
 349:.\Generated_Source\PSoC5/USB_midi.c ****             /* Clear the midiInPointer. For DMA mode, clear this pointer in the ARB ISR when data a
 350:.\Generated_Source\PSoC5/USB_midi.c ****             #if (USB_EP_MANAGEMENT_MANUAL)
 351:.\Generated_Source\PSoC5/USB_midi.c ****                 USB_midiInPointer = 0u;
 281              		.loc 1 351 0
 282 0038 014B     		ldr	r3, .L15
 283 003a 0022     		movs	r2, #0
 284 003c 1A70     		strb	r2, [r3]
 285              	.L13:
 352:.\Generated_Source\PSoC5/USB_midi.c ****             #endif /* (USB_EP_MANAGEMENT_MANUAL) */
 353:.\Generated_Source\PSoC5/USB_midi.c ****             }
 354:.\Generated_Source\PSoC5/USB_midi.c ****         }
 355:.\Generated_Source\PSoC5/USB_midi.c ****     }
 286              		.loc 1 355 0
 287 003e 80BD     		pop	{r7, pc}
 288              	.L16:
 289              		.align	2
 290              	.L15:
 291 0040 00000000 		.word	USB_midiInPointer
 292 0044 00000000 		.word	USB_midi_in_ep
 293 0048 00000000 		.word	USB_midiInBuffer
 294              		.cfi_endproc
 295              	.LFE2:
 296              		.size	USB_MIDI_IN_EP_Service, .-USB_MIDI_IN_EP_Service
 297              		.section	.text.USB_MIDI_IN_Service,"ax",%progbits
 298              		.align	2
 299              		.global	USB_MIDI_IN_Service
 300              		.thumb
 301              		.thumb_func
 302              		.type	USB_MIDI_IN_Service, %function
 303              	USB_MIDI_IN_Service:
 304              	.LFB3:
 356:.\Generated_Source\PSoC5/USB_midi.c **** 
 357:.\Generated_Source\PSoC5/USB_midi.c **** 
 358:.\Generated_Source\PSoC5/USB_midi.c ****     /*******************************************************************************
 359:.\Generated_Source\PSoC5/USB_midi.c ****     * Function Name: USB_MIDI_IN_Service
 360:.\Generated_Source\PSoC5/USB_midi.c ****     ****************************************************************************//**
 361:.\Generated_Source\PSoC5/USB_midi.c ****     *
 362:.\Generated_Source\PSoC5/USB_midi.c ****     *  This function services the traffic from the MIDI input ports (RX UART)
 363:.\Generated_Source\PSoC5/USB_midi.c ****     *  and prepare data in USB MIDI IN endpoint buffer.
 364:.\Generated_Source\PSoC5/USB_midi.c ****     *  Calls the USB_MIDI_IN_EP_Service() function to sent the
 365:.\Generated_Source\PSoC5/USB_midi.c ****     *  data from buffer to PC. Non-blocking. Should be called from main foreground
 366:.\Generated_Source\PSoC5/USB_midi.c ****     *  task.
 367:.\Generated_Source\PSoC5/USB_midi.c ****     *  This function is not protected from the reentrant calls. When it is required
 368:.\Generated_Source\PSoC5/USB_midi.c ****     *  to use this function in UART RX ISR to guaranty low latency, care should be
 369:.\Generated_Source\PSoC5/USB_midi.c ****     *  taken to protect from reentrant calls.
 370:.\Generated_Source\PSoC5/USB_midi.c ****     *  In PSoC 3, if this function is called from an ISR, you must declare this
 371:.\Generated_Source\PSoC5/USB_midi.c ****     *  function as re-entrant so that different variable storage space is
 372:.\Generated_Source\PSoC5/USB_midi.c ****     *  created by the compiler. This is automatically taken care for PSoC 4 and
 373:.\Generated_Source\PSoC5/USB_midi.c ****     *  PSoC 5LP devices by the compiler.
 374:.\Generated_Source\PSoC5/USB_midi.c ****     *
 375:.\Generated_Source\PSoC5/USB_midi.c ****     * \globalvars
 376:.\Generated_Source\PSoC5/USB_midi.c ****     *
ARM GAS  C:\Users\LUKASC~1\AppData\Local\Temp\ccIt7ba2.s 			page 13


 377:.\Generated_Source\PSoC5/USB_midi.c ****     *   USB_midiInPointer: Cleared to zero when data are sent.
 378:.\Generated_Source\PSoC5/USB_midi.c ****     *
 379:.\Generated_Source\PSoC5/USB_midi.c ****     * \reentrant
 380:.\Generated_Source\PSoC5/USB_midi.c ****     *  No
 381:.\Generated_Source\PSoC5/USB_midi.c ****     *
 382:.\Generated_Source\PSoC5/USB_midi.c ****     *******************************************************************************/
 383:.\Generated_Source\PSoC5/USB_midi.c ****     void USB_MIDI_IN_Service(void) 
 384:.\Generated_Source\PSoC5/USB_midi.c ****     {
 305              		.loc 1 384 0
 306              		.cfi_startproc
 307              		@ args = 0, pretend = 0, frame = 8
 308              		@ frame_needed = 1, uses_anonymous_args = 0
 309 0000 80B5     		push	{r7, lr}
 310              		.cfi_def_cfa_offset 8
 311              		.cfi_offset 7, -8
 312              		.cfi_offset 14, -4
 313 0002 82B0     		sub	sp, sp, #8
 314              		.cfi_def_cfa_offset 16
 315 0004 00AF     		add	r7, sp, #0
 316              		.cfi_def_cfa_register 7
 385:.\Generated_Source\PSoC5/USB_midi.c ****         /* Service the MIDI UART inputs until either both receivers have no more
 386:.\Generated_Source\PSoC5/USB_midi.c ****         *  events or until the input endpoint buffer fills up.
 387:.\Generated_Source\PSoC5/USB_midi.c ****         */
 388:.\Generated_Source\PSoC5/USB_midi.c ****     #if (USB_MIDI_EXT_MODE >= USB_ONE_EXT_INTRF)
 389:.\Generated_Source\PSoC5/USB_midi.c ****             uint8 m1 = 0u;
 317              		.loc 1 389 0
 318 0006 0023     		movs	r3, #0
 319 0008 FB71     		strb	r3, [r7, #7]
 390:.\Generated_Source\PSoC5/USB_midi.c ****             uint8 m2 = 0u;
 320              		.loc 1 390 0
 321 000a 0023     		movs	r3, #0
 322 000c BB71     		strb	r3, [r7, #6]
 391:.\Generated_Source\PSoC5/USB_midi.c **** 
 392:.\Generated_Source\PSoC5/USB_midi.c ****         if (0u == USB_midiInPointer)
 323              		.loc 1 392 0
 324 000e 1F4B     		ldr	r3, .L22
 325 0010 1B78     		ldrb	r3, [r3]
 326 0012 DBB2     		uxtb	r3, r3
 327 0014 002B     		cmp	r3, #0
 328 0016 34D1     		bne	.L18
 329              	.L21:
 393:.\Generated_Source\PSoC5/USB_midi.c ****         {
 394:.\Generated_Source\PSoC5/USB_midi.c ****             do
 395:.\Generated_Source\PSoC5/USB_midi.c ****             {
 396:.\Generated_Source\PSoC5/USB_midi.c ****                 if (USB_midiInPointer <= (USB_MIDI_IN_BUFF_SIZE - USB_EVENT_LENGTH))
 330              		.loc 1 396 0
 331 0018 1C4B     		ldr	r3, .L22
 332 001a 1B78     		ldrb	r3, [r3]
 333 001c DBB2     		uxtb	r3, r3
 334 001e 1C2B     		cmp	r3, #28
 335 0020 0FD8     		bhi	.L19
 397:.\Generated_Source\PSoC5/USB_midi.c ****                 {
 398:.\Generated_Source\PSoC5/USB_midi.c ****                     /* Check MIDI1 input port for a complete event */
 399:.\Generated_Source\PSoC5/USB_midi.c ****                     m1 = USB_MIDI1_GetEvent();
 336              		.loc 1 399 0
 337 0022 FFF7FEFF 		bl	USB_MIDI1_GetEvent
 338 0026 0346     		mov	r3, r0
ARM GAS  C:\Users\LUKASC~1\AppData\Local\Temp\ccIt7ba2.s 			page 14


 339 0028 FB71     		strb	r3, [r7, #7]
 400:.\Generated_Source\PSoC5/USB_midi.c ****                     if (m1 != 0u)
 340              		.loc 1 400 0
 341 002a FB79     		ldrb	r3, [r7, #7]	@ zero_extendqisi2
 342 002c 002B     		cmp	r3, #0
 343 002e 08D0     		beq	.L19
 401:.\Generated_Source\PSoC5/USB_midi.c ****                     {
 402:.\Generated_Source\PSoC5/USB_midi.c ****                         USB_PrepareInBuffer(m1, (uint8 *)&USB_MIDI1_Event.msgBuff[0],
 344              		.loc 1 402 0
 345 0030 174B     		ldr	r3, .L22+4
 346 0032 9B78     		ldrb	r3, [r3, #2]	@ zero_extendqisi2
 347 0034 FA79     		ldrb	r2, [r7, #7]	@ zero_extendqisi2
 348 0036 1046     		mov	r0, r2
 349 0038 1649     		ldr	r1, .L22+8
 350 003a 1A46     		mov	r2, r3
 351 003c 0023     		movs	r3, #0
 352 003e FFF7FEFF 		bl	USB_PrepareInBuffer
 353              	.L19:
 403:.\Generated_Source\PSoC5/USB_midi.c ****                                                                        USB_MIDI1_Event.size, USB_MI
 404:.\Generated_Source\PSoC5/USB_midi.c ****                     }
 405:.\Generated_Source\PSoC5/USB_midi.c ****                 }
 406:.\Generated_Source\PSoC5/USB_midi.c **** 
 407:.\Generated_Source\PSoC5/USB_midi.c ****             #if (USB_MIDI_EXT_MODE >= USB_TWO_EXT_INTRF)
 408:.\Generated_Source\PSoC5/USB_midi.c ****                 if (USB_midiInPointer <= (USB_MIDI_IN_BUFF_SIZE - USB_EVENT_LENGTH))
 354              		.loc 1 408 0
 355 0042 124B     		ldr	r3, .L22
 356 0044 1B78     		ldrb	r3, [r3]
 357 0046 DBB2     		uxtb	r3, r3
 358 0048 1C2B     		cmp	r3, #28
 359 004a 0FD8     		bhi	.L20
 409:.\Generated_Source\PSoC5/USB_midi.c ****                 {
 410:.\Generated_Source\PSoC5/USB_midi.c ****                     /* Check MIDI2 input port for a complete event */
 411:.\Generated_Source\PSoC5/USB_midi.c ****                     m2 = USB_MIDI2_GetEvent();
 360              		.loc 1 411 0
 361 004c FFF7FEFF 		bl	USB_MIDI2_GetEvent
 362 0050 0346     		mov	r3, r0
 363 0052 BB71     		strb	r3, [r7, #6]
 412:.\Generated_Source\PSoC5/USB_midi.c ****                     if (m2 != 0u)
 364              		.loc 1 412 0
 365 0054 BB79     		ldrb	r3, [r7, #6]	@ zero_extendqisi2
 366 0056 002B     		cmp	r3, #0
 367 0058 08D0     		beq	.L20
 413:.\Generated_Source\PSoC5/USB_midi.c ****                     {
 414:.\Generated_Source\PSoC5/USB_midi.c ****                         USB_PrepareInBuffer(m2, (uint8 *)&USB_MIDI2_Event.msgBuff[0],
 368              		.loc 1 414 0
 369 005a 0F4B     		ldr	r3, .L22+12
 370 005c 9B78     		ldrb	r3, [r3, #2]	@ zero_extendqisi2
 371 005e BA79     		ldrb	r2, [r7, #6]	@ zero_extendqisi2
 372 0060 1046     		mov	r0, r2
 373 0062 0E49     		ldr	r1, .L22+16
 374 0064 1A46     		mov	r2, r3
 375 0066 1023     		movs	r3, #16
 376 0068 FFF7FEFF 		bl	USB_PrepareInBuffer
 377              	.L20:
 415:.\Generated_Source\PSoC5/USB_midi.c ****                                                                        USB_MIDI2_Event.size, USB_MI
 416:.\Generated_Source\PSoC5/USB_midi.c ****                     }
 417:.\Generated_Source\PSoC5/USB_midi.c ****                 }
ARM GAS  C:\Users\LUKASC~1\AppData\Local\Temp\ccIt7ba2.s 			page 15


 418:.\Generated_Source\PSoC5/USB_midi.c ****             #endif /*  USB_MIDI_EXT_MODE >= USB_TWO_EXT_INTRF */
 419:.\Generated_Source\PSoC5/USB_midi.c ****             }
 420:.\Generated_Source\PSoC5/USB_midi.c ****             while((USB_midiInPointer <= (USB_MIDI_IN_BUFF_SIZE - USB_EVENT_LENGTH)) &&
 378              		.loc 1 420 0
 379 006c 074B     		ldr	r3, .L22
 380 006e 1B78     		ldrb	r3, [r3]
 381 0070 DBB2     		uxtb	r3, r3
 421:.\Generated_Source\PSoC5/USB_midi.c ****                   ((m1 != 0u) || (m2 != 0u)));
 382              		.loc 1 421 0
 383 0072 1C2B     		cmp	r3, #28
 384 0074 05D8     		bhi	.L18
 420:.\Generated_Source\PSoC5/USB_midi.c ****                   ((m1 != 0u) || (m2 != 0u)));
 385              		.loc 1 420 0
 386 0076 FB79     		ldrb	r3, [r7, #7]	@ zero_extendqisi2
 387 0078 002B     		cmp	r3, #0
 388 007a CDD1     		bne	.L21
 389              		.loc 1 421 0
 390 007c BB79     		ldrb	r3, [r7, #6]	@ zero_extendqisi2
 391 007e 002B     		cmp	r3, #0
 392 0080 CAD1     		bne	.L21
 393              	.L18:
 422:.\Generated_Source\PSoC5/USB_midi.c ****         }
 423:.\Generated_Source\PSoC5/USB_midi.c ****     #endif /* (USB_MIDI_EXT_MODE >= USB_ONE_EXT_INTRF) */
 424:.\Generated_Source\PSoC5/USB_midi.c **** 
 425:.\Generated_Source\PSoC5/USB_midi.c ****         /* Service the USB MIDI input endpoint */
 426:.\Generated_Source\PSoC5/USB_midi.c ****         USB_MIDI_IN_EP_Service();
 394              		.loc 1 426 0
 395 0082 FFF7FEFF 		bl	USB_MIDI_IN_EP_Service
 427:.\Generated_Source\PSoC5/USB_midi.c ****     }
 396              		.loc 1 427 0
 397 0086 0837     		adds	r7, r7, #8
 398              		.cfi_def_cfa_offset 8
 399 0088 BD46     		mov	sp, r7
 400              		.cfi_def_cfa_register 13
 401              		@ sp needed
 402 008a 80BD     		pop	{r7, pc}
 403              	.L23:
 404              		.align	2
 405              	.L22:
 406 008c 00000000 		.word	USB_midiInPointer
 407 0090 00000000 		.word	USB_MIDI1_Event
 408 0094 04000000 		.word	USB_MIDI1_Event+4
 409 0098 0C000000 		.word	USB_MIDI2_Event
 410 009c 10000000 		.word	USB_MIDI2_Event+4
 411              		.cfi_endproc
 412              	.LFE3:
 413              		.size	USB_MIDI_IN_Service, .-USB_MIDI_IN_Service
 414              		.section	.text.USB_PutUsbMidiIn,"ax",%progbits
 415              		.align	2
 416              		.global	USB_PutUsbMidiIn
 417              		.thumb
 418              		.thumb_func
 419              		.type	USB_PutUsbMidiIn, %function
 420              	USB_PutUsbMidiIn:
 421              	.LFB4:
 428:.\Generated_Source\PSoC5/USB_midi.c **** 
 429:.\Generated_Source\PSoC5/USB_midi.c **** 
ARM GAS  C:\Users\LUKASC~1\AppData\Local\Temp\ccIt7ba2.s 			page 16


 430:.\Generated_Source\PSoC5/USB_midi.c ****     /***************************************************************************
 431:.\Generated_Source\PSoC5/USB_midi.c ****     * Function Name: USB_PutUsbMidiIn
 432:.\Generated_Source\PSoC5/USB_midi.c ****     ************************************************************************//**
 433:.\Generated_Source\PSoC5/USB_midi.c ****     *
 434:.\Generated_Source\PSoC5/USB_midi.c ****     *  This function puts one MIDI message into the USB MIDI In endpoint buffer.
 435:.\Generated_Source\PSoC5/USB_midi.c ****     *  This is a MIDI input message to the host. This function is used only if
 436:.\Generated_Source\PSoC5/USB_midi.c ****     *  the device has internal MIDI input functionality.
 437:.\Generated_Source\PSoC5/USB_midi.c ****     *  The USB_MIDI_IN_Service() function should also be called to
 438:.\Generated_Source\PSoC5/USB_midi.c ****     *  send the message from local buffer to the IN endpoint.
 439:.\Generated_Source\PSoC5/USB_midi.c ****     *
 440:.\Generated_Source\PSoC5/USB_midi.c ****     *  \param ic: The length of the MIDI message or command is described on the
 441:.\Generated_Source\PSoC5/USB_midi.c ****     *  following table.
 442:.\Generated_Source\PSoC5/USB_midi.c ****     *  Value          | Description
 443:.\Generated_Source\PSoC5/USB_midi.c ****     *  ---------------|---------------------------------------------------------
 444:.\Generated_Source\PSoC5/USB_midi.c ****     *  0              | No message (should never happen)
 445:.\Generated_Source\PSoC5/USB_midi.c ****     *  1 - 3          | Complete MIDI message in midiMsg
 446:.\Generated_Source\PSoC5/USB_midi.c ****     *  3 IN EP LENGTH | Complete SySEx message(without EOSEX byte) in midiMsg. The length is limite
 447:.\Generated_Source\PSoC5/USB_midi.c ****     *  MIDI_SYSEX     | Start or continuation of SysEx message (put event bytes in midiMsg buffer)
 448:.\Generated_Source\PSoC5/USB_midi.c ****     *  MIDI_EOSEX     | End of SysEx message (put event bytes in midiMsg buffer)
 449:.\Generated_Source\PSoC5/USB_midi.c ****     *  MIDI_TUNEREQ   | Tune Request message (single byte system common msg)
 450:.\Generated_Source\PSoC5/USB_midi.c ****     *  0xF8 - 0xFF    | Single byte real-time message
 451:.\Generated_Source\PSoC5/USB_midi.c ****     *
 452:.\Generated_Source\PSoC5/USB_midi.c ****     *  \param midiMsg: pointer to MIDI message.
 453:.\Generated_Source\PSoC5/USB_midi.c ****     *  \param cable:   cable number.
 454:.\Generated_Source\PSoC5/USB_midi.c ****     *
 455:.\Generated_Source\PSoC5/USB_midi.c ****     * \return
 456:.\Generated_Source\PSoC5/USB_midi.c ****     *   Return Value          | Description
 457:.\Generated_Source\PSoC5/USB_midi.c ****     *   ----------------------|-----------------------------------------
 458:.\Generated_Source\PSoC5/USB_midi.c ****     *  USB_TRUE  | Host is not ready to receive this message
 459:.\Generated_Source\PSoC5/USB_midi.c ****     *  USB_FALSE | Success transfer
 460:.\Generated_Source\PSoC5/USB_midi.c ****     *
 461:.\Generated_Source\PSoC5/USB_midi.c ****     * \globalvars
 462:.\Generated_Source\PSoC5/USB_midi.c ****     *
 463:.\Generated_Source\PSoC5/USB_midi.c ****     *  \ref USB_midi_in_ep: MIDI IN endpoint number used for
 464:.\Generated_Source\PSoC5/USB_midi.c ****     *        sending data.
 465:.\Generated_Source\PSoC5/USB_midi.c ****     *
 466:.\Generated_Source\PSoC5/USB_midi.c ****     *  \ref USB_midiInPointer: Checked this variable to see if
 467:.\Generated_Source\PSoC5/USB_midi.c ****     *        there is enough free space in the IN endpoint buffer. If buffer is
 468:.\Generated_Source\PSoC5/USB_midi.c ****     *        full, initiate sending to PC.
 469:.\Generated_Source\PSoC5/USB_midi.c ****     *
 470:.\Generated_Source\PSoC5/USB_midi.c ****     * \reentrant
 471:.\Generated_Source\PSoC5/USB_midi.c ****     *  No
 472:.\Generated_Source\PSoC5/USB_midi.c ****     *
 473:.\Generated_Source\PSoC5/USB_midi.c ****     ***************************************************************************/
 474:.\Generated_Source\PSoC5/USB_midi.c ****     uint8 USB_PutUsbMidiIn(uint8 ic, const uint8 midiMsg[], uint8 cable)
 475:.\Generated_Source\PSoC5/USB_midi.c ****                                                                 
 476:.\Generated_Source\PSoC5/USB_midi.c ****     {
 422              		.loc 1 476 0
 423              		.cfi_startproc
 424              		@ args = 0, pretend = 0, frame = 16
 425              		@ frame_needed = 1, uses_anonymous_args = 0
 426 0000 80B5     		push	{r7, lr}
 427              		.cfi_def_cfa_offset 8
 428              		.cfi_offset 7, -8
 429              		.cfi_offset 14, -4
 430 0002 84B0     		sub	sp, sp, #16
 431              		.cfi_def_cfa_offset 24
ARM GAS  C:\Users\LUKASC~1\AppData\Local\Temp\ccIt7ba2.s 			page 17


 432 0004 00AF     		add	r7, sp, #0
 433              		.cfi_def_cfa_register 7
 434 0006 0346     		mov	r3, r0
 435 0008 3960     		str	r1, [r7]
 436 000a FB71     		strb	r3, [r7, #7]
 437 000c 1346     		mov	r3, r2
 438 000e BB71     		strb	r3, [r7, #6]
 477:.\Generated_Source\PSoC5/USB_midi.c ****         uint8 retError = USB_FALSE;
 439              		.loc 1 477 0
 440 0010 0023     		movs	r3, #0
 441 0012 FB73     		strb	r3, [r7, #15]
 478:.\Generated_Source\PSoC5/USB_midi.c ****         uint8 msgIndex;
 479:.\Generated_Source\PSoC5/USB_midi.c **** 
 480:.\Generated_Source\PSoC5/USB_midi.c ****         /* Protect PrepareInBuffer() function from concurrent calls */
 481:.\Generated_Source\PSoC5/USB_midi.c ****     #if (USB_MIDI_EXT_MODE >= USB_ONE_EXT_INTRF)
 482:.\Generated_Source\PSoC5/USB_midi.c ****         MIDI1_UART_DisableRxInt();
 442              		.loc 1 482 0
 443 0014 4A4B     		ldr	r3, .L35
 444 0016 0222     		movs	r2, #2
 445 0018 1A60     		str	r2, [r3]
 483:.\Generated_Source\PSoC5/USB_midi.c ****         #if (USB_MIDI_EXT_MODE >= USB_TWO_EXT_INTRF)
 484:.\Generated_Source\PSoC5/USB_midi.c ****             MIDI2_UART_DisableRxInt();
 446              		.loc 1 484 0
 447 001a 494B     		ldr	r3, .L35
 448 001c 0822     		movs	r2, #8
 449 001e 1A60     		str	r2, [r3]
 485:.\Generated_Source\PSoC5/USB_midi.c ****         #endif /* (USB_MIDI_EXT_MODE >= USB_TWO_EXT_INTRF) */
 486:.\Generated_Source\PSoC5/USB_midi.c ****     #endif /* (USB_MIDI_EXT_MODE >= USB_ONE_EXT_INTRF) */
 487:.\Generated_Source\PSoC5/USB_midi.c **** 
 488:.\Generated_Source\PSoC5/USB_midi.c ****         if (USB_midiInPointer >
 450              		.loc 1 488 0
 451 0020 484B     		ldr	r3, .L35+4
 452 0022 1B78     		ldrb	r3, [r3]
 453 0024 DBB2     		uxtb	r3, r3
 454 0026 1846     		mov	r0, r3
 489:.\Generated_Source\PSoC5/USB_midi.c ****                     (USB_EP[USB_midi_in_ep].bufferSize - USB_EVENT_LENGTH))
 455              		.loc 1 489 0
 456 0028 474B     		ldr	r3, .L35+8
 457 002a 1B78     		ldrb	r3, [r3]
 458 002c DBB2     		uxtb	r3, r3
 459 002e 1946     		mov	r1, r3
 460 0030 464A     		ldr	r2, .L35+12
 461 0032 0B46     		mov	r3, r1
 462 0034 5B00     		lsls	r3, r3, #1
 463 0036 0B44     		add	r3, r3, r1
 464 0038 9B00     		lsls	r3, r3, #2
 465 003a 1344     		add	r3, r3, r2
 466 003c 0833     		adds	r3, r3, #8
 467 003e 1B88     		ldrh	r3, [r3]	@ movhi
 468 0040 9BB2     		uxth	r3, r3
 469 0042 043B     		subs	r3, r3, #4
 488:.\Generated_Source\PSoC5/USB_midi.c ****                     (USB_EP[USB_midi_in_ep].bufferSize - USB_EVENT_LENGTH))
 470              		.loc 1 488 0
 471 0044 9842     		cmp	r0, r3
 472 0046 01D9     		bls	.L25
 490:.\Generated_Source\PSoC5/USB_midi.c ****         {
 491:.\Generated_Source\PSoC5/USB_midi.c ****             USB_MIDI_IN_EP_Service();
ARM GAS  C:\Users\LUKASC~1\AppData\Local\Temp\ccIt7ba2.s 			page 18


 473              		.loc 1 491 0
 474 0048 FFF7FEFF 		bl	USB_MIDI_IN_EP_Service
 475              	.L25:
 492:.\Generated_Source\PSoC5/USB_midi.c ****         }
 493:.\Generated_Source\PSoC5/USB_midi.c **** 
 494:.\Generated_Source\PSoC5/USB_midi.c ****         if (USB_midiInPointer <=
 476              		.loc 1 494 0
 477 004c 3D4B     		ldr	r3, .L35+4
 478 004e 1B78     		ldrb	r3, [r3]
 479 0050 DBB2     		uxtb	r3, r3
 480 0052 1846     		mov	r0, r3
 495:.\Generated_Source\PSoC5/USB_midi.c ****                     (USB_EP[USB_midi_in_ep].bufferSize - USB_EVENT_LENGTH))
 481              		.loc 1 495 0
 482 0054 3C4B     		ldr	r3, .L35+8
 483 0056 1B78     		ldrb	r3, [r3]
 484 0058 DBB2     		uxtb	r3, r3
 485 005a 1946     		mov	r1, r3
 486 005c 3B4A     		ldr	r2, .L35+12
 487 005e 0B46     		mov	r3, r1
 488 0060 5B00     		lsls	r3, r3, #1
 489 0062 0B44     		add	r3, r3, r1
 490 0064 9B00     		lsls	r3, r3, #2
 491 0066 1344     		add	r3, r3, r2
 492 0068 0833     		adds	r3, r3, #8
 493 006a 1B88     		ldrh	r3, [r3]	@ movhi
 494 006c 9BB2     		uxth	r3, r3
 495 006e 043B     		subs	r3, r3, #4
 494:.\Generated_Source\PSoC5/USB_midi.c ****                     (USB_EP[USB_midi_in_ep].bufferSize - USB_EVENT_LENGTH))
 496              		.loc 1 494 0
 497 0070 9842     		cmp	r0, r3
 498 0072 58D8     		bhi	.L26
 496:.\Generated_Source\PSoC5/USB_midi.c ****         {
 497:.\Generated_Source\PSoC5/USB_midi.c ****             if((ic < USB_EVENT_LENGTH) || (ic >= USB_MIDI_STATUS_MASK))
 499              		.loc 1 497 0
 500 0074 FB79     		ldrb	r3, [r7, #7]	@ zero_extendqisi2
 501 0076 032B     		cmp	r3, #3
 502 0078 02D9     		bls	.L27
 503              		.loc 1 497 0 is_stmt 0 discriminator 1
 504 007a FB79     		ldrb	r3, [r7, #7]	@ zero_extendqisi2
 505 007c EF2B     		cmp	r3, #239
 506 007e 07D9     		bls	.L28
 507              	.L27:
 498:.\Generated_Source\PSoC5/USB_midi.c ****             {
 499:.\Generated_Source\PSoC5/USB_midi.c ****                 USB_PrepareInBuffer(ic, midiMsg, ic, cable);
 508              		.loc 1 499 0 is_stmt 1
 509 0080 F979     		ldrb	r1, [r7, #7]	@ zero_extendqisi2
 510 0082 FA79     		ldrb	r2, [r7, #7]	@ zero_extendqisi2
 511 0084 BB79     		ldrb	r3, [r7, #6]	@ zero_extendqisi2
 512 0086 0846     		mov	r0, r1
 513 0088 3968     		ldr	r1, [r7]
 514 008a FFF7FEFF 		bl	USB_PrepareInBuffer
 515 008e 4CE0     		b	.L33
 516              	.L28:
 500:.\Generated_Source\PSoC5/USB_midi.c ****             }
 501:.\Generated_Source\PSoC5/USB_midi.c ****             else
 502:.\Generated_Source\PSoC5/USB_midi.c ****             {
 503:.\Generated_Source\PSoC5/USB_midi.c ****                 /* Only SysEx message is greater than 4 bytes */
ARM GAS  C:\Users\LUKASC~1\AppData\Local\Temp\ccIt7ba2.s 			page 19


 504:.\Generated_Source\PSoC5/USB_midi.c ****                 msgIndex = 0u;
 517              		.loc 1 504 0
 518 0090 0023     		movs	r3, #0
 519 0092 BB73     		strb	r3, [r7, #14]
 520              	.L32:
 505:.\Generated_Source\PSoC5/USB_midi.c **** 
 506:.\Generated_Source\PSoC5/USB_midi.c ****                 do
 507:.\Generated_Source\PSoC5/USB_midi.c ****                 {
 508:.\Generated_Source\PSoC5/USB_midi.c ****                     USB_PrepareInBuffer(USB_MIDI_SYSEX, &midiMsg[msgIndex],
 521              		.loc 1 508 0
 522 0094 BB7B     		ldrb	r3, [r7, #14]	@ zero_extendqisi2
 523 0096 3A68     		ldr	r2, [r7]
 524 0098 1A44     		add	r2, r2, r3
 525 009a BB79     		ldrb	r3, [r7, #6]	@ zero_extendqisi2
 526 009c F020     		movs	r0, #240
 527 009e 1146     		mov	r1, r2
 528 00a0 0322     		movs	r2, #3
 529 00a2 FFF7FEFF 		bl	USB_PrepareInBuffer
 509:.\Generated_Source\PSoC5/USB_midi.c ****                                                      USB_EVENT_BYTE3, cable);
 510:.\Generated_Source\PSoC5/USB_midi.c **** 
 511:.\Generated_Source\PSoC5/USB_midi.c ****                     ic -= USB_EVENT_BYTE3;
 530              		.loc 1 511 0
 531 00a6 FB79     		ldrb	r3, [r7, #7]
 532 00a8 033B     		subs	r3, r3, #3
 533 00aa FB71     		strb	r3, [r7, #7]
 512:.\Generated_Source\PSoC5/USB_midi.c ****                     msgIndex += USB_EVENT_BYTE3;
 534              		.loc 1 512 0
 535 00ac BB7B     		ldrb	r3, [r7, #14]
 536 00ae 0333     		adds	r3, r3, #3
 537 00b0 BB73     		strb	r3, [r7, #14]
 513:.\Generated_Source\PSoC5/USB_midi.c **** 
 514:.\Generated_Source\PSoC5/USB_midi.c ****                     if (USB_midiInPointer >
 538              		.loc 1 514 0
 539 00b2 244B     		ldr	r3, .L35+4
 540 00b4 1B78     		ldrb	r3, [r3]
 541 00b6 DBB2     		uxtb	r3, r3
 542 00b8 1846     		mov	r0, r3
 515:.\Generated_Source\PSoC5/USB_midi.c ****                         (USB_EP[USB_midi_in_ep].bufferSize - USB_EVENT_LENGTH))
 543              		.loc 1 515 0
 544 00ba 234B     		ldr	r3, .L35+8
 545 00bc 1B78     		ldrb	r3, [r3]
 546 00be DBB2     		uxtb	r3, r3
 547 00c0 1946     		mov	r1, r3
 548 00c2 224A     		ldr	r2, .L35+12
 549 00c4 0B46     		mov	r3, r1
 550 00c6 5B00     		lsls	r3, r3, #1
 551 00c8 0B44     		add	r3, r3, r1
 552 00ca 9B00     		lsls	r3, r3, #2
 553 00cc 1344     		add	r3, r3, r2
 554 00ce 0833     		adds	r3, r3, #8
 555 00d0 1B88     		ldrh	r3, [r3]	@ movhi
 556 00d2 9BB2     		uxth	r3, r3
 557 00d4 043B     		subs	r3, r3, #4
 514:.\Generated_Source\PSoC5/USB_midi.c ****                         (USB_EP[USB_midi_in_ep].bufferSize - USB_EVENT_LENGTH))
 558              		.loc 1 514 0
 559 00d6 9842     		cmp	r0, r3
 560 00d8 18D9     		bls	.L30
ARM GAS  C:\Users\LUKASC~1\AppData\Local\Temp\ccIt7ba2.s 			page 20


 516:.\Generated_Source\PSoC5/USB_midi.c ****                     {
 517:.\Generated_Source\PSoC5/USB_midi.c ****                         USB_MIDI_IN_EP_Service();
 561              		.loc 1 517 0
 562 00da FFF7FEFF 		bl	USB_MIDI_IN_EP_Service
 518:.\Generated_Source\PSoC5/USB_midi.c **** 
 519:.\Generated_Source\PSoC5/USB_midi.c ****                         if (USB_midiInPointer >
 563              		.loc 1 519 0
 564 00de 194B     		ldr	r3, .L35+4
 565 00e0 1B78     		ldrb	r3, [r3]
 566 00e2 DBB2     		uxtb	r3, r3
 567 00e4 1846     		mov	r0, r3
 520:.\Generated_Source\PSoC5/USB_midi.c ****                            (USB_EP[USB_midi_in_ep].bufferSize - USB_EVENT_LENGTH))
 568              		.loc 1 520 0
 569 00e6 184B     		ldr	r3, .L35+8
 570 00e8 1B78     		ldrb	r3, [r3]
 571 00ea DBB2     		uxtb	r3, r3
 572 00ec 1946     		mov	r1, r3
 573 00ee 174A     		ldr	r2, .L35+12
 574 00f0 0B46     		mov	r3, r1
 575 00f2 5B00     		lsls	r3, r3, #1
 576 00f4 0B44     		add	r3, r3, r1
 577 00f6 9B00     		lsls	r3, r3, #2
 578 00f8 1344     		add	r3, r3, r2
 579 00fa 0833     		adds	r3, r3, #8
 580 00fc 1B88     		ldrh	r3, [r3]	@ movhi
 581 00fe 9BB2     		uxth	r3, r3
 582 0100 043B     		subs	r3, r3, #4
 519:.\Generated_Source\PSoC5/USB_midi.c ****                            (USB_EP[USB_midi_in_ep].bufferSize - USB_EVENT_LENGTH))
 583              		.loc 1 519 0
 584 0102 9842     		cmp	r0, r3
 585 0104 02D9     		bls	.L30
 521:.\Generated_Source\PSoC5/USB_midi.c ****                         {
 522:.\Generated_Source\PSoC5/USB_midi.c ****                             /* Error condition. HOST is not ready to receive this packet. */
 523:.\Generated_Source\PSoC5/USB_midi.c ****                             retError = USB_TRUE;
 586              		.loc 1 523 0
 587 0106 0123     		movs	r3, #1
 588 0108 FB73     		strb	r3, [r7, #15]
 524:.\Generated_Source\PSoC5/USB_midi.c ****                             break;
 589              		.loc 1 524 0
 590 010a 02E0     		b	.L31
 591              	.L30:
 525:.\Generated_Source\PSoC5/USB_midi.c ****                         }
 526:.\Generated_Source\PSoC5/USB_midi.c ****                     }
 527:.\Generated_Source\PSoC5/USB_midi.c ****                 }
 528:.\Generated_Source\PSoC5/USB_midi.c ****                 while (ic > USB_EVENT_BYTE3);
 592              		.loc 1 528 0
 593 010c FB79     		ldrb	r3, [r7, #7]	@ zero_extendqisi2
 594 010e 032B     		cmp	r3, #3
 595 0110 C0D8     		bhi	.L32
 596              	.L31:
 529:.\Generated_Source\PSoC5/USB_midi.c **** 
 530:.\Generated_Source\PSoC5/USB_midi.c ****                 if (retError == USB_FALSE)
 597              		.loc 1 530 0
 598 0112 FB7B     		ldrb	r3, [r7, #15]	@ zero_extendqisi2
 599 0114 002B     		cmp	r3, #0
 600 0116 08D1     		bne	.L33
 531:.\Generated_Source\PSoC5/USB_midi.c ****                 {
ARM GAS  C:\Users\LUKASC~1\AppData\Local\Temp\ccIt7ba2.s 			page 21


 532:.\Generated_Source\PSoC5/USB_midi.c ****                     USB_PrepareInBuffer(USB_MIDI_EOSEX, midiMsg, ic, cable);
 601              		.loc 1 532 0
 602 0118 FA79     		ldrb	r2, [r7, #7]	@ zero_extendqisi2
 603 011a BB79     		ldrb	r3, [r7, #6]	@ zero_extendqisi2
 604 011c F720     		movs	r0, #247
 605 011e 3968     		ldr	r1, [r7]
 606 0120 FFF7FEFF 		bl	USB_PrepareInBuffer
 607 0124 01E0     		b	.L33
 608              	.L26:
 533:.\Generated_Source\PSoC5/USB_midi.c ****                 }
 534:.\Generated_Source\PSoC5/USB_midi.c ****             }
 535:.\Generated_Source\PSoC5/USB_midi.c ****         }
 536:.\Generated_Source\PSoC5/USB_midi.c ****         else
 537:.\Generated_Source\PSoC5/USB_midi.c ****         {
 538:.\Generated_Source\PSoC5/USB_midi.c ****             /* Error condition. HOST is not ready to receive this packet. */
 539:.\Generated_Source\PSoC5/USB_midi.c ****             retError = USB_TRUE;
 609              		.loc 1 539 0
 610 0126 0123     		movs	r3, #1
 611 0128 FB73     		strb	r3, [r7, #15]
 612              	.L33:
 540:.\Generated_Source\PSoC5/USB_midi.c ****         }
 541:.\Generated_Source\PSoC5/USB_midi.c **** 
 542:.\Generated_Source\PSoC5/USB_midi.c ****     #if (USB_MIDI_EXT_MODE >= USB_ONE_EXT_INTRF)
 543:.\Generated_Source\PSoC5/USB_midi.c ****         MIDI1_UART_EnableRxInt();
 613              		.loc 1 543 0
 614 012a 094B     		ldr	r3, .L35+16
 615 012c 0222     		movs	r2, #2
 616 012e 1A60     		str	r2, [r3]
 544:.\Generated_Source\PSoC5/USB_midi.c ****         #if (USB_MIDI_EXT_MODE >= USB_TWO_EXT_INTRF)
 545:.\Generated_Source\PSoC5/USB_midi.c ****             MIDI2_UART_EnableRxInt();
 617              		.loc 1 545 0
 618 0130 074B     		ldr	r3, .L35+16
 619 0132 0822     		movs	r2, #8
 620 0134 1A60     		str	r2, [r3]
 546:.\Generated_Source\PSoC5/USB_midi.c ****         #endif /* (USB_MIDI_EXT_MODE >= USB_TWO_EXT_INTRF) */
 547:.\Generated_Source\PSoC5/USB_midi.c ****     #endif /* (USB_MIDI_EXT_MODE >= USB_ONE_EXT_INTRF) */
 548:.\Generated_Source\PSoC5/USB_midi.c **** 
 549:.\Generated_Source\PSoC5/USB_midi.c ****         return (retError);
 621              		.loc 1 549 0
 622 0136 FB7B     		ldrb	r3, [r7, #15]	@ zero_extendqisi2
 550:.\Generated_Source\PSoC5/USB_midi.c ****     }
 623              		.loc 1 550 0
 624 0138 1846     		mov	r0, r3
 625 013a 1037     		adds	r7, r7, #16
 626              		.cfi_def_cfa_offset 8
 627 013c BD46     		mov	sp, r7
 628              		.cfi_def_cfa_register 13
 629              		@ sp needed
 630 013e 80BD     		pop	{r7, pc}
 631              	.L36:
 632              		.align	2
 633              	.L35:
 634 0140 80E100E0 		.word	-536813184
 635 0144 00000000 		.word	USB_midiInPointer
 636 0148 00000000 		.word	USB_midi_in_ep
 637 014c 00000000 		.word	USB_EP
 638 0150 00E100E0 		.word	-536813312
ARM GAS  C:\Users\LUKASC~1\AppData\Local\Temp\ccIt7ba2.s 			page 22


 639              		.cfi_endproc
 640              	.LFE4:
 641              		.size	USB_PutUsbMidiIn, .-USB_PutUsbMidiIn
 642              		.section	.text.USB_PrepareInBuffer,"ax",%progbits
 643              		.align	2
 644              		.global	USB_PrepareInBuffer
 645              		.thumb
 646              		.thumb_func
 647              		.type	USB_PrepareInBuffer, %function
 648              	USB_PrepareInBuffer:
 649              	.LFB5:
 551:.\Generated_Source\PSoC5/USB_midi.c **** 
 552:.\Generated_Source\PSoC5/USB_midi.c **** 
 553:.\Generated_Source\PSoC5/USB_midi.c ****     /*******************************************************************************
 554:.\Generated_Source\PSoC5/USB_midi.c ****     * Function Name: USB_PrepareInBuffer
 555:.\Generated_Source\PSoC5/USB_midi.c ****     ****************************************************************************//**
 556:.\Generated_Source\PSoC5/USB_midi.c ****     *
 557:.\Generated_Source\PSoC5/USB_midi.c ****     *  Builds a USB MIDI event in the input endpoint buffer at the current pointer.
 558:.\Generated_Source\PSoC5/USB_midi.c ****     *  Puts one MIDI message into the USB MIDI In endpoint buffer.
 559:.\Generated_Source\PSoC5/USB_midi.c ****     *
 560:.\Generated_Source\PSoC5/USB_midi.c ****     *  \param ic:   0 = No message (should never happen)
 561:.\Generated_Source\PSoC5/USB_midi.c ****     *        1 - 3 = Complete MIDI message at pMdat[0]
 562:.\Generated_Source\PSoC5/USB_midi.c ****     *        MIDI_SYSEX = Start or continuation of SysEx message
 563:.\Generated_Source\PSoC5/USB_midi.c ****     *                     (put eventLen bytes in buffer)
 564:.\Generated_Source\PSoC5/USB_midi.c ****     *        MIDI_EOSEX = End of SysEx message
 565:.\Generated_Source\PSoC5/USB_midi.c ****     *                     (put eventLen bytes in buffer,
 566:.\Generated_Source\PSoC5/USB_midi.c ****     *                      and append MIDI_EOSEX)
 567:.\Generated_Source\PSoC5/USB_midi.c ****     *        MIDI_TUNEREQ = Tune Request message (single byte system common msg)
 568:.\Generated_Source\PSoC5/USB_midi.c ****     *        0xf8 - 0xff = Single byte real-time message
 569:.\Generated_Source\PSoC5/USB_midi.c ****     *
 570:.\Generated_Source\PSoC5/USB_midi.c ****     *  \param srcBuff: pointer to MIDI data
 571:.\Generated_Source\PSoC5/USB_midi.c ****     *  \param eventLen: number of bytes in MIDI event
 572:.\Generated_Source\PSoC5/USB_midi.c ****     *  \param cable: MIDI source port number
 573:.\Generated_Source\PSoC5/USB_midi.c ****     *
 574:.\Generated_Source\PSoC5/USB_midi.c ****     * \globalvars
 575:.\Generated_Source\PSoC5/USB_midi.c ****     *  USB_midiInBuffer: This buffer is used for saving and combine the
 576:.\Generated_Source\PSoC5/USB_midi.c ****     *    received from UART(s) and(or) generated internally by
 577:.\Generated_Source\PSoC5/USB_midi.c ****     *    USB_PutUsbMidiIn() function messages.
 578:.\Generated_Source\PSoC5/USB_midi.c ****     *  USB_midiInPointer: Used as an index for midiInBuffer to
 579:.\Generated_Source\PSoC5/USB_midi.c ****     *     write data.
 580:.\Generated_Source\PSoC5/USB_midi.c ****     *
 581:.\Generated_Source\PSoC5/USB_midi.c ****     * \reentrant
 582:.\Generated_Source\PSoC5/USB_midi.c ****     *  No
 583:.\Generated_Source\PSoC5/USB_midi.c ****     *
 584:.\Generated_Source\PSoC5/USB_midi.c ****     *******************************************************************************/
 585:.\Generated_Source\PSoC5/USB_midi.c ****     void USB_PrepareInBuffer(uint8 ic, const uint8 srcBuff[], uint8 eventLen, uint8 cable)
 586:.\Generated_Source\PSoC5/USB_midi.c ****                                                                  
 587:.\Generated_Source\PSoC5/USB_midi.c ****     {
 650              		.loc 1 587 0
 651              		.cfi_startproc
 652              		@ args = 0, pretend = 0, frame = 16
 653              		@ frame_needed = 1, uses_anonymous_args = 0
 654              		@ link register save eliminated.
 655 0000 80B4     		push	{r7}
 656              		.cfi_def_cfa_offset 4
 657              		.cfi_offset 7, -4
 658 0002 85B0     		sub	sp, sp, #20
ARM GAS  C:\Users\LUKASC~1\AppData\Local\Temp\ccIt7ba2.s 			page 23


 659              		.cfi_def_cfa_offset 24
 660 0004 00AF     		add	r7, sp, #0
 661              		.cfi_def_cfa_register 7
 662 0006 3960     		str	r1, [r7]
 663 0008 1146     		mov	r1, r2
 664 000a 1A46     		mov	r2, r3
 665 000c 0346     		mov	r3, r0
 666 000e FB71     		strb	r3, [r7, #7]
 667 0010 0B46     		mov	r3, r1
 668 0012 BB71     		strb	r3, [r7, #6]
 669 0014 1346     		mov	r3, r2
 670 0016 7B71     		strb	r3, [r7, #5]
 588:.\Generated_Source\PSoC5/USB_midi.c ****         uint8 srcBuffZero;
 589:.\Generated_Source\PSoC5/USB_midi.c ****         uint8 srcBuffOne;
 590:.\Generated_Source\PSoC5/USB_midi.c **** 
 591:.\Generated_Source\PSoC5/USB_midi.c ****         srcBuffZero = srcBuff[0u];
 671              		.loc 1 591 0
 672 0018 3B68     		ldr	r3, [r7]
 673 001a 1B78     		ldrb	r3, [r3]
 674 001c FB73     		strb	r3, [r7, #15]
 592:.\Generated_Source\PSoC5/USB_midi.c ****         srcBuffOne  = srcBuff[1u];
 675              		.loc 1 592 0
 676 001e 3B68     		ldr	r3, [r7]
 677 0020 5B78     		ldrb	r3, [r3, #1]
 678 0022 BB73     		strb	r3, [r7, #14]
 593:.\Generated_Source\PSoC5/USB_midi.c **** 
 594:.\Generated_Source\PSoC5/USB_midi.c ****         if (ic >= (USB_MIDI_STATUS_MASK | USB_MIDI_SINGLE_BYTE_MASK))
 679              		.loc 1 594 0
 680 0024 FB79     		ldrb	r3, [r7, #7]	@ zero_extendqisi2
 681 0026 F72B     		cmp	r3, #247
 682 0028 3BD9     		bls	.L38
 595:.\Generated_Source\PSoC5/USB_midi.c ****         {
 596:.\Generated_Source\PSoC5/USB_midi.c ****             USB_midiInBuffer[USB_midiInPointer] = USB_SINGLE_BYTE | cable;
 683              		.loc 1 596 0
 684 002a 924B     		ldr	r3, .L53
 685 002c 1B78     		ldrb	r3, [r3]
 686 002e DBB2     		uxtb	r3, r3
 687 0030 1A46     		mov	r2, r3
 688 0032 7B79     		ldrb	r3, [r7, #5]
 689 0034 43F00F03 		orr	r3, r3, #15
 690 0038 D9B2     		uxtb	r1, r3
 691 003a 8F4B     		ldr	r3, .L53+4
 692 003c 9954     		strb	r1, [r3, r2]
 597:.\Generated_Source\PSoC5/USB_midi.c ****             USB_midiInPointer++;
 693              		.loc 1 597 0
 694 003e 8D4B     		ldr	r3, .L53
 695 0040 1B78     		ldrb	r3, [r3]
 696 0042 DBB2     		uxtb	r3, r3
 697 0044 0133     		adds	r3, r3, #1
 698 0046 DAB2     		uxtb	r2, r3
 699 0048 8A4B     		ldr	r3, .L53
 700 004a 1A70     		strb	r2, [r3]
 598:.\Generated_Source\PSoC5/USB_midi.c ****             USB_midiInBuffer[USB_midiInPointer] = ic;
 701              		.loc 1 598 0
 702 004c 894B     		ldr	r3, .L53
 703 004e 1B78     		ldrb	r3, [r3]
 704 0050 DBB2     		uxtb	r3, r3
ARM GAS  C:\Users\LUKASC~1\AppData\Local\Temp\ccIt7ba2.s 			page 24


 705 0052 1946     		mov	r1, r3
 706 0054 884A     		ldr	r2, .L53+4
 707 0056 FB79     		ldrb	r3, [r7, #7]
 708 0058 5354     		strb	r3, [r2, r1]
 599:.\Generated_Source\PSoC5/USB_midi.c ****             USB_midiInPointer++;
 709              		.loc 1 599 0
 710 005a 864B     		ldr	r3, .L53
 711 005c 1B78     		ldrb	r3, [r3]
 712 005e DBB2     		uxtb	r3, r3
 713 0060 0133     		adds	r3, r3, #1
 714 0062 DAB2     		uxtb	r2, r3
 715 0064 834B     		ldr	r3, .L53
 716 0066 1A70     		strb	r2, [r3]
 600:.\Generated_Source\PSoC5/USB_midi.c ****             USB_midiInBuffer[USB_midiInPointer] = 0u;
 717              		.loc 1 600 0
 718 0068 824B     		ldr	r3, .L53
 719 006a 1B78     		ldrb	r3, [r3]
 720 006c DBB2     		uxtb	r3, r3
 721 006e 1A46     		mov	r2, r3
 722 0070 814B     		ldr	r3, .L53+4
 723 0072 0021     		movs	r1, #0
 724 0074 9954     		strb	r1, [r3, r2]
 601:.\Generated_Source\PSoC5/USB_midi.c ****             USB_midiInPointer++;
 725              		.loc 1 601 0
 726 0076 7F4B     		ldr	r3, .L53
 727 0078 1B78     		ldrb	r3, [r3]
 728 007a DBB2     		uxtb	r3, r3
 729 007c 0133     		adds	r3, r3, #1
 730 007e DAB2     		uxtb	r2, r3
 731 0080 7C4B     		ldr	r3, .L53
 732 0082 1A70     		strb	r2, [r3]
 602:.\Generated_Source\PSoC5/USB_midi.c ****             USB_midiInBuffer[USB_midiInPointer] = 0u;
 733              		.loc 1 602 0
 734 0084 7B4B     		ldr	r3, .L53
 735 0086 1B78     		ldrb	r3, [r3]
 736 0088 DBB2     		uxtb	r3, r3
 737 008a 1A46     		mov	r2, r3
 738 008c 7A4B     		ldr	r3, .L53+4
 739 008e 0021     		movs	r1, #0
 740 0090 9954     		strb	r1, [r3, r2]
 603:.\Generated_Source\PSoC5/USB_midi.c ****             USB_midiInPointer++;
 741              		.loc 1 603 0
 742 0092 784B     		ldr	r3, .L53
 743 0094 1B78     		ldrb	r3, [r3]
 744 0096 DBB2     		uxtb	r3, r3
 745 0098 0133     		adds	r3, r3, #1
 746 009a DAB2     		uxtb	r2, r3
 747 009c 754B     		ldr	r3, .L53
 748 009e 1A70     		strb	r2, [r3]
 749 00a0 64E1     		b	.L37
 750              	.L38:
 604:.\Generated_Source\PSoC5/USB_midi.c ****         }
 605:.\Generated_Source\PSoC5/USB_midi.c ****         else if((ic < USB_EVENT_LENGTH) || (ic == USB_MIDI_SYSEX))
 751              		.loc 1 605 0
 752 00a2 FB79     		ldrb	r3, [r7, #7]	@ zero_extendqisi2
 753 00a4 032B     		cmp	r3, #3
 754 00a6 03D9     		bls	.L40
ARM GAS  C:\Users\LUKASC~1\AppData\Local\Temp\ccIt7ba2.s 			page 25


 755              		.loc 1 605 0 is_stmt 0 discriminator 1
 756 00a8 FB79     		ldrb	r3, [r7, #7]	@ zero_extendqisi2
 757 00aa F02B     		cmp	r3, #240
 758 00ac 40F09980 		bne	.L41
 759              	.L40:
 606:.\Generated_Source\PSoC5/USB_midi.c ****         {
 607:.\Generated_Source\PSoC5/USB_midi.c ****             if(ic == USB_MIDI_SYSEX)
 760              		.loc 1 607 0 is_stmt 1
 761 00b0 FB79     		ldrb	r3, [r7, #7]	@ zero_extendqisi2
 762 00b2 F02B     		cmp	r3, #240
 763 00b4 11D1     		bne	.L42
 608:.\Generated_Source\PSoC5/USB_midi.c ****             {
 609:.\Generated_Source\PSoC5/USB_midi.c ****                 USB_midiInBuffer[USB_midiInPointer] = USB_SYSEX | cable;
 764              		.loc 1 609 0
 765 00b6 6F4B     		ldr	r3, .L53
 766 00b8 1B78     		ldrb	r3, [r3]
 767 00ba DBB2     		uxtb	r3, r3
 768 00bc 1A46     		mov	r2, r3
 769 00be 7B79     		ldrb	r3, [r7, #5]
 770 00c0 43F00403 		orr	r3, r3, #4
 771 00c4 D9B2     		uxtb	r1, r3
 772 00c6 6C4B     		ldr	r3, .L53+4
 773 00c8 9954     		strb	r1, [r3, r2]
 610:.\Generated_Source\PSoC5/USB_midi.c ****                 USB_midiInPointer++;
 774              		.loc 1 610 0
 775 00ca 6A4B     		ldr	r3, .L53
 776 00cc 1B78     		ldrb	r3, [r3]
 777 00ce DBB2     		uxtb	r3, r3
 778 00d0 0133     		adds	r3, r3, #1
 779 00d2 DAB2     		uxtb	r2, r3
 780 00d4 674B     		ldr	r3, .L53
 781 00d6 1A70     		strb	r2, [r3]
 782 00d8 57E0     		b	.L43
 783              	.L42:
 611:.\Generated_Source\PSoC5/USB_midi.c ****             }
 612:.\Generated_Source\PSoC5/USB_midi.c ****             else if (srcBuffZero < USB_MIDI_SYSEX)
 784              		.loc 1 612 0
 785 00da FB7B     		ldrb	r3, [r7, #15]	@ zero_extendqisi2
 786 00dc EF2B     		cmp	r3, #239
 787 00de 13D8     		bhi	.L44
 613:.\Generated_Source\PSoC5/USB_midi.c ****             {
 614:.\Generated_Source\PSoC5/USB_midi.c ****                 USB_midiInBuffer[USB_midiInPointer] = (srcBuffZero >> 4u) | cable;
 788              		.loc 1 614 0
 789 00e0 644B     		ldr	r3, .L53
 790 00e2 1B78     		ldrb	r3, [r3]
 791 00e4 DBB2     		uxtb	r3, r3
 792 00e6 1946     		mov	r1, r3
 793 00e8 FB7B     		ldrb	r3, [r7, #15]	@ zero_extendqisi2
 794 00ea 1B09     		lsrs	r3, r3, #4
 795 00ec DAB2     		uxtb	r2, r3
 796 00ee 7B79     		ldrb	r3, [r7, #5]
 797 00f0 1343     		orrs	r3, r3, r2
 798 00f2 DAB2     		uxtb	r2, r3
 799 00f4 604B     		ldr	r3, .L53+4
 800 00f6 5A54     		strb	r2, [r3, r1]
 615:.\Generated_Source\PSoC5/USB_midi.c ****                 USB_midiInPointer++;
 801              		.loc 1 615 0
ARM GAS  C:\Users\LUKASC~1\AppData\Local\Temp\ccIt7ba2.s 			page 26


 802 00f8 5E4B     		ldr	r3, .L53
 803 00fa 1B78     		ldrb	r3, [r3]
 804 00fc DBB2     		uxtb	r3, r3
 805 00fe 0133     		adds	r3, r3, #1
 806 0100 DAB2     		uxtb	r2, r3
 807 0102 5C4B     		ldr	r3, .L53
 808 0104 1A70     		strb	r2, [r3]
 809 0106 40E0     		b	.L43
 810              	.L44:
 616:.\Generated_Source\PSoC5/USB_midi.c ****             }
 617:.\Generated_Source\PSoC5/USB_midi.c ****             else if (srcBuffZero == USB_MIDI_TUNEREQ)
 811              		.loc 1 617 0
 812 0108 FB7B     		ldrb	r3, [r7, #15]	@ zero_extendqisi2
 813 010a F62B     		cmp	r3, #246
 814 010c 11D1     		bne	.L45
 618:.\Generated_Source\PSoC5/USB_midi.c ****             {
 619:.\Generated_Source\PSoC5/USB_midi.c ****                 USB_midiInBuffer[USB_midiInPointer] = USB_1BYTE_COMMON | cable;
 815              		.loc 1 619 0
 816 010e 594B     		ldr	r3, .L53
 817 0110 1B78     		ldrb	r3, [r3]
 818 0112 DBB2     		uxtb	r3, r3
 819 0114 1A46     		mov	r2, r3
 820 0116 7B79     		ldrb	r3, [r7, #5]
 821 0118 43F00503 		orr	r3, r3, #5
 822 011c D9B2     		uxtb	r1, r3
 823 011e 564B     		ldr	r3, .L53+4
 824 0120 9954     		strb	r1, [r3, r2]
 620:.\Generated_Source\PSoC5/USB_midi.c ****                 USB_midiInPointer++;
 825              		.loc 1 620 0
 826 0122 544B     		ldr	r3, .L53
 827 0124 1B78     		ldrb	r3, [r3]
 828 0126 DBB2     		uxtb	r3, r3
 829 0128 0133     		adds	r3, r3, #1
 830 012a DAB2     		uxtb	r2, r3
 831 012c 514B     		ldr	r3, .L53
 832 012e 1A70     		strb	r2, [r3]
 833 0130 2BE0     		b	.L43
 834              	.L45:
 621:.\Generated_Source\PSoC5/USB_midi.c ****             }
 622:.\Generated_Source\PSoC5/USB_midi.c ****             else if ((srcBuffZero == USB_MIDI_QFM) || (srcBuffZero == USB_MIDI_SONGSEL))
 835              		.loc 1 622 0
 836 0132 FB7B     		ldrb	r3, [r7, #15]	@ zero_extendqisi2
 837 0134 F12B     		cmp	r3, #241
 838 0136 02D0     		beq	.L46
 839              		.loc 1 622 0 is_stmt 0 discriminator 1
 840 0138 FB7B     		ldrb	r3, [r7, #15]	@ zero_extendqisi2
 841 013a F32B     		cmp	r3, #243
 842 013c 11D1     		bne	.L47
 843              	.L46:
 623:.\Generated_Source\PSoC5/USB_midi.c ****             {
 624:.\Generated_Source\PSoC5/USB_midi.c ****                 USB_midiInBuffer[USB_midiInPointer] = USB_2BYTE_COMMON | cable;
 844              		.loc 1 624 0 is_stmt 1
 845 013e 4D4B     		ldr	r3, .L53
 846 0140 1B78     		ldrb	r3, [r3]
 847 0142 DBB2     		uxtb	r3, r3
 848 0144 1A46     		mov	r2, r3
 849 0146 7B79     		ldrb	r3, [r7, #5]
ARM GAS  C:\Users\LUKASC~1\AppData\Local\Temp\ccIt7ba2.s 			page 27


 850 0148 43F00203 		orr	r3, r3, #2
 851 014c D9B2     		uxtb	r1, r3
 852 014e 4A4B     		ldr	r3, .L53+4
 853 0150 9954     		strb	r1, [r3, r2]
 625:.\Generated_Source\PSoC5/USB_midi.c ****                 USB_midiInPointer++;
 854              		.loc 1 625 0
 855 0152 484B     		ldr	r3, .L53
 856 0154 1B78     		ldrb	r3, [r3]
 857 0156 DBB2     		uxtb	r3, r3
 858 0158 0133     		adds	r3, r3, #1
 859 015a DAB2     		uxtb	r2, r3
 860 015c 454B     		ldr	r3, .L53
 861 015e 1A70     		strb	r2, [r3]
 862 0160 13E0     		b	.L43
 863              	.L47:
 626:.\Generated_Source\PSoC5/USB_midi.c ****             }
 627:.\Generated_Source\PSoC5/USB_midi.c ****             else if (srcBuffZero == USB_MIDI_SPP)
 864              		.loc 1 627 0
 865 0162 FB7B     		ldrb	r3, [r7, #15]	@ zero_extendqisi2
 866 0164 F22B     		cmp	r3, #242
 867 0166 10D1     		bne	.L43
 628:.\Generated_Source\PSoC5/USB_midi.c ****             {
 629:.\Generated_Source\PSoC5/USB_midi.c ****                 USB_midiInBuffer[USB_midiInPointer] = USB_3BYTE_COMMON | cable;
 868              		.loc 1 629 0
 869 0168 424B     		ldr	r3, .L53
 870 016a 1B78     		ldrb	r3, [r3]
 871 016c DBB2     		uxtb	r3, r3
 872 016e 1A46     		mov	r2, r3
 873 0170 7B79     		ldrb	r3, [r7, #5]
 874 0172 43F00303 		orr	r3, r3, #3
 875 0176 D9B2     		uxtb	r1, r3
 876 0178 3F4B     		ldr	r3, .L53+4
 877 017a 9954     		strb	r1, [r3, r2]
 630:.\Generated_Source\PSoC5/USB_midi.c ****                 USB_midiInPointer++;
 878              		.loc 1 630 0
 879 017c 3D4B     		ldr	r3, .L53
 880 017e 1B78     		ldrb	r3, [r3]
 881 0180 DBB2     		uxtb	r3, r3
 882 0182 0133     		adds	r3, r3, #1
 883 0184 DAB2     		uxtb	r2, r3
 884 0186 3B4B     		ldr	r3, .L53
 885 0188 1A70     		strb	r2, [r3]
 886              	.L43:
 631:.\Generated_Source\PSoC5/USB_midi.c ****             }
 632:.\Generated_Source\PSoC5/USB_midi.c ****             else
 633:.\Generated_Source\PSoC5/USB_midi.c ****             {
 634:.\Generated_Source\PSoC5/USB_midi.c ****             }
 635:.\Generated_Source\PSoC5/USB_midi.c **** 
 636:.\Generated_Source\PSoC5/USB_midi.c ****             USB_midiInBuffer[USB_midiInPointer] = srcBuffZero;
 887              		.loc 1 636 0
 888 018a 3A4B     		ldr	r3, .L53
 889 018c 1B78     		ldrb	r3, [r3]
 890 018e DBB2     		uxtb	r3, r3
 891 0190 1946     		mov	r1, r3
 892 0192 394A     		ldr	r2, .L53+4
 893 0194 FB7B     		ldrb	r3, [r7, #15]
 894 0196 5354     		strb	r3, [r2, r1]
ARM GAS  C:\Users\LUKASC~1\AppData\Local\Temp\ccIt7ba2.s 			page 28


 637:.\Generated_Source\PSoC5/USB_midi.c ****             USB_midiInPointer++;
 895              		.loc 1 637 0
 896 0198 364B     		ldr	r3, .L53
 897 019a 1B78     		ldrb	r3, [r3]
 898 019c DBB2     		uxtb	r3, r3
 899 019e 0133     		adds	r3, r3, #1
 900 01a0 DAB2     		uxtb	r2, r3
 901 01a2 344B     		ldr	r3, .L53
 902 01a4 1A70     		strb	r2, [r3]
 638:.\Generated_Source\PSoC5/USB_midi.c ****             USB_midiInBuffer[USB_midiInPointer] = srcBuffOne;
 903              		.loc 1 638 0
 904 01a6 334B     		ldr	r3, .L53
 905 01a8 1B78     		ldrb	r3, [r3]
 906 01aa DBB2     		uxtb	r3, r3
 907 01ac 1946     		mov	r1, r3
 908 01ae 324A     		ldr	r2, .L53+4
 909 01b0 BB7B     		ldrb	r3, [r7, #14]
 910 01b2 5354     		strb	r3, [r2, r1]
 639:.\Generated_Source\PSoC5/USB_midi.c ****             USB_midiInPointer++;
 911              		.loc 1 639 0
 912 01b4 2F4B     		ldr	r3, .L53
 913 01b6 1B78     		ldrb	r3, [r3]
 914 01b8 DBB2     		uxtb	r3, r3
 915 01ba 0133     		adds	r3, r3, #1
 916 01bc DAB2     		uxtb	r2, r3
 917 01be 2D4B     		ldr	r3, .L53
 918 01c0 1A70     		strb	r2, [r3]
 640:.\Generated_Source\PSoC5/USB_midi.c ****             USB_midiInBuffer[USB_midiInPointer] = srcBuff[2u];
 919              		.loc 1 640 0
 920 01c2 2C4B     		ldr	r3, .L53
 921 01c4 1B78     		ldrb	r3, [r3]
 922 01c6 DBB2     		uxtb	r3, r3
 923 01c8 1A46     		mov	r2, r3
 924 01ca 3B68     		ldr	r3, [r7]
 925 01cc 9978     		ldrb	r1, [r3, #2]	@ zero_extendqisi2
 926 01ce 2A4B     		ldr	r3, .L53+4
 927 01d0 9954     		strb	r1, [r3, r2]
 641:.\Generated_Source\PSoC5/USB_midi.c ****             USB_midiInPointer++;
 928              		.loc 1 641 0
 929 01d2 284B     		ldr	r3, .L53
 930 01d4 1B78     		ldrb	r3, [r3]
 931 01d6 DBB2     		uxtb	r3, r3
 932 01d8 0133     		adds	r3, r3, #1
 933 01da DAB2     		uxtb	r2, r3
 934 01dc 254B     		ldr	r3, .L53
 935 01de 1A70     		strb	r2, [r3]
 936 01e0 C4E0     		b	.L37
 937              	.L41:
 642:.\Generated_Source\PSoC5/USB_midi.c ****         }
 643:.\Generated_Source\PSoC5/USB_midi.c ****         else if (ic == USB_MIDI_EOSEX)
 938              		.loc 1 643 0
 939 01e2 FB79     		ldrb	r3, [r7, #7]	@ zero_extendqisi2
 940 01e4 F72B     		cmp	r3, #247
 941 01e6 40F0C180 		bne	.L37
 644:.\Generated_Source\PSoC5/USB_midi.c ****         {
 645:.\Generated_Source\PSoC5/USB_midi.c ****             switch (eventLen)
 942              		.loc 1 645 0
ARM GAS  C:\Users\LUKASC~1\AppData\Local\Temp\ccIt7ba2.s 			page 29


 943 01ea BB79     		ldrb	r3, [r7, #6]	@ zero_extendqisi2
 944 01ec 012B     		cmp	r3, #1
 945 01ee 45D0     		beq	.L49
 946 01f0 022B     		cmp	r3, #2
 947 01f2 7FD0     		beq	.L50
 948 01f4 002B     		cmp	r3, #0
 949 01f6 00D0     		beq	.L51
 646:.\Generated_Source\PSoC5/USB_midi.c ****             {
 647:.\Generated_Source\PSoC5/USB_midi.c ****                 case 0u:
 648:.\Generated_Source\PSoC5/USB_midi.c ****                     USB_midiInBuffer[USB_midiInPointer] =
 649:.\Generated_Source\PSoC5/USB_midi.c ****                                                                         USB_SYSEX_ENDS_WITH1 | cabl
 650:.\Generated_Source\PSoC5/USB_midi.c ****                     USB_midiInPointer++;
 651:.\Generated_Source\PSoC5/USB_midi.c ****                     USB_midiInBuffer[USB_midiInPointer] = USB_MIDI_EOSEX;
 652:.\Generated_Source\PSoC5/USB_midi.c ****                     USB_midiInPointer++;
 653:.\Generated_Source\PSoC5/USB_midi.c ****                     USB_midiInBuffer[USB_midiInPointer] = 0u;
 654:.\Generated_Source\PSoC5/USB_midi.c ****                     USB_midiInPointer++;
 655:.\Generated_Source\PSoC5/USB_midi.c ****                     USB_midiInBuffer[USB_midiInPointer] = 0u;
 656:.\Generated_Source\PSoC5/USB_midi.c ****                     USB_midiInPointer++;
 657:.\Generated_Source\PSoC5/USB_midi.c ****                     break;
 658:.\Generated_Source\PSoC5/USB_midi.c ****                 case 1u:
 659:.\Generated_Source\PSoC5/USB_midi.c ****                     USB_midiInBuffer[USB_midiInPointer] =
 660:.\Generated_Source\PSoC5/USB_midi.c ****                                                                         USB_SYSEX_ENDS_WITH2 | cabl
 661:.\Generated_Source\PSoC5/USB_midi.c ****                     USB_midiInPointer++;
 662:.\Generated_Source\PSoC5/USB_midi.c ****                     USB_midiInBuffer[USB_midiInPointer] = srcBuffZero;
 663:.\Generated_Source\PSoC5/USB_midi.c ****                     USB_midiInPointer++;
 664:.\Generated_Source\PSoC5/USB_midi.c ****                     USB_midiInBuffer[USB_midiInPointer] = USB_MIDI_EOSEX;
 665:.\Generated_Source\PSoC5/USB_midi.c ****                     USB_midiInPointer++;
 666:.\Generated_Source\PSoC5/USB_midi.c ****                     USB_midiInBuffer[USB_midiInPointer] = 0u;
 667:.\Generated_Source\PSoC5/USB_midi.c ****                     USB_midiInPointer++;
 668:.\Generated_Source\PSoC5/USB_midi.c ****                     break;
 669:.\Generated_Source\PSoC5/USB_midi.c ****                 case 2u:
 670:.\Generated_Source\PSoC5/USB_midi.c ****                     USB_midiInBuffer[USB_midiInPointer] =
 671:.\Generated_Source\PSoC5/USB_midi.c ****                                                                         USB_SYSEX_ENDS_WITH3 | cabl
 672:.\Generated_Source\PSoC5/USB_midi.c ****                     USB_midiInPointer++;
 673:.\Generated_Source\PSoC5/USB_midi.c ****                     USB_midiInBuffer[USB_midiInPointer] = srcBuffZero;
 674:.\Generated_Source\PSoC5/USB_midi.c ****                     USB_midiInPointer++;
 675:.\Generated_Source\PSoC5/USB_midi.c ****                     USB_midiInBuffer[USB_midiInPointer] = srcBuffOne;
 676:.\Generated_Source\PSoC5/USB_midi.c ****                     USB_midiInPointer++;
 677:.\Generated_Source\PSoC5/USB_midi.c ****                     USB_midiInBuffer[USB_midiInPointer] = USB_MIDI_EOSEX;
 678:.\Generated_Source\PSoC5/USB_midi.c ****                     USB_midiInPointer++;
 679:.\Generated_Source\PSoC5/USB_midi.c ****                     break;
 680:.\Generated_Source\PSoC5/USB_midi.c ****                 default:
 681:.\Generated_Source\PSoC5/USB_midi.c ****                     break;
 950              		.loc 1 681 0
 951 01f8 B8E0     		b	.L52
 952              	.L51:
 648:.\Generated_Source\PSoC5/USB_midi.c ****                                                                         USB_SYSEX_ENDS_WITH1 | cabl
 953              		.loc 1 648 0
 954 01fa 1E4B     		ldr	r3, .L53
 955 01fc 1B78     		ldrb	r3, [r3]
 956 01fe DBB2     		uxtb	r3, r3
 957 0200 1A46     		mov	r2, r3
 958 0202 7B79     		ldrb	r3, [r7, #5]
 959 0204 43F00503 		orr	r3, r3, #5
 960 0208 D9B2     		uxtb	r1, r3
 961 020a 1B4B     		ldr	r3, .L53+4
 962 020c 9954     		strb	r1, [r3, r2]
ARM GAS  C:\Users\LUKASC~1\AppData\Local\Temp\ccIt7ba2.s 			page 30


 650:.\Generated_Source\PSoC5/USB_midi.c ****                     USB_midiInBuffer[USB_midiInPointer] = USB_MIDI_EOSEX;
 963              		.loc 1 650 0
 964 020e 194B     		ldr	r3, .L53
 965 0210 1B78     		ldrb	r3, [r3]
 966 0212 DBB2     		uxtb	r3, r3
 967 0214 0133     		adds	r3, r3, #1
 968 0216 DAB2     		uxtb	r2, r3
 969 0218 164B     		ldr	r3, .L53
 970 021a 1A70     		strb	r2, [r3]
 651:.\Generated_Source\PSoC5/USB_midi.c ****                     USB_midiInPointer++;
 971              		.loc 1 651 0
 972 021c 154B     		ldr	r3, .L53
 973 021e 1B78     		ldrb	r3, [r3]
 974 0220 DBB2     		uxtb	r3, r3
 975 0222 1A46     		mov	r2, r3
 976 0224 144B     		ldr	r3, .L53+4
 977 0226 F721     		movs	r1, #247
 978 0228 9954     		strb	r1, [r3, r2]
 652:.\Generated_Source\PSoC5/USB_midi.c ****                     USB_midiInBuffer[USB_midiInPointer] = 0u;
 979              		.loc 1 652 0
 980 022a 124B     		ldr	r3, .L53
 981 022c 1B78     		ldrb	r3, [r3]
 982 022e DBB2     		uxtb	r3, r3
 983 0230 0133     		adds	r3, r3, #1
 984 0232 DAB2     		uxtb	r2, r3
 985 0234 0F4B     		ldr	r3, .L53
 986 0236 1A70     		strb	r2, [r3]
 653:.\Generated_Source\PSoC5/USB_midi.c ****                     USB_midiInPointer++;
 987              		.loc 1 653 0
 988 0238 0E4B     		ldr	r3, .L53
 989 023a 1B78     		ldrb	r3, [r3]
 990 023c DBB2     		uxtb	r3, r3
 991 023e 1A46     		mov	r2, r3
 992 0240 0D4B     		ldr	r3, .L53+4
 993 0242 0021     		movs	r1, #0
 994 0244 9954     		strb	r1, [r3, r2]
 654:.\Generated_Source\PSoC5/USB_midi.c ****                     USB_midiInBuffer[USB_midiInPointer] = 0u;
 995              		.loc 1 654 0
 996 0246 0B4B     		ldr	r3, .L53
 997 0248 1B78     		ldrb	r3, [r3]
 998 024a DBB2     		uxtb	r3, r3
 999 024c 0133     		adds	r3, r3, #1
 1000 024e DAB2     		uxtb	r2, r3
 1001 0250 084B     		ldr	r3, .L53
 1002 0252 1A70     		strb	r2, [r3]
 655:.\Generated_Source\PSoC5/USB_midi.c ****                     USB_midiInPointer++;
 1003              		.loc 1 655 0
 1004 0254 074B     		ldr	r3, .L53
 1005 0256 1B78     		ldrb	r3, [r3]
 1006 0258 DBB2     		uxtb	r3, r3
 1007 025a 1A46     		mov	r2, r3
 1008 025c 064B     		ldr	r3, .L53+4
 1009 025e 0021     		movs	r1, #0
 1010 0260 9954     		strb	r1, [r3, r2]
 656:.\Generated_Source\PSoC5/USB_midi.c ****                     break;
 1011              		.loc 1 656 0
 1012 0262 044B     		ldr	r3, .L53
ARM GAS  C:\Users\LUKASC~1\AppData\Local\Temp\ccIt7ba2.s 			page 31


 1013 0264 1B78     		ldrb	r3, [r3]
 1014 0266 DBB2     		uxtb	r3, r3
 1015 0268 0133     		adds	r3, r3, #1
 1016 026a DAB2     		uxtb	r2, r3
 1017 026c 014B     		ldr	r3, .L53
 1018 026e 1A70     		strb	r2, [r3]
 657:.\Generated_Source\PSoC5/USB_midi.c ****                 case 1u:
 1019              		.loc 1 657 0
 1020 0270 7CE0     		b	.L52
 1021              	.L54:
 1022 0272 00BF     		.align	2
 1023              	.L53:
 1024 0274 00000000 		.word	USB_midiInPointer
 1025 0278 00000000 		.word	USB_midiInBuffer
 1026              	.L49:
 659:.\Generated_Source\PSoC5/USB_midi.c ****                                                                         USB_SYSEX_ENDS_WITH2 | cabl
 1027              		.loc 1 659 0
 1028 027c 3E4B     		ldr	r3, .L55
 1029 027e 1B78     		ldrb	r3, [r3]
 1030 0280 DBB2     		uxtb	r3, r3
 1031 0282 1A46     		mov	r2, r3
 1032 0284 7B79     		ldrb	r3, [r7, #5]
 1033 0286 43F00603 		orr	r3, r3, #6
 1034 028a D9B2     		uxtb	r1, r3
 1035 028c 3B4B     		ldr	r3, .L55+4
 1036 028e 9954     		strb	r1, [r3, r2]
 661:.\Generated_Source\PSoC5/USB_midi.c ****                     USB_midiInBuffer[USB_midiInPointer] = srcBuffZero;
 1037              		.loc 1 661 0
 1038 0290 394B     		ldr	r3, .L55
 1039 0292 1B78     		ldrb	r3, [r3]
 1040 0294 DBB2     		uxtb	r3, r3
 1041 0296 0133     		adds	r3, r3, #1
 1042 0298 DAB2     		uxtb	r2, r3
 1043 029a 374B     		ldr	r3, .L55
 1044 029c 1A70     		strb	r2, [r3]
 662:.\Generated_Source\PSoC5/USB_midi.c ****                     USB_midiInPointer++;
 1045              		.loc 1 662 0
 1046 029e 364B     		ldr	r3, .L55
 1047 02a0 1B78     		ldrb	r3, [r3]
 1048 02a2 DBB2     		uxtb	r3, r3
 1049 02a4 1946     		mov	r1, r3
 1050 02a6 354A     		ldr	r2, .L55+4
 1051 02a8 FB7B     		ldrb	r3, [r7, #15]
 1052 02aa 5354     		strb	r3, [r2, r1]
 663:.\Generated_Source\PSoC5/USB_midi.c ****                     USB_midiInBuffer[USB_midiInPointer] = USB_MIDI_EOSEX;
 1053              		.loc 1 663 0
 1054 02ac 324B     		ldr	r3, .L55
 1055 02ae 1B78     		ldrb	r3, [r3]
 1056 02b0 DBB2     		uxtb	r3, r3
 1057 02b2 0133     		adds	r3, r3, #1
 1058 02b4 DAB2     		uxtb	r2, r3
 1059 02b6 304B     		ldr	r3, .L55
 1060 02b8 1A70     		strb	r2, [r3]
 664:.\Generated_Source\PSoC5/USB_midi.c ****                     USB_midiInPointer++;
 1061              		.loc 1 664 0
 1062 02ba 2F4B     		ldr	r3, .L55
 1063 02bc 1B78     		ldrb	r3, [r3]
ARM GAS  C:\Users\LUKASC~1\AppData\Local\Temp\ccIt7ba2.s 			page 32


 1064 02be DBB2     		uxtb	r3, r3
 1065 02c0 1A46     		mov	r2, r3
 1066 02c2 2E4B     		ldr	r3, .L55+4
 1067 02c4 F721     		movs	r1, #247
 1068 02c6 9954     		strb	r1, [r3, r2]
 665:.\Generated_Source\PSoC5/USB_midi.c ****                     USB_midiInBuffer[USB_midiInPointer] = 0u;
 1069              		.loc 1 665 0
 1070 02c8 2B4B     		ldr	r3, .L55
 1071 02ca 1B78     		ldrb	r3, [r3]
 1072 02cc DBB2     		uxtb	r3, r3
 1073 02ce 0133     		adds	r3, r3, #1
 1074 02d0 DAB2     		uxtb	r2, r3
 1075 02d2 294B     		ldr	r3, .L55
 1076 02d4 1A70     		strb	r2, [r3]
 666:.\Generated_Source\PSoC5/USB_midi.c ****                     USB_midiInPointer++;
 1077              		.loc 1 666 0
 1078 02d6 284B     		ldr	r3, .L55
 1079 02d8 1B78     		ldrb	r3, [r3]
 1080 02da DBB2     		uxtb	r3, r3
 1081 02dc 1A46     		mov	r2, r3
 1082 02de 274B     		ldr	r3, .L55+4
 1083 02e0 0021     		movs	r1, #0
 1084 02e2 9954     		strb	r1, [r3, r2]
 667:.\Generated_Source\PSoC5/USB_midi.c ****                     break;
 1085              		.loc 1 667 0
 1086 02e4 244B     		ldr	r3, .L55
 1087 02e6 1B78     		ldrb	r3, [r3]
 1088 02e8 DBB2     		uxtb	r3, r3
 1089 02ea 0133     		adds	r3, r3, #1
 1090 02ec DAB2     		uxtb	r2, r3
 1091 02ee 224B     		ldr	r3, .L55
 1092 02f0 1A70     		strb	r2, [r3]
 668:.\Generated_Source\PSoC5/USB_midi.c ****                 case 2u:
 1093              		.loc 1 668 0
 1094 02f2 3BE0     		b	.L52
 1095              	.L50:
 670:.\Generated_Source\PSoC5/USB_midi.c ****                                                                         USB_SYSEX_ENDS_WITH3 | cabl
 1096              		.loc 1 670 0
 1097 02f4 204B     		ldr	r3, .L55
 1098 02f6 1B78     		ldrb	r3, [r3]
 1099 02f8 DBB2     		uxtb	r3, r3
 1100 02fa 1A46     		mov	r2, r3
 1101 02fc 7B79     		ldrb	r3, [r7, #5]
 1102 02fe 43F00703 		orr	r3, r3, #7
 1103 0302 D9B2     		uxtb	r1, r3
 1104 0304 1D4B     		ldr	r3, .L55+4
 1105 0306 9954     		strb	r1, [r3, r2]
 672:.\Generated_Source\PSoC5/USB_midi.c ****                     USB_midiInBuffer[USB_midiInPointer] = srcBuffZero;
 1106              		.loc 1 672 0
 1107 0308 1B4B     		ldr	r3, .L55
 1108 030a 1B78     		ldrb	r3, [r3]
 1109 030c DBB2     		uxtb	r3, r3
 1110 030e 0133     		adds	r3, r3, #1
 1111 0310 DAB2     		uxtb	r2, r3
 1112 0312 194B     		ldr	r3, .L55
 1113 0314 1A70     		strb	r2, [r3]
 673:.\Generated_Source\PSoC5/USB_midi.c ****                     USB_midiInPointer++;
ARM GAS  C:\Users\LUKASC~1\AppData\Local\Temp\ccIt7ba2.s 			page 33


 1114              		.loc 1 673 0
 1115 0316 184B     		ldr	r3, .L55
 1116 0318 1B78     		ldrb	r3, [r3]
 1117 031a DBB2     		uxtb	r3, r3
 1118 031c 1946     		mov	r1, r3
 1119 031e 174A     		ldr	r2, .L55+4
 1120 0320 FB7B     		ldrb	r3, [r7, #15]
 1121 0322 5354     		strb	r3, [r2, r1]
 674:.\Generated_Source\PSoC5/USB_midi.c ****                     USB_midiInBuffer[USB_midiInPointer] = srcBuffOne;
 1122              		.loc 1 674 0
 1123 0324 144B     		ldr	r3, .L55
 1124 0326 1B78     		ldrb	r3, [r3]
 1125 0328 DBB2     		uxtb	r3, r3
 1126 032a 0133     		adds	r3, r3, #1
 1127 032c DAB2     		uxtb	r2, r3
 1128 032e 124B     		ldr	r3, .L55
 1129 0330 1A70     		strb	r2, [r3]
 675:.\Generated_Source\PSoC5/USB_midi.c ****                     USB_midiInPointer++;
 1130              		.loc 1 675 0
 1131 0332 114B     		ldr	r3, .L55
 1132 0334 1B78     		ldrb	r3, [r3]
 1133 0336 DBB2     		uxtb	r3, r3
 1134 0338 1946     		mov	r1, r3
 1135 033a 104A     		ldr	r2, .L55+4
 1136 033c BB7B     		ldrb	r3, [r7, #14]
 1137 033e 5354     		strb	r3, [r2, r1]
 676:.\Generated_Source\PSoC5/USB_midi.c ****                     USB_midiInBuffer[USB_midiInPointer] = USB_MIDI_EOSEX;
 1138              		.loc 1 676 0
 1139 0340 0D4B     		ldr	r3, .L55
 1140 0342 1B78     		ldrb	r3, [r3]
 1141 0344 DBB2     		uxtb	r3, r3
 1142 0346 0133     		adds	r3, r3, #1
 1143 0348 DAB2     		uxtb	r2, r3
 1144 034a 0B4B     		ldr	r3, .L55
 1145 034c 1A70     		strb	r2, [r3]
 677:.\Generated_Source\PSoC5/USB_midi.c ****                     USB_midiInPointer++;
 1146              		.loc 1 677 0
 1147 034e 0A4B     		ldr	r3, .L55
 1148 0350 1B78     		ldrb	r3, [r3]
 1149 0352 DBB2     		uxtb	r3, r3
 1150 0354 1A46     		mov	r2, r3
 1151 0356 094B     		ldr	r3, .L55+4
 1152 0358 F721     		movs	r1, #247
 1153 035a 9954     		strb	r1, [r3, r2]
 678:.\Generated_Source\PSoC5/USB_midi.c ****                     break;
 1154              		.loc 1 678 0
 1155 035c 064B     		ldr	r3, .L55
 1156 035e 1B78     		ldrb	r3, [r3]
 1157 0360 DBB2     		uxtb	r3, r3
 1158 0362 0133     		adds	r3, r3, #1
 1159 0364 DAB2     		uxtb	r2, r3
 1160 0366 044B     		ldr	r3, .L55
 1161 0368 1A70     		strb	r2, [r3]
 679:.\Generated_Source\PSoC5/USB_midi.c ****                 default:
 1162              		.loc 1 679 0
 1163 036a 00BF     		nop
 1164              	.L52:
ARM GAS  C:\Users\LUKASC~1\AppData\Local\Temp\ccIt7ba2.s 			page 34


 1165              	.L37:
 682:.\Generated_Source\PSoC5/USB_midi.c ****             }
 683:.\Generated_Source\PSoC5/USB_midi.c ****         }
 684:.\Generated_Source\PSoC5/USB_midi.c ****         else
 685:.\Generated_Source\PSoC5/USB_midi.c ****         {
 686:.\Generated_Source\PSoC5/USB_midi.c ****         }
 687:.\Generated_Source\PSoC5/USB_midi.c ****     }
 1166              		.loc 1 687 0
 1167 036c 1437     		adds	r7, r7, #20
 1168              		.cfi_def_cfa_offset 4
 1169 036e BD46     		mov	sp, r7
 1170              		.cfi_def_cfa_register 13
 1171              		@ sp needed
 1172 0370 5DF8047B 		ldr	r7, [sp], #4
 1173              		.cfi_restore 7
 1174              		.cfi_def_cfa_offset 0
 1175 0374 7047     		bx	lr
 1176              	.L56:
 1177 0376 00BF     		.align	2
 1178              	.L55:
 1179 0378 00000000 		.word	USB_midiInPointer
 1180 037c 00000000 		.word	USB_midiInBuffer
 1181              		.cfi_endproc
 1182              	.LFE5:
 1183              		.size	USB_PrepareInBuffer, .-USB_PrepareInBuffer
 1184              		.section	.text.USB_MIDI_InitInterface,"ax",%progbits
 1185              		.align	2
 1186              		.global	USB_MIDI_InitInterface
 1187              		.thumb
 1188              		.thumb_func
 1189              		.type	USB_MIDI_InitInterface, %function
 1190              	USB_MIDI_InitInterface:
 1191              	.LFB6:
 688:.\Generated_Source\PSoC5/USB_midi.c **** 
 689:.\Generated_Source\PSoC5/USB_midi.c **** #endif /* (USB_MIDI_IN_BUFF_SIZE > 0) */
 690:.\Generated_Source\PSoC5/USB_midi.c **** 
 691:.\Generated_Source\PSoC5/USB_midi.c **** 
 692:.\Generated_Source\PSoC5/USB_midi.c **** /* The implementation for external serial input and output connections
 693:.\Generated_Source\PSoC5/USB_midi.c **** *  to route USB MIDI data to and from those connections.
 694:.\Generated_Source\PSoC5/USB_midi.c **** */
 695:.\Generated_Source\PSoC5/USB_midi.c **** #if (USB_MIDI_EXT_MODE >= USB_ONE_EXT_INTRF)
 696:.\Generated_Source\PSoC5/USB_midi.c ****     /*******************************************************************************
 697:.\Generated_Source\PSoC5/USB_midi.c ****     * Function Name: USB_MIDI_InitInterface
 698:.\Generated_Source\PSoC5/USB_midi.c ****     ****************************************************************************//**
 699:.\Generated_Source\PSoC5/USB_midi.c ****     *
 700:.\Generated_Source\PSoC5/USB_midi.c ****     *  Initializes MIDI variables and starts the UART(s) hardware block(s).
 701:.\Generated_Source\PSoC5/USB_midi.c ****     *
 702:.\Generated_Source\PSoC5/USB_midi.c ****     * \sideeffect
 703:.\Generated_Source\PSoC5/USB_midi.c ****     *  Change the priority of the UART(s) TX interrupts to be higher than the
 704:.\Generated_Source\PSoC5/USB_midi.c ****     *  default EP ISR priority.
 705:.\Generated_Source\PSoC5/USB_midi.c ****     *
 706:.\Generated_Source\PSoC5/USB_midi.c ****     * \globalvars
 707:.\Generated_Source\PSoC5/USB_midi.c ****     *   USB_MIDI_Event: initialized to zero.
 708:.\Generated_Source\PSoC5/USB_midi.c ****     *   USB_MIDI_TxRunStat: initialized to zero.
 709:.\Generated_Source\PSoC5/USB_midi.c ****     *
 710:.\Generated_Source\PSoC5/USB_midi.c ****     *******************************************************************************/
 711:.\Generated_Source\PSoC5/USB_midi.c ****     void USB_MIDI_InitInterface(void) 
ARM GAS  C:\Users\LUKASC~1\AppData\Local\Temp\ccIt7ba2.s 			page 35


 712:.\Generated_Source\PSoC5/USB_midi.c ****     {
 1192              		.loc 1 712 0
 1193              		.cfi_startproc
 1194              		@ args = 0, pretend = 0, frame = 0
 1195              		@ frame_needed = 1, uses_anonymous_args = 0
 1196 0000 80B5     		push	{r7, lr}
 1197              		.cfi_def_cfa_offset 8
 1198              		.cfi_offset 7, -8
 1199              		.cfi_offset 14, -4
 1200 0002 00AF     		add	r7, sp, #0
 1201              		.cfi_def_cfa_register 7
 713:.\Generated_Source\PSoC5/USB_midi.c ****         USB_MIDI1_Event.length  = 0u;
 1202              		.loc 1 713 0
 1203 0004 1C4B     		ldr	r3, .L58
 1204 0006 0022     		movs	r2, #0
 1205 0008 1A70     		strb	r2, [r3]
 714:.\Generated_Source\PSoC5/USB_midi.c ****         USB_MIDI1_Event.count   = 0u;
 1206              		.loc 1 714 0
 1207 000a 1B4B     		ldr	r3, .L58
 1208 000c 0022     		movs	r2, #0
 1209 000e 5A70     		strb	r2, [r3, #1]
 715:.\Generated_Source\PSoC5/USB_midi.c ****         USB_MIDI1_Event.size    = 0u;
 1210              		.loc 1 715 0
 1211 0010 194B     		ldr	r3, .L58
 1212 0012 0022     		movs	r2, #0
 1213 0014 9A70     		strb	r2, [r3, #2]
 716:.\Generated_Source\PSoC5/USB_midi.c ****         USB_MIDI1_Event.runstat = 0u;
 1214              		.loc 1 716 0
 1215 0016 184B     		ldr	r3, .L58
 1216 0018 0022     		movs	r2, #0
 1217 001a DA70     		strb	r2, [r3, #3]
 717:.\Generated_Source\PSoC5/USB_midi.c ****         USB_MIDI1_TxRunStat     = 0u;
 1218              		.loc 1 717 0
 1219 001c 174B     		ldr	r3, .L58+4
 1220 001e 0022     		movs	r2, #0
 1221 0020 1A70     		strb	r2, [r3]
 718:.\Generated_Source\PSoC5/USB_midi.c ****         USB_MIDI1_InqFlags      = 0u;
 1222              		.loc 1 718 0
 1223 0022 174B     		ldr	r3, .L58+8
 1224 0024 0022     		movs	r2, #0
 1225 0026 1A70     		strb	r2, [r3]
 719:.\Generated_Source\PSoC5/USB_midi.c **** 
 720:.\Generated_Source\PSoC5/USB_midi.c ****         /* Start UART block */
 721:.\Generated_Source\PSoC5/USB_midi.c ****         MIDI1_UART_Start();
 1226              		.loc 1 721 0
 1227 0028 FFF7FEFF 		bl	MIDI1_UART_Start
 722:.\Generated_Source\PSoC5/USB_midi.c **** 
 723:.\Generated_Source\PSoC5/USB_midi.c ****         /* Change the priority of the UART TX and RX interrupt */
 724:.\Generated_Source\PSoC5/USB_midi.c ****         CyIntSetPriority(MIDI1_UART_TX_VECT_NUM, USB_CUSTOM_UART_TX_PRIOR_NUM);
 1228              		.loc 1 724 0
 1229 002c 0220     		movs	r0, #2
 1230 002e 0421     		movs	r1, #4
 1231 0030 FFF7FEFF 		bl	CyIntSetPriority
 725:.\Generated_Source\PSoC5/USB_midi.c ****         CyIntSetPriority(MIDI1_UART_RX_VECT_NUM, USB_CUSTOM_UART_RX_PRIOR_NUM);
 1232              		.loc 1 725 0
 1233 0034 0120     		movs	r0, #1
 1234 0036 0221     		movs	r1, #2
ARM GAS  C:\Users\LUKASC~1\AppData\Local\Temp\ccIt7ba2.s 			page 36


 1235 0038 FFF7FEFF 		bl	CyIntSetPriority
 726:.\Generated_Source\PSoC5/USB_midi.c **** 
 727:.\Generated_Source\PSoC5/USB_midi.c ****     #if (USB_MIDI_EXT_MODE >= USB_TWO_EXT_INTRF)
 728:.\Generated_Source\PSoC5/USB_midi.c ****         USB_MIDI2_Event.length  = 0u;
 1236              		.loc 1 728 0
 1237 003c 114B     		ldr	r3, .L58+12
 1238 003e 0022     		movs	r2, #0
 1239 0040 1A70     		strb	r2, [r3]
 729:.\Generated_Source\PSoC5/USB_midi.c ****         USB_MIDI2_Event.count   = 0u;
 1240              		.loc 1 729 0
 1241 0042 104B     		ldr	r3, .L58+12
 1242 0044 0022     		movs	r2, #0
 1243 0046 5A70     		strb	r2, [r3, #1]
 730:.\Generated_Source\PSoC5/USB_midi.c ****         USB_MIDI2_Event.size    = 0u;
 1244              		.loc 1 730 0
 1245 0048 0E4B     		ldr	r3, .L58+12
 1246 004a 0022     		movs	r2, #0
 1247 004c 9A70     		strb	r2, [r3, #2]
 731:.\Generated_Source\PSoC5/USB_midi.c ****         USB_MIDI2_Event.runstat = 0u;
 1248              		.loc 1 731 0
 1249 004e 0D4B     		ldr	r3, .L58+12
 1250 0050 0022     		movs	r2, #0
 1251 0052 DA70     		strb	r2, [r3, #3]
 732:.\Generated_Source\PSoC5/USB_midi.c ****         USB_MIDI2_TxRunStat     = 0u;
 1252              		.loc 1 732 0
 1253 0054 0C4B     		ldr	r3, .L58+16
 1254 0056 0022     		movs	r2, #0
 1255 0058 1A70     		strb	r2, [r3]
 733:.\Generated_Source\PSoC5/USB_midi.c ****         USB_MIDI2_InqFlags      = 0u;
 1256              		.loc 1 733 0
 1257 005a 0C4B     		ldr	r3, .L58+20
 1258 005c 0022     		movs	r2, #0
 1259 005e 1A70     		strb	r2, [r3]
 734:.\Generated_Source\PSoC5/USB_midi.c **** 
 735:.\Generated_Source\PSoC5/USB_midi.c ****         /* Start second UART block */
 736:.\Generated_Source\PSoC5/USB_midi.c ****         MIDI2_UART_Start();
 1260              		.loc 1 736 0
 1261 0060 FFF7FEFF 		bl	MIDI2_UART_Start
 737:.\Generated_Source\PSoC5/USB_midi.c **** 
 738:.\Generated_Source\PSoC5/USB_midi.c ****         /* Change the priority of the UART TX interrupt */
 739:.\Generated_Source\PSoC5/USB_midi.c ****         CyIntSetPriority(MIDI2_UART_TX_VECT_NUM, USB_CUSTOM_UART_TX_PRIOR_NUM);
 1262              		.loc 1 739 0
 1263 0064 0420     		movs	r0, #4
 1264 0066 0421     		movs	r1, #4
 1265 0068 FFF7FEFF 		bl	CyIntSetPriority
 740:.\Generated_Source\PSoC5/USB_midi.c ****         CyIntSetPriority(MIDI2_UART_RX_VECT_NUM, USB_CUSTOM_UART_RX_PRIOR_NUM);
 1266              		.loc 1 740 0
 1267 006c 0320     		movs	r0, #3
 1268 006e 0221     		movs	r1, #2
 1269 0070 FFF7FEFF 		bl	CyIntSetPriority
 741:.\Generated_Source\PSoC5/USB_midi.c ****     #endif /* (USB_MIDI_EXT_MODE >= USB_TWO_EXT_INTRF) */
 742:.\Generated_Source\PSoC5/USB_midi.c **** 
 743:.\Generated_Source\PSoC5/USB_midi.c ****         /* `#START MIDI_INIT_CUSTOM` Init other extended UARTs here */
 744:.\Generated_Source\PSoC5/USB_midi.c **** 
 745:.\Generated_Source\PSoC5/USB_midi.c ****         /* `#END` */
 746:.\Generated_Source\PSoC5/USB_midi.c **** 
 747:.\Generated_Source\PSoC5/USB_midi.c ****     #ifdef USB_MIDI_INIT_CALLBACK
ARM GAS  C:\Users\LUKASC~1\AppData\Local\Temp\ccIt7ba2.s 			page 37


 748:.\Generated_Source\PSoC5/USB_midi.c ****         USB_MIDI_Init_Callback();
 749:.\Generated_Source\PSoC5/USB_midi.c ****     #endif /* (USB_MIDI_INIT_CALLBACK) */
 750:.\Generated_Source\PSoC5/USB_midi.c ****     }
 1270              		.loc 1 750 0
 1271 0074 80BD     		pop	{r7, pc}
 1272              	.L59:
 1273 0076 00BF     		.align	2
 1274              	.L58:
 1275 0078 00000000 		.word	USB_MIDI1_Event
 1276 007c 08000000 		.word	USB_MIDI1_TxRunStat
 1277 0080 00000000 		.word	USB_MIDI1_InqFlags
 1278 0084 0C000000 		.word	USB_MIDI2_Event
 1279 0088 14000000 		.word	USB_MIDI2_TxRunStat
 1280 008c 00000000 		.word	USB_MIDI2_InqFlags
 1281              		.cfi_endproc
 1282              	.LFE6:
 1283              		.size	USB_MIDI_InitInterface, .-USB_MIDI_InitInterface
 1284              		.section	.text.USB_ProcessMidiIn,"ax",%progbits
 1285              		.align	2
 1286              		.global	USB_ProcessMidiIn
 1287              		.thumb
 1288              		.thumb_func
 1289              		.type	USB_ProcessMidiIn, %function
 1290              	USB_ProcessMidiIn:
 1291              	.LFB7:
 751:.\Generated_Source\PSoC5/USB_midi.c **** 
 752:.\Generated_Source\PSoC5/USB_midi.c **** 
 753:.\Generated_Source\PSoC5/USB_midi.c ****     /*******************************************************************************
 754:.\Generated_Source\PSoC5/USB_midi.c ****     * Function Name: USB_ProcessMidiIn
 755:.\Generated_Source\PSoC5/USB_midi.c ****     ****************************************************************************//**
 756:.\Generated_Source\PSoC5/USB_midi.c ****     *
 757:.\Generated_Source\PSoC5/USB_midi.c ****     *  Processes one byte of incoming MIDI data.
 758:.\Generated_Source\PSoC5/USB_midi.c ****     *
 759:.\Generated_Source\PSoC5/USB_midi.c ****     *   mData = current MIDI input data byte
 760:.\Generated_Source\PSoC5/USB_midi.c ****     *   *rxStat = pointer to a MIDI_RX_STATUS structure
 761:.\Generated_Source\PSoC5/USB_midi.c ****     *
 762:.\Generated_Source\PSoC5/USB_midi.c ****     * \return
 763:.\Generated_Source\PSoC5/USB_midi.c ****     *   0, if no complete message
 764:.\Generated_Source\PSoC5/USB_midi.c ****     *   1 - 4, if message complete
 765:.\Generated_Source\PSoC5/USB_midi.c ****     *   MIDI_SYSEX, if start or continuation of system exclusive
 766:.\Generated_Source\PSoC5/USB_midi.c ****     *   MIDI_EOSEX, if end of system exclusive
 767:.\Generated_Source\PSoC5/USB_midi.c ****     *   0xf8 - 0xff, if single byte real time message
 768:.\Generated_Source\PSoC5/USB_midi.c ****     *
 769:.\Generated_Source\PSoC5/USB_midi.c ****     *******************************************************************************/
 770:.\Generated_Source\PSoC5/USB_midi.c ****     uint8 USB_ProcessMidiIn(uint8 mData, USB_MIDI_RX_STATUS *rxStat)
 771:.\Generated_Source\PSoC5/USB_midi.c ****                                                                 
 772:.\Generated_Source\PSoC5/USB_midi.c ****     {
 1292              		.loc 1 772 0
 1293              		.cfi_startproc
 1294              		@ args = 0, pretend = 0, frame = 16
 1295              		@ frame_needed = 1, uses_anonymous_args = 0
 1296              		@ link register save eliminated.
 1297 0000 80B4     		push	{r7}
 1298              		.cfi_def_cfa_offset 4
 1299              		.cfi_offset 7, -4
 1300 0002 85B0     		sub	sp, sp, #20
 1301              		.cfi_def_cfa_offset 24
ARM GAS  C:\Users\LUKASC~1\AppData\Local\Temp\ccIt7ba2.s 			page 38


 1302 0004 00AF     		add	r7, sp, #0
 1303              		.cfi_def_cfa_register 7
 1304 0006 0346     		mov	r3, r0
 1305 0008 3960     		str	r1, [r7]
 1306 000a FB71     		strb	r3, [r7, #7]
 773:.\Generated_Source\PSoC5/USB_midi.c ****         uint8 midiReturn = 0u;
 1307              		.loc 1 773 0
 1308 000c 0023     		movs	r3, #0
 1309 000e FB73     		strb	r3, [r7, #15]
 774:.\Generated_Source\PSoC5/USB_midi.c **** 
 775:.\Generated_Source\PSoC5/USB_midi.c ****         /* Check for a MIDI status byte.  All status bytes, except real time messages,
 776:.\Generated_Source\PSoC5/USB_midi.c ****         *  which are a single byte, force the start of a new buffer cycle.
 777:.\Generated_Source\PSoC5/USB_midi.c ****         */
 778:.\Generated_Source\PSoC5/USB_midi.c ****         if ((mData & USB_MIDI_STATUS_BYTE_MASK) != 0u)
 1310              		.loc 1 778 0
 1311 0010 FB79     		ldrb	r3, [r7, #7]	@ zero_extendqisi2
 1312 0012 5BB2     		sxtb	r3, r3
 1313 0014 002B     		cmp	r3, #0
 1314 0016 80F2A680 		bge	.L61
 779:.\Generated_Source\PSoC5/USB_midi.c ****         {
 780:.\Generated_Source\PSoC5/USB_midi.c ****             if ((mData & USB_MIDI_STATUS_MASK) == USB_MIDI_STATUS_MASK)
 1315              		.loc 1 780 0
 1316 001a FB79     		ldrb	r3, [r7, #7]	@ zero_extendqisi2
 1317 001c 03F0F003 		and	r3, r3, #240
 1318 0020 F02B     		cmp	r3, #240
 1319 0022 72D1     		bne	.L62
 781:.\Generated_Source\PSoC5/USB_midi.c ****             {
 782:.\Generated_Source\PSoC5/USB_midi.c ****                 if ((mData & USB_MIDI_SINGLE_BYTE_MASK) != 0u) /* System Real-Time Messages(single 
 1320              		.loc 1 782 0
 1321 0024 FB79     		ldrb	r3, [r7, #7]	@ zero_extendqisi2
 1322 0026 03F00803 		and	r3, r3, #8
 1323 002a 002B     		cmp	r3, #0
 1324 002c 02D0     		beq	.L63
 783:.\Generated_Source\PSoC5/USB_midi.c ****                 {
 784:.\Generated_Source\PSoC5/USB_midi.c ****                     midiReturn = mData;
 1325              		.loc 1 784 0
 1326 002e FB79     		ldrb	r3, [r7, #7]
 1327 0030 FB73     		strb	r3, [r7, #15]
 1328 0032 12E1     		b	.L78
 1329              	.L63:
 785:.\Generated_Source\PSoC5/USB_midi.c ****                 }
 786:.\Generated_Source\PSoC5/USB_midi.c ****                 else                              /* System Common Messages */
 787:.\Generated_Source\PSoC5/USB_midi.c ****                 {
 788:.\Generated_Source\PSoC5/USB_midi.c ****                     switch (mData)
 1330              		.loc 1 788 0
 1331 0034 FB79     		ldrb	r3, [r7, #7]	@ zero_extendqisi2
 1332 0036 F03B     		subs	r3, r3, #240
 1333 0038 072B     		cmp	r3, #7
 1334 003a 64D8     		bhi	.L89
 1335 003c 01A2     		adr	r2, .L67
 1336 003e 52F823F0 		ldr	pc, [r2, r3, lsl #2]
 1337 0042 00BF     		.p2align 2
 1338              	.L67:
 1339 0044 65000000 		.word	.L66+1
 1340 0048 CD000000 		.word	.L68+1
 1341 004c 99000000 		.word	.L69+1
 1342 0050 B3000000 		.word	.L70+1
ARM GAS  C:\Users\LUKASC~1\AppData\Local\Temp\ccIt7ba2.s 			page 39


 1343 0054 07010000 		.word	.L89+1
 1344 0058 07010000 		.word	.L89+1
 1345 005c E7000000 		.word	.L71+1
 1346 0060 7F000000 		.word	.L72+1
 1347              		.p2align 1
 1348              	.L66:
 789:.\Generated_Source\PSoC5/USB_midi.c ****                     {
 790:.\Generated_Source\PSoC5/USB_midi.c ****                         case USB_MIDI_SYSEX:
 791:.\Generated_Source\PSoC5/USB_midi.c ****                             rxStat->msgBuff[0u] = USB_MIDI_SYSEX;
 1349              		.loc 1 791 0
 1350 0064 3B68     		ldr	r3, [r7]
 1351 0066 F022     		movs	r2, #240
 1352 0068 1A71     		strb	r2, [r3, #4]
 792:.\Generated_Source\PSoC5/USB_midi.c ****                             rxStat->runstat = USB_MIDI_SYSEX;
 1353              		.loc 1 792 0
 1354 006a 3B68     		ldr	r3, [r7]
 1355 006c F022     		movs	r2, #240
 1356 006e DA70     		strb	r2, [r3, #3]
 793:.\Generated_Source\PSoC5/USB_midi.c ****                             rxStat->count = 1u;
 1357              		.loc 1 793 0
 1358 0070 3B68     		ldr	r3, [r7]
 1359 0072 0122     		movs	r2, #1
 1360 0074 5A70     		strb	r2, [r3, #1]
 794:.\Generated_Source\PSoC5/USB_midi.c ****                             rxStat->length = 3u;
 1361              		.loc 1 794 0
 1362 0076 3B68     		ldr	r3, [r7]
 1363 0078 0322     		movs	r2, #3
 1364 007a 1A70     		strb	r2, [r3]
 795:.\Generated_Source\PSoC5/USB_midi.c ****                             break;
 1365              		.loc 1 795 0
 1366 007c 44E0     		b	.L64
 1367              	.L72:
 796:.\Generated_Source\PSoC5/USB_midi.c ****                         case USB_MIDI_EOSEX:
 797:.\Generated_Source\PSoC5/USB_midi.c ****                             rxStat->runstat = 0u;
 1368              		.loc 1 797 0
 1369 007e 3B68     		ldr	r3, [r7]
 1370 0080 0022     		movs	r2, #0
 1371 0082 DA70     		strb	r2, [r3, #3]
 798:.\Generated_Source\PSoC5/USB_midi.c ****                             rxStat->size = rxStat->count;
 1372              		.loc 1 798 0
 1373 0084 3B68     		ldr	r3, [r7]
 1374 0086 5A78     		ldrb	r2, [r3, #1]	@ zero_extendqisi2
 1375 0088 3B68     		ldr	r3, [r7]
 1376 008a 9A70     		strb	r2, [r3, #2]
 799:.\Generated_Source\PSoC5/USB_midi.c ****                             rxStat->count = 0u;
 1377              		.loc 1 799 0
 1378 008c 3B68     		ldr	r3, [r7]
 1379 008e 0022     		movs	r2, #0
 1380 0090 5A70     		strb	r2, [r3, #1]
 800:.\Generated_Source\PSoC5/USB_midi.c ****                             midiReturn = USB_MIDI_EOSEX;
 1381              		.loc 1 800 0
 1382 0092 F723     		movs	r3, #247
 1383 0094 FB73     		strb	r3, [r7, #15]
 801:.\Generated_Source\PSoC5/USB_midi.c ****                             break;
 1384              		.loc 1 801 0
 1385 0096 37E0     		b	.L64
 1386              	.L69:
ARM GAS  C:\Users\LUKASC~1\AppData\Local\Temp\ccIt7ba2.s 			page 40


 802:.\Generated_Source\PSoC5/USB_midi.c ****                         case USB_MIDI_SPP:
 803:.\Generated_Source\PSoC5/USB_midi.c ****                             rxStat->msgBuff[0u] = USB_MIDI_SPP;
 1387              		.loc 1 803 0
 1388 0098 3B68     		ldr	r3, [r7]
 1389 009a F222     		movs	r2, #242
 1390 009c 1A71     		strb	r2, [r3, #4]
 804:.\Generated_Source\PSoC5/USB_midi.c ****                             rxStat->runstat = 0u;
 1391              		.loc 1 804 0
 1392 009e 3B68     		ldr	r3, [r7]
 1393 00a0 0022     		movs	r2, #0
 1394 00a2 DA70     		strb	r2, [r3, #3]
 805:.\Generated_Source\PSoC5/USB_midi.c ****                             rxStat->count = 1u;
 1395              		.loc 1 805 0
 1396 00a4 3B68     		ldr	r3, [r7]
 1397 00a6 0122     		movs	r2, #1
 1398 00a8 5A70     		strb	r2, [r3, #1]
 806:.\Generated_Source\PSoC5/USB_midi.c ****                             rxStat->length = 3u;
 1399              		.loc 1 806 0
 1400 00aa 3B68     		ldr	r3, [r7]
 1401 00ac 0322     		movs	r2, #3
 1402 00ae 1A70     		strb	r2, [r3]
 807:.\Generated_Source\PSoC5/USB_midi.c ****                             break;
 1403              		.loc 1 807 0
 1404 00b0 2AE0     		b	.L64
 1405              	.L70:
 808:.\Generated_Source\PSoC5/USB_midi.c ****                         case USB_MIDI_SONGSEL:
 809:.\Generated_Source\PSoC5/USB_midi.c ****                             rxStat->msgBuff[0u] = USB_MIDI_SONGSEL;
 1406              		.loc 1 809 0
 1407 00b2 3B68     		ldr	r3, [r7]
 1408 00b4 F322     		movs	r2, #243
 1409 00b6 1A71     		strb	r2, [r3, #4]
 810:.\Generated_Source\PSoC5/USB_midi.c ****                             rxStat->runstat = 0u;
 1410              		.loc 1 810 0
 1411 00b8 3B68     		ldr	r3, [r7]
 1412 00ba 0022     		movs	r2, #0
 1413 00bc DA70     		strb	r2, [r3, #3]
 811:.\Generated_Source\PSoC5/USB_midi.c ****                             rxStat->count = 1u;
 1414              		.loc 1 811 0
 1415 00be 3B68     		ldr	r3, [r7]
 1416 00c0 0122     		movs	r2, #1
 1417 00c2 5A70     		strb	r2, [r3, #1]
 812:.\Generated_Source\PSoC5/USB_midi.c ****                             rxStat->length = 2u;
 1418              		.loc 1 812 0
 1419 00c4 3B68     		ldr	r3, [r7]
 1420 00c6 0222     		movs	r2, #2
 1421 00c8 1A70     		strb	r2, [r3]
 813:.\Generated_Source\PSoC5/USB_midi.c ****                             break;
 1422              		.loc 1 813 0
 1423 00ca 1DE0     		b	.L64
 1424              	.L68:
 814:.\Generated_Source\PSoC5/USB_midi.c ****                         case USB_MIDI_QFM:
 815:.\Generated_Source\PSoC5/USB_midi.c ****                             rxStat->msgBuff[0u] = USB_MIDI_QFM;
 1425              		.loc 1 815 0
 1426 00cc 3B68     		ldr	r3, [r7]
 1427 00ce F122     		movs	r2, #241
 1428 00d0 1A71     		strb	r2, [r3, #4]
 816:.\Generated_Source\PSoC5/USB_midi.c ****                             rxStat->runstat = 0u;
ARM GAS  C:\Users\LUKASC~1\AppData\Local\Temp\ccIt7ba2.s 			page 41


 1429              		.loc 1 816 0
 1430 00d2 3B68     		ldr	r3, [r7]
 1431 00d4 0022     		movs	r2, #0
 1432 00d6 DA70     		strb	r2, [r3, #3]
 817:.\Generated_Source\PSoC5/USB_midi.c ****                             rxStat->count = 1u;
 1433              		.loc 1 817 0
 1434 00d8 3B68     		ldr	r3, [r7]
 1435 00da 0122     		movs	r2, #1
 1436 00dc 5A70     		strb	r2, [r3, #1]
 818:.\Generated_Source\PSoC5/USB_midi.c ****                             rxStat->length = 2u;
 1437              		.loc 1 818 0
 1438 00de 3B68     		ldr	r3, [r7]
 1439 00e0 0222     		movs	r2, #2
 1440 00e2 1A70     		strb	r2, [r3]
 819:.\Generated_Source\PSoC5/USB_midi.c ****                             break;
 1441              		.loc 1 819 0
 1442 00e4 10E0     		b	.L64
 1443              	.L71:
 820:.\Generated_Source\PSoC5/USB_midi.c ****                         case USB_MIDI_TUNEREQ:
 821:.\Generated_Source\PSoC5/USB_midi.c ****                             rxStat->msgBuff[0u] = USB_MIDI_TUNEREQ;
 1444              		.loc 1 821 0
 1445 00e6 3B68     		ldr	r3, [r7]
 1446 00e8 F622     		movs	r2, #246
 1447 00ea 1A71     		strb	r2, [r3, #4]
 822:.\Generated_Source\PSoC5/USB_midi.c ****                             rxStat->runstat = 0u;
 1448              		.loc 1 822 0
 1449 00ec 3B68     		ldr	r3, [r7]
 1450 00ee 0022     		movs	r2, #0
 1451 00f0 DA70     		strb	r2, [r3, #3]
 823:.\Generated_Source\PSoC5/USB_midi.c ****                             rxStat->size = 1u;
 1452              		.loc 1 823 0
 1453 00f2 3B68     		ldr	r3, [r7]
 1454 00f4 0122     		movs	r2, #1
 1455 00f6 9A70     		strb	r2, [r3, #2]
 824:.\Generated_Source\PSoC5/USB_midi.c ****                             rxStat->count = 0u;
 1456              		.loc 1 824 0
 1457 00f8 3B68     		ldr	r3, [r7]
 1458 00fa 0022     		movs	r2, #0
 1459 00fc 5A70     		strb	r2, [r3, #1]
 825:.\Generated_Source\PSoC5/USB_midi.c ****                             midiReturn = rxStat->size;
 1460              		.loc 1 825 0
 1461 00fe 3B68     		ldr	r3, [r7]
 1462 0100 9B78     		ldrb	r3, [r3, #2]
 1463 0102 FB73     		strb	r3, [r7, #15]
 826:.\Generated_Source\PSoC5/USB_midi.c ****                             break;
 1464              		.loc 1 826 0
 1465 0104 00E0     		b	.L64
 1466              	.L89:
 827:.\Generated_Source\PSoC5/USB_midi.c ****                         default:
 828:.\Generated_Source\PSoC5/USB_midi.c ****                             break;
 1467              		.loc 1 828 0
 1468 0106 00BF     		nop
 1469              	.L64:
 1470 0108 A7E0     		b	.L78
 1471              	.L62:
 829:.\Generated_Source\PSoC5/USB_midi.c ****                     }
 830:.\Generated_Source\PSoC5/USB_midi.c ****                 }
ARM GAS  C:\Users\LUKASC~1\AppData\Local\Temp\ccIt7ba2.s 			page 42


 831:.\Generated_Source\PSoC5/USB_midi.c ****             }
 832:.\Generated_Source\PSoC5/USB_midi.c ****             else /* Channel Messages */
 833:.\Generated_Source\PSoC5/USB_midi.c ****             {
 834:.\Generated_Source\PSoC5/USB_midi.c ****                 rxStat->msgBuff[0u] = mData;
 1472              		.loc 1 834 0
 1473 010a 3B68     		ldr	r3, [r7]
 1474 010c FA79     		ldrb	r2, [r7, #7]
 1475 010e 1A71     		strb	r2, [r3, #4]
 835:.\Generated_Source\PSoC5/USB_midi.c ****                 rxStat->runstat = mData;
 1476              		.loc 1 835 0
 1477 0110 3B68     		ldr	r3, [r7]
 1478 0112 FA79     		ldrb	r2, [r7, #7]
 1479 0114 DA70     		strb	r2, [r3, #3]
 836:.\Generated_Source\PSoC5/USB_midi.c ****                 rxStat->count = 1u;
 1480              		.loc 1 836 0
 1481 0116 3B68     		ldr	r3, [r7]
 1482 0118 0122     		movs	r2, #1
 1483 011a 5A70     		strb	r2, [r3, #1]
 837:.\Generated_Source\PSoC5/USB_midi.c ****                 switch (mData & USB_MIDI_STATUS_MASK)
 1484              		.loc 1 837 0
 1485 011c FB79     		ldrb	r3, [r7, #7]	@ zero_extendqisi2
 1486 011e 03F0F003 		and	r3, r3, #240
 1487 0122 B02B     		cmp	r3, #176
 1488 0124 0FD0     		beq	.L75
 1489 0126 B02B     		cmp	r3, #176
 1490 0128 06D8     		bhi	.L76
 1491 012a 902B     		cmp	r3, #144
 1492 012c 0BD0     		beq	.L75
 1493 012e A02B     		cmp	r3, #160
 1494 0130 09D0     		beq	.L75
 1495 0132 802B     		cmp	r3, #128
 1496 0134 07D0     		beq	.L75
 1497 0136 0EE0     		b	.L74
 1498              	.L76:
 1499 0138 D02B     		cmp	r3, #208
 1500 013a 08D0     		beq	.L77
 1501 013c E02B     		cmp	r3, #224
 1502 013e 02D0     		beq	.L75
 1503 0140 C02B     		cmp	r3, #192
 1504 0142 04D0     		beq	.L77
 1505 0144 07E0     		b	.L74
 1506              	.L75:
 838:.\Generated_Source\PSoC5/USB_midi.c ****                 {
 839:.\Generated_Source\PSoC5/USB_midi.c ****                     case USB_MIDI_NOTE_OFF:
 840:.\Generated_Source\PSoC5/USB_midi.c ****                     case USB_MIDI_NOTE_ON:
 841:.\Generated_Source\PSoC5/USB_midi.c ****                     case USB_MIDI_POLY_KEY_PRESSURE:
 842:.\Generated_Source\PSoC5/USB_midi.c ****                     case USB_MIDI_CONTROL_CHANGE:
 843:.\Generated_Source\PSoC5/USB_midi.c ****                     case USB_MIDI_PITCH_BEND_CHANGE:
 844:.\Generated_Source\PSoC5/USB_midi.c ****                         rxStat->length = 3u;
 1507              		.loc 1 844 0
 1508 0146 3B68     		ldr	r3, [r7]
 1509 0148 0322     		movs	r2, #3
 1510 014a 1A70     		strb	r2, [r3]
 845:.\Generated_Source\PSoC5/USB_midi.c ****                         break;
 1511              		.loc 1 845 0
 1512 014c 0AE0     		b	.L73
 1513              	.L77:
ARM GAS  C:\Users\LUKASC~1\AppData\Local\Temp\ccIt7ba2.s 			page 43


 846:.\Generated_Source\PSoC5/USB_midi.c ****                     case USB_MIDI_PROGRAM_CHANGE:
 847:.\Generated_Source\PSoC5/USB_midi.c ****                     case USB_MIDI_CHANNEL_PRESSURE:
 848:.\Generated_Source\PSoC5/USB_midi.c ****                         rxStat->length = 2u;
 1514              		.loc 1 848 0
 1515 014e 3B68     		ldr	r3, [r7]
 1516 0150 0222     		movs	r2, #2
 1517 0152 1A70     		strb	r2, [r3]
 849:.\Generated_Source\PSoC5/USB_midi.c ****                         break;
 1518              		.loc 1 849 0
 1519 0154 06E0     		b	.L73
 1520              	.L74:
 850:.\Generated_Source\PSoC5/USB_midi.c ****                     default:
 851:.\Generated_Source\PSoC5/USB_midi.c ****                         rxStat->runstat = 0u;
 1521              		.loc 1 851 0
 1522 0156 3B68     		ldr	r3, [r7]
 1523 0158 0022     		movs	r2, #0
 1524 015a DA70     		strb	r2, [r3, #3]
 852:.\Generated_Source\PSoC5/USB_midi.c ****                         rxStat->count = 0u;
 1525              		.loc 1 852 0
 1526 015c 3B68     		ldr	r3, [r7]
 1527 015e 0022     		movs	r2, #0
 1528 0160 5A70     		strb	r2, [r3, #1]
 853:.\Generated_Source\PSoC5/USB_midi.c ****                         break;
 1529              		.loc 1 853 0
 1530 0162 00BF     		nop
 1531              	.L73:
 1532 0164 79E0     		b	.L78
 1533              	.L61:
 854:.\Generated_Source\PSoC5/USB_midi.c ****                 }
 855:.\Generated_Source\PSoC5/USB_midi.c ****             }
 856:.\Generated_Source\PSoC5/USB_midi.c ****         }
 857:.\Generated_Source\PSoC5/USB_midi.c **** 
 858:.\Generated_Source\PSoC5/USB_midi.c ****         /* Otherwise, it's a data byte */
 859:.\Generated_Source\PSoC5/USB_midi.c ****         else
 860:.\Generated_Source\PSoC5/USB_midi.c ****         {
 861:.\Generated_Source\PSoC5/USB_midi.c ****             if (rxStat->runstat == USB_MIDI_SYSEX)
 1534              		.loc 1 861 0
 1535 0166 3B68     		ldr	r3, [r7]
 1536 0168 DB78     		ldrb	r3, [r3, #3]	@ zero_extendqisi2
 1537 016a F02B     		cmp	r3, #240
 1538 016c 1CD1     		bne	.L79
 862:.\Generated_Source\PSoC5/USB_midi.c ****             {
 863:.\Generated_Source\PSoC5/USB_midi.c ****                 rxStat->msgBuff[rxStat->count] = mData;
 1539              		.loc 1 863 0
 1540 016e 3B68     		ldr	r3, [r7]
 1541 0170 5B78     		ldrb	r3, [r3, #1]	@ zero_extendqisi2
 1542 0172 1A46     		mov	r2, r3
 1543 0174 3B68     		ldr	r3, [r7]
 1544 0176 1344     		add	r3, r3, r2
 1545 0178 FA79     		ldrb	r2, [r7, #7]
 1546 017a 1A71     		strb	r2, [r3, #4]
 864:.\Generated_Source\PSoC5/USB_midi.c ****                 rxStat->count++;
 1547              		.loc 1 864 0
 1548 017c 3B68     		ldr	r3, [r7]
 1549 017e 5B78     		ldrb	r3, [r3, #1]	@ zero_extendqisi2
 1550 0180 0133     		adds	r3, r3, #1
 1551 0182 DAB2     		uxtb	r2, r3
ARM GAS  C:\Users\LUKASC~1\AppData\Local\Temp\ccIt7ba2.s 			page 44


 1552 0184 3B68     		ldr	r3, [r7]
 1553 0186 5A70     		strb	r2, [r3, #1]
 865:.\Generated_Source\PSoC5/USB_midi.c ****                 if (rxStat->count >= rxStat->length)
 1554              		.loc 1 865 0
 1555 0188 3B68     		ldr	r3, [r7]
 1556 018a 5A78     		ldrb	r2, [r3, #1]	@ zero_extendqisi2
 1557 018c 3B68     		ldr	r3, [r7]
 1558 018e 1B78     		ldrb	r3, [r3]	@ zero_extendqisi2
 1559 0190 9A42     		cmp	r2, r3
 1560 0192 62D3     		bcc	.L78
 866:.\Generated_Source\PSoC5/USB_midi.c ****                 {
 867:.\Generated_Source\PSoC5/USB_midi.c ****                     rxStat->size = rxStat->count;
 1561              		.loc 1 867 0
 1562 0194 3B68     		ldr	r3, [r7]
 1563 0196 5A78     		ldrb	r2, [r3, #1]	@ zero_extendqisi2
 1564 0198 3B68     		ldr	r3, [r7]
 1565 019a 9A70     		strb	r2, [r3, #2]
 868:.\Generated_Source\PSoC5/USB_midi.c ****                     rxStat->count = 0u;
 1566              		.loc 1 868 0
 1567 019c 3B68     		ldr	r3, [r7]
 1568 019e 0022     		movs	r2, #0
 1569 01a0 5A70     		strb	r2, [r3, #1]
 869:.\Generated_Source\PSoC5/USB_midi.c ****                     midiReturn = USB_MIDI_SYSEX;
 1570              		.loc 1 869 0
 1571 01a2 F023     		movs	r3, #240
 1572 01a4 FB73     		strb	r3, [r7, #15]
 1573 01a6 58E0     		b	.L78
 1574              	.L79:
 870:.\Generated_Source\PSoC5/USB_midi.c ****                 }
 871:.\Generated_Source\PSoC5/USB_midi.c ****             }
 872:.\Generated_Source\PSoC5/USB_midi.c ****             else if (rxStat->count > 0u)
 1575              		.loc 1 872 0
 1576 01a8 3B68     		ldr	r3, [r7]
 1577 01aa 5B78     		ldrb	r3, [r3, #1]	@ zero_extendqisi2
 1578 01ac 002B     		cmp	r3, #0
 1579 01ae 1DD0     		beq	.L81
 873:.\Generated_Source\PSoC5/USB_midi.c ****             {
 874:.\Generated_Source\PSoC5/USB_midi.c ****                 rxStat->msgBuff[rxStat->count] = mData;
 1580              		.loc 1 874 0
 1581 01b0 3B68     		ldr	r3, [r7]
 1582 01b2 5B78     		ldrb	r3, [r3, #1]	@ zero_extendqisi2
 1583 01b4 1A46     		mov	r2, r3
 1584 01b6 3B68     		ldr	r3, [r7]
 1585 01b8 1344     		add	r3, r3, r2
 1586 01ba FA79     		ldrb	r2, [r7, #7]
 1587 01bc 1A71     		strb	r2, [r3, #4]
 875:.\Generated_Source\PSoC5/USB_midi.c ****                 rxStat->count++;
 1588              		.loc 1 875 0
 1589 01be 3B68     		ldr	r3, [r7]
 1590 01c0 5B78     		ldrb	r3, [r3, #1]	@ zero_extendqisi2
 1591 01c2 0133     		adds	r3, r3, #1
 1592 01c4 DAB2     		uxtb	r2, r3
 1593 01c6 3B68     		ldr	r3, [r7]
 1594 01c8 5A70     		strb	r2, [r3, #1]
 876:.\Generated_Source\PSoC5/USB_midi.c ****                 if (rxStat->count >= rxStat->length)
 1595              		.loc 1 876 0
 1596 01ca 3B68     		ldr	r3, [r7]
ARM GAS  C:\Users\LUKASC~1\AppData\Local\Temp\ccIt7ba2.s 			page 45


 1597 01cc 5A78     		ldrb	r2, [r3, #1]	@ zero_extendqisi2
 1598 01ce 3B68     		ldr	r3, [r7]
 1599 01d0 1B78     		ldrb	r3, [r3]	@ zero_extendqisi2
 1600 01d2 9A42     		cmp	r2, r3
 1601 01d4 41D3     		bcc	.L78
 877:.\Generated_Source\PSoC5/USB_midi.c ****                 {
 878:.\Generated_Source\PSoC5/USB_midi.c ****                     rxStat->size = rxStat->count;
 1602              		.loc 1 878 0
 1603 01d6 3B68     		ldr	r3, [r7]
 1604 01d8 5A78     		ldrb	r2, [r3, #1]	@ zero_extendqisi2
 1605 01da 3B68     		ldr	r3, [r7]
 1606 01dc 9A70     		strb	r2, [r3, #2]
 879:.\Generated_Source\PSoC5/USB_midi.c ****                     rxStat->count = 0u;
 1607              		.loc 1 879 0
 1608 01de 3B68     		ldr	r3, [r7]
 1609 01e0 0022     		movs	r2, #0
 1610 01e2 5A70     		strb	r2, [r3, #1]
 880:.\Generated_Source\PSoC5/USB_midi.c ****                     midiReturn = rxStat->size;
 1611              		.loc 1 880 0
 1612 01e4 3B68     		ldr	r3, [r7]
 1613 01e6 9B78     		ldrb	r3, [r3, #2]
 1614 01e8 FB73     		strb	r3, [r7, #15]
 1615 01ea 36E0     		b	.L78
 1616              	.L81:
 881:.\Generated_Source\PSoC5/USB_midi.c ****                 }
 882:.\Generated_Source\PSoC5/USB_midi.c ****             }
 883:.\Generated_Source\PSoC5/USB_midi.c ****             else if (rxStat->runstat != 0u)
 1617              		.loc 1 883 0
 1618 01ec 3B68     		ldr	r3, [r7]
 1619 01ee DB78     		ldrb	r3, [r3, #3]	@ zero_extendqisi2
 1620 01f0 002B     		cmp	r3, #0
 1621 01f2 32D0     		beq	.L78
 884:.\Generated_Source\PSoC5/USB_midi.c ****             {
 885:.\Generated_Source\PSoC5/USB_midi.c ****                 rxStat->msgBuff[0u] = rxStat->runstat;
 1622              		.loc 1 885 0
 1623 01f4 3B68     		ldr	r3, [r7]
 1624 01f6 DA78     		ldrb	r2, [r3, #3]	@ zero_extendqisi2
 1625 01f8 3B68     		ldr	r3, [r7]
 1626 01fa 1A71     		strb	r2, [r3, #4]
 886:.\Generated_Source\PSoC5/USB_midi.c ****                 rxStat->msgBuff[1u] = mData;
 1627              		.loc 1 886 0
 1628 01fc 3B68     		ldr	r3, [r7]
 1629 01fe FA79     		ldrb	r2, [r7, #7]
 1630 0200 5A71     		strb	r2, [r3, #5]
 887:.\Generated_Source\PSoC5/USB_midi.c ****                 rxStat->count = 2u;
 1631              		.loc 1 887 0
 1632 0202 3B68     		ldr	r3, [r7]
 1633 0204 0222     		movs	r2, #2
 1634 0206 5A70     		strb	r2, [r3, #1]
 888:.\Generated_Source\PSoC5/USB_midi.c ****                 switch (rxStat->runstat & USB_MIDI_STATUS_MASK)
 1635              		.loc 1 888 0
 1636 0208 3B68     		ldr	r3, [r7]
 1637 020a DB78     		ldrb	r3, [r3, #3]	@ zero_extendqisi2
 1638 020c 03F0F003 		and	r3, r3, #240
 1639 0210 B02B     		cmp	r3, #176
 1640 0212 0FD0     		beq	.L84
 1641 0214 B02B     		cmp	r3, #176
ARM GAS  C:\Users\LUKASC~1\AppData\Local\Temp\ccIt7ba2.s 			page 46


 1642 0216 06D8     		bhi	.L85
 1643 0218 902B     		cmp	r3, #144
 1644 021a 0BD0     		beq	.L84
 1645 021c A02B     		cmp	r3, #160
 1646 021e 09D0     		beq	.L84
 1647 0220 802B     		cmp	r3, #128
 1648 0222 07D0     		beq	.L84
 1649 0224 15E0     		b	.L83
 1650              	.L85:
 1651 0226 D02B     		cmp	r3, #208
 1652 0228 08D0     		beq	.L86
 1653 022a E02B     		cmp	r3, #224
 1654 022c 02D0     		beq	.L84
 1655 022e C02B     		cmp	r3, #192
 1656 0230 04D0     		beq	.L86
 1657 0232 0EE0     		b	.L83
 1658              	.L84:
 889:.\Generated_Source\PSoC5/USB_midi.c ****                 {
 890:.\Generated_Source\PSoC5/USB_midi.c ****                     case USB_MIDI_NOTE_OFF:
 891:.\Generated_Source\PSoC5/USB_midi.c ****                     case USB_MIDI_NOTE_ON:
 892:.\Generated_Source\PSoC5/USB_midi.c ****                     case USB_MIDI_POLY_KEY_PRESSURE:
 893:.\Generated_Source\PSoC5/USB_midi.c ****                     case USB_MIDI_CONTROL_CHANGE:
 894:.\Generated_Source\PSoC5/USB_midi.c ****                     case USB_MIDI_PITCH_BEND_CHANGE:
 895:.\Generated_Source\PSoC5/USB_midi.c ****                         rxStat->length = 3u;
 1659              		.loc 1 895 0
 1660 0234 3B68     		ldr	r3, [r7]
 1661 0236 0322     		movs	r2, #3
 1662 0238 1A70     		strb	r2, [r3]
 896:.\Generated_Source\PSoC5/USB_midi.c ****                         break;
 1663              		.loc 1 896 0
 1664 023a 0EE0     		b	.L87
 1665              	.L86:
 897:.\Generated_Source\PSoC5/USB_midi.c ****                     case USB_MIDI_PROGRAM_CHANGE:
 898:.\Generated_Source\PSoC5/USB_midi.c ****                     case USB_MIDI_CHANNEL_PRESSURE:
 899:.\Generated_Source\PSoC5/USB_midi.c ****                         rxStat->size = rxStat->count;
 1666              		.loc 1 899 0
 1667 023c 3B68     		ldr	r3, [r7]
 1668 023e 5A78     		ldrb	r2, [r3, #1]	@ zero_extendqisi2
 1669 0240 3B68     		ldr	r3, [r7]
 1670 0242 9A70     		strb	r2, [r3, #2]
 900:.\Generated_Source\PSoC5/USB_midi.c ****                         rxStat->count = 0u;
 1671              		.loc 1 900 0
 1672 0244 3B68     		ldr	r3, [r7]
 1673 0246 0022     		movs	r2, #0
 1674 0248 5A70     		strb	r2, [r3, #1]
 901:.\Generated_Source\PSoC5/USB_midi.c ****                         midiReturn = rxStat->size;
 1675              		.loc 1 901 0
 1676 024a 3B68     		ldr	r3, [r7]
 1677 024c 9B78     		ldrb	r3, [r3, #2]
 1678 024e FB73     		strb	r3, [r7, #15]
 902:.\Generated_Source\PSoC5/USB_midi.c ****                         break;
 1679              		.loc 1 902 0
 1680 0250 03E0     		b	.L87
 1681              	.L83:
 903:.\Generated_Source\PSoC5/USB_midi.c ****                     default:
 904:.\Generated_Source\PSoC5/USB_midi.c ****                         rxStat->count = 0u;
 1682              		.loc 1 904 0
ARM GAS  C:\Users\LUKASC~1\AppData\Local\Temp\ccIt7ba2.s 			page 47


 1683 0252 3B68     		ldr	r3, [r7]
 1684 0254 0022     		movs	r2, #0
 1685 0256 5A70     		strb	r2, [r3, #1]
 905:.\Generated_Source\PSoC5/USB_midi.c ****                     break;
 1686              		.loc 1 905 0
 1687 0258 00BF     		nop
 1688              	.L87:
 1689              	.L78:
 906:.\Generated_Source\PSoC5/USB_midi.c ****                 }
 907:.\Generated_Source\PSoC5/USB_midi.c ****             }
 908:.\Generated_Source\PSoC5/USB_midi.c ****             else
 909:.\Generated_Source\PSoC5/USB_midi.c ****             {
 910:.\Generated_Source\PSoC5/USB_midi.c ****             }
 911:.\Generated_Source\PSoC5/USB_midi.c ****         }
 912:.\Generated_Source\PSoC5/USB_midi.c ****         return (midiReturn);
 1690              		.loc 1 912 0
 1691 025a FB7B     		ldrb	r3, [r7, #15]	@ zero_extendqisi2
 913:.\Generated_Source\PSoC5/USB_midi.c ****     }
 1692              		.loc 1 913 0
 1693 025c 1846     		mov	r0, r3
 1694 025e 1437     		adds	r7, r7, #20
 1695              		.cfi_def_cfa_offset 4
 1696 0260 BD46     		mov	sp, r7
 1697              		.cfi_def_cfa_register 13
 1698              		@ sp needed
 1699 0262 5DF8047B 		ldr	r7, [sp], #4
 1700              		.cfi_restore 7
 1701              		.cfi_def_cfa_offset 0
 1702 0266 7047     		bx	lr
 1703              		.cfi_endproc
 1704              	.LFE7:
 1705              		.size	USB_ProcessMidiIn, .-USB_ProcessMidiIn
 1706              		.section	.text.USB_MIDI1_GetEvent,"ax",%progbits
 1707              		.align	2
 1708              		.global	USB_MIDI1_GetEvent
 1709              		.thumb
 1710              		.thumb_func
 1711              		.type	USB_MIDI1_GetEvent, %function
 1712              	USB_MIDI1_GetEvent:
 1713              	.LFB8:
 914:.\Generated_Source\PSoC5/USB_midi.c **** 
 915:.\Generated_Source\PSoC5/USB_midi.c **** 
 916:.\Generated_Source\PSoC5/USB_midi.c ****     /*******************************************************************************
 917:.\Generated_Source\PSoC5/USB_midi.c ****     * Function Name: USB_MIDI1_GetEvent
 918:.\Generated_Source\PSoC5/USB_midi.c ****     ****************************************************************************//**
 919:.\Generated_Source\PSoC5/USB_midi.c ****     *
 920:.\Generated_Source\PSoC5/USB_midi.c ****     *  Checks for incoming MIDI data, calls the MIDI event builder if so.
 921:.\Generated_Source\PSoC5/USB_midi.c ****     *  Returns either empty or with a complete event.
 922:.\Generated_Source\PSoC5/USB_midi.c ****     *
 923:.\Generated_Source\PSoC5/USB_midi.c ****     * \return
 924:.\Generated_Source\PSoC5/USB_midi.c ****     *   0, if no complete message
 925:.\Generated_Source\PSoC5/USB_midi.c ****     *   1 - 4, if message complete
 926:.\Generated_Source\PSoC5/USB_midi.c ****     *   MIDI_SYSEX, if start or continuation of system exclusive
 927:.\Generated_Source\PSoC5/USB_midi.c ****     *   MIDI_EOSEX, if end of system exclusive
 928:.\Generated_Source\PSoC5/USB_midi.c ****     *   0xf8 - 0xff, if single byte real time message
 929:.\Generated_Source\PSoC5/USB_midi.c ****     *
 930:.\Generated_Source\PSoC5/USB_midi.c ****     * \globalvars
ARM GAS  C:\Users\LUKASC~1\AppData\Local\Temp\ccIt7ba2.s 			page 48


 931:.\Generated_Source\PSoC5/USB_midi.c ****     *  USB_MIDI1_Event: RX status structure used to parse received
 932:.\Generated_Source\PSoC5/USB_midi.c ****     *    data.
 933:.\Generated_Source\PSoC5/USB_midi.c ****     *
 934:.\Generated_Source\PSoC5/USB_midi.c ****     *******************************************************************************/
 935:.\Generated_Source\PSoC5/USB_midi.c ****     uint8 USB_MIDI1_GetEvent(void) 
 936:.\Generated_Source\PSoC5/USB_midi.c ****     {
 1714              		.loc 1 936 0
 1715              		.cfi_startproc
 1716              		@ args = 0, pretend = 0, frame = 8
 1717              		@ frame_needed = 1, uses_anonymous_args = 0
 1718 0000 80B5     		push	{r7, lr}
 1719              		.cfi_def_cfa_offset 8
 1720              		.cfi_offset 7, -8
 1721              		.cfi_offset 14, -4
 1722 0002 82B0     		sub	sp, sp, #8
 1723              		.cfi_def_cfa_offset 16
 1724 0004 00AF     		add	r7, sp, #0
 1725              		.cfi_def_cfa_register 7
 937:.\Generated_Source\PSoC5/USB_midi.c ****         uint8 msgRtn = 0u;
 1726              		.loc 1 937 0
 1727 0006 0023     		movs	r3, #0
 1728 0008 FB71     		strb	r3, [r7, #7]
 938:.\Generated_Source\PSoC5/USB_midi.c ****         uint8 rxData;
 939:.\Generated_Source\PSoC5/USB_midi.c ****         #if (MIDI1_UART_RXBUFFERSIZE >= 256u)
 940:.\Generated_Source\PSoC5/USB_midi.c ****             uint16 rxBufferRead;
 941:.\Generated_Source\PSoC5/USB_midi.c ****             #if (CY_PSOC3) /* This local variable is required only for PSOC3 and large buffer */
 942:.\Generated_Source\PSoC5/USB_midi.c ****                 uint16 rxBufferWrite;
 943:.\Generated_Source\PSoC5/USB_midi.c ****             #endif /* (CY_PSOC3) */
 944:.\Generated_Source\PSoC5/USB_midi.c ****         #else
 945:.\Generated_Source\PSoC5/USB_midi.c ****             uint8 rxBufferRead;
 946:.\Generated_Source\PSoC5/USB_midi.c ****         #endif /* (MIDI1_UART_RXBUFFERSIZE >= 256u) */
 947:.\Generated_Source\PSoC5/USB_midi.c **** 
 948:.\Generated_Source\PSoC5/USB_midi.c ****         uint8 rxBufferLoopDetect;
 949:.\Generated_Source\PSoC5/USB_midi.c ****         /* Read buffer loop condition to the local variable */
 950:.\Generated_Source\PSoC5/USB_midi.c ****         rxBufferLoopDetect = MIDI1_UART_rxBufferLoopDetect;
 1729              		.loc 1 950 0
 1730 000a 224B     		ldr	r3, .L100
 1731 000c 1B78     		ldrb	r3, [r3]
 1732 000e 7B71     		strb	r3, [r7, #5]
 951:.\Generated_Source\PSoC5/USB_midi.c **** 
 952:.\Generated_Source\PSoC5/USB_midi.c ****         if ((MIDI1_UART_rxBufferRead != MIDI1_UART_rxBufferWrite) || (rxBufferLoopDetect != 0u))
 1733              		.loc 1 952 0
 1734 0010 214B     		ldr	r3, .L100+4
 1735 0012 1B78     		ldrb	r3, [r3]
 1736 0014 DAB2     		uxtb	r2, r3
 1737 0016 214B     		ldr	r3, .L100+8
 1738 0018 1B78     		ldrb	r3, [r3]
 1739 001a DBB2     		uxtb	r3, r3
 1740 001c 9A42     		cmp	r2, r3
 1741 001e 02D1     		bne	.L91
 1742              		.loc 1 952 0 is_stmt 0 discriminator 1
 1743 0020 7B79     		ldrb	r3, [r7, #5]	@ zero_extendqisi2
 1744 0022 002B     		cmp	r3, #0
 1745 0024 31D0     		beq	.L92
 1746              	.L91:
 953:.\Generated_Source\PSoC5/USB_midi.c ****         {
 954:.\Generated_Source\PSoC5/USB_midi.c ****             /* Protect variables that could change on interrupt by disabling Rx interrupt.*/
ARM GAS  C:\Users\LUKASC~1\AppData\Local\Temp\ccIt7ba2.s 			page 49


 955:.\Generated_Source\PSoC5/USB_midi.c ****             #if ((MIDI1_UART_RXBUFFERSIZE >= 256u) && (CY_PSOC3))
 956:.\Generated_Source\PSoC5/USB_midi.c ****                 CyIntDisable(MIDI1_UART_RX_VECT_NUM);
 957:.\Generated_Source\PSoC5/USB_midi.c ****             #endif /* ((MIDI1_UART_RXBUFFERSIZE >= 256u) && (CY_PSOC3)) */
 958:.\Generated_Source\PSoC5/USB_midi.c **** 
 959:.\Generated_Source\PSoC5/USB_midi.c ****             rxBufferRead = MIDI1_UART_rxBufferRead;
 1747              		.loc 1 959 0 is_stmt 1
 1748 0026 1C4B     		ldr	r3, .L100+4
 1749 0028 1B78     		ldrb	r3, [r3]
 1750 002a BB71     		strb	r3, [r7, #6]
 960:.\Generated_Source\PSoC5/USB_midi.c ****             #if ((MIDI1_UART_RXBUFFERSIZE >= 256u) && (CY_PSOC3))
 961:.\Generated_Source\PSoC5/USB_midi.c ****                 rxBufferWrite = MIDI1_UART_rxBufferWrite;
 962:.\Generated_Source\PSoC5/USB_midi.c ****                 CyIntEnable(MIDI1_UART_RX_VECT_NUM);
 963:.\Generated_Source\PSoC5/USB_midi.c ****             #endif /* ((MIDI1_UART_RXBUFFERSIZE >= 256u) && (CY_PSOC3)) */
 964:.\Generated_Source\PSoC5/USB_midi.c **** 
 965:.\Generated_Source\PSoC5/USB_midi.c ****             /* Stay here until either the buffer is empty or we have a complete message
 966:.\Generated_Source\PSoC5/USB_midi.c ****             *  in the message buffer. Note that we must use a temporary buffer pointer
 967:.\Generated_Source\PSoC5/USB_midi.c ****             *  since it takes two instructions to increment with a wrap, and we can't
 968:.\Generated_Source\PSoC5/USB_midi.c ****             *  risk doing that with the real pointer and getting an interrupt in between
 969:.\Generated_Source\PSoC5/USB_midi.c ****             *  instructions.
 970:.\Generated_Source\PSoC5/USB_midi.c ****             */
 971:.\Generated_Source\PSoC5/USB_midi.c **** 
 972:.\Generated_Source\PSoC5/USB_midi.c ****             #if ((MIDI1_UART_RXBUFFERSIZE >= 256u) && (CY_PSOC3))
 973:.\Generated_Source\PSoC5/USB_midi.c ****                 while ( ((rxBufferRead != rxBufferWrite) || (rxBufferLoopDetect != 0u)) && (msgRtn 
 974:.\Generated_Source\PSoC5/USB_midi.c ****             #else
 975:.\Generated_Source\PSoC5/USB_midi.c ****                 while ( ((rxBufferRead != MIDI1_UART_rxBufferWrite) || (rxBufferLoopDetect != 0u)) 
 1751              		.loc 1 975 0
 1752 002c 1EE0     		b	.L93
 1753              	.L98:
 976:.\Generated_Source\PSoC5/USB_midi.c ****             #endif /*  ((MIDI1_UART_RXBUFFERSIZE >= 256u) && (CY_PSOC3)) */
 977:.\Generated_Source\PSoC5/USB_midi.c ****                 {
 978:.\Generated_Source\PSoC5/USB_midi.c ****                     rxData = MIDI1_UART_rxBuffer[rxBufferRead];
 1754              		.loc 1 978 0
 1755 002e BB79     		ldrb	r3, [r7, #6]	@ zero_extendqisi2
 1756 0030 1B4A     		ldr	r2, .L100+12
 1757 0032 D35C     		ldrb	r3, [r2, r3]
 1758 0034 3B71     		strb	r3, [r7, #4]
 979:.\Generated_Source\PSoC5/USB_midi.c ****                     /* Increment pointer with a wrap */
 980:.\Generated_Source\PSoC5/USB_midi.c ****                     rxBufferRead++;
 1759              		.loc 1 980 0
 1760 0036 BB79     		ldrb	r3, [r7, #6]	@ zero_extendqisi2
 1761 0038 0133     		adds	r3, r3, #1
 1762 003a BB71     		strb	r3, [r7, #6]
 981:.\Generated_Source\PSoC5/USB_midi.c ****                     if (rxBufferRead >= MIDI1_UART_RXBUFFERSIZE)
 1763              		.loc 1 981 0
 1764 003c BB79     		ldrb	r3, [r7, #6]	@ zero_extendqisi2
 1765 003e FF2B     		cmp	r3, #255
 1766 0040 01D1     		bne	.L94
 982:.\Generated_Source\PSoC5/USB_midi.c ****                     {
 983:.\Generated_Source\PSoC5/USB_midi.c ****                         rxBufferRead = 0u;
 1767              		.loc 1 983 0
 1768 0042 0023     		movs	r3, #0
 1769 0044 BB71     		strb	r3, [r7, #6]
 1770              	.L94:
 984:.\Generated_Source\PSoC5/USB_midi.c ****                     }
 985:.\Generated_Source\PSoC5/USB_midi.c **** 
 986:.\Generated_Source\PSoC5/USB_midi.c ****                     /* If loop condition was set - update real read buffer pointer
 987:.\Generated_Source\PSoC5/USB_midi.c ****                     *  to avoid overflow status
ARM GAS  C:\Users\LUKASC~1\AppData\Local\Temp\ccIt7ba2.s 			page 50


 988:.\Generated_Source\PSoC5/USB_midi.c ****                     */
 989:.\Generated_Source\PSoC5/USB_midi.c ****                     if (rxBufferLoopDetect != 0u )
 1771              		.loc 1 989 0
 1772 0046 7B79     		ldrb	r3, [r7, #5]	@ zero_extendqisi2
 1773 0048 002B     		cmp	r3, #0
 1774 004a 05D0     		beq	.L95
 990:.\Generated_Source\PSoC5/USB_midi.c ****                     {
 991:.\Generated_Source\PSoC5/USB_midi.c ****                         MIDI1_UART_rxBufferLoopDetect = 0u;
 1775              		.loc 1 991 0
 1776 004c 114B     		ldr	r3, .L100
 1777 004e 0022     		movs	r2, #0
 1778 0050 1A70     		strb	r2, [r3]
 992:.\Generated_Source\PSoC5/USB_midi.c ****                     #if ((MIDI1_UART_RXBUFFERSIZE >= 256u) && (CY_PSOC3))
 993:.\Generated_Source\PSoC5/USB_midi.c ****                         CyIntDisable(MIDI1_UART_RX_VECT_NUM);
 994:.\Generated_Source\PSoC5/USB_midi.c ****                     #endif /*  MIDI1_UART_RXBUFFERSIZE >= 256 */
 995:.\Generated_Source\PSoC5/USB_midi.c **** 
 996:.\Generated_Source\PSoC5/USB_midi.c ****                         MIDI1_UART_rxBufferRead = rxBufferRead;
 1779              		.loc 1 996 0
 1780 0052 114A     		ldr	r2, .L100+4
 1781 0054 BB79     		ldrb	r3, [r7, #6]
 1782 0056 1370     		strb	r3, [r2]
 1783              	.L95:
 997:.\Generated_Source\PSoC5/USB_midi.c ****                     #if ((MIDI1_UART_RXBUFFERSIZE >= 256u) && (CY_PSOC3))
 998:.\Generated_Source\PSoC5/USB_midi.c ****                         CyIntEnable(MIDI1_UART_RX_VECT_NUM);
 999:.\Generated_Source\PSoC5/USB_midi.c ****                     #endif /*  MIDI1_UART_RXBUFFERSIZE >= 256 */
1000:.\Generated_Source\PSoC5/USB_midi.c ****                     }
1001:.\Generated_Source\PSoC5/USB_midi.c **** 
1002:.\Generated_Source\PSoC5/USB_midi.c ****                     msgRtn = USB_ProcessMidiIn(rxData,
 1784              		.loc 1 1002 0
 1785 0058 3B79     		ldrb	r3, [r7, #4]	@ zero_extendqisi2
 1786 005a 1846     		mov	r0, r3
 1787 005c 1149     		ldr	r1, .L100+16
 1788 005e FFF7FEFF 		bl	USB_ProcessMidiIn
 1789 0062 0346     		mov	r3, r0
 1790 0064 FB71     		strb	r3, [r7, #7]
1003:.\Generated_Source\PSoC5/USB_midi.c ****                                                     (USB_MIDI_RX_STATUS *)&USB_MIDI1_Event);
1004:.\Generated_Source\PSoC5/USB_midi.c **** 
1005:.\Generated_Source\PSoC5/USB_midi.c ****                     /* Read buffer loop condition to the local variable */
1006:.\Generated_Source\PSoC5/USB_midi.c ****                     rxBufferLoopDetect = MIDI1_UART_rxBufferLoopDetect;
 1791              		.loc 1 1006 0
 1792 0066 0B4B     		ldr	r3, .L100
 1793 0068 1B78     		ldrb	r3, [r3]
 1794 006a 7B71     		strb	r3, [r7, #5]
 1795              	.L93:
 975:.\Generated_Source\PSoC5/USB_midi.c ****             #endif /*  ((MIDI1_UART_RXBUFFERSIZE >= 256u) && (CY_PSOC3)) */
 1796              		.loc 1 975 0
 1797 006c 0B4B     		ldr	r3, .L100+8
 1798 006e 1B78     		ldrb	r3, [r3]
 1799 0070 DBB2     		uxtb	r3, r3
 1800 0072 BA79     		ldrb	r2, [r7, #6]	@ zero_extendqisi2
 1801 0074 9A42     		cmp	r2, r3
 1802 0076 02D1     		bne	.L96
 975:.\Generated_Source\PSoC5/USB_midi.c ****             #endif /*  ((MIDI1_UART_RXBUFFERSIZE >= 256u) && (CY_PSOC3)) */
 1803              		.loc 1 975 0 is_stmt 0 discriminator 2
 1804 0078 7B79     		ldrb	r3, [r7, #5]	@ zero_extendqisi2
 1805 007a 002B     		cmp	r3, #0
 1806 007c 02D0     		beq	.L97
ARM GAS  C:\Users\LUKASC~1\AppData\Local\Temp\ccIt7ba2.s 			page 51


 1807              	.L96:
 975:.\Generated_Source\PSoC5/USB_midi.c ****             #endif /*  ((MIDI1_UART_RXBUFFERSIZE >= 256u) && (CY_PSOC3)) */
 1808              		.loc 1 975 0 discriminator 3
 1809 007e FB79     		ldrb	r3, [r7, #7]	@ zero_extendqisi2
 1810 0080 002B     		cmp	r3, #0
 1811 0082 D4D0     		beq	.L98
 1812              	.L97:
1007:.\Generated_Source\PSoC5/USB_midi.c ****                 }
1008:.\Generated_Source\PSoC5/USB_midi.c **** 
1009:.\Generated_Source\PSoC5/USB_midi.c ****             /* Finally, update the real output pointer, then return with
1010:.\Generated_Source\PSoC5/USB_midi.c ****             *  an indication as to whether there's a complete message in the buffer.
1011:.\Generated_Source\PSoC5/USB_midi.c ****             */
1012:.\Generated_Source\PSoC5/USB_midi.c ****         #if ((MIDI1_UART_RXBUFFERSIZE >= 256u) && (CY_PSOC3))
1013:.\Generated_Source\PSoC5/USB_midi.c ****             CyIntDisable(MIDI1_UART_RX_VECT_NUM);
1014:.\Generated_Source\PSoC5/USB_midi.c ****         #endif /* ((MIDI1_UART_RXBUFFERSIZE >= 256u) && (CY_PSOC3)) */
1015:.\Generated_Source\PSoC5/USB_midi.c **** 
1016:.\Generated_Source\PSoC5/USB_midi.c ****         MIDI1_UART_rxBufferRead = rxBufferRead;
 1813              		.loc 1 1016 0 is_stmt 1
 1814 0084 044A     		ldr	r2, .L100+4
 1815 0086 BB79     		ldrb	r3, [r7, #6]
 1816 0088 1370     		strb	r3, [r2]
 1817              	.L92:
1017:.\Generated_Source\PSoC5/USB_midi.c ****         #if ((MIDI1_UART_RXBUFFERSIZE >= 256u) && (CY_PSOC3))
1018:.\Generated_Source\PSoC5/USB_midi.c ****             CyIntEnable(MIDI1_UART_RX_VECT_NUM);
1019:.\Generated_Source\PSoC5/USB_midi.c ****         #endif /* ((MIDI1_UART_RXBUFFERSIZE >= 256u) && (CY_PSOC3)) */
1020:.\Generated_Source\PSoC5/USB_midi.c ****         }
1021:.\Generated_Source\PSoC5/USB_midi.c **** 
1022:.\Generated_Source\PSoC5/USB_midi.c ****         return (msgRtn);
 1818              		.loc 1 1022 0
 1819 008a FB79     		ldrb	r3, [r7, #7]	@ zero_extendqisi2
1023:.\Generated_Source\PSoC5/USB_midi.c ****     }
 1820              		.loc 1 1023 0
 1821 008c 1846     		mov	r0, r3
 1822 008e 0837     		adds	r7, r7, #8
 1823              		.cfi_def_cfa_offset 8
 1824 0090 BD46     		mov	sp, r7
 1825              		.cfi_def_cfa_register 13
 1826              		@ sp needed
 1827 0092 80BD     		pop	{r7, pc}
 1828              	.L101:
 1829              		.align	2
 1830              	.L100:
 1831 0094 00000000 		.word	MIDI1_UART_rxBufferLoopDetect
 1832 0098 00000000 		.word	MIDI1_UART_rxBufferRead
 1833 009c 00000000 		.word	MIDI1_UART_rxBufferWrite
 1834 00a0 00000000 		.word	MIDI1_UART_rxBuffer
 1835 00a4 00000000 		.word	USB_MIDI1_Event
 1836              		.cfi_endproc
 1837              	.LFE8:
 1838              		.size	USB_MIDI1_GetEvent, .-USB_MIDI1_GetEvent
 1839              		.section	.text.USB_MIDI1_ProcessUsbOut,"ax",%progbits
 1840              		.align	2
 1841              		.global	USB_MIDI1_ProcessUsbOut
 1842              		.thumb
 1843              		.thumb_func
 1844              		.type	USB_MIDI1_ProcessUsbOut, %function
 1845              	USB_MIDI1_ProcessUsbOut:
ARM GAS  C:\Users\LUKASC~1\AppData\Local\Temp\ccIt7ba2.s 			page 52


 1846              	.LFB9:
1024:.\Generated_Source\PSoC5/USB_midi.c **** 
1025:.\Generated_Source\PSoC5/USB_midi.c **** 
1026:.\Generated_Source\PSoC5/USB_midi.c ****     /*******************************************************************************
1027:.\Generated_Source\PSoC5/USB_midi.c ****     * Function Name: USB_MIDI1_ProcessUsbOut
1028:.\Generated_Source\PSoC5/USB_midi.c ****     ****************************************************************************//**
1029:.\Generated_Source\PSoC5/USB_midi.c ****     *
1030:.\Generated_Source\PSoC5/USB_midi.c ****     *  Process a USB MIDI output event.
1031:.\Generated_Source\PSoC5/USB_midi.c ****     *  Puts data into the MIDI TX output buffer.
1032:.\Generated_Source\PSoC5/USB_midi.c ****     *
1033:.\Generated_Source\PSoC5/USB_midi.c ****     *  \param *epBuf: pointer on MIDI event.
1034:.\Generated_Source\PSoC5/USB_midi.c ****     *
1035:.\Generated_Source\PSoC5/USB_midi.c ****     * \globalvars
1036:.\Generated_Source\PSoC5/USB_midi.c ****     *  USB_MIDI1_TxRunStat: This variable used to save the MIDI
1037:.\Generated_Source\PSoC5/USB_midi.c ****     *    status byte and skip to send the repeated status byte in subsequent event.
1038:.\Generated_Source\PSoC5/USB_midi.c ****     *  USB_MIDI1_InqFlags: The following flags are set when SysEx
1039:.\Generated_Source\PSoC5/USB_midi.c ****     *    message comes.
1040:.\Generated_Source\PSoC5/USB_midi.c ****     *    USB_INQ_SYSEX_FLAG: Non-Real Time SySEx message received.
1041:.\Generated_Source\PSoC5/USB_midi.c ****     *    USB_INQ_IDENTITY_REQ_FLAG: Identity Request received.
1042:.\Generated_Source\PSoC5/USB_midi.c ****     *      This bit should be cleared by user when Identity Reply message generated.
1043:.\Generated_Source\PSoC5/USB_midi.c ****     *
1044:.\Generated_Source\PSoC5/USB_midi.c ****     *******************************************************************************/
1045:.\Generated_Source\PSoC5/USB_midi.c ****     void USB_MIDI1_ProcessUsbOut(const uint8 epBuf[])
1046:.\Generated_Source\PSoC5/USB_midi.c ****                                                             
1047:.\Generated_Source\PSoC5/USB_midi.c ****     {
 1847              		.loc 1 1047 0
 1848              		.cfi_startproc
 1849              		@ args = 0, pretend = 0, frame = 16
 1850              		@ frame_needed = 1, uses_anonymous_args = 0
 1851 0000 80B5     		push	{r7, lr}
 1852              		.cfi_def_cfa_offset 8
 1853              		.cfi_offset 7, -8
 1854              		.cfi_offset 14, -4
 1855 0002 84B0     		sub	sp, sp, #16
 1856              		.cfi_def_cfa_offset 24
 1857 0004 00AF     		add	r7, sp, #0
 1858              		.cfi_def_cfa_register 7
 1859 0006 7860     		str	r0, [r7, #4]
1048:.\Generated_Source\PSoC5/USB_midi.c ****         uint8 cmd;
1049:.\Generated_Source\PSoC5/USB_midi.c ****         uint8 len;
1050:.\Generated_Source\PSoC5/USB_midi.c ****         uint8 i;
1051:.\Generated_Source\PSoC5/USB_midi.c **** 
1052:.\Generated_Source\PSoC5/USB_midi.c ****         /* User code is required at the beginning of the procedure */
1053:.\Generated_Source\PSoC5/USB_midi.c ****         /* `#START MIDI1_PROCESS_OUT_BEGIN` */
1054:.\Generated_Source\PSoC5/USB_midi.c **** 
1055:.\Generated_Source\PSoC5/USB_midi.c ****         /* `#END` */
1056:.\Generated_Source\PSoC5/USB_midi.c **** 
1057:.\Generated_Source\PSoC5/USB_midi.c ****     #ifdef USB_MIDI1_PROCESS_USB_OUT_ENTRY_CALLBACK
1058:.\Generated_Source\PSoC5/USB_midi.c ****         USB_MIDI1_ProcessUsbOut_EntryCallback();
 1860              		.loc 1 1058 0
 1861 0008 FFF7FEFF 		bl	USB_MIDI1_ProcessUsbOut_EntryCallback
1059:.\Generated_Source\PSoC5/USB_midi.c ****     #endif /* (USB_MIDI1_PROCESS_USB_OUT_ENTRY_CALLBACK) */
1060:.\Generated_Source\PSoC5/USB_midi.c **** 
1061:.\Generated_Source\PSoC5/USB_midi.c ****         cmd = epBuf[USB_EVENT_BYTE0] & USB_CIN_MASK;
 1862              		.loc 1 1061 0
 1863 000c 7B68     		ldr	r3, [r7, #4]
 1864 000e 1B78     		ldrb	r3, [r3]	@ zero_extendqisi2
ARM GAS  C:\Users\LUKASC~1\AppData\Local\Temp\ccIt7ba2.s 			page 53


 1865 0010 03F00F03 		and	r3, r3, #15
 1866 0014 BB73     		strb	r3, [r7, #14]
1062:.\Generated_Source\PSoC5/USB_midi.c **** 
1063:.\Generated_Source\PSoC5/USB_midi.c ****         if ((cmd != USB_RESERVED0) && (cmd != USB_RESERVED1))
 1867              		.loc 1 1063 0
 1868 0016 BB7B     		ldrb	r3, [r7, #14]	@ zero_extendqisi2
 1869 0018 002B     		cmp	r3, #0
 1870 001a 00F08D80 		beq	.L103
 1871              		.loc 1 1063 0 is_stmt 0 discriminator 1
 1872 001e BB7B     		ldrb	r3, [r7, #14]	@ zero_extendqisi2
 1873 0020 012B     		cmp	r3, #1
 1874 0022 00F08980 		beq	.L103
1064:.\Generated_Source\PSoC5/USB_midi.c ****         {
1065:.\Generated_Source\PSoC5/USB_midi.c ****             len = USB_MIDI_SIZE[cmd];
 1875              		.loc 1 1065 0 is_stmt 1
 1876 0026 BB7B     		ldrb	r3, [r7, #14]	@ zero_extendqisi2
 1877 0028 464A     		ldr	r2, .L115
 1878 002a D35C     		ldrb	r3, [r2, r3]
 1879 002c 7B73     		strb	r3, [r7, #13]
1066:.\Generated_Source\PSoC5/USB_midi.c ****             i = USB_EVENT_BYTE1;
 1880              		.loc 1 1066 0
 1881 002e 0123     		movs	r3, #1
 1882 0030 FB73     		strb	r3, [r7, #15]
1067:.\Generated_Source\PSoC5/USB_midi.c ****             /* Universal System Exclusive message parsing */
1068:.\Generated_Source\PSoC5/USB_midi.c ****             if (cmd == USB_SYSEX)
 1883              		.loc 1 1068 0
 1884 0032 BB7B     		ldrb	r3, [r7, #14]	@ zero_extendqisi2
 1885 0034 042B     		cmp	r3, #4
 1886 0036 1BD1     		bne	.L104
1069:.\Generated_Source\PSoC5/USB_midi.c ****             {
1070:.\Generated_Source\PSoC5/USB_midi.c ****                 if ((epBuf[USB_EVENT_BYTE1] == USB_MIDI_SYSEX) &&
 1887              		.loc 1 1070 0
 1888 0038 7B68     		ldr	r3, [r7, #4]
 1889 003a 0133     		adds	r3, r3, #1
 1890 003c 1B78     		ldrb	r3, [r3]	@ zero_extendqisi2
 1891 003e F02B     		cmp	r3, #240
 1892 0040 0DD1     		bne	.L105
1071:.\Generated_Source\PSoC5/USB_midi.c ****                     (epBuf[USB_EVENT_BYTE2] == USB_MIDI_SYSEX_NON_REAL_TIME))
 1893              		.loc 1 1071 0 discriminator 1
 1894 0042 7B68     		ldr	r3, [r7, #4]
 1895 0044 0233     		adds	r3, r3, #2
 1896 0046 1B78     		ldrb	r3, [r3]	@ zero_extendqisi2
1070:.\Generated_Source\PSoC5/USB_midi.c ****                     (epBuf[USB_EVENT_BYTE2] == USB_MIDI_SYSEX_NON_REAL_TIME))
 1897              		.loc 1 1070 0 discriminator 1
 1898 0048 7E2B     		cmp	r3, #126
 1899 004a 08D1     		bne	.L105
1072:.\Generated_Source\PSoC5/USB_midi.c ****                 {
1073:.\Generated_Source\PSoC5/USB_midi.c ****                     /* Non-Real Time SySEx starts */
1074:.\Generated_Source\PSoC5/USB_midi.c ****                     USB_MIDI1_InqFlags |= USB_INQ_SYSEX_FLAG;
 1900              		.loc 1 1074 0
 1901 004c 3E4B     		ldr	r3, .L115+4
 1902 004e 1B78     		ldrb	r3, [r3]
 1903 0050 DBB2     		uxtb	r3, r3
 1904 0052 43F00103 		orr	r3, r3, #1
 1905 0056 DAB2     		uxtb	r2, r3
 1906 0058 3B4B     		ldr	r3, .L115+4
 1907 005a 1A70     		strb	r2, [r3]
ARM GAS  C:\Users\LUKASC~1\AppData\Local\Temp\ccIt7ba2.s 			page 54


 1908 005c 44E0     		b	.L107
 1909              	.L105:
1075:.\Generated_Source\PSoC5/USB_midi.c ****                 }
1076:.\Generated_Source\PSoC5/USB_midi.c ****                 else
1077:.\Generated_Source\PSoC5/USB_midi.c ****                 {
1078:.\Generated_Source\PSoC5/USB_midi.c ****                     USB_MIDI1_InqFlags &= (uint8)~USB_INQ_SYSEX_FLAG;
 1910              		.loc 1 1078 0
 1911 005e 3A4B     		ldr	r3, .L115+4
 1912 0060 1B78     		ldrb	r3, [r3]
 1913 0062 DBB2     		uxtb	r3, r3
 1914 0064 23F00103 		bic	r3, r3, #1
 1915 0068 DAB2     		uxtb	r2, r3
 1916 006a 374B     		ldr	r3, .L115+4
 1917 006c 1A70     		strb	r2, [r3]
 1918 006e 3BE0     		b	.L107
 1919              	.L104:
1079:.\Generated_Source\PSoC5/USB_midi.c ****                 }
1080:.\Generated_Source\PSoC5/USB_midi.c ****             }
1081:.\Generated_Source\PSoC5/USB_midi.c ****             else if (cmd == USB_SYSEX_ENDS_WITH1)
 1920              		.loc 1 1081 0
 1921 0070 BB7B     		ldrb	r3, [r7, #14]	@ zero_extendqisi2
 1922 0072 052B     		cmp	r3, #5
 1923 0074 08D1     		bne	.L108
1082:.\Generated_Source\PSoC5/USB_midi.c ****             {
1083:.\Generated_Source\PSoC5/USB_midi.c ****                 USB_MIDI1_InqFlags &= (uint8)~USB_INQ_SYSEX_FLAG;
 1924              		.loc 1 1083 0
 1925 0076 344B     		ldr	r3, .L115+4
 1926 0078 1B78     		ldrb	r3, [r3]
 1927 007a DBB2     		uxtb	r3, r3
 1928 007c 23F00103 		bic	r3, r3, #1
 1929 0080 DAB2     		uxtb	r2, r3
 1930 0082 314B     		ldr	r3, .L115+4
 1931 0084 1A70     		strb	r2, [r3]
 1932 0086 2FE0     		b	.L107
 1933              	.L108:
1084:.\Generated_Source\PSoC5/USB_midi.c ****             }
1085:.\Generated_Source\PSoC5/USB_midi.c ****             else if (cmd == USB_SYSEX_ENDS_WITH2)
 1934              		.loc 1 1085 0
 1935 0088 BB7B     		ldrb	r3, [r7, #14]	@ zero_extendqisi2
 1936 008a 062B     		cmp	r3, #6
 1937 008c 08D1     		bne	.L109
1086:.\Generated_Source\PSoC5/USB_midi.c ****             {
1087:.\Generated_Source\PSoC5/USB_midi.c ****                 USB_MIDI1_InqFlags &= (uint8)~USB_INQ_SYSEX_FLAG;
 1938              		.loc 1 1087 0
 1939 008e 2E4B     		ldr	r3, .L115+4
 1940 0090 1B78     		ldrb	r3, [r3]
 1941 0092 DBB2     		uxtb	r3, r3
 1942 0094 23F00103 		bic	r3, r3, #1
 1943 0098 DAB2     		uxtb	r2, r3
 1944 009a 2B4B     		ldr	r3, .L115+4
 1945 009c 1A70     		strb	r2, [r3]
 1946 009e 23E0     		b	.L107
 1947              	.L109:
1088:.\Generated_Source\PSoC5/USB_midi.c ****             }
1089:.\Generated_Source\PSoC5/USB_midi.c ****             else if (cmd == USB_SYSEX_ENDS_WITH3)
 1948              		.loc 1 1089 0
 1949 00a0 BB7B     		ldrb	r3, [r7, #14]	@ zero_extendqisi2
ARM GAS  C:\Users\LUKASC~1\AppData\Local\Temp\ccIt7ba2.s 			page 55


 1950 00a2 072B     		cmp	r3, #7
 1951 00a4 20D1     		bne	.L107
1090:.\Generated_Source\PSoC5/USB_midi.c ****             {
1091:.\Generated_Source\PSoC5/USB_midi.c ****                 /* Identify Request support */
1092:.\Generated_Source\PSoC5/USB_midi.c ****                 if ((USB_MIDI1_InqFlags & USB_INQ_SYSEX_FLAG) != 0u)
 1952              		.loc 1 1092 0
 1953 00a6 284B     		ldr	r3, .L115+4
 1954 00a8 1B78     		ldrb	r3, [r3]
 1955 00aa DBB2     		uxtb	r3, r3
 1956 00ac 03F00103 		and	r3, r3, #1
 1957 00b0 002B     		cmp	r3, #0
 1958 00b2 19D0     		beq	.L107
1093:.\Generated_Source\PSoC5/USB_midi.c ****                 {
1094:.\Generated_Source\PSoC5/USB_midi.c ****                     USB_MIDI1_InqFlags &= (uint8)~USB_INQ_SYSEX_FLAG;
 1959              		.loc 1 1094 0
 1960 00b4 244B     		ldr	r3, .L115+4
 1961 00b6 1B78     		ldrb	r3, [r3]
 1962 00b8 DBB2     		uxtb	r3, r3
 1963 00ba 23F00103 		bic	r3, r3, #1
 1964 00be DAB2     		uxtb	r2, r3
 1965 00c0 214B     		ldr	r3, .L115+4
 1966 00c2 1A70     		strb	r2, [r3]
1095:.\Generated_Source\PSoC5/USB_midi.c ****                     if ((epBuf[USB_EVENT_BYTE1] == USB_MIDI_SYSEX_GEN_INFORMATION) &&
 1967              		.loc 1 1095 0
 1968 00c4 7B68     		ldr	r3, [r7, #4]
 1969 00c6 0133     		adds	r3, r3, #1
 1970 00c8 1B78     		ldrb	r3, [r3]	@ zero_extendqisi2
 1971 00ca 062B     		cmp	r3, #6
 1972 00cc 0CD1     		bne	.L107
1096:.\Generated_Source\PSoC5/USB_midi.c ****                         (epBuf[USB_EVENT_BYTE2] == USB_MIDI_SYSEX_IDENTITY_REQ))
 1973              		.loc 1 1096 0 discriminator 1
 1974 00ce 7B68     		ldr	r3, [r7, #4]
 1975 00d0 0233     		adds	r3, r3, #2
 1976 00d2 1B78     		ldrb	r3, [r3]	@ zero_extendqisi2
1095:.\Generated_Source\PSoC5/USB_midi.c ****                     if ((epBuf[USB_EVENT_BYTE1] == USB_MIDI_SYSEX_GEN_INFORMATION) &&
 1977              		.loc 1 1095 0 discriminator 1
 1978 00d4 012B     		cmp	r3, #1
 1979 00d6 07D1     		bne	.L107
1097:.\Generated_Source\PSoC5/USB_midi.c ****                     {
1098:.\Generated_Source\PSoC5/USB_midi.c ****                         /* Set the flag about received the Identity Request.
1099:.\Generated_Source\PSoC5/USB_midi.c ****                         *  The Identity Reply message may be send by user code.
1100:.\Generated_Source\PSoC5/USB_midi.c ****                         */
1101:.\Generated_Source\PSoC5/USB_midi.c ****                         USB_MIDI1_InqFlags |= USB_INQ_IDENTITY_REQ_FLAG;
 1980              		.loc 1 1101 0
 1981 00d8 1B4B     		ldr	r3, .L115+4
 1982 00da 1B78     		ldrb	r3, [r3]
 1983 00dc DBB2     		uxtb	r3, r3
 1984 00de 43F00203 		orr	r3, r3, #2
 1985 00e2 DAB2     		uxtb	r2, r3
 1986 00e4 184B     		ldr	r3, .L115+4
 1987 00e6 1A70     		strb	r2, [r3]
 1988              	.L107:
1102:.\Generated_Source\PSoC5/USB_midi.c ****                     }
1103:.\Generated_Source\PSoC5/USB_midi.c ****                 }
1104:.\Generated_Source\PSoC5/USB_midi.c ****             }
1105:.\Generated_Source\PSoC5/USB_midi.c ****             else /* Do nothing for other command */
1106:.\Generated_Source\PSoC5/USB_midi.c ****             {
ARM GAS  C:\Users\LUKASC~1\AppData\Local\Temp\ccIt7ba2.s 			page 56


1107:.\Generated_Source\PSoC5/USB_midi.c ****             }
1108:.\Generated_Source\PSoC5/USB_midi.c **** 
1109:.\Generated_Source\PSoC5/USB_midi.c ****             /* Running Status for Voice and Mode messages only. */
1110:.\Generated_Source\PSoC5/USB_midi.c ****             if ((cmd >= USB_NOTE_OFF) && (cmd <= USB_PITCH_BEND_CHANGE))
 1989              		.loc 1 1110 0
 1990 00e8 BB7B     		ldrb	r3, [r7, #14]	@ zero_extendqisi2
 1991 00ea 072B     		cmp	r3, #7
 1992 00ec 13D9     		bls	.L111
 1993              		.loc 1 1110 0 is_stmt 0 discriminator 1
 1994 00ee BB7B     		ldrb	r3, [r7, #14]	@ zero_extendqisi2
 1995 00f0 0E2B     		cmp	r3, #14
 1996 00f2 10D8     		bhi	.L111
1111:.\Generated_Source\PSoC5/USB_midi.c ****             {
1112:.\Generated_Source\PSoC5/USB_midi.c ****                 if (USB_MIDI1_TxRunStat == epBuf[USB_EVENT_BYTE1])
 1997              		.loc 1 1112 0 is_stmt 1
 1998 00f4 7B68     		ldr	r3, [r7, #4]
 1999 00f6 0133     		adds	r3, r3, #1
 2000 00f8 1A78     		ldrb	r2, [r3]	@ zero_extendqisi2
 2001 00fa 144B     		ldr	r3, .L115+8
 2002 00fc 1B78     		ldrb	r3, [r3]
 2003 00fe DBB2     		uxtb	r3, r3
 2004 0100 9A42     		cmp	r2, r3
 2005 0102 03D1     		bne	.L112
1113:.\Generated_Source\PSoC5/USB_midi.c ****                 {
1114:.\Generated_Source\PSoC5/USB_midi.c ****                     /* Skip the repeated Status byte */
1115:.\Generated_Source\PSoC5/USB_midi.c ****                     i++;
 2006              		.loc 1 1115 0
 2007 0104 FB7B     		ldrb	r3, [r7, #15]	@ zero_extendqisi2
 2008 0106 0133     		adds	r3, r3, #1
 2009 0108 FB73     		strb	r3, [r7, #15]
 2010 010a 03E0     		b	.L113
 2011              	.L112:
1116:.\Generated_Source\PSoC5/USB_midi.c ****                 }
1117:.\Generated_Source\PSoC5/USB_midi.c ****                 else
1118:.\Generated_Source\PSoC5/USB_midi.c ****                 {
1119:.\Generated_Source\PSoC5/USB_midi.c ****                     /* Save Status byte for next event */
1120:.\Generated_Source\PSoC5/USB_midi.c ****                     USB_MIDI1_TxRunStat = epBuf[USB_EVENT_BYTE1];
 2012              		.loc 1 1120 0
 2013 010c 7B68     		ldr	r3, [r7, #4]
 2014 010e 5A78     		ldrb	r2, [r3, #1]	@ zero_extendqisi2
 2015 0110 0E4B     		ldr	r3, .L115+8
 2016 0112 1A70     		strb	r2, [r3]
 2017              	.L113:
1112:.\Generated_Source\PSoC5/USB_midi.c ****                 {
 2018              		.loc 1 1112 0
 2019 0114 02E0     		b	.L114
 2020              	.L111:
1121:.\Generated_Source\PSoC5/USB_midi.c ****                 }
1122:.\Generated_Source\PSoC5/USB_midi.c ****             }
1123:.\Generated_Source\PSoC5/USB_midi.c ****             else
1124:.\Generated_Source\PSoC5/USB_midi.c ****             {
1125:.\Generated_Source\PSoC5/USB_midi.c ****                 /* Clear Running Status */
1126:.\Generated_Source\PSoC5/USB_midi.c ****                 USB_MIDI1_TxRunStat = 0u;
 2021              		.loc 1 1126 0
 2022 0116 0D4B     		ldr	r3, .L115+8
 2023 0118 0022     		movs	r2, #0
 2024 011a 1A70     		strb	r2, [r3]
ARM GAS  C:\Users\LUKASC~1\AppData\Local\Temp\ccIt7ba2.s 			page 57


 2025              	.L114:
1127:.\Generated_Source\PSoC5/USB_midi.c ****             }
1128:.\Generated_Source\PSoC5/USB_midi.c **** 
1129:.\Generated_Source\PSoC5/USB_midi.c ****             /* Puts data into the MIDI TX output buffer.*/
1130:.\Generated_Source\PSoC5/USB_midi.c ****             do
1131:.\Generated_Source\PSoC5/USB_midi.c ****             {
1132:.\Generated_Source\PSoC5/USB_midi.c ****                 MIDI1_UART_PutChar(epBuf[i]);
 2026              		.loc 1 1132 0 discriminator 1
 2027 011c FB7B     		ldrb	r3, [r7, #15]	@ zero_extendqisi2
 2028 011e 7A68     		ldr	r2, [r7, #4]
 2029 0120 1344     		add	r3, r3, r2
 2030 0122 1B78     		ldrb	r3, [r3]	@ zero_extendqisi2
 2031 0124 1846     		mov	r0, r3
 2032 0126 FFF7FEFF 		bl	MIDI1_UART_PutChar
1133:.\Generated_Source\PSoC5/USB_midi.c ****                 i++;
 2033              		.loc 1 1133 0 discriminator 1
 2034 012a FB7B     		ldrb	r3, [r7, #15]	@ zero_extendqisi2
 2035 012c 0133     		adds	r3, r3, #1
 2036 012e FB73     		strb	r3, [r7, #15]
1134:.\Generated_Source\PSoC5/USB_midi.c ****             }
1135:.\Generated_Source\PSoC5/USB_midi.c ****             while (i <= len);
 2037              		.loc 1 1135 0 discriminator 1
 2038 0130 FA7B     		ldrb	r2, [r7, #15]	@ zero_extendqisi2
 2039 0132 7B7B     		ldrb	r3, [r7, #13]	@ zero_extendqisi2
 2040 0134 9A42     		cmp	r2, r3
 2041 0136 F1D9     		bls	.L114
 2042              	.L103:
1136:.\Generated_Source\PSoC5/USB_midi.c ****         }
1137:.\Generated_Source\PSoC5/USB_midi.c **** 
1138:.\Generated_Source\PSoC5/USB_midi.c ****         /* User code is required at the end of the procedure */
1139:.\Generated_Source\PSoC5/USB_midi.c ****         /* `#START MIDI1_PROCESS_OUT_END` */
1140:.\Generated_Source\PSoC5/USB_midi.c **** 
1141:.\Generated_Source\PSoC5/USB_midi.c ****         /* `#END` */
1142:.\Generated_Source\PSoC5/USB_midi.c **** 
1143:.\Generated_Source\PSoC5/USB_midi.c ****     #ifdef USB_MIDI1_PROCESS_USB_OUT_EXIT_CALLBACK
1144:.\Generated_Source\PSoC5/USB_midi.c ****         USB_MIDI1_ProcessUsbOut_ExitCallback();
 2043              		.loc 1 1144 0
 2044 0138 FFF7FEFF 		bl	USB_MIDI1_ProcessUsbOut_ExitCallback
1145:.\Generated_Source\PSoC5/USB_midi.c ****     #endif /* (USB_MIDI1_PROCESS_USB_OUT_EXIT_CALLBACK) */
1146:.\Generated_Source\PSoC5/USB_midi.c ****     }
 2045              		.loc 1 1146 0
 2046 013c 1037     		adds	r7, r7, #16
 2047              		.cfi_def_cfa_offset 8
 2048 013e BD46     		mov	sp, r7
 2049              		.cfi_def_cfa_register 13
 2050              		@ sp needed
 2051 0140 80BD     		pop	{r7, pc}
 2052              	.L116:
 2053 0142 00BF     		.align	2
 2054              	.L115:
 2055 0144 00000000 		.word	USB_MIDI_SIZE
 2056 0148 00000000 		.word	USB_MIDI1_InqFlags
 2057 014c 08000000 		.word	USB_MIDI1_TxRunStat
 2058              		.cfi_endproc
 2059              	.LFE9:
 2060              		.size	USB_MIDI1_ProcessUsbOut, .-USB_MIDI1_ProcessUsbOut
 2061              		.section	.text.USB_MIDI2_GetEvent,"ax",%progbits
ARM GAS  C:\Users\LUKASC~1\AppData\Local\Temp\ccIt7ba2.s 			page 58


 2062              		.align	2
 2063              		.global	USB_MIDI2_GetEvent
 2064              		.thumb
 2065              		.thumb_func
 2066              		.type	USB_MIDI2_GetEvent, %function
 2067              	USB_MIDI2_GetEvent:
 2068              	.LFB10:
1147:.\Generated_Source\PSoC5/USB_midi.c **** 
1148:.\Generated_Source\PSoC5/USB_midi.c **** 
1149:.\Generated_Source\PSoC5/USB_midi.c **** #if (USB_MIDI_EXT_MODE >= USB_TWO_EXT_INTRF)
1150:.\Generated_Source\PSoC5/USB_midi.c ****     /*******************************************************************************
1151:.\Generated_Source\PSoC5/USB_midi.c ****     * Function Name: USB_MIDI2_GetEvent
1152:.\Generated_Source\PSoC5/USB_midi.c ****     ****************************************************************************//**
1153:.\Generated_Source\PSoC5/USB_midi.c ****     *
1154:.\Generated_Source\PSoC5/USB_midi.c ****     *  Checks for incoming MIDI data, calls the MIDI event builder if so.
1155:.\Generated_Source\PSoC5/USB_midi.c ****     *  Returns either empty or with a complete event.
1156:.\Generated_Source\PSoC5/USB_midi.c ****     *
1157:.\Generated_Source\PSoC5/USB_midi.c ****     * \return
1158:.\Generated_Source\PSoC5/USB_midi.c ****     *   0, if no complete message
1159:.\Generated_Source\PSoC5/USB_midi.c ****     *   1 - 4, if message complete
1160:.\Generated_Source\PSoC5/USB_midi.c ****     *   MIDI_SYSEX, if start or continuation of system exclusive
1161:.\Generated_Source\PSoC5/USB_midi.c ****     *   MIDI_EOSEX, if end of system exclusive
1162:.\Generated_Source\PSoC5/USB_midi.c ****     *   0xf8 - 0xff, if single byte real time message
1163:.\Generated_Source\PSoC5/USB_midi.c ****     *
1164:.\Generated_Source\PSoC5/USB_midi.c ****     * \globalvars
1165:.\Generated_Source\PSoC5/USB_midi.c ****     *  USB_MIDI2_Event: RX status structure used to parse received
1166:.\Generated_Source\PSoC5/USB_midi.c ****     *    data.
1167:.\Generated_Source\PSoC5/USB_midi.c ****     *
1168:.\Generated_Source\PSoC5/USB_midi.c ****     *******************************************************************************/
1169:.\Generated_Source\PSoC5/USB_midi.c ****     uint8 USB_MIDI2_GetEvent(void) 
1170:.\Generated_Source\PSoC5/USB_midi.c ****     {
 2069              		.loc 1 1170 0
 2070              		.cfi_startproc
 2071              		@ args = 0, pretend = 0, frame = 8
 2072              		@ frame_needed = 1, uses_anonymous_args = 0
 2073 0000 80B5     		push	{r7, lr}
 2074              		.cfi_def_cfa_offset 8
 2075              		.cfi_offset 7, -8
 2076              		.cfi_offset 14, -4
 2077 0002 82B0     		sub	sp, sp, #8
 2078              		.cfi_def_cfa_offset 16
 2079 0004 00AF     		add	r7, sp, #0
 2080              		.cfi_def_cfa_register 7
1171:.\Generated_Source\PSoC5/USB_midi.c ****         uint8 msgRtn = 0u;
 2081              		.loc 1 1171 0
 2082 0006 0023     		movs	r3, #0
 2083 0008 FB71     		strb	r3, [r7, #7]
1172:.\Generated_Source\PSoC5/USB_midi.c ****         uint8 rxData;
1173:.\Generated_Source\PSoC5/USB_midi.c **** 
1174:.\Generated_Source\PSoC5/USB_midi.c ****         #if (MIDI2_UART_RXBUFFERSIZE >= 256u)
1175:.\Generated_Source\PSoC5/USB_midi.c ****             uint16 rxBufferRead;
1176:.\Generated_Source\PSoC5/USB_midi.c ****             #if (CY_PSOC3) /* This local variable required only for PSOC3 and large buffer */
1177:.\Generated_Source\PSoC5/USB_midi.c ****                 uint16 rxBufferWrite;
1178:.\Generated_Source\PSoC5/USB_midi.c ****             #endif /* (CY_PSOC3) */
1179:.\Generated_Source\PSoC5/USB_midi.c ****         #else
1180:.\Generated_Source\PSoC5/USB_midi.c ****             uint8 rxBufferRead;
1181:.\Generated_Source\PSoC5/USB_midi.c ****         #endif /* (MIDI2_UART_RXBUFFERSIZE >= 256) */
ARM GAS  C:\Users\LUKASC~1\AppData\Local\Temp\ccIt7ba2.s 			page 59


1182:.\Generated_Source\PSoC5/USB_midi.c **** 
1183:.\Generated_Source\PSoC5/USB_midi.c ****         uint8 rxBufferLoopDetect;
1184:.\Generated_Source\PSoC5/USB_midi.c ****         /* Read buffer loop condition to the local variable */
1185:.\Generated_Source\PSoC5/USB_midi.c ****         rxBufferLoopDetect = MIDI2_UART_rxBufferLoopDetect;
 2084              		.loc 1 1185 0
 2085 000a 224B     		ldr	r3, .L127
 2086 000c 1B78     		ldrb	r3, [r3]
 2087 000e 7B71     		strb	r3, [r7, #5]
1186:.\Generated_Source\PSoC5/USB_midi.c **** 
1187:.\Generated_Source\PSoC5/USB_midi.c ****         if ( (MIDI2_UART_rxBufferRead != MIDI2_UART_rxBufferWrite) || (rxBufferLoopDetect != 0u) )
 2088              		.loc 1 1187 0
 2089 0010 214B     		ldr	r3, .L127+4
 2090 0012 1B78     		ldrb	r3, [r3]
 2091 0014 DAB2     		uxtb	r2, r3
 2092 0016 214B     		ldr	r3, .L127+8
 2093 0018 1B78     		ldrb	r3, [r3]
 2094 001a DBB2     		uxtb	r3, r3
 2095 001c 9A42     		cmp	r2, r3
 2096 001e 02D1     		bne	.L118
 2097              		.loc 1 1187 0 is_stmt 0 discriminator 1
 2098 0020 7B79     		ldrb	r3, [r7, #5]	@ zero_extendqisi2
 2099 0022 002B     		cmp	r3, #0
 2100 0024 31D0     		beq	.L119
 2101              	.L118:
1188:.\Generated_Source\PSoC5/USB_midi.c ****         {
1189:.\Generated_Source\PSoC5/USB_midi.c ****             /* Protect variables that could change on interrupt by disabling Rx interrupt.*/
1190:.\Generated_Source\PSoC5/USB_midi.c ****             #if ((MIDI2_UART_RXBUFFERSIZE >= 256u) && (CY_PSOC3))
1191:.\Generated_Source\PSoC5/USB_midi.c ****                 CyIntDisable(MIDI2_UART_RX_VECT_NUM);
1192:.\Generated_Source\PSoC5/USB_midi.c ****             #endif /* ((MIDI2_UART_RXBUFFERSIZE >= 256u) && (CY_PSOC3)) */
1193:.\Generated_Source\PSoC5/USB_midi.c ****             rxBufferRead = MIDI2_UART_rxBufferRead;
 2102              		.loc 1 1193 0 is_stmt 1
 2103 0026 1C4B     		ldr	r3, .L127+4
 2104 0028 1B78     		ldrb	r3, [r3]
 2105 002a BB71     		strb	r3, [r7, #6]
1194:.\Generated_Source\PSoC5/USB_midi.c ****             #if ((MIDI2_UART_RXBUFFERSIZE >= 256u) && (CY_PSOC3))
1195:.\Generated_Source\PSoC5/USB_midi.c ****                 rxBufferWrite = MIDI2_UART_rxBufferWrite;
1196:.\Generated_Source\PSoC5/USB_midi.c ****                 CyIntEnable(MIDI2_UART_RX_VECT_NUM);
1197:.\Generated_Source\PSoC5/USB_midi.c ****             #endif /* ((MIDI2_UART_RXBUFFERSIZE >= 256u) && (CY_PSOC3)) */
1198:.\Generated_Source\PSoC5/USB_midi.c **** 
1199:.\Generated_Source\PSoC5/USB_midi.c ****             /* Stay here until either the buffer is empty or we have a complete message
1200:.\Generated_Source\PSoC5/USB_midi.c ****             *  in the message buffer. Note that we must use a temporary output pointer to
1201:.\Generated_Source\PSoC5/USB_midi.c ****             *  since it takes two instructions to increment with a wrap, and we can't
1202:.\Generated_Source\PSoC5/USB_midi.c ****             *  risk doing that with the real pointer and getting an interrupt in between
1203:.\Generated_Source\PSoC5/USB_midi.c ****             *  instructions.
1204:.\Generated_Source\PSoC5/USB_midi.c ****             */
1205:.\Generated_Source\PSoC5/USB_midi.c **** 
1206:.\Generated_Source\PSoC5/USB_midi.c ****             #if ((MIDI2_UART_RXBUFFERSIZE >= 256u) && (CY_PSOC3))
1207:.\Generated_Source\PSoC5/USB_midi.c ****                 while ( ((rxBufferRead != rxBufferWrite) || (rxBufferLoopDetect != 0u)) && (msgRtn 
1208:.\Generated_Source\PSoC5/USB_midi.c ****             #else
1209:.\Generated_Source\PSoC5/USB_midi.c ****                 while ( ((rxBufferRead != MIDI2_UART_rxBufferWrite) || (rxBufferLoopDetect != 0u)) 
 2106              		.loc 1 1209 0
 2107 002c 1EE0     		b	.L120
 2108              	.L125:
1210:.\Generated_Source\PSoC5/USB_midi.c ****             #endif /* ((MIDI2_UART_RXBUFFERSIZE >= 256u) && (CY_PSOC3)) */
1211:.\Generated_Source\PSoC5/USB_midi.c ****                 {
1212:.\Generated_Source\PSoC5/USB_midi.c ****                     rxData = MIDI2_UART_rxBuffer[rxBufferRead];
 2109              		.loc 1 1212 0
ARM GAS  C:\Users\LUKASC~1\AppData\Local\Temp\ccIt7ba2.s 			page 60


 2110 002e BB79     		ldrb	r3, [r7, #6]	@ zero_extendqisi2
 2111 0030 1B4A     		ldr	r2, .L127+12
 2112 0032 D35C     		ldrb	r3, [r2, r3]
 2113 0034 3B71     		strb	r3, [r7, #4]
1213:.\Generated_Source\PSoC5/USB_midi.c ****                     rxBufferRead++;
 2114              		.loc 1 1213 0
 2115 0036 BB79     		ldrb	r3, [r7, #6]	@ zero_extendqisi2
 2116 0038 0133     		adds	r3, r3, #1
 2117 003a BB71     		strb	r3, [r7, #6]
1214:.\Generated_Source\PSoC5/USB_midi.c ****                     if(rxBufferRead >= MIDI2_UART_RXBUFFERSIZE)
 2118              		.loc 1 1214 0
 2119 003c BB79     		ldrb	r3, [r7, #6]	@ zero_extendqisi2
 2120 003e FF2B     		cmp	r3, #255
 2121 0040 01D1     		bne	.L121
1215:.\Generated_Source\PSoC5/USB_midi.c ****                     {
1216:.\Generated_Source\PSoC5/USB_midi.c ****                         rxBufferRead = 0u;
 2122              		.loc 1 1216 0
 2123 0042 0023     		movs	r3, #0
 2124 0044 BB71     		strb	r3, [r7, #6]
 2125              	.L121:
1217:.\Generated_Source\PSoC5/USB_midi.c ****                     }
1218:.\Generated_Source\PSoC5/USB_midi.c **** 
1219:.\Generated_Source\PSoC5/USB_midi.c ****                     /* If loop condition was set - update real read buffer pointer
1220:.\Generated_Source\PSoC5/USB_midi.c ****                     *  to avoid overflow status
1221:.\Generated_Source\PSoC5/USB_midi.c ****                     */
1222:.\Generated_Source\PSoC5/USB_midi.c ****                     if (rxBufferLoopDetect != 0u)
 2126              		.loc 1 1222 0
 2127 0046 7B79     		ldrb	r3, [r7, #5]	@ zero_extendqisi2
 2128 0048 002B     		cmp	r3, #0
 2129 004a 05D0     		beq	.L122
1223:.\Generated_Source\PSoC5/USB_midi.c ****                     {
1224:.\Generated_Source\PSoC5/USB_midi.c ****                         MIDI2_UART_rxBufferLoopDetect = 0u;
 2130              		.loc 1 1224 0
 2131 004c 114B     		ldr	r3, .L127
 2132 004e 0022     		movs	r2, #0
 2133 0050 1A70     		strb	r2, [r3]
1225:.\Generated_Source\PSoC5/USB_midi.c ****                     #if ((MIDI2_UART_RXBUFFERSIZE >= 256u) && (CY_PSOC3))
1226:.\Generated_Source\PSoC5/USB_midi.c ****                         CyIntDisable(MIDI2_UART_RX_VECT_NUM);
1227:.\Generated_Source\PSoC5/USB_midi.c ****                     #endif /* ((MIDI2_UART_RXBUFFERSIZE >= 256u) && (CY_PSOC3)) */
1228:.\Generated_Source\PSoC5/USB_midi.c **** 
1229:.\Generated_Source\PSoC5/USB_midi.c ****                         MIDI2_UART_rxBufferRead = rxBufferRead;
 2134              		.loc 1 1229 0
 2135 0052 114A     		ldr	r2, .L127+4
 2136 0054 BB79     		ldrb	r3, [r7, #6]
 2137 0056 1370     		strb	r3, [r2]
 2138              	.L122:
1230:.\Generated_Source\PSoC5/USB_midi.c ****                     #if ((MIDI2_UART_RXBUFFERSIZE >= 256u) && (CY_PSOC3))
1231:.\Generated_Source\PSoC5/USB_midi.c ****                         CyIntEnable(MIDI2_UART_RX_VECT_NUM);
1232:.\Generated_Source\PSoC5/USB_midi.c ****                     #endif /* ((MIDI2_UART_RXBUFFERSIZE >= 256u) && (CY_PSOC3)) */
1233:.\Generated_Source\PSoC5/USB_midi.c ****                     }
1234:.\Generated_Source\PSoC5/USB_midi.c **** 
1235:.\Generated_Source\PSoC5/USB_midi.c ****                     msgRtn = USB_ProcessMidiIn(rxData,
 2139              		.loc 1 1235 0
 2140 0058 3B79     		ldrb	r3, [r7, #4]	@ zero_extendqisi2
 2141 005a 1846     		mov	r0, r3
 2142 005c 1149     		ldr	r1, .L127+16
 2143 005e FFF7FEFF 		bl	USB_ProcessMidiIn
ARM GAS  C:\Users\LUKASC~1\AppData\Local\Temp\ccIt7ba2.s 			page 61


 2144 0062 0346     		mov	r3, r0
 2145 0064 FB71     		strb	r3, [r7, #7]
1236:.\Generated_Source\PSoC5/USB_midi.c ****                                                     (USB_MIDI_RX_STATUS *)&USB_MIDI2_Event);
1237:.\Generated_Source\PSoC5/USB_midi.c **** 
1238:.\Generated_Source\PSoC5/USB_midi.c ****                     /* Read buffer loop condition to the local variable */
1239:.\Generated_Source\PSoC5/USB_midi.c ****                     rxBufferLoopDetect = MIDI2_UART_rxBufferLoopDetect;
 2146              		.loc 1 1239 0
 2147 0066 0B4B     		ldr	r3, .L127
 2148 0068 1B78     		ldrb	r3, [r3]
 2149 006a 7B71     		strb	r3, [r7, #5]
 2150              	.L120:
1209:.\Generated_Source\PSoC5/USB_midi.c ****             #endif /* ((MIDI2_UART_RXBUFFERSIZE >= 256u) && (CY_PSOC3)) */
 2151              		.loc 1 1209 0
 2152 006c 0B4B     		ldr	r3, .L127+8
 2153 006e 1B78     		ldrb	r3, [r3]
 2154 0070 DBB2     		uxtb	r3, r3
 2155 0072 BA79     		ldrb	r2, [r7, #6]	@ zero_extendqisi2
 2156 0074 9A42     		cmp	r2, r3
 2157 0076 02D1     		bne	.L123
1209:.\Generated_Source\PSoC5/USB_midi.c ****             #endif /* ((MIDI2_UART_RXBUFFERSIZE >= 256u) && (CY_PSOC3)) */
 2158              		.loc 1 1209 0 is_stmt 0 discriminator 2
 2159 0078 7B79     		ldrb	r3, [r7, #5]	@ zero_extendqisi2
 2160 007a 002B     		cmp	r3, #0
 2161 007c 02D0     		beq	.L124
 2162              	.L123:
1209:.\Generated_Source\PSoC5/USB_midi.c ****             #endif /* ((MIDI2_UART_RXBUFFERSIZE >= 256u) && (CY_PSOC3)) */
 2163              		.loc 1 1209 0 discriminator 3
 2164 007e FB79     		ldrb	r3, [r7, #7]	@ zero_extendqisi2
 2165 0080 002B     		cmp	r3, #0
 2166 0082 D4D0     		beq	.L125
 2167              	.L124:
1240:.\Generated_Source\PSoC5/USB_midi.c ****                 }
1241:.\Generated_Source\PSoC5/USB_midi.c **** 
1242:.\Generated_Source\PSoC5/USB_midi.c ****             /* Finally, update the real output pointer, then return with
1243:.\Generated_Source\PSoC5/USB_midi.c ****             *  an indication as to whether there's a complete message in the buffer.
1244:.\Generated_Source\PSoC5/USB_midi.c ****             */
1245:.\Generated_Source\PSoC5/USB_midi.c ****         #if ((MIDI2_UART_RXBUFFERSIZE >= 256u) && (CY_PSOC3))
1246:.\Generated_Source\PSoC5/USB_midi.c ****             CyIntDisable(MIDI2_UART_RX_VECT_NUM);
1247:.\Generated_Source\PSoC5/USB_midi.c ****         #endif /* ((MIDI2_UART_RXBUFFERSIZE >= 256u) && (CY_PSOC3)) */
1248:.\Generated_Source\PSoC5/USB_midi.c **** 
1249:.\Generated_Source\PSoC5/USB_midi.c ****             MIDI2_UART_rxBufferRead = rxBufferRead;
 2168              		.loc 1 1249 0 is_stmt 1
 2169 0084 044A     		ldr	r2, .L127+4
 2170 0086 BB79     		ldrb	r3, [r7, #6]
 2171 0088 1370     		strb	r3, [r2]
 2172              	.L119:
1250:.\Generated_Source\PSoC5/USB_midi.c ****         #if ((MIDI2_UART_RXBUFFERSIZE >= 256u) && (CY_PSOC3))
1251:.\Generated_Source\PSoC5/USB_midi.c ****             CyIntEnable(MIDI2_UART_RX_VECT_NUM);
1252:.\Generated_Source\PSoC5/USB_midi.c ****         #endif /* ((MIDI2_UART_RXBUFFERSIZE >= 256u) && (CY_PSOC3)) */
1253:.\Generated_Source\PSoC5/USB_midi.c ****         }
1254:.\Generated_Source\PSoC5/USB_midi.c **** 
1255:.\Generated_Source\PSoC5/USB_midi.c ****         return (msgRtn);
 2173              		.loc 1 1255 0
 2174 008a FB79     		ldrb	r3, [r7, #7]	@ zero_extendqisi2
1256:.\Generated_Source\PSoC5/USB_midi.c ****     }
 2175              		.loc 1 1256 0
 2176 008c 1846     		mov	r0, r3
ARM GAS  C:\Users\LUKASC~1\AppData\Local\Temp\ccIt7ba2.s 			page 62


 2177 008e 0837     		adds	r7, r7, #8
 2178              		.cfi_def_cfa_offset 8
 2179 0090 BD46     		mov	sp, r7
 2180              		.cfi_def_cfa_register 13
 2181              		@ sp needed
 2182 0092 80BD     		pop	{r7, pc}
 2183              	.L128:
 2184              		.align	2
 2185              	.L127:
 2186 0094 00000000 		.word	MIDI2_UART_rxBufferLoopDetect
 2187 0098 00000000 		.word	MIDI2_UART_rxBufferRead
 2188 009c 00000000 		.word	MIDI2_UART_rxBufferWrite
 2189 00a0 00000000 		.word	MIDI2_UART_rxBuffer
 2190 00a4 0C000000 		.word	USB_MIDI2_Event
 2191              		.cfi_endproc
 2192              	.LFE10:
 2193              		.size	USB_MIDI2_GetEvent, .-USB_MIDI2_GetEvent
 2194              		.section	.text.USB_MIDI2_ProcessUsbOut,"ax",%progbits
 2195              		.align	2
 2196              		.global	USB_MIDI2_ProcessUsbOut
 2197              		.thumb
 2198              		.thumb_func
 2199              		.type	USB_MIDI2_ProcessUsbOut, %function
 2200              	USB_MIDI2_ProcessUsbOut:
 2201              	.LFB11:
1257:.\Generated_Source\PSoC5/USB_midi.c **** 
1258:.\Generated_Source\PSoC5/USB_midi.c **** 
1259:.\Generated_Source\PSoC5/USB_midi.c ****     /*******************************************************************************
1260:.\Generated_Source\PSoC5/USB_midi.c ****     * Function Name: USB_MIDI2_ProcessUsbOut
1261:.\Generated_Source\PSoC5/USB_midi.c ****     ****************************************************************************//**
1262:.\Generated_Source\PSoC5/USB_midi.c ****     *
1263:.\Generated_Source\PSoC5/USB_midi.c ****     *  Process a USB MIDI output event.
1264:.\Generated_Source\PSoC5/USB_midi.c ****     *  Puts data into the MIDI TX output buffer.
1265:.\Generated_Source\PSoC5/USB_midi.c ****     *
1266:.\Generated_Source\PSoC5/USB_midi.c ****     *  \param *epBuf: pointer on MIDI event.
1267:.\Generated_Source\PSoC5/USB_midi.c ****     *
1268:.\Generated_Source\PSoC5/USB_midi.c ****     * \globalvars
1269:.\Generated_Source\PSoC5/USB_midi.c ****     *  USB_MIDI2_TxRunStat: This variable used to save the MIDI
1270:.\Generated_Source\PSoC5/USB_midi.c ****     *    status byte and skip to send the repeated status byte in subsequent event.
1271:.\Generated_Source\PSoC5/USB_midi.c ****     *  USB_MIDI2_InqFlags: The following flags are set when SysEx
1272:.\Generated_Source\PSoC5/USB_midi.c ****     *    message comes.
1273:.\Generated_Source\PSoC5/USB_midi.c ****     *  USB_INQ_SYSEX_FLAG: Non-Real Time SySEx message received.
1274:.\Generated_Source\PSoC5/USB_midi.c ****     *  USB_INQ_IDENTITY_REQ_FLAG: Identity Request received.
1275:.\Generated_Source\PSoC5/USB_midi.c ****     *    This bit should be cleared by user when Identity Reply message generated.
1276:.\Generated_Source\PSoC5/USB_midi.c ****     *
1277:.\Generated_Source\PSoC5/USB_midi.c ****     *******************************************************************************/
1278:.\Generated_Source\PSoC5/USB_midi.c ****     void USB_MIDI2_ProcessUsbOut(const uint8 epBuf[])
1279:.\Generated_Source\PSoC5/USB_midi.c ****                                                             
1280:.\Generated_Source\PSoC5/USB_midi.c ****     {
 2202              		.loc 1 1280 0
 2203              		.cfi_startproc
 2204              		@ args = 0, pretend = 0, frame = 16
 2205              		@ frame_needed = 1, uses_anonymous_args = 0
 2206 0000 80B5     		push	{r7, lr}
 2207              		.cfi_def_cfa_offset 8
 2208              		.cfi_offset 7, -8
 2209              		.cfi_offset 14, -4
ARM GAS  C:\Users\LUKASC~1\AppData\Local\Temp\ccIt7ba2.s 			page 63


 2210 0002 84B0     		sub	sp, sp, #16
 2211              		.cfi_def_cfa_offset 24
 2212 0004 00AF     		add	r7, sp, #0
 2213              		.cfi_def_cfa_register 7
 2214 0006 7860     		str	r0, [r7, #4]
1281:.\Generated_Source\PSoC5/USB_midi.c ****         uint8 cmd;
1282:.\Generated_Source\PSoC5/USB_midi.c ****         uint8 len;
1283:.\Generated_Source\PSoC5/USB_midi.c ****         uint8 i;
1284:.\Generated_Source\PSoC5/USB_midi.c **** 
1285:.\Generated_Source\PSoC5/USB_midi.c ****         /* User code is required at the beginning of the procedure */
1286:.\Generated_Source\PSoC5/USB_midi.c ****         /* `#START MIDI2_PROCESS_OUT_START` */
1287:.\Generated_Source\PSoC5/USB_midi.c **** 
1288:.\Generated_Source\PSoC5/USB_midi.c ****         /* `#END` */
1289:.\Generated_Source\PSoC5/USB_midi.c **** 
1290:.\Generated_Source\PSoC5/USB_midi.c ****     #ifdef USB_MIDI2_PROCESS_USB_OUT_ENTRY_CALLBACK
1291:.\Generated_Source\PSoC5/USB_midi.c ****         USB_MIDI2_ProcessUsbOut_EntryCallback();
 2215              		.loc 1 1291 0
 2216 0008 FFF7FEFF 		bl	USB_MIDI2_ProcessUsbOut_EntryCallback
1292:.\Generated_Source\PSoC5/USB_midi.c ****     #endif /* (USB_MIDI2_PROCESS_USB_OUT_ENTRY_CALLBACK) */
1293:.\Generated_Source\PSoC5/USB_midi.c **** 
1294:.\Generated_Source\PSoC5/USB_midi.c ****         cmd = epBuf[USB_EVENT_BYTE0] & USB_CIN_MASK;
 2217              		.loc 1 1294 0
 2218 000c 7B68     		ldr	r3, [r7, #4]
 2219 000e 1B78     		ldrb	r3, [r3]	@ zero_extendqisi2
 2220 0010 03F00F03 		and	r3, r3, #15
 2221 0014 BB73     		strb	r3, [r7, #14]
1295:.\Generated_Source\PSoC5/USB_midi.c **** 
1296:.\Generated_Source\PSoC5/USB_midi.c ****         if ((cmd != USB_RESERVED0) && (cmd != USB_RESERVED1))
 2222              		.loc 1 1296 0
 2223 0016 BB7B     		ldrb	r3, [r7, #14]	@ zero_extendqisi2
 2224 0018 002B     		cmp	r3, #0
 2225 001a 00F08D80 		beq	.L130
 2226              		.loc 1 1296 0 is_stmt 0 discriminator 1
 2227 001e BB7B     		ldrb	r3, [r7, #14]	@ zero_extendqisi2
 2228 0020 012B     		cmp	r3, #1
 2229 0022 00F08980 		beq	.L130
1297:.\Generated_Source\PSoC5/USB_midi.c ****         {
1298:.\Generated_Source\PSoC5/USB_midi.c ****             len = USB_MIDI_SIZE[cmd];
 2230              		.loc 1 1298 0 is_stmt 1
 2231 0026 BB7B     		ldrb	r3, [r7, #14]	@ zero_extendqisi2
 2232 0028 464A     		ldr	r2, .L142
 2233 002a D35C     		ldrb	r3, [r2, r3]
 2234 002c 7B73     		strb	r3, [r7, #13]
1299:.\Generated_Source\PSoC5/USB_midi.c ****             i = USB_EVENT_BYTE1;
 2235              		.loc 1 1299 0
 2236 002e 0123     		movs	r3, #1
 2237 0030 FB73     		strb	r3, [r7, #15]
1300:.\Generated_Source\PSoC5/USB_midi.c **** 
1301:.\Generated_Source\PSoC5/USB_midi.c ****             /* Universal System Exclusive message parsing */
1302:.\Generated_Source\PSoC5/USB_midi.c ****             if(cmd == USB_SYSEX)
 2238              		.loc 1 1302 0
 2239 0032 BB7B     		ldrb	r3, [r7, #14]	@ zero_extendqisi2
 2240 0034 042B     		cmp	r3, #4
 2241 0036 1BD1     		bne	.L131
1303:.\Generated_Source\PSoC5/USB_midi.c ****             {
1304:.\Generated_Source\PSoC5/USB_midi.c ****                 if((epBuf[USB_EVENT_BYTE1] == USB_MIDI_SYSEX) &&
 2242              		.loc 1 1304 0
ARM GAS  C:\Users\LUKASC~1\AppData\Local\Temp\ccIt7ba2.s 			page 64


 2243 0038 7B68     		ldr	r3, [r7, #4]
 2244 003a 0133     		adds	r3, r3, #1
 2245 003c 1B78     		ldrb	r3, [r3]	@ zero_extendqisi2
 2246 003e F02B     		cmp	r3, #240
 2247 0040 0DD1     		bne	.L132
1305:.\Generated_Source\PSoC5/USB_midi.c ****                    (epBuf[USB_EVENT_BYTE2] == USB_MIDI_SYSEX_NON_REAL_TIME))
 2248              		.loc 1 1305 0 discriminator 1
 2249 0042 7B68     		ldr	r3, [r7, #4]
 2250 0044 0233     		adds	r3, r3, #2
 2251 0046 1B78     		ldrb	r3, [r3]	@ zero_extendqisi2
1304:.\Generated_Source\PSoC5/USB_midi.c ****                    (epBuf[USB_EVENT_BYTE2] == USB_MIDI_SYSEX_NON_REAL_TIME))
 2252              		.loc 1 1304 0 discriminator 1
 2253 0048 7E2B     		cmp	r3, #126
 2254 004a 08D1     		bne	.L132
1306:.\Generated_Source\PSoC5/USB_midi.c ****                 {
1307:.\Generated_Source\PSoC5/USB_midi.c ****                     /* SySEx starts */
1308:.\Generated_Source\PSoC5/USB_midi.c ****                     USB_MIDI2_InqFlags |= USB_INQ_SYSEX_FLAG;
 2255              		.loc 1 1308 0
 2256 004c 3E4B     		ldr	r3, .L142+4
 2257 004e 1B78     		ldrb	r3, [r3]
 2258 0050 DBB2     		uxtb	r3, r3
 2259 0052 43F00103 		orr	r3, r3, #1
 2260 0056 DAB2     		uxtb	r2, r3
 2261 0058 3B4B     		ldr	r3, .L142+4
 2262 005a 1A70     		strb	r2, [r3]
 2263 005c 44E0     		b	.L134
 2264              	.L132:
1309:.\Generated_Source\PSoC5/USB_midi.c ****                 }
1310:.\Generated_Source\PSoC5/USB_midi.c ****                 else
1311:.\Generated_Source\PSoC5/USB_midi.c ****                 {
1312:.\Generated_Source\PSoC5/USB_midi.c ****                     USB_MIDI2_InqFlags &= (uint8)~USB_INQ_SYSEX_FLAG;
 2265              		.loc 1 1312 0
 2266 005e 3A4B     		ldr	r3, .L142+4
 2267 0060 1B78     		ldrb	r3, [r3]
 2268 0062 DBB2     		uxtb	r3, r3
 2269 0064 23F00103 		bic	r3, r3, #1
 2270 0068 DAB2     		uxtb	r2, r3
 2271 006a 374B     		ldr	r3, .L142+4
 2272 006c 1A70     		strb	r2, [r3]
 2273 006e 3BE0     		b	.L134
 2274              	.L131:
1313:.\Generated_Source\PSoC5/USB_midi.c ****                 }
1314:.\Generated_Source\PSoC5/USB_midi.c ****             }
1315:.\Generated_Source\PSoC5/USB_midi.c ****             else if(cmd == USB_SYSEX_ENDS_WITH1)
 2275              		.loc 1 1315 0
 2276 0070 BB7B     		ldrb	r3, [r7, #14]	@ zero_extendqisi2
 2277 0072 052B     		cmp	r3, #5
 2278 0074 08D1     		bne	.L135
1316:.\Generated_Source\PSoC5/USB_midi.c ****             {
1317:.\Generated_Source\PSoC5/USB_midi.c ****                 USB_MIDI2_InqFlags &= (uint8)~USB_INQ_SYSEX_FLAG;
 2279              		.loc 1 1317 0
 2280 0076 344B     		ldr	r3, .L142+4
 2281 0078 1B78     		ldrb	r3, [r3]
 2282 007a DBB2     		uxtb	r3, r3
 2283 007c 23F00103 		bic	r3, r3, #1
 2284 0080 DAB2     		uxtb	r2, r3
 2285 0082 314B     		ldr	r3, .L142+4
ARM GAS  C:\Users\LUKASC~1\AppData\Local\Temp\ccIt7ba2.s 			page 65


 2286 0084 1A70     		strb	r2, [r3]
 2287 0086 2FE0     		b	.L134
 2288              	.L135:
1318:.\Generated_Source\PSoC5/USB_midi.c ****             }
1319:.\Generated_Source\PSoC5/USB_midi.c ****             else if(cmd == USB_SYSEX_ENDS_WITH2)
 2289              		.loc 1 1319 0
 2290 0088 BB7B     		ldrb	r3, [r7, #14]	@ zero_extendqisi2
 2291 008a 062B     		cmp	r3, #6
 2292 008c 08D1     		bne	.L136
1320:.\Generated_Source\PSoC5/USB_midi.c ****             {
1321:.\Generated_Source\PSoC5/USB_midi.c ****                 USB_MIDI2_InqFlags &= (uint8)~USB_INQ_SYSEX_FLAG;
 2293              		.loc 1 1321 0
 2294 008e 2E4B     		ldr	r3, .L142+4
 2295 0090 1B78     		ldrb	r3, [r3]
 2296 0092 DBB2     		uxtb	r3, r3
 2297 0094 23F00103 		bic	r3, r3, #1
 2298 0098 DAB2     		uxtb	r2, r3
 2299 009a 2B4B     		ldr	r3, .L142+4
 2300 009c 1A70     		strb	r2, [r3]
 2301 009e 23E0     		b	.L134
 2302              	.L136:
1322:.\Generated_Source\PSoC5/USB_midi.c ****             }
1323:.\Generated_Source\PSoC5/USB_midi.c ****             else if(cmd == USB_SYSEX_ENDS_WITH3)
 2303              		.loc 1 1323 0
 2304 00a0 BB7B     		ldrb	r3, [r7, #14]	@ zero_extendqisi2
 2305 00a2 072B     		cmp	r3, #7
 2306 00a4 20D1     		bne	.L134
1324:.\Generated_Source\PSoC5/USB_midi.c ****             {
1325:.\Generated_Source\PSoC5/USB_midi.c ****                 /* Identify Request support */
1326:.\Generated_Source\PSoC5/USB_midi.c ****                 if ((USB_MIDI2_InqFlags & USB_INQ_SYSEX_FLAG) != 0u)
 2307              		.loc 1 1326 0
 2308 00a6 284B     		ldr	r3, .L142+4
 2309 00a8 1B78     		ldrb	r3, [r3]
 2310 00aa DBB2     		uxtb	r3, r3
 2311 00ac 03F00103 		and	r3, r3, #1
 2312 00b0 002B     		cmp	r3, #0
 2313 00b2 19D0     		beq	.L134
1327:.\Generated_Source\PSoC5/USB_midi.c ****                 {
1328:.\Generated_Source\PSoC5/USB_midi.c ****                     USB_MIDI2_InqFlags &= (uint8)~USB_INQ_SYSEX_FLAG;
 2314              		.loc 1 1328 0
 2315 00b4 244B     		ldr	r3, .L142+4
 2316 00b6 1B78     		ldrb	r3, [r3]
 2317 00b8 DBB2     		uxtb	r3, r3
 2318 00ba 23F00103 		bic	r3, r3, #1
 2319 00be DAB2     		uxtb	r2, r3
 2320 00c0 214B     		ldr	r3, .L142+4
 2321 00c2 1A70     		strb	r2, [r3]
1329:.\Generated_Source\PSoC5/USB_midi.c **** 
1330:.\Generated_Source\PSoC5/USB_midi.c ****                     if((epBuf[USB_EVENT_BYTE1] == USB_MIDI_SYSEX_GEN_INFORMATION) &&
 2322              		.loc 1 1330 0
 2323 00c4 7B68     		ldr	r3, [r7, #4]
 2324 00c6 0133     		adds	r3, r3, #1
 2325 00c8 1B78     		ldrb	r3, [r3]	@ zero_extendqisi2
 2326 00ca 062B     		cmp	r3, #6
 2327 00cc 0CD1     		bne	.L134
1331:.\Generated_Source\PSoC5/USB_midi.c ****                        (epBuf[USB_EVENT_BYTE2] == USB_MIDI_SYSEX_IDENTITY_REQ))
 2328              		.loc 1 1331 0 discriminator 1
ARM GAS  C:\Users\LUKASC~1\AppData\Local\Temp\ccIt7ba2.s 			page 66


 2329 00ce 7B68     		ldr	r3, [r7, #4]
 2330 00d0 0233     		adds	r3, r3, #2
 2331 00d2 1B78     		ldrb	r3, [r3]	@ zero_extendqisi2
1330:.\Generated_Source\PSoC5/USB_midi.c ****                        (epBuf[USB_EVENT_BYTE2] == USB_MIDI_SYSEX_IDENTITY_REQ))
 2332              		.loc 1 1330 0 discriminator 1
 2333 00d4 012B     		cmp	r3, #1
 2334 00d6 07D1     		bne	.L134
1332:.\Generated_Source\PSoC5/USB_midi.c ****                     {   /* Set the flag about received the Identity Request.
1333:.\Generated_Source\PSoC5/USB_midi.c ****                         *  The Identity Reply message may be send by user code.
1334:.\Generated_Source\PSoC5/USB_midi.c ****                         */
1335:.\Generated_Source\PSoC5/USB_midi.c ****                         USB_MIDI2_InqFlags |= USB_INQ_IDENTITY_REQ_FLAG;
 2335              		.loc 1 1335 0
 2336 00d8 1B4B     		ldr	r3, .L142+4
 2337 00da 1B78     		ldrb	r3, [r3]
 2338 00dc DBB2     		uxtb	r3, r3
 2339 00de 43F00203 		orr	r3, r3, #2
 2340 00e2 DAB2     		uxtb	r2, r3
 2341 00e4 184B     		ldr	r3, .L142+4
 2342 00e6 1A70     		strb	r2, [r3]
 2343              	.L134:
1336:.\Generated_Source\PSoC5/USB_midi.c ****                     }
1337:.\Generated_Source\PSoC5/USB_midi.c ****                 }
1338:.\Generated_Source\PSoC5/USB_midi.c ****             }
1339:.\Generated_Source\PSoC5/USB_midi.c ****             else /* Do nothing for other command */
1340:.\Generated_Source\PSoC5/USB_midi.c ****             {
1341:.\Generated_Source\PSoC5/USB_midi.c ****             }
1342:.\Generated_Source\PSoC5/USB_midi.c **** 
1343:.\Generated_Source\PSoC5/USB_midi.c ****             /* Running Status for Voice and Mode messages only. */
1344:.\Generated_Source\PSoC5/USB_midi.c ****             if ((cmd >= USB_NOTE_OFF) && ( cmd <= USB_PITCH_BEND_CHANGE))
 2344              		.loc 1 1344 0
 2345 00e8 BB7B     		ldrb	r3, [r7, #14]	@ zero_extendqisi2
 2346 00ea 072B     		cmp	r3, #7
 2347 00ec 13D9     		bls	.L138
 2348              		.loc 1 1344 0 is_stmt 0 discriminator 1
 2349 00ee BB7B     		ldrb	r3, [r7, #14]	@ zero_extendqisi2
 2350 00f0 0E2B     		cmp	r3, #14
 2351 00f2 10D8     		bhi	.L138
1345:.\Generated_Source\PSoC5/USB_midi.c ****             {
1346:.\Generated_Source\PSoC5/USB_midi.c ****                 if (USB_MIDI2_TxRunStat == epBuf[USB_EVENT_BYTE1])
 2352              		.loc 1 1346 0 is_stmt 1
 2353 00f4 7B68     		ldr	r3, [r7, #4]
 2354 00f6 0133     		adds	r3, r3, #1
 2355 00f8 1A78     		ldrb	r2, [r3]	@ zero_extendqisi2
 2356 00fa 144B     		ldr	r3, .L142+8
 2357 00fc 1B78     		ldrb	r3, [r3]
 2358 00fe DBB2     		uxtb	r3, r3
 2359 0100 9A42     		cmp	r2, r3
 2360 0102 03D1     		bne	.L139
1347:.\Generated_Source\PSoC5/USB_midi.c ****                 {   /* Skip the repeated Status byte */
1348:.\Generated_Source\PSoC5/USB_midi.c ****                     i++;
 2361              		.loc 1 1348 0
 2362 0104 FB7B     		ldrb	r3, [r7, #15]	@ zero_extendqisi2
 2363 0106 0133     		adds	r3, r3, #1
 2364 0108 FB73     		strb	r3, [r7, #15]
 2365 010a 03E0     		b	.L140
 2366              	.L139:
1349:.\Generated_Source\PSoC5/USB_midi.c ****                 }
ARM GAS  C:\Users\LUKASC~1\AppData\Local\Temp\ccIt7ba2.s 			page 67


1350:.\Generated_Source\PSoC5/USB_midi.c ****                 else
1351:.\Generated_Source\PSoC5/USB_midi.c ****                 {   /* Save Status byte for next event */
1352:.\Generated_Source\PSoC5/USB_midi.c ****                     USB_MIDI2_TxRunStat = epBuf[USB_EVENT_BYTE1];
 2367              		.loc 1 1352 0
 2368 010c 7B68     		ldr	r3, [r7, #4]
 2369 010e 5A78     		ldrb	r2, [r3, #1]	@ zero_extendqisi2
 2370 0110 0E4B     		ldr	r3, .L142+8
 2371 0112 1A70     		strb	r2, [r3]
 2372              	.L140:
1346:.\Generated_Source\PSoC5/USB_midi.c ****                 {   /* Skip the repeated Status byte */
 2373              		.loc 1 1346 0
 2374 0114 02E0     		b	.L141
 2375              	.L138:
1353:.\Generated_Source\PSoC5/USB_midi.c ****                 }
1354:.\Generated_Source\PSoC5/USB_midi.c ****             }
1355:.\Generated_Source\PSoC5/USB_midi.c ****             else
1356:.\Generated_Source\PSoC5/USB_midi.c ****             {   /* Clear Running Status */
1357:.\Generated_Source\PSoC5/USB_midi.c ****                 USB_MIDI2_TxRunStat = 0u;
 2376              		.loc 1 1357 0
 2377 0116 0D4B     		ldr	r3, .L142+8
 2378 0118 0022     		movs	r2, #0
 2379 011a 1A70     		strb	r2, [r3]
 2380              	.L141:
1358:.\Generated_Source\PSoC5/USB_midi.c ****             }
1359:.\Generated_Source\PSoC5/USB_midi.c **** 
1360:.\Generated_Source\PSoC5/USB_midi.c ****             /* Puts data into the MIDI TX output buffer.*/
1361:.\Generated_Source\PSoC5/USB_midi.c ****             do
1362:.\Generated_Source\PSoC5/USB_midi.c ****             {
1363:.\Generated_Source\PSoC5/USB_midi.c ****                 MIDI2_UART_PutChar(epBuf[i]);
 2381              		.loc 1 1363 0 discriminator 1
 2382 011c FB7B     		ldrb	r3, [r7, #15]	@ zero_extendqisi2
 2383 011e 7A68     		ldr	r2, [r7, #4]
 2384 0120 1344     		add	r3, r3, r2
 2385 0122 1B78     		ldrb	r3, [r3]	@ zero_extendqisi2
 2386 0124 1846     		mov	r0, r3
 2387 0126 FFF7FEFF 		bl	MIDI2_UART_PutChar
1364:.\Generated_Source\PSoC5/USB_midi.c ****                 i++;
 2388              		.loc 1 1364 0 discriminator 1
 2389 012a FB7B     		ldrb	r3, [r7, #15]	@ zero_extendqisi2
 2390 012c 0133     		adds	r3, r3, #1
 2391 012e FB73     		strb	r3, [r7, #15]
1365:.\Generated_Source\PSoC5/USB_midi.c ****             }
1366:.\Generated_Source\PSoC5/USB_midi.c ****             while (i <= len);
 2392              		.loc 1 1366 0 discriminator 1
 2393 0130 FA7B     		ldrb	r2, [r7, #15]	@ zero_extendqisi2
 2394 0132 7B7B     		ldrb	r3, [r7, #13]	@ zero_extendqisi2
 2395 0134 9A42     		cmp	r2, r3
 2396 0136 F1D9     		bls	.L141
 2397              	.L130:
1367:.\Generated_Source\PSoC5/USB_midi.c ****         }
1368:.\Generated_Source\PSoC5/USB_midi.c **** 
1369:.\Generated_Source\PSoC5/USB_midi.c ****         /* User code is required at the end of the procedure */
1370:.\Generated_Source\PSoC5/USB_midi.c ****         /* `#START MIDI2_PROCESS_OUT_END` */
1371:.\Generated_Source\PSoC5/USB_midi.c **** 
1372:.\Generated_Source\PSoC5/USB_midi.c ****         /* `#END` */
1373:.\Generated_Source\PSoC5/USB_midi.c **** 
1374:.\Generated_Source\PSoC5/USB_midi.c ****     #ifdef USB_MIDI2_PROCESS_USB_OUT_EXIT_CALLBACK
ARM GAS  C:\Users\LUKASC~1\AppData\Local\Temp\ccIt7ba2.s 			page 68


1375:.\Generated_Source\PSoC5/USB_midi.c ****         USB_MIDI2_ProcessUsbOut_ExitCallback();
 2398              		.loc 1 1375 0
 2399 0138 FFF7FEFF 		bl	USB_MIDI2_ProcessUsbOut_ExitCallback
1376:.\Generated_Source\PSoC5/USB_midi.c ****     #endif /* (USB_MIDI2_PROCESS_USB_OUT_EXIT_CALLBACK) */
1377:.\Generated_Source\PSoC5/USB_midi.c ****     }
 2400              		.loc 1 1377 0
 2401 013c 1037     		adds	r7, r7, #16
 2402              		.cfi_def_cfa_offset 8
 2403 013e BD46     		mov	sp, r7
 2404              		.cfi_def_cfa_register 13
 2405              		@ sp needed
 2406 0140 80BD     		pop	{r7, pc}
 2407              	.L143:
 2408 0142 00BF     		.align	2
 2409              	.L142:
 2410 0144 00000000 		.word	USB_MIDI_SIZE
 2411 0148 00000000 		.word	USB_MIDI2_InqFlags
 2412 014c 14000000 		.word	USB_MIDI2_TxRunStat
 2413              		.cfi_endproc
 2414              	.LFE11:
 2415              		.size	USB_MIDI2_ProcessUsbOut, .-USB_MIDI2_ProcessUsbOut
 2416              		.text
 2417              	.Letext0:
 2418              		.file 2 ".\\Generated_Source\\PSoC5\\cytypes.h"
 2419              		.file 3 ".\\Generated_Source\\PSoC5\\USB.h"
 2420              		.file 4 ".\\Generated_Source\\PSoC5\\USB_midi.h"
 2421              		.file 5 ".\\Generated_Source\\PSoC5\\MIDI1_UART.h"
 2422              		.file 6 ".\\Generated_Source\\PSoC5\\MIDI2_UART.h"
 2423              		.file 7 ".\\Generated_Source\\PSoC5\\USB_pvt.h"