ARM GAS  C:\Users\LUKASC~1\AppData\Local\Temp\ccywSTdI.s 			page 1


   1              		.syntax unified
   2              		.cpu cortex-m3
   3              		.fpu softvfp
   4              		.eabi_attribute 20, 1
   5              		.eabi_attribute 21, 1
   6              		.eabi_attribute 23, 3
   7              		.eabi_attribute 24, 1
   8              		.eabi_attribute 25, 1
   9              		.eabi_attribute 26, 1
  10              		.eabi_attribute 30, 6
  11              		.eabi_attribute 34, 1
  12              		.eabi_attribute 18, 4
  13              		.thumb
  14              		.file	"USB_std.c"
  15              		.text
  16              	.Ltext0:
  17              		.cfi_sections	.debug_frame
  18              		.section	.text.USB_HandleStandardRqst,"ax",%progbits
  19              		.align	2
  20              		.global	USB_HandleStandardRqst
  21              		.thumb
  22              		.thumb_func
  23              		.type	USB_HandleStandardRqst, %function
  24              	USB_HandleStandardRqst:
  25              	.LFB0:
  26              		.file 1 ".\\Generated_Source\\PSoC5\\USB_std.c"
   1:.\Generated_Source\PSoC5/USB_std.c **** /***************************************************************************//**
   2:.\Generated_Source\PSoC5/USB_std.c **** * \file USB_std.c
   3:.\Generated_Source\PSoC5/USB_std.c **** * \version 3.0
   4:.\Generated_Source\PSoC5/USB_std.c **** *
   5:.\Generated_Source\PSoC5/USB_std.c **** * \brief
   6:.\Generated_Source\PSoC5/USB_std.c **** *  This file contains the USB Standard request handler.
   7:.\Generated_Source\PSoC5/USB_std.c **** *
   8:.\Generated_Source\PSoC5/USB_std.c **** ********************************************************************************
   9:.\Generated_Source\PSoC5/USB_std.c **** * \copyright
  10:.\Generated_Source\PSoC5/USB_std.c **** * Copyright 2008-2015, Cypress Semiconductor Corporation.  All rights reserved.
  11:.\Generated_Source\PSoC5/USB_std.c **** * You may use this file only in accordance with the license, terms, conditions,
  12:.\Generated_Source\PSoC5/USB_std.c **** * disclaimers, and limitations in the end user license agreement accompanying
  13:.\Generated_Source\PSoC5/USB_std.c **** * the software package with which this file was provided.
  14:.\Generated_Source\PSoC5/USB_std.c **** *******************************************************************************/
  15:.\Generated_Source\PSoC5/USB_std.c **** 
  16:.\Generated_Source\PSoC5/USB_std.c **** #include "USB_pvt.h"
  17:.\Generated_Source\PSoC5/USB_std.c **** 
  18:.\Generated_Source\PSoC5/USB_std.c **** /***************************************
  19:.\Generated_Source\PSoC5/USB_std.c **** *   Static data allocation
  20:.\Generated_Source\PSoC5/USB_std.c **** ***************************************/
  21:.\Generated_Source\PSoC5/USB_std.c **** 
  22:.\Generated_Source\PSoC5/USB_std.c **** #if defined(USB_ENABLE_FWSN_STRING)
  23:.\Generated_Source\PSoC5/USB_std.c ****     static volatile uint8* USB_fwSerialNumberStringDescriptor;
  24:.\Generated_Source\PSoC5/USB_std.c ****     static volatile uint8  USB_snStringConfirm = USB_FALSE;
  25:.\Generated_Source\PSoC5/USB_std.c **** #endif  /* (USB_ENABLE_FWSN_STRING) */
  26:.\Generated_Source\PSoC5/USB_std.c **** 
  27:.\Generated_Source\PSoC5/USB_std.c **** #if defined(USB_ENABLE_FWSN_STRING)
  28:.\Generated_Source\PSoC5/USB_std.c ****     /***************************************************************************
  29:.\Generated_Source\PSoC5/USB_std.c ****     * Function Name: USB_SerialNumString
  30:.\Generated_Source\PSoC5/USB_std.c ****     ************************************************************************//**
  31:.\Generated_Source\PSoC5/USB_std.c ****     *
ARM GAS  C:\Users\LUKASC~1\AppData\Local\Temp\ccywSTdI.s 			page 2


  32:.\Generated_Source\PSoC5/USB_std.c ****     *  This function is available only when the User Call Back option in the 
  33:.\Generated_Source\PSoC5/USB_std.c ****     *  Serial Number String descriptor properties is selected. Application 
  34:.\Generated_Source\PSoC5/USB_std.c ****     *  firmware can provide the source of the USB device serial number string 
  35:.\Generated_Source\PSoC5/USB_std.c ****     *  descriptor during run time. The default string is used if the application 
  36:.\Generated_Source\PSoC5/USB_std.c ****     *  firmware does not use this function or sets the wrong string descriptor.
  37:.\Generated_Source\PSoC5/USB_std.c ****     *
  38:.\Generated_Source\PSoC5/USB_std.c ****     *  \param snString:  Pointer to the user-defined string descriptor. The 
  39:.\Generated_Source\PSoC5/USB_std.c ****     *  string descriptor should meet the Universal Serial Bus Specification 
  40:.\Generated_Source\PSoC5/USB_std.c ****     *  revision 2.0 chapter 9.6.7
  41:.\Generated_Source\PSoC5/USB_std.c ****     *  Offset|Size|Value|Description
  42:.\Generated_Source\PSoC5/USB_std.c ****     *  ------|----|------|---------------------------------
  43:.\Generated_Source\PSoC5/USB_std.c ****     *  0     |1   |N     |Size of this descriptor in bytes
  44:.\Generated_Source\PSoC5/USB_std.c ****     *  1     |1   |0x03  |STRING Descriptor Type
  45:.\Generated_Source\PSoC5/USB_std.c ****     *  2     |N-2 |Number|UNICODE encoded string
  46:.\Generated_Source\PSoC5/USB_std.c ****     *  
  47:.\Generated_Source\PSoC5/USB_std.c ****     * *For example:* uint8 snString[16]={0x0E,0x03,'F',0,'W',0,'S',0,'N',0,'0',0,'1',0};
  48:.\Generated_Source\PSoC5/USB_std.c ****     *
  49:.\Generated_Source\PSoC5/USB_std.c ****     * \reentrant
  50:.\Generated_Source\PSoC5/USB_std.c ****     *  No.
  51:.\Generated_Source\PSoC5/USB_std.c ****     *
  52:.\Generated_Source\PSoC5/USB_std.c ****     ***************************************************************************/
  53:.\Generated_Source\PSoC5/USB_std.c ****     void  USB_SerialNumString(uint8 snString[]) 
  54:.\Generated_Source\PSoC5/USB_std.c ****     {
  55:.\Generated_Source\PSoC5/USB_std.c ****         USB_snStringConfirm = USB_FALSE;
  56:.\Generated_Source\PSoC5/USB_std.c ****         
  57:.\Generated_Source\PSoC5/USB_std.c ****         if (snString != NULL)
  58:.\Generated_Source\PSoC5/USB_std.c ****         {
  59:.\Generated_Source\PSoC5/USB_std.c ****             /* Check descriptor validation */
  60:.\Generated_Source\PSoC5/USB_std.c ****             if ((snString[0u] > 1u) && (snString[1u] == USB_DESCR_STRING))
  61:.\Generated_Source\PSoC5/USB_std.c ****             {
  62:.\Generated_Source\PSoC5/USB_std.c ****                 USB_fwSerialNumberStringDescriptor = snString;
  63:.\Generated_Source\PSoC5/USB_std.c ****                 USB_snStringConfirm = USB_TRUE;
  64:.\Generated_Source\PSoC5/USB_std.c ****             }
  65:.\Generated_Source\PSoC5/USB_std.c ****         }
  66:.\Generated_Source\PSoC5/USB_std.c ****     }
  67:.\Generated_Source\PSoC5/USB_std.c **** #endif  /* USB_ENABLE_FWSN_STRING */
  68:.\Generated_Source\PSoC5/USB_std.c **** 
  69:.\Generated_Source\PSoC5/USB_std.c **** 
  70:.\Generated_Source\PSoC5/USB_std.c **** /*******************************************************************************
  71:.\Generated_Source\PSoC5/USB_std.c **** * Function Name: USB_HandleStandardRqst
  72:.\Generated_Source\PSoC5/USB_std.c **** ****************************************************************************//**
  73:.\Generated_Source\PSoC5/USB_std.c **** *
  74:.\Generated_Source\PSoC5/USB_std.c **** *  This Routine dispatches standard requests
  75:.\Generated_Source\PSoC5/USB_std.c **** *
  76:.\Generated_Source\PSoC5/USB_std.c **** *
  77:.\Generated_Source\PSoC5/USB_std.c **** * \return
  78:.\Generated_Source\PSoC5/USB_std.c **** *  TRUE if request handled.
  79:.\Generated_Source\PSoC5/USB_std.c **** *
  80:.\Generated_Source\PSoC5/USB_std.c **** * \reentrant
  81:.\Generated_Source\PSoC5/USB_std.c **** *  No.
  82:.\Generated_Source\PSoC5/USB_std.c **** *
  83:.\Generated_Source\PSoC5/USB_std.c **** *******************************************************************************/
  84:.\Generated_Source\PSoC5/USB_std.c **** uint8 USB_HandleStandardRqst(void) 
  85:.\Generated_Source\PSoC5/USB_std.c **** {
  27              		.loc 1 85 0
  28              		.cfi_startproc
  29              		@ args = 0, pretend = 0, frame = 24
ARM GAS  C:\Users\LUKASC~1\AppData\Local\Temp\ccywSTdI.s 			page 3


  30              		@ frame_needed = 1, uses_anonymous_args = 0
  31 0000 80B5     		push	{r7, lr}
  32              		.cfi_def_cfa_offset 8
  33              		.cfi_offset 7, -8
  34              		.cfi_offset 14, -4
  35 0002 86B0     		sub	sp, sp, #24
  36              		.cfi_def_cfa_offset 32
  37 0004 00AF     		add	r7, sp, #0
  38              		.cfi_def_cfa_register 7
  86:.\Generated_Source\PSoC5/USB_std.c ****     uint8 requestHandled = USB_FALSE;
  39              		.loc 1 86 0
  40 0006 0023     		movs	r3, #0
  41 0008 FB75     		strb	r3, [r7, #23]
  87:.\Generated_Source\PSoC5/USB_std.c ****     uint8 interfaceNumber;
  88:.\Generated_Source\PSoC5/USB_std.c ****     uint8 configurationN;
  89:.\Generated_Source\PSoC5/USB_std.c ****     uint8 bmRequestType = USB_bmRequestTypeReg;
  42              		.loc 1 89 0
  43 000a 9D4B     		ldr	r3, .L61
  44 000c 1B78     		ldrb	r3, [r3]
  45 000e FB71     		strb	r3, [r7, #7]
  90:.\Generated_Source\PSoC5/USB_std.c **** 
  91:.\Generated_Source\PSoC5/USB_std.c **** #if defined(USB_ENABLE_STRINGS)
  92:.\Generated_Source\PSoC5/USB_std.c ****     volatile uint8 *pStr = 0u;
  46              		.loc 1 92 0
  47 0010 0023     		movs	r3, #0
  48 0012 3B61     		str	r3, [r7, #16]
  93:.\Generated_Source\PSoC5/USB_std.c ****     #if defined(USB_ENABLE_DESCRIPTOR_STRINGS)
  94:.\Generated_Source\PSoC5/USB_std.c ****         uint8 nStr;
  95:.\Generated_Source\PSoC5/USB_std.c ****         uint8 descrLength;
  96:.\Generated_Source\PSoC5/USB_std.c ****     #endif /* (USB_ENABLE_DESCRIPTOR_STRINGS) */
  97:.\Generated_Source\PSoC5/USB_std.c **** #endif /* (USB_ENABLE_STRINGS) */
  98:.\Generated_Source\PSoC5/USB_std.c ****     
  99:.\Generated_Source\PSoC5/USB_std.c ****     static volatile uint8 USB_tBuffer[USB_STATUS_LENGTH_MAX];
 100:.\Generated_Source\PSoC5/USB_std.c ****     const T_USB_LUT CYCODE *pTmp;
 101:.\Generated_Source\PSoC5/USB_std.c **** 
 102:.\Generated_Source\PSoC5/USB_std.c ****     USB_currentTD.count = 0u;
  49              		.loc 1 102 0
  50 0014 9B4B     		ldr	r3, .L61+4
  51 0016 0022     		movs	r2, #0
  52 0018 1A80     		strh	r2, [r3]	@ movhi
 103:.\Generated_Source\PSoC5/USB_std.c **** 
 104:.\Generated_Source\PSoC5/USB_std.c ****     if (USB_RQST_DIR_D2H == (bmRequestType & USB_RQST_DIR_MASK))
  53              		.loc 1 104 0
  54 001a FB79     		ldrb	r3, [r7, #7]	@ zero_extendqisi2
  55 001c 5BB2     		sxtb	r3, r3
  56 001e 002B     		cmp	r3, #0
  57 0020 80F20481 		bge	.L2
 105:.\Generated_Source\PSoC5/USB_std.c ****     {
 106:.\Generated_Source\PSoC5/USB_std.c ****         /* Control Read */
 107:.\Generated_Source\PSoC5/USB_std.c ****         switch (USB_bRequestReg)
  58              		.loc 1 107 0
  59 0024 964B     		ldr	r3, .L61
  60 0026 5B78     		ldrb	r3, [r3, #1]
  61 0028 DBB2     		uxtb	r3, r3
  62 002a 0A2B     		cmp	r3, #10
  63 002c 00F2FC80 		bhi	.L57
  64 0030 01A2     		adr	r2, .L5
ARM GAS  C:\Users\LUKASC~1\AppData\Local\Temp\ccywSTdI.s 			page 4


  65 0032 52F823F0 		ldr	pc, [r2, r3, lsl #2]
  66 0036 00BF     		.p2align 2
  67              	.L5:
  68 0038 81010000 		.word	.L4+1
  69 003c 29020000 		.word	.L57+1
  70 0040 29020000 		.word	.L57+1
  71 0044 29020000 		.word	.L57+1
  72 0048 29020000 		.word	.L57+1
  73 004c 29020000 		.word	.L57+1
  74 0050 65000000 		.word	.L6+1
  75 0054 29020000 		.word	.L57+1
  76 0058 F3010000 		.word	.L7+1
  77 005c 29020000 		.word	.L57+1
  78 0060 09020000 		.word	.L8+1
  79              		.p2align 1
  80              	.L6:
 108:.\Generated_Source\PSoC5/USB_std.c ****         {
 109:.\Generated_Source\PSoC5/USB_std.c ****             case USB_GET_DESCRIPTOR:
 110:.\Generated_Source\PSoC5/USB_std.c ****                 if (USB_DESCR_DEVICE ==USB_wValueHiReg)
  81              		.loc 1 110 0
  82 0064 864B     		ldr	r3, .L61
  83 0066 DB78     		ldrb	r3, [r3, #3]
  84 0068 DBB2     		uxtb	r3, r3
  85 006a 012B     		cmp	r3, #1
  86 006c 0ED1     		bne	.L9
 111:.\Generated_Source\PSoC5/USB_std.c ****                 {
 112:.\Generated_Source\PSoC5/USB_std.c ****                     pTmp = USB_GetDeviceTablePtr();
  87              		.loc 1 112 0
  88 006e FFF7FEFF 		bl	USB_GetDeviceTablePtr
  89 0072 B860     		str	r0, [r7, #8]
 113:.\Generated_Source\PSoC5/USB_std.c ****                     USB_currentTD.pData = (volatile uint8 *)pTmp->p_list;
  90              		.loc 1 113 0
  91 0074 BB68     		ldr	r3, [r7, #8]
  92 0076 5B68     		ldr	r3, [r3, #4]
  93 0078 824A     		ldr	r2, .L61+4
  94 007a 5360     		str	r3, [r2, #4]
 114:.\Generated_Source\PSoC5/USB_std.c ****                     USB_currentTD.count = USB_DEVICE_DESCR_LENGTH;
  95              		.loc 1 114 0
  96 007c 814B     		ldr	r3, .L61+4
  97 007e 1222     		movs	r2, #18
  98 0080 1A80     		strh	r2, [r3]	@ movhi
 115:.\Generated_Source\PSoC5/USB_std.c ****                     
 116:.\Generated_Source\PSoC5/USB_std.c ****                     requestHandled  = USB_InitControlRead();
  99              		.loc 1 116 0
 100 0082 FFF7FEFF 		bl	USB_InitControlRead
 101 0086 0346     		mov	r3, r0
 102 0088 FB75     		strb	r3, [r7, #23]
 103 008a 78E0     		b	.L10
 104              	.L9:
 117:.\Generated_Source\PSoC5/USB_std.c ****                 }
 118:.\Generated_Source\PSoC5/USB_std.c ****                 else if (USB_DESCR_CONFIG == USB_wValueHiReg)
 105              		.loc 1 118 0
 106 008c 7C4B     		ldr	r3, .L61
 107 008e DB78     		ldrb	r3, [r3, #3]
 108 0090 DBB2     		uxtb	r3, r3
 109 0092 022B     		cmp	r3, #2
 110 0094 24D1     		bne	.L11
ARM GAS  C:\Users\LUKASC~1\AppData\Local\Temp\ccywSTdI.s 			page 5


 119:.\Generated_Source\PSoC5/USB_std.c ****                 {
 120:.\Generated_Source\PSoC5/USB_std.c ****                     pTmp = USB_GetConfigTablePtr((uint8) USB_wValueLoReg);
 111              		.loc 1 120 0
 112 0096 7A4B     		ldr	r3, .L61
 113 0098 9B78     		ldrb	r3, [r3, #2]
 114 009a DBB2     		uxtb	r3, r3
 115 009c 1846     		mov	r0, r3
 116 009e FFF7FEFF 		bl	USB_GetConfigTablePtr
 117 00a2 B860     		str	r0, [r7, #8]
 121:.\Generated_Source\PSoC5/USB_std.c ****                     
 122:.\Generated_Source\PSoC5/USB_std.c ****                     /* Verify that requested descriptor exists */
 123:.\Generated_Source\PSoC5/USB_std.c ****                     if (pTmp != NULL)
 118              		.loc 1 123 0
 119 00a4 BB68     		ldr	r3, [r7, #8]
 120 00a6 002B     		cmp	r3, #0
 121 00a8 69D0     		beq	.L10
 124:.\Generated_Source\PSoC5/USB_std.c ****                     {
 125:.\Generated_Source\PSoC5/USB_std.c ****                         USB_currentTD.pData = (volatile uint8 *)pTmp->p_list;
 122              		.loc 1 125 0
 123 00aa BB68     		ldr	r3, [r7, #8]
 124 00ac 5B68     		ldr	r3, [r3, #4]
 125 00ae 754A     		ldr	r2, .L61+4
 126 00b0 5360     		str	r3, [r2, #4]
 126:.\Generated_Source\PSoC5/USB_std.c ****                         USB_currentTD.count = (uint16)((uint16)(USB_currentTD.pData)[USB_CONFIG_DES
 127              		.loc 1 126 0
 128 00b2 744B     		ldr	r3, .L61+4
 129 00b4 5B68     		ldr	r3, [r3, #4]
 130 00b6 0333     		adds	r3, r3, #3
 131 00b8 1B78     		ldrb	r3, [r3]
 132 00ba DBB2     		uxtb	r3, r3
 133 00bc 9BB2     		uxth	r3, r3
 134 00be 1B02     		lsls	r3, r3, #8
 135 00c0 9AB2     		uxth	r2, r3
 127:.\Generated_Source\PSoC5/USB_std.c ****                                                                             (USB_currentTD.pData)[U
 136              		.loc 1 127 0
 137 00c2 704B     		ldr	r3, .L61+4
 138 00c4 5B68     		ldr	r3, [r3, #4]
 139 00c6 0233     		adds	r3, r3, #2
 140 00c8 1B78     		ldrb	r3, [r3]
 141 00ca DBB2     		uxtb	r3, r3
 126:.\Generated_Source\PSoC5/USB_std.c ****                         USB_currentTD.count = (uint16)((uint16)(USB_currentTD.pData)[USB_CONFIG_DES
 142              		.loc 1 126 0
 143 00cc 9BB2     		uxth	r3, r3
 144 00ce 1343     		orrs	r3, r3, r2
 145 00d0 9AB2     		uxth	r2, r3
 146 00d2 6C4B     		ldr	r3, .L61+4
 147 00d4 1A80     		strh	r2, [r3]	@ movhi
 128:.\Generated_Source\PSoC5/USB_std.c ****                         requestHandled  = USB_InitControlRead();
 148              		.loc 1 128 0
 149 00d6 FFF7FEFF 		bl	USB_InitControlRead
 150 00da 0346     		mov	r3, r0
 151 00dc FB75     		strb	r3, [r7, #23]
 129:.\Generated_Source\PSoC5/USB_std.c ****                     }
 130:.\Generated_Source\PSoC5/USB_std.c ****                 }
 131:.\Generated_Source\PSoC5/USB_std.c ****                 
 132:.\Generated_Source\PSoC5/USB_std.c ****             #if(USB_BOS_ENABLE)
 133:.\Generated_Source\PSoC5/USB_std.c ****                 else if (USB_DESCR_BOS == USB_wValueHiReg)
ARM GAS  C:\Users\LUKASC~1\AppData\Local\Temp\ccywSTdI.s 			page 6


 134:.\Generated_Source\PSoC5/USB_std.c ****                 {
 135:.\Generated_Source\PSoC5/USB_std.c ****                     pTmp = USB_GetBOSPtr();
 136:.\Generated_Source\PSoC5/USB_std.c ****                     
 137:.\Generated_Source\PSoC5/USB_std.c ****                     /* Verify that requested descriptor exists */
 138:.\Generated_Source\PSoC5/USB_std.c ****                     if (pTmp != NULL)
 139:.\Generated_Source\PSoC5/USB_std.c ****                     {
 140:.\Generated_Source\PSoC5/USB_std.c ****                         USB_currentTD.pData = (volatile uint8 *)pTmp;
 141:.\Generated_Source\PSoC5/USB_std.c ****                         USB_currentTD.count = ((uint16)((uint16)(USB_currentTD.pData)[USB_BOS_DESCR
 142:.\Generated_Source\PSoC5/USB_std.c ****                                                                              (USB_currentTD.pData)[
 143:.\Generated_Source\PSoC5/USB_std.c ****                         requestHandled  = USB_InitControlRead();
 144:.\Generated_Source\PSoC5/USB_std.c ****                     }
 145:.\Generated_Source\PSoC5/USB_std.c ****                 }
 146:.\Generated_Source\PSoC5/USB_std.c ****             #endif /*(USB_BOS_ENABLE)*/
 147:.\Generated_Source\PSoC5/USB_std.c ****             
 148:.\Generated_Source\PSoC5/USB_std.c ****             #if defined(USB_ENABLE_STRINGS)
 149:.\Generated_Source\PSoC5/USB_std.c ****                 else if (USB_DESCR_STRING == USB_wValueHiReg)
 150:.\Generated_Source\PSoC5/USB_std.c ****                 {
 151:.\Generated_Source\PSoC5/USB_std.c ****                 /* Descriptor Strings */
 152:.\Generated_Source\PSoC5/USB_std.c ****                 #if defined(USB_ENABLE_DESCRIPTOR_STRINGS)
 153:.\Generated_Source\PSoC5/USB_std.c ****                     nStr = 0u;
 154:.\Generated_Source\PSoC5/USB_std.c ****                     pStr = (volatile uint8 *) &USB_STRING_DESCRIPTORS[0u];
 155:.\Generated_Source\PSoC5/USB_std.c ****                     
 156:.\Generated_Source\PSoC5/USB_std.c ****                     while ((USB_wValueLoReg > nStr) && (*pStr != 0u))
 157:.\Generated_Source\PSoC5/USB_std.c ****                     {
 158:.\Generated_Source\PSoC5/USB_std.c ****                         /* Read descriptor length from 1st byte */
 159:.\Generated_Source\PSoC5/USB_std.c ****                         descrLength = *pStr;
 160:.\Generated_Source\PSoC5/USB_std.c ****                         /* Move to next string descriptor */
 161:.\Generated_Source\PSoC5/USB_std.c ****                         pStr = &pStr[descrLength];
 162:.\Generated_Source\PSoC5/USB_std.c ****                         nStr++;
 163:.\Generated_Source\PSoC5/USB_std.c ****                     }
 164:.\Generated_Source\PSoC5/USB_std.c ****                 #endif /* (USB_ENABLE_DESCRIPTOR_STRINGS) */
 165:.\Generated_Source\PSoC5/USB_std.c ****                 
 166:.\Generated_Source\PSoC5/USB_std.c ****                 /* Microsoft OS String */
 167:.\Generated_Source\PSoC5/USB_std.c ****                 #if defined(USB_ENABLE_MSOS_STRING)
 168:.\Generated_Source\PSoC5/USB_std.c ****                     if (USB_STRING_MSOS == USB_wValueLoReg)
 169:.\Generated_Source\PSoC5/USB_std.c ****                     {
 170:.\Generated_Source\PSoC5/USB_std.c ****                         pStr = (volatile uint8 *)& USB_MSOS_DESCRIPTOR[0u];
 171:.\Generated_Source\PSoC5/USB_std.c ****                     }
 172:.\Generated_Source\PSoC5/USB_std.c ****                 #endif /* (USB_ENABLE_MSOS_STRING) */
 173:.\Generated_Source\PSoC5/USB_std.c ****                 
 174:.\Generated_Source\PSoC5/USB_std.c ****                 /* SN string */
 175:.\Generated_Source\PSoC5/USB_std.c ****                 #if defined(USB_ENABLE_SN_STRING)
 176:.\Generated_Source\PSoC5/USB_std.c ****                     if ((USB_wValueLoReg != 0u) && 
 177:.\Generated_Source\PSoC5/USB_std.c ****                         (USB_wValueLoReg == USB_DEVICE0_DESCR[USB_DEVICE_DESCR_SN_SHIFT]))
 178:.\Generated_Source\PSoC5/USB_std.c ****                     {
 179:.\Generated_Source\PSoC5/USB_std.c ****                     #if defined(USB_ENABLE_IDSN_STRING)
 180:.\Generated_Source\PSoC5/USB_std.c ****                         /* Read DIE ID and generate string descriptor in RAM */
 181:.\Generated_Source\PSoC5/USB_std.c ****                         USB_ReadDieID(USB_idSerialNumberStringDescriptor);
 182:.\Generated_Source\PSoC5/USB_std.c ****                         pStr = USB_idSerialNumberStringDescriptor;
 183:.\Generated_Source\PSoC5/USB_std.c ****                     #elif defined(USB_ENABLE_FWSN_STRING)
 184:.\Generated_Source\PSoC5/USB_std.c ****                         
 185:.\Generated_Source\PSoC5/USB_std.c ****                         if(USB_snStringConfirm != USB_FALSE)
 186:.\Generated_Source\PSoC5/USB_std.c ****                         {
 187:.\Generated_Source\PSoC5/USB_std.c ****                             pStr = USB_fwSerialNumberStringDescriptor;
 188:.\Generated_Source\PSoC5/USB_std.c ****                         }
 189:.\Generated_Source\PSoC5/USB_std.c ****                         else
 190:.\Generated_Source\PSoC5/USB_std.c ****                         {
ARM GAS  C:\Users\LUKASC~1\AppData\Local\Temp\ccywSTdI.s 			page 7


 191:.\Generated_Source\PSoC5/USB_std.c ****                             pStr = (volatile uint8 *)&USB_SN_STRING_DESCRIPTOR[0u];
 192:.\Generated_Source\PSoC5/USB_std.c ****                         }
 193:.\Generated_Source\PSoC5/USB_std.c ****                     #else
 194:.\Generated_Source\PSoC5/USB_std.c ****                         pStr = (volatile uint8 *)&USB_SN_STRING_DESCRIPTOR[0u];
 195:.\Generated_Source\PSoC5/USB_std.c ****                     #endif  /* (USB_ENABLE_IDSN_STRING) */
 196:.\Generated_Source\PSoC5/USB_std.c ****                     }
 197:.\Generated_Source\PSoC5/USB_std.c ****                 #endif /* (USB_ENABLE_SN_STRING) */
 198:.\Generated_Source\PSoC5/USB_std.c ****                 
 199:.\Generated_Source\PSoC5/USB_std.c ****                     if (*pStr != 0u)
 200:.\Generated_Source\PSoC5/USB_std.c ****                     {
 201:.\Generated_Source\PSoC5/USB_std.c ****                         USB_currentTD.count = *pStr;
 202:.\Generated_Source\PSoC5/USB_std.c ****                         USB_currentTD.pData = pStr;
 203:.\Generated_Source\PSoC5/USB_std.c ****                         requestHandled  = USB_InitControlRead();
 204:.\Generated_Source\PSoC5/USB_std.c ****                     }
 205:.\Generated_Source\PSoC5/USB_std.c ****                 }
 206:.\Generated_Source\PSoC5/USB_std.c ****             #endif /*  USB_ENABLE_STRINGS */
 207:.\Generated_Source\PSoC5/USB_std.c ****                 else
 208:.\Generated_Source\PSoC5/USB_std.c ****                 {
 209:.\Generated_Source\PSoC5/USB_std.c ****                     requestHandled = USB_DispatchClassRqst();
 210:.\Generated_Source\PSoC5/USB_std.c ****                 }
 211:.\Generated_Source\PSoC5/USB_std.c ****                 break;
 152              		.loc 1 211 0
 153 00de A4E0     		b	.L20
 154              	.L11:
 149:.\Generated_Source\PSoC5/USB_std.c ****                 {
 155              		.loc 1 149 0
 156 00e0 674B     		ldr	r3, .L61
 157 00e2 DB78     		ldrb	r3, [r3, #3]
 158 00e4 DBB2     		uxtb	r3, r3
 159 00e6 032B     		cmp	r3, #3
 160 00e8 44D1     		bne	.L13
 153:.\Generated_Source\PSoC5/USB_std.c ****                     pStr = (volatile uint8 *) &USB_STRING_DESCRIPTORS[0u];
 161              		.loc 1 153 0
 162 00ea 0023     		movs	r3, #0
 163 00ec FB73     		strb	r3, [r7, #15]
 154:.\Generated_Source\PSoC5/USB_std.c ****                     
 164              		.loc 1 154 0
 165 00ee 664B     		ldr	r3, .L61+8
 166 00f0 3B61     		str	r3, [r7, #16]
 156:.\Generated_Source\PSoC5/USB_std.c ****                     {
 167              		.loc 1 156 0
 168 00f2 09E0     		b	.L14
 169              	.L16:
 159:.\Generated_Source\PSoC5/USB_std.c ****                         /* Move to next string descriptor */
 170              		.loc 1 159 0
 171 00f4 3B69     		ldr	r3, [r7, #16]
 172 00f6 1B78     		ldrb	r3, [r3]
 173 00f8 BB71     		strb	r3, [r7, #6]
 161:.\Generated_Source\PSoC5/USB_std.c ****                         nStr++;
 174              		.loc 1 161 0
 175 00fa BB79     		ldrb	r3, [r7, #6]	@ zero_extendqisi2
 176 00fc 3A69     		ldr	r2, [r7, #16]
 177 00fe 1344     		add	r3, r3, r2
 178 0100 3B61     		str	r3, [r7, #16]
 162:.\Generated_Source\PSoC5/USB_std.c ****                     }
 179              		.loc 1 162 0
 180 0102 FB7B     		ldrb	r3, [r7, #15]	@ zero_extendqisi2
ARM GAS  C:\Users\LUKASC~1\AppData\Local\Temp\ccywSTdI.s 			page 8


 181 0104 0133     		adds	r3, r3, #1
 182 0106 FB73     		strb	r3, [r7, #15]
 183              	.L14:
 156:.\Generated_Source\PSoC5/USB_std.c ****                     {
 184              		.loc 1 156 0
 185 0108 5D4B     		ldr	r3, .L61
 186 010a 9B78     		ldrb	r3, [r3, #2]
 187 010c DBB2     		uxtb	r3, r3
 188 010e FA7B     		ldrb	r2, [r7, #15]	@ zero_extendqisi2
 189 0110 9A42     		cmp	r2, r3
 190 0112 04D2     		bcs	.L15
 156:.\Generated_Source\PSoC5/USB_std.c ****                     {
 191              		.loc 1 156 0 is_stmt 0 discriminator 1
 192 0114 3B69     		ldr	r3, [r7, #16]
 193 0116 1B78     		ldrb	r3, [r3]
 194 0118 DBB2     		uxtb	r3, r3
 195 011a 002B     		cmp	r3, #0
 196 011c EAD1     		bne	.L16
 197              	.L15:
 168:.\Generated_Source\PSoC5/USB_std.c ****                     {
 198              		.loc 1 168 0 is_stmt 1
 199 011e 584B     		ldr	r3, .L61
 200 0120 9B78     		ldrb	r3, [r3, #2]
 201 0122 DBB2     		uxtb	r3, r3
 202 0124 EE2B     		cmp	r3, #238
 203 0126 01D1     		bne	.L17
 170:.\Generated_Source\PSoC5/USB_std.c ****                     }
 204              		.loc 1 170 0
 205 0128 584B     		ldr	r3, .L61+12
 206 012a 3B61     		str	r3, [r7, #16]
 207              	.L17:
 176:.\Generated_Source\PSoC5/USB_std.c ****                         (USB_wValueLoReg == USB_DEVICE0_DESCR[USB_DEVICE_DESCR_SN_SHIFT]))
 208              		.loc 1 176 0
 209 012c 544B     		ldr	r3, .L61
 210 012e 9B78     		ldrb	r3, [r3, #2]
 211 0130 DBB2     		uxtb	r3, r3
 212 0132 002B     		cmp	r3, #0
 213 0134 0BD0     		beq	.L18
 177:.\Generated_Source\PSoC5/USB_std.c ****                     {
 214              		.loc 1 177 0 discriminator 1
 215 0136 524B     		ldr	r3, .L61
 216 0138 9B78     		ldrb	r3, [r3, #2]
 217 013a DAB2     		uxtb	r2, r3
 218 013c 544B     		ldr	r3, .L61+16
 219 013e 1B7C     		ldrb	r3, [r3, #16]	@ zero_extendqisi2
 176:.\Generated_Source\PSoC5/USB_std.c ****                         (USB_wValueLoReg == USB_DEVICE0_DESCR[USB_DEVICE_DESCR_SN_SHIFT]))
 220              		.loc 1 176 0 discriminator 1
 221 0140 9A42     		cmp	r2, r3
 222 0142 04D1     		bne	.L18
 181:.\Generated_Source\PSoC5/USB_std.c ****                         pStr = USB_idSerialNumberStringDescriptor;
 223              		.loc 1 181 0
 224 0144 5348     		ldr	r0, .L61+20
 225 0146 FFF7FEFF 		bl	USB_ReadDieID
 182:.\Generated_Source\PSoC5/USB_std.c ****                     #elif defined(USB_ENABLE_FWSN_STRING)
 226              		.loc 1 182 0
 227 014a 524B     		ldr	r3, .L61+20
 228 014c 3B61     		str	r3, [r7, #16]
ARM GAS  C:\Users\LUKASC~1\AppData\Local\Temp\ccywSTdI.s 			page 9


 229              	.L18:
 199:.\Generated_Source\PSoC5/USB_std.c ****                     {
 230              		.loc 1 199 0
 231 014e 3B69     		ldr	r3, [r7, #16]
 232 0150 1B78     		ldrb	r3, [r3]
 233 0152 DBB2     		uxtb	r3, r3
 234 0154 002B     		cmp	r3, #0
 235 0156 12D0     		beq	.L10
 201:.\Generated_Source\PSoC5/USB_std.c ****                         USB_currentTD.pData = pStr;
 236              		.loc 1 201 0
 237 0158 3B69     		ldr	r3, [r7, #16]
 238 015a 1B78     		ldrb	r3, [r3]
 239 015c DBB2     		uxtb	r3, r3
 240 015e 9AB2     		uxth	r2, r3
 241 0160 484B     		ldr	r3, .L61+4
 242 0162 1A80     		strh	r2, [r3]	@ movhi
 202:.\Generated_Source\PSoC5/USB_std.c ****                         requestHandled  = USB_InitControlRead();
 243              		.loc 1 202 0
 244 0164 474A     		ldr	r2, .L61+4
 245 0166 3B69     		ldr	r3, [r7, #16]
 246 0168 5360     		str	r3, [r2, #4]
 203:.\Generated_Source\PSoC5/USB_std.c ****                     }
 247              		.loc 1 203 0
 248 016a FFF7FEFF 		bl	USB_InitControlRead
 249 016e 0346     		mov	r3, r0
 250 0170 FB75     		strb	r3, [r7, #23]
 251              		.loc 1 211 0
 252 0172 5AE0     		b	.L20
 253              	.L13:
 209:.\Generated_Source\PSoC5/USB_std.c ****                 }
 254              		.loc 1 209 0
 255 0174 FFF7FEFF 		bl	USB_DispatchClassRqst
 256 0178 0346     		mov	r3, r0
 257 017a FB75     		strb	r3, [r7, #23]
 258              		.loc 1 211 0
 259 017c 55E0     		b	.L20
 260              	.L10:
 261              		.loc 1 211 0 is_stmt 0 discriminator 1
 262 017e 54E0     		b	.L20
 263              	.L4:
 212:.\Generated_Source\PSoC5/USB_std.c ****                 
 213:.\Generated_Source\PSoC5/USB_std.c ****             case USB_GET_STATUS:
 214:.\Generated_Source\PSoC5/USB_std.c ****                 switch (bmRequestType & USB_RQST_RCPT_MASK)
 264              		.loc 1 214 0 is_stmt 1
 265 0180 FB79     		ldrb	r3, [r7, #7]	@ zero_extendqisi2
 266 0182 03F00303 		and	r3, r3, #3
 267 0186 002B     		cmp	r3, #0
 268 0188 1FD0     		beq	.L22
 269 018a 022B     		cmp	r3, #2
 270 018c 00D0     		beq	.L23
 215:.\Generated_Source\PSoC5/USB_std.c ****                 {
 216:.\Generated_Source\PSoC5/USB_std.c ****                     case USB_RQST_RCPT_EP:
 217:.\Generated_Source\PSoC5/USB_std.c ****                         USB_currentTD.count = USB_EP_STATUS_LENGTH;
 218:.\Generated_Source\PSoC5/USB_std.c ****                         USB_tBuffer[0u]     = USB_EP[USB_wIndexLoReg & USB_DIR_UNUSED].hwEpState;
 219:.\Generated_Source\PSoC5/USB_std.c ****                         USB_tBuffer[1u]     = 0u;
 220:.\Generated_Source\PSoC5/USB_std.c ****                         USB_currentTD.pData = &USB_tBuffer[0u];
 221:.\Generated_Source\PSoC5/USB_std.c ****                         
ARM GAS  C:\Users\LUKASC~1\AppData\Local\Temp\ccywSTdI.s 			page 10


 222:.\Generated_Source\PSoC5/USB_std.c ****                         requestHandled  = USB_InitControlRead();
 223:.\Generated_Source\PSoC5/USB_std.c ****                         break;
 224:.\Generated_Source\PSoC5/USB_std.c ****                     case USB_RQST_RCPT_DEV:
 225:.\Generated_Source\PSoC5/USB_std.c ****                         USB_currentTD.count = USB_DEVICE_STATUS_LENGTH;
 226:.\Generated_Source\PSoC5/USB_std.c ****                         USB_tBuffer[0u]     = USB_deviceStatus;
 227:.\Generated_Source\PSoC5/USB_std.c ****                         USB_tBuffer[1u]     = 0u;
 228:.\Generated_Source\PSoC5/USB_std.c ****                         USB_currentTD.pData = &USB_tBuffer[0u];
 229:.\Generated_Source\PSoC5/USB_std.c ****                         
 230:.\Generated_Source\PSoC5/USB_std.c ****                         requestHandled  = USB_InitControlRead();
 231:.\Generated_Source\PSoC5/USB_std.c ****                         break;
 232:.\Generated_Source\PSoC5/USB_std.c ****                     default:    /* requestHandled is initialized as FALSE by default */
 233:.\Generated_Source\PSoC5/USB_std.c ****                         break;
 271              		.loc 1 233 0
 272 018e 2FE0     		b	.L24
 273              	.L23:
 217:.\Generated_Source\PSoC5/USB_std.c ****                         USB_tBuffer[0u]     = USB_EP[USB_wIndexLoReg & USB_DIR_UNUSED].hwEpState;
 274              		.loc 1 217 0
 275 0190 3C4B     		ldr	r3, .L61+4
 276 0192 0222     		movs	r2, #2
 277 0194 1A80     		strh	r2, [r3]	@ movhi
 218:.\Generated_Source\PSoC5/USB_std.c ****                         USB_tBuffer[1u]     = 0u;
 278              		.loc 1 218 0
 279 0196 3A4B     		ldr	r3, .L61
 280 0198 1B79     		ldrb	r3, [r3, #4]
 281 019a DBB2     		uxtb	r3, r3
 282 019c 03F07F02 		and	r2, r3, #127
 283 01a0 3D49     		ldr	r1, .L61+24
 284 01a2 1346     		mov	r3, r2
 285 01a4 5B00     		lsls	r3, r3, #1
 286 01a6 1344     		add	r3, r3, r2
 287 01a8 9B00     		lsls	r3, r3, #2
 288 01aa 0B44     		add	r3, r3, r1
 289 01ac 9B78     		ldrb	r3, [r3, #2]
 290 01ae DAB2     		uxtb	r2, r3
 291 01b0 3A4B     		ldr	r3, .L61+28
 292 01b2 1A70     		strb	r2, [r3]
 219:.\Generated_Source\PSoC5/USB_std.c ****                         USB_currentTD.pData = &USB_tBuffer[0u];
 293              		.loc 1 219 0
 294 01b4 394B     		ldr	r3, .L61+28
 295 01b6 0022     		movs	r2, #0
 296 01b8 5A70     		strb	r2, [r3, #1]
 220:.\Generated_Source\PSoC5/USB_std.c ****                         
 297              		.loc 1 220 0
 298 01ba 324B     		ldr	r3, .L61+4
 299 01bc 374A     		ldr	r2, .L61+28
 300 01be 5A60     		str	r2, [r3, #4]
 222:.\Generated_Source\PSoC5/USB_std.c ****                         break;
 301              		.loc 1 222 0
 302 01c0 FFF7FEFF 		bl	USB_InitControlRead
 303 01c4 0346     		mov	r3, r0
 304 01c6 FB75     		strb	r3, [r7, #23]
 223:.\Generated_Source\PSoC5/USB_std.c ****                     case USB_RQST_RCPT_DEV:
 305              		.loc 1 223 0
 306 01c8 12E0     		b	.L24
 307              	.L22:
 225:.\Generated_Source\PSoC5/USB_std.c ****                         USB_tBuffer[0u]     = USB_deviceStatus;
 308              		.loc 1 225 0
ARM GAS  C:\Users\LUKASC~1\AppData\Local\Temp\ccywSTdI.s 			page 11


 309 01ca 2E4B     		ldr	r3, .L61+4
 310 01cc 0222     		movs	r2, #2
 311 01ce 1A80     		strh	r2, [r3]	@ movhi
 226:.\Generated_Source\PSoC5/USB_std.c ****                         USB_tBuffer[1u]     = 0u;
 312              		.loc 1 226 0
 313 01d0 334B     		ldr	r3, .L61+32
 314 01d2 1B78     		ldrb	r3, [r3]
 315 01d4 DAB2     		uxtb	r2, r3
 316 01d6 314B     		ldr	r3, .L61+28
 317 01d8 1A70     		strb	r2, [r3]
 227:.\Generated_Source\PSoC5/USB_std.c ****                         USB_currentTD.pData = &USB_tBuffer[0u];
 318              		.loc 1 227 0
 319 01da 304B     		ldr	r3, .L61+28
 320 01dc 0022     		movs	r2, #0
 321 01de 5A70     		strb	r2, [r3, #1]
 228:.\Generated_Source\PSoC5/USB_std.c ****                         
 322              		.loc 1 228 0
 323 01e0 284B     		ldr	r3, .L61+4
 324 01e2 2E4A     		ldr	r2, .L61+28
 325 01e4 5A60     		str	r2, [r3, #4]
 230:.\Generated_Source\PSoC5/USB_std.c ****                         break;
 326              		.loc 1 230 0
 327 01e6 FFF7FEFF 		bl	USB_InitControlRead
 328 01ea 0346     		mov	r3, r0
 329 01ec FB75     		strb	r3, [r7, #23]
 231:.\Generated_Source\PSoC5/USB_std.c ****                     default:    /* requestHandled is initialized as FALSE by default */
 330              		.loc 1 231 0
 331 01ee 00BF     		nop
 332              	.L24:
 234:.\Generated_Source\PSoC5/USB_std.c ****                 }
 235:.\Generated_Source\PSoC5/USB_std.c ****                 break;
 333              		.loc 1 235 0 discriminator 4
 334 01f0 1BE0     		b	.L20
 335              	.L7:
 236:.\Generated_Source\PSoC5/USB_std.c ****                 
 237:.\Generated_Source\PSoC5/USB_std.c ****             case USB_GET_CONFIGURATION:
 238:.\Generated_Source\PSoC5/USB_std.c ****                 USB_currentTD.count = 1u;
 336              		.loc 1 238 0
 337 01f2 244B     		ldr	r3, .L61+4
 338 01f4 0122     		movs	r2, #1
 339 01f6 1A80     		strh	r2, [r3]	@ movhi
 239:.\Generated_Source\PSoC5/USB_std.c ****                 USB_currentTD.pData = (volatile uint8 *) &USB_configuration;
 340              		.loc 1 239 0
 341 01f8 224B     		ldr	r3, .L61+4
 342 01fa 2A4A     		ldr	r2, .L61+36
 343 01fc 5A60     		str	r2, [r3, #4]
 240:.\Generated_Source\PSoC5/USB_std.c ****                 requestHandled  = USB_InitControlRead();
 344              		.loc 1 240 0
 345 01fe FFF7FEFF 		bl	USB_InitControlRead
 346 0202 0346     		mov	r3, r0
 347 0204 FB75     		strb	r3, [r7, #23]
 241:.\Generated_Source\PSoC5/USB_std.c ****                 break;
 348              		.loc 1 241 0
 349 0206 10E0     		b	.L20
 350              	.L8:
 242:.\Generated_Source\PSoC5/USB_std.c ****                 
 243:.\Generated_Source\PSoC5/USB_std.c ****             case USB_GET_INTERFACE:
ARM GAS  C:\Users\LUKASC~1\AppData\Local\Temp\ccywSTdI.s 			page 12


 244:.\Generated_Source\PSoC5/USB_std.c ****                 USB_currentTD.count = 1u;
 351              		.loc 1 244 0
 352 0208 1E4B     		ldr	r3, .L61+4
 353 020a 0122     		movs	r2, #1
 354 020c 1A80     		strh	r2, [r3]	@ movhi
 245:.\Generated_Source\PSoC5/USB_std.c ****                 USB_currentTD.pData = (volatile uint8 *) &USB_interfaceSetting[USB_wIndexLoReg];
 355              		.loc 1 245 0
 356 020e 1C4B     		ldr	r3, .L61
 357 0210 1B79     		ldrb	r3, [r3, #4]
 358 0212 DBB2     		uxtb	r3, r3
 359 0214 1A46     		mov	r2, r3
 360 0216 244B     		ldr	r3, .L61+40
 361 0218 1344     		add	r3, r3, r2
 362 021a 1A4A     		ldr	r2, .L61+4
 363 021c 5360     		str	r3, [r2, #4]
 246:.\Generated_Source\PSoC5/USB_std.c ****                 requestHandled  = USB_InitControlRead();
 364              		.loc 1 246 0
 365 021e FFF7FEFF 		bl	USB_InitControlRead
 366 0222 0346     		mov	r3, r0
 367 0224 FB75     		strb	r3, [r7, #23]
 247:.\Generated_Source\PSoC5/USB_std.c ****                 break;
 368              		.loc 1 247 0
 369 0226 00E0     		b	.L20
 370              	.L57:
 248:.\Generated_Source\PSoC5/USB_std.c ****                 
 249:.\Generated_Source\PSoC5/USB_std.c ****             default: /* requestHandled is initialized as FALSE by default */
 250:.\Generated_Source\PSoC5/USB_std.c ****                 break;
 371              		.loc 1 250 0
 372 0228 00BF     		nop
 373              	.L20:
 374 022a 19E1     		b	.L25
 375              	.L2:
 251:.\Generated_Source\PSoC5/USB_std.c ****         }
 252:.\Generated_Source\PSoC5/USB_std.c ****     }
 253:.\Generated_Source\PSoC5/USB_std.c ****     else
 254:.\Generated_Source\PSoC5/USB_std.c ****     {
 255:.\Generated_Source\PSoC5/USB_std.c ****         /* Control Write */
 256:.\Generated_Source\PSoC5/USB_std.c ****         switch (USB_bRequestReg)
 376              		.loc 1 256 0
 377 022c 144B     		ldr	r3, .L61
 378 022e 5B78     		ldrb	r3, [r3, #1]
 379 0230 DBB2     		uxtb	r3, r3
 380 0232 013B     		subs	r3, r3, #1
 381 0234 0A2B     		cmp	r3, #10
 382 0236 00F21281 		bhi	.L58
 383 023a 01A2     		adr	r2, .L28
 384 023c 52F823F0 		ldr	pc, [r2, r3, lsl #2]
 385              		.p2align 2
 386              	.L28:
 387 0240 4B030000 		.word	.L27+1
 388 0244 5F040000 		.word	.L58+1
 389 0248 D5030000 		.word	.L29+1
 390 024c 5F040000 		.word	.L58+1
 391 0250 6D020000 		.word	.L30+1
 392 0254 5F040000 		.word	.L58+1
 393 0258 5F040000 		.word	.L58+1
 394 025c 5F040000 		.word	.L58+1
ARM GAS  C:\Users\LUKASC~1\AppData\Local\Temp\ccywSTdI.s 			page 13


 395 0260 B1020000 		.word	.L31+1
 396 0264 5F040000 		.word	.L58+1
 397 0268 07030000 		.word	.L32+1
 398              		.p2align 1
 399              	.L30:
 257:.\Generated_Source\PSoC5/USB_std.c ****         {
 258:.\Generated_Source\PSoC5/USB_std.c ****             case USB_SET_ADDRESS:
 259:.\Generated_Source\PSoC5/USB_std.c ****                 /* Store address to be set in USB_NoDataControlStatusStage(). */
 260:.\Generated_Source\PSoC5/USB_std.c ****                 USB_deviceAddress = (uint8) USB_wValueLoReg;
 400              		.loc 1 260 0
 401 026c 044B     		ldr	r3, .L61
 402 026e 9B78     		ldrb	r3, [r3, #2]
 403 0270 DAB2     		uxtb	r2, r3
 404 0272 0E4B     		ldr	r3, .L61+44
 405 0274 1A70     		strb	r2, [r3]
 261:.\Generated_Source\PSoC5/USB_std.c ****                 requestHandled = USB_InitNoDataControlTransfer();
 406              		.loc 1 261 0
 407 0276 FFF7FEFF 		bl	USB_InitNoDataControlTransfer
 408 027a 0346     		mov	r3, r0
 409 027c FB75     		strb	r3, [r7, #23]
 262:.\Generated_Source\PSoC5/USB_std.c ****                 break;
 410              		.loc 1 262 0
 411 027e EFE0     		b	.L25
 412              	.L62:
 413              		.align	2
 414              	.L61:
 415 0280 00600040 		.word	1073766400
 416 0284 00000000 		.word	USB_currentTD
 417 0288 00000000 		.word	USB_STRING_DESCRIPTORS
 418 028c 00000000 		.word	USB_MSOS_DESCRIPTOR
 419 0290 00000000 		.word	USB_DEVICE0_DESCR
 420 0294 00000000 		.word	USB_idSerialNumberStringDescriptor
 421 0298 00000000 		.word	USB_EP
 422 029c 00000000 		.word	USB_tBuffer.5271
 423 02a0 00000000 		.word	USB_deviceStatus
 424 02a4 00000000 		.word	USB_configuration
 425 02a8 00000000 		.word	USB_interfaceSetting
 426 02ac 00000000 		.word	USB_deviceAddress
 427              	.L31:
 263:.\Generated_Source\PSoC5/USB_std.c ****                 
 264:.\Generated_Source\PSoC5/USB_std.c ****             case USB_SET_CONFIGURATION:
 265:.\Generated_Source\PSoC5/USB_std.c ****                 configurationN = USB_wValueLoReg;
 428              		.loc 1 265 0
 429 02b0 6E4B     		ldr	r3, .L63
 430 02b2 9B78     		ldrb	r3, [r3, #2]
 431 02b4 7B71     		strb	r3, [r7, #5]
 266:.\Generated_Source\PSoC5/USB_std.c ****                 
 267:.\Generated_Source\PSoC5/USB_std.c ****                 /* Verify that configuration descriptor exists */
 268:.\Generated_Source\PSoC5/USB_std.c ****                 if(configurationN > 0u)
 432              		.loc 1 268 0
 433 02b6 7B79     		ldrb	r3, [r7, #5]	@ zero_extendqisi2
 434 02b8 002B     		cmp	r3, #0
 435 02ba 06D0     		beq	.L33
 269:.\Generated_Source\PSoC5/USB_std.c ****                 {
 270:.\Generated_Source\PSoC5/USB_std.c ****                     pTmp = USB_GetConfigTablePtr((uint8) configurationN - 1u);
 436              		.loc 1 270 0
 437 02bc 7B79     		ldrb	r3, [r7, #5]
ARM GAS  C:\Users\LUKASC~1\AppData\Local\Temp\ccywSTdI.s 			page 14


 438 02be 013B     		subs	r3, r3, #1
 439 02c0 DBB2     		uxtb	r3, r3
 440 02c2 1846     		mov	r0, r3
 441 02c4 FFF7FEFF 		bl	USB_GetConfigTablePtr
 442 02c8 B860     		str	r0, [r7, #8]
 443              	.L33:
 271:.\Generated_Source\PSoC5/USB_std.c ****                 }
 272:.\Generated_Source\PSoC5/USB_std.c ****                 
 273:.\Generated_Source\PSoC5/USB_std.c ****                 /* Responds with a Request Error when configuration number is invalid */
 274:.\Generated_Source\PSoC5/USB_std.c ****                 if (((configurationN > 0u) && (pTmp != NULL)) || (configurationN == 0u))
 444              		.loc 1 274 0
 445 02ca 7B79     		ldrb	r3, [r7, #5]	@ zero_extendqisi2
 446 02cc 002B     		cmp	r3, #0
 447 02ce 02D0     		beq	.L34
 448              		.loc 1 274 0 is_stmt 0 discriminator 1
 449 02d0 BB68     		ldr	r3, [r7, #8]
 450 02d2 002B     		cmp	r3, #0
 451 02d4 02D1     		bne	.L35
 452              	.L34:
 453              		.loc 1 274 0 discriminator 3
 454 02d6 7B79     		ldrb	r3, [r7, #5]	@ zero_extendqisi2
 455 02d8 002B     		cmp	r3, #0
 456 02da 13D1     		bne	.L36
 457              	.L35:
 275:.\Generated_Source\PSoC5/USB_std.c ****                 {
 276:.\Generated_Source\PSoC5/USB_std.c ****                     /* Set new configuration if it has been changed */
 277:.\Generated_Source\PSoC5/USB_std.c ****                     if(configurationN != USB_configuration)
 458              		.loc 1 277 0 is_stmt 1
 459 02dc 644B     		ldr	r3, .L63+4
 460 02de 1B78     		ldrb	r3, [r3]
 461 02e0 DBB2     		uxtb	r3, r3
 462 02e2 7A79     		ldrb	r2, [r7, #5]	@ zero_extendqisi2
 463 02e4 9A42     		cmp	r2, r3
 464 02e6 08D0     		beq	.L37
 278:.\Generated_Source\PSoC5/USB_std.c ****                     {
 279:.\Generated_Source\PSoC5/USB_std.c ****                         USB_configuration = (uint8) configurationN;
 465              		.loc 1 279 0
 466 02e8 614A     		ldr	r2, .L63+4
 467 02ea 7B79     		ldrb	r3, [r7, #5]
 468 02ec 1370     		strb	r3, [r2]
 280:.\Generated_Source\PSoC5/USB_std.c ****                         USB_configurationChanged = USB_TRUE;
 469              		.loc 1 280 0
 470 02ee 614B     		ldr	r3, .L63+8
 471 02f0 0122     		movs	r2, #1
 472 02f2 1A70     		strb	r2, [r3]
 281:.\Generated_Source\PSoC5/USB_std.c ****                         USB_Config(USB_TRUE);
 473              		.loc 1 281 0
 474 02f4 0120     		movs	r0, #1
 475 02f6 FFF7FEFF 		bl	USB_Config
 476              	.L37:
 282:.\Generated_Source\PSoC5/USB_std.c ****                     }
 283:.\Generated_Source\PSoC5/USB_std.c ****                     requestHandled = USB_InitNoDataControlTransfer();
 477              		.loc 1 283 0
 478 02fa FFF7FEFF 		bl	USB_InitNoDataControlTransfer
 479 02fe 0346     		mov	r3, r0
 480 0300 FB75     		strb	r3, [r7, #23]
 284:.\Generated_Source\PSoC5/USB_std.c ****                 }
ARM GAS  C:\Users\LUKASC~1\AppData\Local\Temp\ccywSTdI.s 			page 15


 285:.\Generated_Source\PSoC5/USB_std.c ****                 break;
 481              		.loc 1 285 0
 482 0302 ADE0     		b	.L25
 483              	.L36:
 484 0304 ACE0     		b	.L25
 485              	.L32:
 286:.\Generated_Source\PSoC5/USB_std.c ****                 
 287:.\Generated_Source\PSoC5/USB_std.c ****             case USB_SET_INTERFACE:
 288:.\Generated_Source\PSoC5/USB_std.c ****                 if (0u != USB_ValidateAlternateSetting())
 486              		.loc 1 288 0
 487 0306 FFF7FEFF 		bl	USB_ValidateAlternateSetting
 488 030a 0346     		mov	r3, r0
 489 030c 002B     		cmp	r3, #0
 490 030e 1BD0     		beq	.L38
 289:.\Generated_Source\PSoC5/USB_std.c ****                 {
 290:.\Generated_Source\PSoC5/USB_std.c ****                     /* Get interface number from the request. */
 291:.\Generated_Source\PSoC5/USB_std.c ****                     interfaceNumber = USB_wIndexLoReg;
 491              		.loc 1 291 0
 492 0310 564B     		ldr	r3, .L63
 493 0312 1B79     		ldrb	r3, [r3, #4]
 494 0314 3B71     		strb	r3, [r7, #4]
 292:.\Generated_Source\PSoC5/USB_std.c ****                     USB_interfaceNumber = (uint8) USB_wIndexLoReg;
 495              		.loc 1 292 0
 496 0316 554B     		ldr	r3, .L63
 497 0318 1B79     		ldrb	r3, [r3, #4]
 498 031a DAB2     		uxtb	r2, r3
 499 031c 564B     		ldr	r3, .L63+12
 500 031e 1A70     		strb	r2, [r3]
 293:.\Generated_Source\PSoC5/USB_std.c ****                      
 294:.\Generated_Source\PSoC5/USB_std.c ****                     /* Check if alternate settings is changed for interface. */
 295:.\Generated_Source\PSoC5/USB_std.c ****                     if (USB_interfaceSettingLast[interfaceNumber] != USB_interfaceSetting[interface
 501              		.loc 1 295 0
 502 0320 3B79     		ldrb	r3, [r7, #4]	@ zero_extendqisi2
 503 0322 564A     		ldr	r2, .L63+16
 504 0324 D35C     		ldrb	r3, [r2, r3]
 505 0326 DAB2     		uxtb	r2, r3
 506 0328 3B79     		ldrb	r3, [r7, #4]	@ zero_extendqisi2
 507 032a 5549     		ldr	r1, .L63+20
 508 032c CB5C     		ldrb	r3, [r1, r3]
 509 032e DBB2     		uxtb	r3, r3
 510 0330 9A42     		cmp	r2, r3
 511 0332 04D0     		beq	.L39
 296:.\Generated_Source\PSoC5/USB_std.c ****                     {
 297:.\Generated_Source\PSoC5/USB_std.c ****                         USB_configurationChanged = USB_TRUE;
 512              		.loc 1 297 0
 513 0334 4F4B     		ldr	r3, .L63+8
 514 0336 0122     		movs	r2, #1
 515 0338 1A70     		strb	r2, [r3]
 298:.\Generated_Source\PSoC5/USB_std.c ****                     
 299:.\Generated_Source\PSoC5/USB_std.c ****                         /* Change alternate setting for the endpoints. */
 300:.\Generated_Source\PSoC5/USB_std.c ****                     #if (USB_EP_MANAGEMENT_MANUAL && USB_EP_ALLOC_DYNAMIC)
 301:.\Generated_Source\PSoC5/USB_std.c ****                         USB_Config(USB_FALSE);
 302:.\Generated_Source\PSoC5/USB_std.c ****                     #else
 303:.\Generated_Source\PSoC5/USB_std.c ****                         USB_ConfigAltChanged();
 516              		.loc 1 303 0
 517 033a FFF7FEFF 		bl	USB_ConfigAltChanged
 518              	.L39:
ARM GAS  C:\Users\LUKASC~1\AppData\Local\Temp\ccywSTdI.s 			page 16


 304:.\Generated_Source\PSoC5/USB_std.c ****                     #endif /* (USB_EP_MANAGEMENT_MANUAL && USB_EP_ALLOC_DYNAMIC) */
 305:.\Generated_Source\PSoC5/USB_std.c ****                     }
 306:.\Generated_Source\PSoC5/USB_std.c ****                     
 307:.\Generated_Source\PSoC5/USB_std.c ****                     requestHandled = USB_InitNoDataControlTransfer();
 519              		.loc 1 307 0
 520 033e FFF7FEFF 		bl	USB_InitNoDataControlTransfer
 521 0342 0346     		mov	r3, r0
 522 0344 FB75     		strb	r3, [r7, #23]
 308:.\Generated_Source\PSoC5/USB_std.c ****                 }
 309:.\Generated_Source\PSoC5/USB_std.c ****                 break;
 523              		.loc 1 309 0
 524 0346 8BE0     		b	.L25
 525              	.L38:
 526 0348 8AE0     		b	.L25
 527              	.L27:
 310:.\Generated_Source\PSoC5/USB_std.c ****                 
 311:.\Generated_Source\PSoC5/USB_std.c ****             case USB_CLEAR_FEATURE:
 312:.\Generated_Source\PSoC5/USB_std.c ****                 switch (bmRequestType & USB_RQST_RCPT_MASK)
 528              		.loc 1 312 0
 529 034a FB79     		ldrb	r3, [r7, #7]	@ zero_extendqisi2
 530 034c 03F00303 		and	r3, r3, #3
 531 0350 012B     		cmp	r3, #1
 532 0352 22D0     		beq	.L41
 533 0354 012B     		cmp	r3, #1
 534 0356 0DD3     		bcc	.L42
 535 0358 022B     		cmp	r3, #2
 536 035a 00D0     		beq	.L43
 313:.\Generated_Source\PSoC5/USB_std.c ****                 {
 314:.\Generated_Source\PSoC5/USB_std.c ****                     case USB_RQST_RCPT_EP:
 315:.\Generated_Source\PSoC5/USB_std.c ****                         if (USB_wValueLoReg == USB_ENDPOINT_HALT)
 316:.\Generated_Source\PSoC5/USB_std.c ****                         {
 317:.\Generated_Source\PSoC5/USB_std.c ****                             requestHandled = USB_ClearEndpointHalt();
 318:.\Generated_Source\PSoC5/USB_std.c ****                         }
 319:.\Generated_Source\PSoC5/USB_std.c ****                         break;
 320:.\Generated_Source\PSoC5/USB_std.c ****                     case USB_RQST_RCPT_DEV:
 321:.\Generated_Source\PSoC5/USB_std.c ****                         /* Clear device REMOTE_WAKEUP */
 322:.\Generated_Source\PSoC5/USB_std.c ****                         if (USB_wValueLoReg == USB_DEVICE_REMOTE_WAKEUP)
 323:.\Generated_Source\PSoC5/USB_std.c ****                         {
 324:.\Generated_Source\PSoC5/USB_std.c ****                             USB_deviceStatus &= (uint8)~USB_DEVICE_STATUS_REMOTE_WAKEUP;
 325:.\Generated_Source\PSoC5/USB_std.c ****                             requestHandled = USB_InitNoDataControlTransfer();
 326:.\Generated_Source\PSoC5/USB_std.c ****                         }
 327:.\Generated_Source\PSoC5/USB_std.c ****                         break;
 328:.\Generated_Source\PSoC5/USB_std.c ****                     case USB_RQST_RCPT_IFC:
 329:.\Generated_Source\PSoC5/USB_std.c ****                         /* Validate interfaceNumber */
 330:.\Generated_Source\PSoC5/USB_std.c ****                         if (USB_wIndexLoReg < USB_MAX_INTERFACES_NUMBER)
 331:.\Generated_Source\PSoC5/USB_std.c ****                         {
 332:.\Generated_Source\PSoC5/USB_std.c ****                             USB_interfaceStatus[USB_wIndexLoReg] &= (uint8) ~USB_wValueLoReg;
 333:.\Generated_Source\PSoC5/USB_std.c ****                             requestHandled = USB_InitNoDataControlTransfer();
 334:.\Generated_Source\PSoC5/USB_std.c ****                         }
 335:.\Generated_Source\PSoC5/USB_std.c ****                         break;
 336:.\Generated_Source\PSoC5/USB_std.c ****                     default:    /* requestHandled is initialized as FALSE by default */
 337:.\Generated_Source\PSoC5/USB_std.c ****                         break;
 537              		.loc 1 337 0
 538 035c 39E0     		b	.L45
 539              	.L43:
 315:.\Generated_Source\PSoC5/USB_std.c ****                         {
 540              		.loc 1 315 0
ARM GAS  C:\Users\LUKASC~1\AppData\Local\Temp\ccywSTdI.s 			page 17


 541 035e 434B     		ldr	r3, .L63
 542 0360 9B78     		ldrb	r3, [r3, #2]
 543 0362 DBB2     		uxtb	r3, r3
 544 0364 002B     		cmp	r3, #0
 545 0366 04D1     		bne	.L44
 317:.\Generated_Source\PSoC5/USB_std.c ****                         }
 546              		.loc 1 317 0
 547 0368 FFF7FEFF 		bl	USB_ClearEndpointHalt
 548 036c 0346     		mov	r3, r0
 549 036e FB75     		strb	r3, [r7, #23]
 319:.\Generated_Source\PSoC5/USB_std.c ****                     case USB_RQST_RCPT_DEV:
 550              		.loc 1 319 0
 551 0370 2FE0     		b	.L45
 552              	.L44:
 553 0372 2EE0     		b	.L45
 554              	.L42:
 322:.\Generated_Source\PSoC5/USB_std.c ****                         {
 555              		.loc 1 322 0
 556 0374 3D4B     		ldr	r3, .L63
 557 0376 9B78     		ldrb	r3, [r3, #2]
 558 0378 DBB2     		uxtb	r3, r3
 559 037a 012B     		cmp	r3, #1
 560 037c 0CD1     		bne	.L46
 324:.\Generated_Source\PSoC5/USB_std.c ****                             requestHandled = USB_InitNoDataControlTransfer();
 561              		.loc 1 324 0
 562 037e 414B     		ldr	r3, .L63+24
 563 0380 1B78     		ldrb	r3, [r3]
 564 0382 DBB2     		uxtb	r3, r3
 565 0384 23F00203 		bic	r3, r3, #2
 566 0388 DAB2     		uxtb	r2, r3
 567 038a 3E4B     		ldr	r3, .L63+24
 568 038c 1A70     		strb	r2, [r3]
 325:.\Generated_Source\PSoC5/USB_std.c ****                         }
 569              		.loc 1 325 0
 570 038e FFF7FEFF 		bl	USB_InitNoDataControlTransfer
 571 0392 0346     		mov	r3, r0
 572 0394 FB75     		strb	r3, [r7, #23]
 327:.\Generated_Source\PSoC5/USB_std.c ****                     case USB_RQST_RCPT_IFC:
 573              		.loc 1 327 0
 574 0396 1CE0     		b	.L45
 575              	.L46:
 327:.\Generated_Source\PSoC5/USB_std.c ****                     case USB_RQST_RCPT_IFC:
 576              		.loc 1 327 0 is_stmt 0 discriminator 8
 577 0398 1BE0     		b	.L45
 578              	.L41:
 330:.\Generated_Source\PSoC5/USB_std.c ****                         {
 579              		.loc 1 330 0 is_stmt 1
 580 039a 344B     		ldr	r3, .L63
 581 039c 1B79     		ldrb	r3, [r3, #4]
 582 039e DBB2     		uxtb	r3, r3
 583 03a0 012B     		cmp	r3, #1
 584 03a2 15D8     		bhi	.L47
 332:.\Generated_Source\PSoC5/USB_std.c ****                             requestHandled = USB_InitNoDataControlTransfer();
 585              		.loc 1 332 0
 586 03a4 314B     		ldr	r3, .L63
 587 03a6 9B78     		ldrb	r3, [r3, #2]
 588 03a8 DBB2     		uxtb	r3, r3
ARM GAS  C:\Users\LUKASC~1\AppData\Local\Temp\ccywSTdI.s 			page 18


 589 03aa DB43     		mvns	r3, r3
 590 03ac DBB2     		uxtb	r3, r3
 591 03ae 2F4A     		ldr	r2, .L63
 592 03b0 1279     		ldrb	r2, [r2, #4]
 593 03b2 D2B2     		uxtb	r2, r2
 594 03b4 1146     		mov	r1, r2
 595 03b6 1046     		mov	r0, r2
 596 03b8 334A     		ldr	r2, .L63+28
 597 03ba 125C     		ldrb	r2, [r2, r0]
 598 03bc D2B2     		uxtb	r2, r2
 599 03be 1340     		ands	r3, r3, r2
 600 03c0 DAB2     		uxtb	r2, r3
 601 03c2 314B     		ldr	r3, .L63+28
 602 03c4 5A54     		strb	r2, [r3, r1]
 333:.\Generated_Source\PSoC5/USB_std.c ****                         }
 603              		.loc 1 333 0
 604 03c6 FFF7FEFF 		bl	USB_InitNoDataControlTransfer
 605 03ca 0346     		mov	r3, r0
 606 03cc FB75     		strb	r3, [r7, #23]
 335:.\Generated_Source\PSoC5/USB_std.c ****                     default:    /* requestHandled is initialized as FALSE by default */
 607              		.loc 1 335 0
 608 03ce FFE7     		b	.L59
 609              	.L47:
 610              	.L59:
 611 03d0 00BF     		nop
 612              	.L45:
 338:.\Generated_Source\PSoC5/USB_std.c ****                 }
 339:.\Generated_Source\PSoC5/USB_std.c ****                 break;
 613              		.loc 1 339 0 discriminator 7
 614 03d2 45E0     		b	.L25
 615              	.L29:
 340:.\Generated_Source\PSoC5/USB_std.c ****                 
 341:.\Generated_Source\PSoC5/USB_std.c ****             case USB_SET_FEATURE:
 342:.\Generated_Source\PSoC5/USB_std.c ****                 switch (bmRequestType & USB_RQST_RCPT_MASK)
 616              		.loc 1 342 0
 617 03d4 FB79     		ldrb	r3, [r7, #7]	@ zero_extendqisi2
 618 03d6 03F00303 		and	r3, r3, #3
 619 03da 012B     		cmp	r3, #1
 620 03dc 22D0     		beq	.L49
 621 03de 012B     		cmp	r3, #1
 622 03e0 0DD3     		bcc	.L50
 623 03e2 022B     		cmp	r3, #2
 624 03e4 00D0     		beq	.L51
 343:.\Generated_Source\PSoC5/USB_std.c ****                 {
 344:.\Generated_Source\PSoC5/USB_std.c ****                     case USB_RQST_RCPT_EP:
 345:.\Generated_Source\PSoC5/USB_std.c ****                         if (USB_wValueLoReg == USB_ENDPOINT_HALT)
 346:.\Generated_Source\PSoC5/USB_std.c ****                         {
 347:.\Generated_Source\PSoC5/USB_std.c ****                             requestHandled = USB_SetEndpointHalt();
 348:.\Generated_Source\PSoC5/USB_std.c ****                         }
 349:.\Generated_Source\PSoC5/USB_std.c ****                         break;
 350:.\Generated_Source\PSoC5/USB_std.c ****                         
 351:.\Generated_Source\PSoC5/USB_std.c ****                     case USB_RQST_RCPT_DEV:
 352:.\Generated_Source\PSoC5/USB_std.c ****                         /* Set device REMOTE_WAKEUP */
 353:.\Generated_Source\PSoC5/USB_std.c ****                         if (USB_wValueLoReg == USB_DEVICE_REMOTE_WAKEUP)
 354:.\Generated_Source\PSoC5/USB_std.c ****                         {
 355:.\Generated_Source\PSoC5/USB_std.c ****                             USB_deviceStatus |= USB_DEVICE_STATUS_REMOTE_WAKEUP;
 356:.\Generated_Source\PSoC5/USB_std.c ****                             requestHandled = USB_InitNoDataControlTransfer();
ARM GAS  C:\Users\LUKASC~1\AppData\Local\Temp\ccywSTdI.s 			page 19


 357:.\Generated_Source\PSoC5/USB_std.c ****                         }
 358:.\Generated_Source\PSoC5/USB_std.c ****                         break;
 359:.\Generated_Source\PSoC5/USB_std.c ****                         
 360:.\Generated_Source\PSoC5/USB_std.c ****                     case USB_RQST_RCPT_IFC:
 361:.\Generated_Source\PSoC5/USB_std.c ****                         /* Validate interfaceNumber */
 362:.\Generated_Source\PSoC5/USB_std.c ****                         if (USB_wIndexLoReg < USB_MAX_INTERFACES_NUMBER)
 363:.\Generated_Source\PSoC5/USB_std.c ****                         {
 364:.\Generated_Source\PSoC5/USB_std.c ****                             USB_interfaceStatus[USB_wIndexLoReg] &= (uint8) ~USB_wValueLoReg;
 365:.\Generated_Source\PSoC5/USB_std.c ****                             requestHandled = USB_InitNoDataControlTransfer();
 366:.\Generated_Source\PSoC5/USB_std.c ****                         }
 367:.\Generated_Source\PSoC5/USB_std.c ****                         break;
 368:.\Generated_Source\PSoC5/USB_std.c ****                     
 369:.\Generated_Source\PSoC5/USB_std.c ****                     default:    /* requestHandled is initialized as FALSE by default */
 370:.\Generated_Source\PSoC5/USB_std.c ****                         break;
 625              		.loc 1 370 0
 626 03e6 39E0     		b	.L53
 627              	.L51:
 345:.\Generated_Source\PSoC5/USB_std.c ****                         {
 628              		.loc 1 345 0
 629 03e8 204B     		ldr	r3, .L63
 630 03ea 9B78     		ldrb	r3, [r3, #2]
 631 03ec DBB2     		uxtb	r3, r3
 632 03ee 002B     		cmp	r3, #0
 633 03f0 04D1     		bne	.L52
 347:.\Generated_Source\PSoC5/USB_std.c ****                         }
 634              		.loc 1 347 0
 635 03f2 FFF7FEFF 		bl	USB_SetEndpointHalt
 636 03f6 0346     		mov	r3, r0
 637 03f8 FB75     		strb	r3, [r7, #23]
 349:.\Generated_Source\PSoC5/USB_std.c ****                         
 638              		.loc 1 349 0
 639 03fa 2FE0     		b	.L53
 640              	.L52:
 641 03fc 2EE0     		b	.L53
 642              	.L50:
 353:.\Generated_Source\PSoC5/USB_std.c ****                         {
 643              		.loc 1 353 0
 644 03fe 1B4B     		ldr	r3, .L63
 645 0400 9B78     		ldrb	r3, [r3, #2]
 646 0402 DBB2     		uxtb	r3, r3
 647 0404 012B     		cmp	r3, #1
 648 0406 0CD1     		bne	.L54
 355:.\Generated_Source\PSoC5/USB_std.c ****                             requestHandled = USB_InitNoDataControlTransfer();
 649              		.loc 1 355 0
 650 0408 1E4B     		ldr	r3, .L63+24
 651 040a 1B78     		ldrb	r3, [r3]
 652 040c DBB2     		uxtb	r3, r3
 653 040e 43F00203 		orr	r3, r3, #2
 654 0412 DAB2     		uxtb	r2, r3
 655 0414 1B4B     		ldr	r3, .L63+24
 656 0416 1A70     		strb	r2, [r3]
 356:.\Generated_Source\PSoC5/USB_std.c ****                         }
 657              		.loc 1 356 0
 658 0418 FFF7FEFF 		bl	USB_InitNoDataControlTransfer
 659 041c 0346     		mov	r3, r0
 660 041e FB75     		strb	r3, [r7, #23]
 358:.\Generated_Source\PSoC5/USB_std.c ****                         
ARM GAS  C:\Users\LUKASC~1\AppData\Local\Temp\ccywSTdI.s 			page 20


 661              		.loc 1 358 0
 662 0420 1CE0     		b	.L53
 663              	.L54:
 358:.\Generated_Source\PSoC5/USB_std.c ****                         
 664              		.loc 1 358 0 is_stmt 0 discriminator 12
 665 0422 1BE0     		b	.L53
 666              	.L49:
 362:.\Generated_Source\PSoC5/USB_std.c ****                         {
 667              		.loc 1 362 0 is_stmt 1
 668 0424 114B     		ldr	r3, .L63
 669 0426 1B79     		ldrb	r3, [r3, #4]
 670 0428 DBB2     		uxtb	r3, r3
 671 042a 012B     		cmp	r3, #1
 672 042c 15D8     		bhi	.L55
 364:.\Generated_Source\PSoC5/USB_std.c ****                             requestHandled = USB_InitNoDataControlTransfer();
 673              		.loc 1 364 0
 674 042e 0F4B     		ldr	r3, .L63
 675 0430 9B78     		ldrb	r3, [r3, #2]
 676 0432 DBB2     		uxtb	r3, r3
 677 0434 DB43     		mvns	r3, r3
 678 0436 DBB2     		uxtb	r3, r3
 679 0438 0C4A     		ldr	r2, .L63
 680 043a 1279     		ldrb	r2, [r2, #4]
 681 043c D2B2     		uxtb	r2, r2
 682 043e 1146     		mov	r1, r2
 683 0440 1046     		mov	r0, r2
 684 0442 114A     		ldr	r2, .L63+28
 685 0444 125C     		ldrb	r2, [r2, r0]
 686 0446 D2B2     		uxtb	r2, r2
 687 0448 1340     		ands	r3, r3, r2
 688 044a DAB2     		uxtb	r2, r3
 689 044c 0E4B     		ldr	r3, .L63+28
 690 044e 5A54     		strb	r2, [r3, r1]
 365:.\Generated_Source\PSoC5/USB_std.c ****                         }
 691              		.loc 1 365 0
 692 0450 FFF7FEFF 		bl	USB_InitNoDataControlTransfer
 693 0454 0346     		mov	r3, r0
 694 0456 FB75     		strb	r3, [r7, #23]
 367:.\Generated_Source\PSoC5/USB_std.c ****                     
 695              		.loc 1 367 0
 696 0458 FFE7     		b	.L60
 697              	.L55:
 698              	.L60:
 699 045a 00BF     		nop
 700              	.L53:
 371:.\Generated_Source\PSoC5/USB_std.c ****                 }
 372:.\Generated_Source\PSoC5/USB_std.c ****                 break;
 701              		.loc 1 372 0 discriminator 11
 702 045c 00E0     		b	.L25
 703              	.L58:
 373:.\Generated_Source\PSoC5/USB_std.c ****                 
 374:.\Generated_Source\PSoC5/USB_std.c ****             default:    /* requestHandled is initialized as FALSE by default */
 375:.\Generated_Source\PSoC5/USB_std.c ****                 break;
 704              		.loc 1 375 0
 705 045e 00BF     		nop
 706              	.L25:
 376:.\Generated_Source\PSoC5/USB_std.c ****         }
ARM GAS  C:\Users\LUKASC~1\AppData\Local\Temp\ccywSTdI.s 			page 21


 377:.\Generated_Source\PSoC5/USB_std.c ****     }
 378:.\Generated_Source\PSoC5/USB_std.c ****     
 379:.\Generated_Source\PSoC5/USB_std.c ****     return (requestHandled);
 707              		.loc 1 379 0
 708 0460 FB7D     		ldrb	r3, [r7, #23]	@ zero_extendqisi2
 380:.\Generated_Source\PSoC5/USB_std.c **** }
 709              		.loc 1 380 0
 710 0462 1846     		mov	r0, r3
 711 0464 1837     		adds	r7, r7, #24
 712              		.cfi_def_cfa_offset 8
 713 0466 BD46     		mov	sp, r7
 714              		.cfi_def_cfa_register 13
 715              		@ sp needed
 716 0468 80BD     		pop	{r7, pc}
 717              	.L64:
 718 046a 00BF     		.align	2
 719              	.L63:
 720 046c 00600040 		.word	1073766400
 721 0470 00000000 		.word	USB_configuration
 722 0474 00000000 		.word	USB_configurationChanged
 723 0478 00000000 		.word	USB_interfaceNumber
 724 047c 00000000 		.word	USB_interfaceSettingLast
 725 0480 00000000 		.word	USB_interfaceSetting
 726 0484 00000000 		.word	USB_deviceStatus
 727 0488 00000000 		.word	USB_interfaceStatus
 728              		.cfi_endproc
 729              	.LFE0:
 730              		.size	USB_HandleStandardRqst, .-USB_HandleStandardRqst
 731              		.section	.rodata
 732              		.align	2
 733              	.LC0:
 734 0000 30313233 		.ascii	"0123456789ABCDEF\000"
 734      34353637 
 734      38394142 
 734      43444546 
 734      00
 735 0011 000000   		.section	.text.USB_ReadDieID,"ax",%progbits
 736              		.align	2
 737              		.global	USB_ReadDieID
 738              		.thumb
 739              		.thumb_func
 740              		.type	USB_ReadDieID, %function
 741              	USB_ReadDieID:
 742              	.LFB1:
 381:.\Generated_Source\PSoC5/USB_std.c **** 
 382:.\Generated_Source\PSoC5/USB_std.c **** 
 383:.\Generated_Source\PSoC5/USB_std.c **** #if defined(USB_ENABLE_IDSN_STRING)
 384:.\Generated_Source\PSoC5/USB_std.c ****     /***************************************************************************
 385:.\Generated_Source\PSoC5/USB_std.c ****     * Function Name: USB_ReadDieID
 386:.\Generated_Source\PSoC5/USB_std.c ****     ************************************************************************//**
 387:.\Generated_Source\PSoC5/USB_std.c ****     *
 388:.\Generated_Source\PSoC5/USB_std.c ****     *  This routine read Die ID and generate Serial Number string descriptor.
 389:.\Generated_Source\PSoC5/USB_std.c ****     *
 390:.\Generated_Source\PSoC5/USB_std.c ****     *  \param descr:  pointer on string descriptor. This string size has to be equal or
 391:.\Generated_Source\PSoC5/USB_std.c ****     *          greater than USB_IDSN_DESCR_LENGTH.
 392:.\Generated_Source\PSoC5/USB_std.c ****     *
 393:.\Generated_Source\PSoC5/USB_std.c ****     *
ARM GAS  C:\Users\LUKASC~1\AppData\Local\Temp\ccywSTdI.s 			page 22


 394:.\Generated_Source\PSoC5/USB_std.c ****     * \reentrant
 395:.\Generated_Source\PSoC5/USB_std.c ****     *  No.
 396:.\Generated_Source\PSoC5/USB_std.c ****     *
 397:.\Generated_Source\PSoC5/USB_std.c ****     ***************************************************************************/
 398:.\Generated_Source\PSoC5/USB_std.c ****     void USB_ReadDieID(uint8 descr[]) 
 399:.\Generated_Source\PSoC5/USB_std.c ****     {
 743              		.loc 1 399 0
 744              		.cfi_startproc
 745              		@ args = 0, pretend = 0, frame = 40
 746              		@ frame_needed = 1, uses_anonymous_args = 0
 747 0000 B0B5     		push	{r4, r5, r7, lr}
 748              		.cfi_def_cfa_offset 16
 749              		.cfi_offset 4, -16
 750              		.cfi_offset 5, -12
 751              		.cfi_offset 7, -8
 752              		.cfi_offset 14, -4
 753 0002 8AB0     		sub	sp, sp, #40
 754              		.cfi_def_cfa_offset 56
 755 0004 00AF     		add	r7, sp, #0
 756              		.cfi_def_cfa_register 7
 757 0006 7860     		str	r0, [r7, #4]
 400:.\Generated_Source\PSoC5/USB_std.c ****         const char8 CYCODE hex[] = "0123456789ABCDEF";
 758              		.loc 1 400 0
 759 0008 314B     		ldr	r3, .L69
 760 000a 07F11404 		add	r4, r7, #20
 761 000e 1D46     		mov	r5, r3
 762 0010 0FCD     		ldmia	r5!, {r0, r1, r2, r3}
 763 0012 0FC4     		stmia	r4!, {r0, r1, r2, r3}
 764 0014 2B68     		ldr	r3, [r5]
 765 0016 2370     		strb	r3, [r4]
 401:.\Generated_Source\PSoC5/USB_std.c ****         uint8 i;
 402:.\Generated_Source\PSoC5/USB_std.c ****         uint8 j = 0u;
 766              		.loc 1 402 0
 767 0018 0023     		movs	r3, #0
 768 001a 87F82630 		strb	r3, [r7, #38]
 403:.\Generated_Source\PSoC5/USB_std.c ****         uint8 uniqueId[8u];
 404:.\Generated_Source\PSoC5/USB_std.c **** 
 405:.\Generated_Source\PSoC5/USB_std.c ****         if (NULL != descr)
 769              		.loc 1 405 0
 770 001e 7B68     		ldr	r3, [r7, #4]
 771 0020 002B     		cmp	r3, #0
 772 0022 52D0     		beq	.L65
 406:.\Generated_Source\PSoC5/USB_std.c ****         {
 407:.\Generated_Source\PSoC5/USB_std.c ****             /* Initialize descriptor header. */
 408:.\Generated_Source\PSoC5/USB_std.c ****             descr[0u] = USB_IDSN_DESCR_LENGTH;
 773              		.loc 1 408 0
 774 0024 7B68     		ldr	r3, [r7, #4]
 775 0026 2222     		movs	r2, #34
 776 0028 1A70     		strb	r2, [r3]
 409:.\Generated_Source\PSoC5/USB_std.c ****             descr[1u] = USB_DESCR_STRING;
 777              		.loc 1 409 0
 778 002a 7B68     		ldr	r3, [r7, #4]
 779 002c 0133     		adds	r3, r3, #1
 780 002e 0322     		movs	r2, #3
 781 0030 1A70     		strb	r2, [r3]
 410:.\Generated_Source\PSoC5/USB_std.c ****             
 411:.\Generated_Source\PSoC5/USB_std.c ****             /* Unique ID size is 8 bytes. */
ARM GAS  C:\Users\LUKASC~1\AppData\Local\Temp\ccywSTdI.s 			page 23


 412:.\Generated_Source\PSoC5/USB_std.c ****             CyGetUniqueId((uint32 *) uniqueId);
 782              		.loc 1 412 0
 783 0032 07F10C03 		add	r3, r7, #12
 784 0036 1846     		mov	r0, r3
 785 0038 FFF7FEFF 		bl	CyGetUniqueId
 413:.\Generated_Source\PSoC5/USB_std.c **** 
 414:.\Generated_Source\PSoC5/USB_std.c ****             /* Fill descriptor with unique device ID. */
 415:.\Generated_Source\PSoC5/USB_std.c ****             for (i = 2u; i < USB_IDSN_DESCR_LENGTH; i += 4u)
 786              		.loc 1 415 0
 787 003c 0223     		movs	r3, #2
 788 003e 87F82730 		strb	r3, [r7, #39]
 789 0042 3EE0     		b	.L67
 790              	.L68:
 416:.\Generated_Source\PSoC5/USB_std.c ****             {
 417:.\Generated_Source\PSoC5/USB_std.c ****                 descr[i]      = (uint8) hex[(uniqueId[j] >> 4u)];
 791              		.loc 1 417 0 discriminator 3
 792 0044 97F82730 		ldrb	r3, [r7, #39]	@ zero_extendqisi2
 793 0048 7A68     		ldr	r2, [r7, #4]
 794 004a 1344     		add	r3, r3, r2
 795 004c 97F82620 		ldrb	r2, [r7, #38]	@ zero_extendqisi2
 796 0050 07F12801 		add	r1, r7, #40
 797 0054 0A44     		add	r2, r2, r1
 798 0056 12F81C2C 		ldrb	r2, [r2, #-28]	@ zero_extendqisi2
 799 005a 1209     		lsrs	r2, r2, #4
 800 005c D2B2     		uxtb	r2, r2
 801 005e 07F12801 		add	r1, r7, #40
 802 0062 0A44     		add	r2, r2, r1
 803 0064 12F8142C 		ldrb	r2, [r2, #-20]	@ zero_extendqisi2
 804 0068 1A70     		strb	r2, [r3]
 418:.\Generated_Source\PSoC5/USB_std.c ****                 descr[i + 1u] = 0u;
 805              		.loc 1 418 0 discriminator 3
 806 006a 97F82730 		ldrb	r3, [r7, #39]	@ zero_extendqisi2
 807 006e 0133     		adds	r3, r3, #1
 808 0070 7A68     		ldr	r2, [r7, #4]
 809 0072 1344     		add	r3, r3, r2
 810 0074 0022     		movs	r2, #0
 811 0076 1A70     		strb	r2, [r3]
 419:.\Generated_Source\PSoC5/USB_std.c ****                 descr[i + 2u] = (uint8) hex[(uniqueId[j] & 0x0Fu)];
 812              		.loc 1 419 0 discriminator 3
 813 0078 97F82730 		ldrb	r3, [r7, #39]	@ zero_extendqisi2
 814 007c 0233     		adds	r3, r3, #2
 815 007e 7A68     		ldr	r2, [r7, #4]
 816 0080 1344     		add	r3, r3, r2
 817 0082 97F82620 		ldrb	r2, [r7, #38]	@ zero_extendqisi2
 818 0086 07F12801 		add	r1, r7, #40
 819 008a 0A44     		add	r2, r2, r1
 820 008c 12F81C2C 		ldrb	r2, [r2, #-28]	@ zero_extendqisi2
 821 0090 02F00F02 		and	r2, r2, #15
 822 0094 07F12801 		add	r1, r7, #40
 823 0098 0A44     		add	r2, r2, r1
 824 009a 12F8142C 		ldrb	r2, [r2, #-20]	@ zero_extendqisi2
 825 009e 1A70     		strb	r2, [r3]
 420:.\Generated_Source\PSoC5/USB_std.c ****                 descr[i + 3u] = 0u;
 826              		.loc 1 420 0 discriminator 3
 827 00a0 97F82730 		ldrb	r3, [r7, #39]	@ zero_extendqisi2
 828 00a4 0333     		adds	r3, r3, #3
 829 00a6 7A68     		ldr	r2, [r7, #4]
ARM GAS  C:\Users\LUKASC~1\AppData\Local\Temp\ccywSTdI.s 			page 24


 830 00a8 1344     		add	r3, r3, r2
 831 00aa 0022     		movs	r2, #0
 832 00ac 1A70     		strb	r2, [r3]
 421:.\Generated_Source\PSoC5/USB_std.c ****                 ++j;
 833              		.loc 1 421 0 discriminator 3
 834 00ae 97F82630 		ldrb	r3, [r7, #38]
 835 00b2 0133     		adds	r3, r3, #1
 836 00b4 87F82630 		strb	r3, [r7, #38]
 415:.\Generated_Source\PSoC5/USB_std.c ****             {
 837              		.loc 1 415 0 discriminator 3
 838 00b8 97F82730 		ldrb	r3, [r7, #39]
 839 00bc 0433     		adds	r3, r3, #4
 840 00be 87F82730 		strb	r3, [r7, #39]
 841              	.L67:
 415:.\Generated_Source\PSoC5/USB_std.c ****             {
 842              		.loc 1 415 0 is_stmt 0 discriminator 1
 843 00c2 97F82730 		ldrb	r3, [r7, #39]	@ zero_extendqisi2
 844 00c6 212B     		cmp	r3, #33
 845 00c8 BCD9     		bls	.L68
 846              	.L65:
 422:.\Generated_Source\PSoC5/USB_std.c ****             }
 423:.\Generated_Source\PSoC5/USB_std.c ****         }
 424:.\Generated_Source\PSoC5/USB_std.c ****     }
 847              		.loc 1 424 0 is_stmt 1
 848 00ca 2837     		adds	r7, r7, #40
 849              		.cfi_def_cfa_offset 16
 850 00cc BD46     		mov	sp, r7
 851              		.cfi_def_cfa_register 13
 852              		@ sp needed
 853 00ce B0BD     		pop	{r4, r5, r7, pc}
 854              	.L70:
 855              		.align	2
 856              	.L69:
 857 00d0 00000000 		.word	.LC0
 858              		.cfi_endproc
 859              	.LFE1:
 860              		.size	USB_ReadDieID, .-USB_ReadDieID
 861              		.section	.text.USB_ConfigReg,"ax",%progbits
 862              		.align	2
 863              		.global	USB_ConfigReg
 864              		.thumb
 865              		.thumb_func
 866              		.type	USB_ConfigReg, %function
 867              	USB_ConfigReg:
 868              	.LFB2:
 425:.\Generated_Source\PSoC5/USB_std.c **** #endif /* (USB_ENABLE_IDSN_STRING) */
 426:.\Generated_Source\PSoC5/USB_std.c **** 
 427:.\Generated_Source\PSoC5/USB_std.c **** 
 428:.\Generated_Source\PSoC5/USB_std.c **** /*******************************************************************************
 429:.\Generated_Source\PSoC5/USB_std.c **** * Function Name: USB_ConfigReg
 430:.\Generated_Source\PSoC5/USB_std.c **** ****************************************************************************//**
 431:.\Generated_Source\PSoC5/USB_std.c **** *
 432:.\Generated_Source\PSoC5/USB_std.c **** *  This routine configures hardware registers from the variables.
 433:.\Generated_Source\PSoC5/USB_std.c **** *  It is called from USB_Config() function and from RestoreConfig
 434:.\Generated_Source\PSoC5/USB_std.c **** *  after Wakeup.
 435:.\Generated_Source\PSoC5/USB_std.c **** *
 436:.\Generated_Source\PSoC5/USB_std.c **** *******************************************************************************/
ARM GAS  C:\Users\LUKASC~1\AppData\Local\Temp\ccywSTdI.s 			page 25


 437:.\Generated_Source\PSoC5/USB_std.c **** void USB_ConfigReg(void) 
 438:.\Generated_Source\PSoC5/USB_std.c **** {
 869              		.loc 1 438 0
 870              		.cfi_startproc
 871              		@ args = 0, pretend = 0, frame = 8
 872              		@ frame_needed = 1, uses_anonymous_args = 0
 873              		@ link register save eliminated.
 874 0000 90B4     		push	{r4, r7}
 875              		.cfi_def_cfa_offset 8
 876              		.cfi_offset 4, -8
 877              		.cfi_offset 7, -4
 878 0002 82B0     		sub	sp, sp, #8
 879              		.cfi_def_cfa_offset 16
 880 0004 00AF     		add	r7, sp, #0
 881              		.cfi_def_cfa_register 7
 439:.\Generated_Source\PSoC5/USB_std.c ****     uint8 ep;
 440:.\Generated_Source\PSoC5/USB_std.c **** 
 441:.\Generated_Source\PSoC5/USB_std.c **** #if (USB_EP_MANAGEMENT_DMA_AUTO)
 442:.\Generated_Source\PSoC5/USB_std.c ****     uint8 epType = 0u;
 443:.\Generated_Source\PSoC5/USB_std.c **** #endif /* (USB_EP_MANAGEMENT_DMA_AUTO) */
 444:.\Generated_Source\PSoC5/USB_std.c **** 
 445:.\Generated_Source\PSoC5/USB_std.c ****     /* Go thought all endpoints and set hardware configuration */
 446:.\Generated_Source\PSoC5/USB_std.c ****     for (ep = USB_EP1; ep < USB_MAX_EP; ++ep)
 882              		.loc 1 446 0
 883 0006 0123     		movs	r3, #1
 884 0008 FB71     		strb	r3, [r7, #7]
 885 000a 74E0     		b	.L72
 886              	.L77:
 447:.\Generated_Source\PSoC5/USB_std.c ****     {
 448:.\Generated_Source\PSoC5/USB_std.c ****         USB_ARB_EP_BASE.arbEp[ep].epCfg = USB_ARB_EPX_CFG_DEFAULT;
 887              		.loc 1 448 0
 888 000c 3F4A     		ldr	r2, .L78
 889 000e FB79     		ldrb	r3, [r7, #7]	@ zero_extendqisi2
 890 0010 1B01     		lsls	r3, r3, #4
 891 0012 1344     		add	r3, r3, r2
 892 0014 0C22     		movs	r2, #12
 893 0016 1A70     		strb	r2, [r3]
 449:.\Generated_Source\PSoC5/USB_std.c ****         
 450:.\Generated_Source\PSoC5/USB_std.c ****     #if (USB_EP_MANAGEMENT_DMA)
 451:.\Generated_Source\PSoC5/USB_std.c ****         /* Enable arbiter endpoint interrupt sources */
 452:.\Generated_Source\PSoC5/USB_std.c ****         USB_ARB_EP_BASE.arbEp[ep].epIntEn = USB_ARB_EPX_INT_MASK;
 453:.\Generated_Source\PSoC5/USB_std.c ****     #endif /* (USB_EP_MANAGEMENT_DMA) */
 454:.\Generated_Source\PSoC5/USB_std.c ****     
 455:.\Generated_Source\PSoC5/USB_std.c ****         if (USB_EP[ep].epMode != USB_MODE_DISABLE)
 894              		.loc 1 455 0
 895 0018 FA79     		ldrb	r2, [r7, #7]	@ zero_extendqisi2
 896 001a 3D49     		ldr	r1, .L78+4
 897 001c 1346     		mov	r3, r2
 898 001e 5B00     		lsls	r3, r3, #1
 899 0020 1344     		add	r3, r3, r2
 900 0022 9B00     		lsls	r3, r3, #2
 901 0024 0B44     		add	r3, r3, r1
 902 0026 5B79     		ldrb	r3, [r3, #5]
 903 0028 DBB2     		uxtb	r3, r3
 904 002a 002B     		cmp	r3, #0
 905 002c 1AD0     		beq	.L73
 456:.\Generated_Source\PSoC5/USB_std.c ****         {
ARM GAS  C:\Users\LUKASC~1\AppData\Local\Temp\ccywSTdI.s 			page 26


 457:.\Generated_Source\PSoC5/USB_std.c ****             if (0u != (USB_EP[ep].addr & USB_DIR_IN))
 906              		.loc 1 457 0
 907 002e FA79     		ldrb	r2, [r7, #7]	@ zero_extendqisi2
 908 0030 3749     		ldr	r1, .L78+4
 909 0032 1346     		mov	r3, r2
 910 0034 5B00     		lsls	r3, r3, #1
 911 0036 1344     		add	r3, r3, r2
 912 0038 9B00     		lsls	r3, r3, #2
 913 003a 0B44     		add	r3, r3, r1
 914 003c 1B79     		ldrb	r3, [r3, #4]
 915 003e DBB2     		uxtb	r3, r3
 916 0040 DBB2     		uxtb	r3, r3
 917 0042 5BB2     		sxtb	r3, r3
 918 0044 002B     		cmp	r3, #0
 919 0046 06DA     		bge	.L74
 458:.\Generated_Source\PSoC5/USB_std.c ****             {
 459:.\Generated_Source\PSoC5/USB_std.c ****                 USB_SIE_EP_BASE.sieEp[ep].epCr0 = USB_MODE_NAK_IN;
 920              		.loc 1 459 0
 921 0048 324A     		ldr	r2, .L78+8
 922 004a FB79     		ldrb	r3, [r7, #7]	@ zero_extendqisi2
 923 004c 1B01     		lsls	r3, r3, #4
 924 004e 1344     		add	r3, r3, r2
 925 0050 0C22     		movs	r2, #12
 926 0052 9A70     		strb	r2, [r3, #2]
 927 0054 0CE0     		b	.L76
 928              	.L74:
 460:.\Generated_Source\PSoC5/USB_std.c ****                 
 461:.\Generated_Source\PSoC5/USB_std.c ****             #if (USB_EP_MANAGEMENT_DMA_AUTO && CY_PSOC4)
 462:.\Generated_Source\PSoC5/USB_std.c ****                 /* Clear DMA_TERMIN for IN endpoint. */
 463:.\Generated_Source\PSoC5/USB_std.c ****                 USB_ARB_EP_BASE.arbEp[ep].epIntEn &= (uint32) ~USB_ARB_EPX_INT_DMA_TERMIN;
 464:.\Generated_Source\PSoC5/USB_std.c ****             #endif /* (USB_EP_MANAGEMENT_DMA_AUTO && CY_PSOC4) */
 465:.\Generated_Source\PSoC5/USB_std.c ****             }
 466:.\Generated_Source\PSoC5/USB_std.c ****             else
 467:.\Generated_Source\PSoC5/USB_std.c ****             {
 468:.\Generated_Source\PSoC5/USB_std.c ****                 USB_SIE_EP_BASE.sieEp[ep].epCr0 = USB_MODE_NAK_OUT;
 929              		.loc 1 468 0
 930 0056 2F4A     		ldr	r2, .L78+8
 931 0058 FB79     		ldrb	r3, [r7, #7]	@ zero_extendqisi2
 932 005a 1B01     		lsls	r3, r3, #4
 933 005c 1344     		add	r3, r3, r2
 934 005e 0822     		movs	r2, #8
 935 0060 9A70     		strb	r2, [r3, #2]
 936 0062 05E0     		b	.L76
 937              	.L73:
 469:.\Generated_Source\PSoC5/USB_std.c **** 
 470:.\Generated_Source\PSoC5/USB_std.c ****             #if (USB_EP_MANAGEMENT_DMA_AUTO)
 471:.\Generated_Source\PSoC5/USB_std.c ****                 /* (CY_PSOC4): DMA_TERMIN for OUT endpoint is set above. */
 472:.\Generated_Source\PSoC5/USB_std.c ****                 
 473:.\Generated_Source\PSoC5/USB_std.c ****                 /* Prepare endpoint type mask. */
 474:.\Generated_Source\PSoC5/USB_std.c ****                 epType |= (uint8) (0x01u << (ep - USB_EP1));
 475:.\Generated_Source\PSoC5/USB_std.c ****             #endif /* (USB_EP_MANAGEMENT_DMA_AUTO) */
 476:.\Generated_Source\PSoC5/USB_std.c ****             }
 477:.\Generated_Source\PSoC5/USB_std.c ****         }
 478:.\Generated_Source\PSoC5/USB_std.c ****         else
 479:.\Generated_Source\PSoC5/USB_std.c ****         {
 480:.\Generated_Source\PSoC5/USB_std.c ****             USB_SIE_EP_BASE.sieEp[ep].epCr0 = USB_MODE_STALL_DATA_EP;
 938              		.loc 1 480 0
ARM GAS  C:\Users\LUKASC~1\AppData\Local\Temp\ccywSTdI.s 			page 27


 939 0064 2B4A     		ldr	r2, .L78+8
 940 0066 FB79     		ldrb	r3, [r7, #7]	@ zero_extendqisi2
 941 0068 1B01     		lsls	r3, r3, #4
 942 006a 1344     		add	r3, r3, r2
 943 006c 8022     		movs	r2, #128
 944 006e 9A70     		strb	r2, [r3, #2]
 945              	.L76:
 481:.\Generated_Source\PSoC5/USB_std.c ****         }
 482:.\Generated_Source\PSoC5/USB_std.c ****         
 483:.\Generated_Source\PSoC5/USB_std.c ****     #if (!USB_EP_MANAGEMENT_DMA_AUTO)
 484:.\Generated_Source\PSoC5/USB_std.c ****         #if (CY_PSOC4)
 485:.\Generated_Source\PSoC5/USB_std.c ****             USB_ARB_EP16_BASE.arbEp[ep].rwRa16  = (uint32) USB_EP[ep].buffOffset;
 486:.\Generated_Source\PSoC5/USB_std.c ****             USB_ARB_EP16_BASE.arbEp[ep].rwWa16  = (uint32) USB_EP[ep].buffOffset;
 487:.\Generated_Source\PSoC5/USB_std.c ****         #else
 488:.\Generated_Source\PSoC5/USB_std.c ****             USB_ARB_EP_BASE.arbEp[ep].rwRa    = LO8(USB_EP[ep].buffOffset);
 946              		.loc 1 488 0 discriminator 2
 947 0070 2648     		ldr	r0, .L78
 948 0072 F979     		ldrb	r1, [r7, #7]	@ zero_extendqisi2
 949 0074 FA79     		ldrb	r2, [r7, #7]	@ zero_extendqisi2
 950 0076 264C     		ldr	r4, .L78+4
 951 0078 1346     		mov	r3, r2
 952 007a 5B00     		lsls	r3, r3, #1
 953 007c 1344     		add	r3, r3, r2
 954 007e 9B00     		lsls	r3, r3, #2
 955 0080 2344     		add	r3, r3, r4
 956 0082 DB88     		ldrh	r3, [r3, #6]	@ movhi
 957 0084 9BB2     		uxth	r3, r3
 958 0086 DAB2     		uxtb	r2, r3
 959 0088 0B01     		lsls	r3, r1, #4
 960 008a 0344     		add	r3, r3, r0
 961 008c 9A71     		strb	r2, [r3, #6]
 489:.\Generated_Source\PSoC5/USB_std.c ****             USB_ARB_EP_BASE.arbEp[ep].rwRaMsb = HI8(USB_EP[ep].buffOffset);
 962              		.loc 1 489 0 discriminator 2
 963 008e 1F48     		ldr	r0, .L78
 964 0090 F979     		ldrb	r1, [r7, #7]	@ zero_extendqisi2
 965 0092 FA79     		ldrb	r2, [r7, #7]	@ zero_extendqisi2
 966 0094 1E4C     		ldr	r4, .L78+4
 967 0096 1346     		mov	r3, r2
 968 0098 5B00     		lsls	r3, r3, #1
 969 009a 1344     		add	r3, r3, r2
 970 009c 9B00     		lsls	r3, r3, #2
 971 009e 2344     		add	r3, r3, r4
 972 00a0 DB88     		ldrh	r3, [r3, #6]	@ movhi
 973 00a2 9BB2     		uxth	r3, r3
 974 00a4 1B0A     		lsrs	r3, r3, #8
 975 00a6 9BB2     		uxth	r3, r3
 976 00a8 DAB2     		uxtb	r2, r3
 977 00aa 0B01     		lsls	r3, r1, #4
 978 00ac 0344     		add	r3, r3, r0
 979 00ae DA71     		strb	r2, [r3, #7]
 490:.\Generated_Source\PSoC5/USB_std.c ****             USB_ARB_EP_BASE.arbEp[ep].rwWa    = LO8(USB_EP[ep].buffOffset);
 980              		.loc 1 490 0 discriminator 2
 981 00b0 1648     		ldr	r0, .L78
 982 00b2 F979     		ldrb	r1, [r7, #7]	@ zero_extendqisi2
 983 00b4 FA79     		ldrb	r2, [r7, #7]	@ zero_extendqisi2
 984 00b6 164C     		ldr	r4, .L78+4
 985 00b8 1346     		mov	r3, r2
ARM GAS  C:\Users\LUKASC~1\AppData\Local\Temp\ccywSTdI.s 			page 28


 986 00ba 5B00     		lsls	r3, r3, #1
 987 00bc 1344     		add	r3, r3, r2
 988 00be 9B00     		lsls	r3, r3, #2
 989 00c0 2344     		add	r3, r3, r4
 990 00c2 DB88     		ldrh	r3, [r3, #6]	@ movhi
 991 00c4 9BB2     		uxth	r3, r3
 992 00c6 DAB2     		uxtb	r2, r3
 993 00c8 0B01     		lsls	r3, r1, #4
 994 00ca 0344     		add	r3, r3, r0
 995 00cc 1A71     		strb	r2, [r3, #4]
 491:.\Generated_Source\PSoC5/USB_std.c ****             USB_ARB_EP_BASE.arbEp[ep].rwWaMsb = HI8(USB_EP[ep].buffOffset);
 996              		.loc 1 491 0 discriminator 2
 997 00ce 0F48     		ldr	r0, .L78
 998 00d0 F979     		ldrb	r1, [r7, #7]	@ zero_extendqisi2
 999 00d2 FA79     		ldrb	r2, [r7, #7]	@ zero_extendqisi2
 1000 00d4 0E4C     		ldr	r4, .L78+4
 1001 00d6 1346     		mov	r3, r2
 1002 00d8 5B00     		lsls	r3, r3, #1
 1003 00da 1344     		add	r3, r3, r2
 1004 00dc 9B00     		lsls	r3, r3, #2
 1005 00de 2344     		add	r3, r3, r4
 1006 00e0 DB88     		ldrh	r3, [r3, #6]	@ movhi
 1007 00e2 9BB2     		uxth	r3, r3
 1008 00e4 1B0A     		lsrs	r3, r3, #8
 1009 00e6 9BB2     		uxth	r3, r3
 1010 00e8 DAB2     		uxtb	r2, r3
 1011 00ea 0B01     		lsls	r3, r1, #4
 1012 00ec 0344     		add	r3, r3, r0
 1013 00ee 5A71     		strb	r2, [r3, #5]
 446:.\Generated_Source\PSoC5/USB_std.c ****     {
 1014              		.loc 1 446 0 discriminator 2
 1015 00f0 FB79     		ldrb	r3, [r7, #7]
 1016 00f2 0133     		adds	r3, r3, #1
 1017 00f4 FB71     		strb	r3, [r7, #7]
 1018              	.L72:
 446:.\Generated_Source\PSoC5/USB_std.c ****     {
 1019              		.loc 1 446 0 is_stmt 0 discriminator 1
 1020 00f6 FB79     		ldrb	r3, [r7, #7]	@ zero_extendqisi2
 1021 00f8 082B     		cmp	r3, #8
 1022 00fa 87D9     		bls	.L77
 492:.\Generated_Source\PSoC5/USB_std.c ****         #endif /* (CY_PSOC4) */
 493:.\Generated_Source\PSoC5/USB_std.c ****     #endif /* (!USB_EP_MANAGEMENT_DMA_AUTO) */
 494:.\Generated_Source\PSoC5/USB_std.c ****     }
 495:.\Generated_Source\PSoC5/USB_std.c **** 
 496:.\Generated_Source\PSoC5/USB_std.c **** #if (USB_EP_MANAGEMENT_DMA_AUTO)
 497:.\Generated_Source\PSoC5/USB_std.c ****      /* BUF_SIZE depend on DMA_THRESS value:0x55-32 bytes  0x44-16 bytes 0x33-8 bytes 0x22-4 bytes 
 498:.\Generated_Source\PSoC5/USB_std.c ****     USB_BUF_SIZE_REG = USB_DMA_BUF_SIZE;
 499:.\Generated_Source\PSoC5/USB_std.c **** 
 500:.\Generated_Source\PSoC5/USB_std.c ****     /* Configure DMA burst threshold */
 501:.\Generated_Source\PSoC5/USB_std.c **** #if (CY_PSOC4)
 502:.\Generated_Source\PSoC5/USB_std.c ****     USB_DMA_THRES16_REG   = USB_DMA_BYTES_PER_BURST;
 503:.\Generated_Source\PSoC5/USB_std.c **** #else
 504:.\Generated_Source\PSoC5/USB_std.c ****     USB_DMA_THRES_REG     = USB_DMA_BYTES_PER_BURST;
 505:.\Generated_Source\PSoC5/USB_std.c ****     USB_DMA_THRES_MSB_REG = 0u;
 506:.\Generated_Source\PSoC5/USB_std.c **** #endif /* (CY_PSOC4) */
 507:.\Generated_Source\PSoC5/USB_std.c ****     USB_EP_ACTIVE_REG = USB_DEFAULT_ARB_INT_EN;
 508:.\Generated_Source\PSoC5/USB_std.c ****     USB_EP_TYPE_REG   = epType;
ARM GAS  C:\Users\LUKASC~1\AppData\Local\Temp\ccywSTdI.s 			page 29


 509:.\Generated_Source\PSoC5/USB_std.c ****     
 510:.\Generated_Source\PSoC5/USB_std.c ****     /* Cfg_cmp bit set to 1 once configuration is complete. */
 511:.\Generated_Source\PSoC5/USB_std.c ****     /* Lock arbiter configtuation */
 512:.\Generated_Source\PSoC5/USB_std.c ****     USB_ARB_CFG_REG |= (uint8)  USB_ARB_CFG_CFG_CMP;
 513:.\Generated_Source\PSoC5/USB_std.c ****     /* Cfg_cmp bit set to 0 during configuration of PFSUSB Registers. */
 514:.\Generated_Source\PSoC5/USB_std.c ****     USB_ARB_CFG_REG &= (uint8) ~USB_ARB_CFG_CFG_CMP;
 515:.\Generated_Source\PSoC5/USB_std.c **** 
 516:.\Generated_Source\PSoC5/USB_std.c **** #endif /* (USB_EP_MANAGEMENT_DMA_AUTO) */
 517:.\Generated_Source\PSoC5/USB_std.c **** 
 518:.\Generated_Source\PSoC5/USB_std.c ****     /* Enable interrupt SIE interurpt source from EP0-EP1 */
 519:.\Generated_Source\PSoC5/USB_std.c ****     USB_SIE_EP_INT_EN_REG = (uint8) USB_DEFAULT_SIE_EP_INT_EN;
 1023              		.loc 1 519 0 is_stmt 1
 1024 00fc 064B     		ldr	r3, .L78+12
 1025 00fe FF22     		movs	r2, #255
 1026 0100 1A70     		strb	r2, [r3]
 520:.\Generated_Source\PSoC5/USB_std.c **** }
 1027              		.loc 1 520 0
 1028 0102 0837     		adds	r7, r7, #8
 1029              		.cfi_def_cfa_offset 8
 1030 0104 BD46     		mov	sp, r7
 1031              		.cfi_def_cfa_register 13
 1032              		@ sp needed
 1033 0106 90BC     		pop	{r4, r7}
 1034              		.cfi_restore 7
 1035              		.cfi_restore 4
 1036              		.cfi_def_cfa_offset 0
 1037 0108 7047     		bx	lr
 1038              	.L79:
 1039 010a 00BF     		.align	2
 1040              	.L78:
 1041 010c 70600040 		.word	1073766512
 1042 0110 00000000 		.word	USB_EP
 1043 0114 FC5F0040 		.word	1073766396
 1044 0118 0A600040 		.word	1073766410
 1045              		.cfi_endproc
 1046              	.LFE2:
 1047              		.size	USB_ConfigReg, .-USB_ConfigReg
 1048              		.section	.text.USB_EpStateInit,"ax",%progbits
 1049              		.align	2
 1050              		.global	USB_EpStateInit
 1051              		.thumb
 1052              		.thumb_func
 1053              		.type	USB_EpStateInit, %function
 1054              	USB_EpStateInit:
 1055              	.LFB3:
 521:.\Generated_Source\PSoC5/USB_std.c **** 
 522:.\Generated_Source\PSoC5/USB_std.c **** 
 523:.\Generated_Source\PSoC5/USB_std.c **** /*******************************************************************************
 524:.\Generated_Source\PSoC5/USB_std.c **** * Function Name: USB_EpStateInit
 525:.\Generated_Source\PSoC5/USB_std.c **** ****************************************************************************//**
 526:.\Generated_Source\PSoC5/USB_std.c **** *
 527:.\Generated_Source\PSoC5/USB_std.c **** *  This routine initialize state of Data end points based of its type: 
 528:.\Generated_Source\PSoC5/USB_std.c **** *   IN  - USB_IN_BUFFER_EMPTY (USB_EVENT_PENDING)
 529:.\Generated_Source\PSoC5/USB_std.c **** *   OUT - USB_OUT_BUFFER_EMPTY (USB_NO_EVENT_PENDING)
 530:.\Generated_Source\PSoC5/USB_std.c **** *
 531:.\Generated_Source\PSoC5/USB_std.c **** *******************************************************************************/
 532:.\Generated_Source\PSoC5/USB_std.c **** void USB_EpStateInit(void) 
ARM GAS  C:\Users\LUKASC~1\AppData\Local\Temp\ccywSTdI.s 			page 30


 533:.\Generated_Source\PSoC5/USB_std.c **** {
 1056              		.loc 1 533 0
 1057              		.cfi_startproc
 1058              		@ args = 0, pretend = 0, frame = 8
 1059              		@ frame_needed = 1, uses_anonymous_args = 0
 1060              		@ link register save eliminated.
 1061 0000 80B4     		push	{r7}
 1062              		.cfi_def_cfa_offset 4
 1063              		.cfi_offset 7, -4
 1064 0002 83B0     		sub	sp, sp, #12
 1065              		.cfi_def_cfa_offset 16
 1066 0004 00AF     		add	r7, sp, #0
 1067              		.cfi_def_cfa_register 7
 534:.\Generated_Source\PSoC5/USB_std.c ****     uint8 i;
 535:.\Generated_Source\PSoC5/USB_std.c **** 
 536:.\Generated_Source\PSoC5/USB_std.c ****     for (i = USB_EP1; i < USB_MAX_EP; i++)
 1068              		.loc 1 536 0
 1069 0006 0123     		movs	r3, #1
 1070 0008 FB71     		strb	r3, [r7, #7]
 1071 000a 22E0     		b	.L81
 1072              	.L84:
 537:.\Generated_Source\PSoC5/USB_std.c ****     { 
 538:.\Generated_Source\PSoC5/USB_std.c ****         if (0u != (USB_EP[i].addr & USB_DIR_IN))
 1073              		.loc 1 538 0
 1074 000c FA79     		ldrb	r2, [r7, #7]	@ zero_extendqisi2
 1075 000e 1549     		ldr	r1, .L85
 1076 0010 1346     		mov	r3, r2
 1077 0012 5B00     		lsls	r3, r3, #1
 1078 0014 1344     		add	r3, r3, r2
 1079 0016 9B00     		lsls	r3, r3, #2
 1080 0018 0B44     		add	r3, r3, r1
 1081 001a 1B79     		ldrb	r3, [r3, #4]
 1082 001c DBB2     		uxtb	r3, r3
 1083 001e DBB2     		uxtb	r3, r3
 1084 0020 5BB2     		sxtb	r3, r3
 1085 0022 002B     		cmp	r3, #0
 1086 0024 09DA     		bge	.L82
 539:.\Generated_Source\PSoC5/USB_std.c ****         {
 540:.\Generated_Source\PSoC5/USB_std.c ****             /* IN Endpoint */
 541:.\Generated_Source\PSoC5/USB_std.c ****             USB_EP[i].apiEpState = USB_EVENT_PENDING;
 1087              		.loc 1 541 0
 1088 0026 FA79     		ldrb	r2, [r7, #7]	@ zero_extendqisi2
 1089 0028 0E49     		ldr	r1, .L85
 1090 002a 1346     		mov	r3, r2
 1091 002c 5B00     		lsls	r3, r3, #1
 1092 002e 1344     		add	r3, r3, r2
 1093 0030 9B00     		lsls	r3, r3, #2
 1094 0032 0B44     		add	r3, r3, r1
 1095 0034 0122     		movs	r2, #1
 1096 0036 5A70     		strb	r2, [r3, #1]
 1097 0038 08E0     		b	.L83
 1098              	.L82:
 542:.\Generated_Source\PSoC5/USB_std.c ****         }
 543:.\Generated_Source\PSoC5/USB_std.c ****         else
 544:.\Generated_Source\PSoC5/USB_std.c ****         {
 545:.\Generated_Source\PSoC5/USB_std.c ****             /* OUT Endpoint */
 546:.\Generated_Source\PSoC5/USB_std.c ****             USB_EP[i].apiEpState = USB_NO_EVENT_PENDING;
ARM GAS  C:\Users\LUKASC~1\AppData\Local\Temp\ccywSTdI.s 			page 31


 1099              		.loc 1 546 0
 1100 003a FA79     		ldrb	r2, [r7, #7]	@ zero_extendqisi2
 1101 003c 0949     		ldr	r1, .L85
 1102 003e 1346     		mov	r3, r2
 1103 0040 5B00     		lsls	r3, r3, #1
 1104 0042 1344     		add	r3, r3, r2
 1105 0044 9B00     		lsls	r3, r3, #2
 1106 0046 0B44     		add	r3, r3, r1
 1107 0048 0022     		movs	r2, #0
 1108 004a 5A70     		strb	r2, [r3, #1]
 1109              	.L83:
 536:.\Generated_Source\PSoC5/USB_std.c ****     { 
 1110              		.loc 1 536 0 discriminator 2
 1111 004c FB79     		ldrb	r3, [r7, #7]	@ zero_extendqisi2
 1112 004e 0133     		adds	r3, r3, #1
 1113 0050 FB71     		strb	r3, [r7, #7]
 1114              	.L81:
 536:.\Generated_Source\PSoC5/USB_std.c ****     { 
 1115              		.loc 1 536 0 is_stmt 0 discriminator 1
 1116 0052 FB79     		ldrb	r3, [r7, #7]	@ zero_extendqisi2
 1117 0054 082B     		cmp	r3, #8
 1118 0056 D9D9     		bls	.L84
 547:.\Generated_Source\PSoC5/USB_std.c ****         }
 548:.\Generated_Source\PSoC5/USB_std.c ****     }
 549:.\Generated_Source\PSoC5/USB_std.c ****                     
 550:.\Generated_Source\PSoC5/USB_std.c **** }
 1119              		.loc 1 550 0 is_stmt 1
 1120 0058 0C37     		adds	r7, r7, #12
 1121              		.cfi_def_cfa_offset 4
 1122 005a BD46     		mov	sp, r7
 1123              		.cfi_def_cfa_register 13
 1124              		@ sp needed
 1125 005c 5DF8047B 		ldr	r7, [sp], #4
 1126              		.cfi_restore 7
 1127              		.cfi_def_cfa_offset 0
 1128 0060 7047     		bx	lr
 1129              	.L86:
 1130 0062 00BF     		.align	2
 1131              	.L85:
 1132 0064 00000000 		.word	USB_EP
 1133              		.cfi_endproc
 1134              	.LFE3:
 1135              		.size	USB_EpStateInit, .-USB_EpStateInit
 1136              		.section	.text.USB_Config,"ax",%progbits
 1137              		.align	2
 1138              		.global	USB_Config
 1139              		.thumb
 1140              		.thumb_func
 1141              		.type	USB_Config, %function
 1142              	USB_Config:
 1143              	.LFB4:
 551:.\Generated_Source\PSoC5/USB_std.c **** 
 552:.\Generated_Source\PSoC5/USB_std.c **** 
 553:.\Generated_Source\PSoC5/USB_std.c **** /*******************************************************************************
 554:.\Generated_Source\PSoC5/USB_std.c **** * Function Name: USB_Config
 555:.\Generated_Source\PSoC5/USB_std.c **** ****************************************************************************//**
 556:.\Generated_Source\PSoC5/USB_std.c **** *
ARM GAS  C:\Users\LUKASC~1\AppData\Local\Temp\ccywSTdI.s 			page 32


 557:.\Generated_Source\PSoC5/USB_std.c **** *  This routine configures endpoints for the entire configuration by scanning
 558:.\Generated_Source\PSoC5/USB_std.c **** *  the configuration descriptor.
 559:.\Generated_Source\PSoC5/USB_std.c **** *
 560:.\Generated_Source\PSoC5/USB_std.c **** *  \param clearAltSetting: It configures the bAlternateSetting 0 for each interface.
 561:.\Generated_Source\PSoC5/USB_std.c **** *
 562:.\Generated_Source\PSoC5/USB_std.c **** * USB_interfaceClass - Initialized class array for each interface.
 563:.\Generated_Source\PSoC5/USB_std.c **** *   It is used for handling Class specific requests depend on interface class.
 564:.\Generated_Source\PSoC5/USB_std.c **** *   Different classes in multiple Alternate settings does not supported.
 565:.\Generated_Source\PSoC5/USB_std.c **** *
 566:.\Generated_Source\PSoC5/USB_std.c **** * \reentrant
 567:.\Generated_Source\PSoC5/USB_std.c **** *  No.
 568:.\Generated_Source\PSoC5/USB_std.c **** *
 569:.\Generated_Source\PSoC5/USB_std.c **** *******************************************************************************/
 570:.\Generated_Source\PSoC5/USB_std.c **** void USB_Config(uint8 clearAltSetting) 
 571:.\Generated_Source\PSoC5/USB_std.c **** {
 1144              		.loc 1 571 0
 1145              		.cfi_startproc
 1146              		@ args = 0, pretend = 0, frame = 32
 1147              		@ frame_needed = 1, uses_anonymous_args = 0
 1148 0000 80B5     		push	{r7, lr}
 1149              		.cfi_def_cfa_offset 8
 1150              		.cfi_offset 7, -8
 1151              		.cfi_offset 14, -4
 1152 0002 88B0     		sub	sp, sp, #32
 1153              		.cfi_def_cfa_offset 40
 1154 0004 00AF     		add	r7, sp, #0
 1155              		.cfi_def_cfa_register 7
 1156 0006 0346     		mov	r3, r0
 1157 0008 FB71     		strb	r3, [r7, #7]
 572:.\Generated_Source\PSoC5/USB_std.c ****     uint8 ep;
 573:.\Generated_Source\PSoC5/USB_std.c ****     uint8 curEp;
 574:.\Generated_Source\PSoC5/USB_std.c ****     uint8 i;
 575:.\Generated_Source\PSoC5/USB_std.c ****     uint8 epType;
 576:.\Generated_Source\PSoC5/USB_std.c ****     const uint8 *pDescr;
 577:.\Generated_Source\PSoC5/USB_std.c ****     
 578:.\Generated_Source\PSoC5/USB_std.c ****     #if (!USB_EP_MANAGEMENT_DMA_AUTO)
 579:.\Generated_Source\PSoC5/USB_std.c ****         uint16 buffCount = 0u;
 1158              		.loc 1 579 0
 1159 000a 0023     		movs	r3, #0
 1160 000c 7B83     		strh	r3, [r7, #26]	@ movhi
 580:.\Generated_Source\PSoC5/USB_std.c ****     #endif /* (!USB_EP_MANAGEMENT_DMA_AUTO) */
 581:.\Generated_Source\PSoC5/USB_std.c **** 
 582:.\Generated_Source\PSoC5/USB_std.c ****     const T_USB_LUT CYCODE *pTmp;
 583:.\Generated_Source\PSoC5/USB_std.c ****     const T_USB_EP_SETTINGS_BLOCK CYCODE *pEP;
 584:.\Generated_Source\PSoC5/USB_std.c **** 
 585:.\Generated_Source\PSoC5/USB_std.c ****     /* Clear endpoints settings */
 586:.\Generated_Source\PSoC5/USB_std.c ****     for (ep = 0u; ep < USB_MAX_EP; ++ep)
 1161              		.loc 1 586 0
 1162 000e 0023     		movs	r3, #0
 1163 0010 FB77     		strb	r3, [r7, #31]
 1164 0012 43E0     		b	.L88
 1165              	.L89:
 587:.\Generated_Source\PSoC5/USB_std.c ****     {
 588:.\Generated_Source\PSoC5/USB_std.c ****         USB_EP[ep].attrib     = 0u;
 1166              		.loc 1 588 0 discriminator 3
 1167 0014 FA7F     		ldrb	r2, [r7, #31]	@ zero_extendqisi2
 1168 0016 B049     		ldr	r1, .L112
ARM GAS  C:\Users\LUKASC~1\AppData\Local\Temp\ccywSTdI.s 			page 33


 1169 0018 1346     		mov	r3, r2
 1170 001a 5B00     		lsls	r3, r3, #1
 1171 001c 1344     		add	r3, r3, r2
 1172 001e 9B00     		lsls	r3, r3, #2
 1173 0020 0B44     		add	r3, r3, r1
 1174 0022 0022     		movs	r2, #0
 1175 0024 1A70     		strb	r2, [r3]
 589:.\Generated_Source\PSoC5/USB_std.c ****         USB_EP[ep].hwEpState  = 0u;
 1176              		.loc 1 589 0 discriminator 3
 1177 0026 FA7F     		ldrb	r2, [r7, #31]	@ zero_extendqisi2
 1178 0028 AB49     		ldr	r1, .L112
 1179 002a 1346     		mov	r3, r2
 1180 002c 5B00     		lsls	r3, r3, #1
 1181 002e 1344     		add	r3, r3, r2
 1182 0030 9B00     		lsls	r3, r3, #2
 1183 0032 0B44     		add	r3, r3, r1
 1184 0034 0022     		movs	r2, #0
 1185 0036 9A70     		strb	r2, [r3, #2]
 590:.\Generated_Source\PSoC5/USB_std.c ****         USB_EP[ep].epToggle   = 0u;
 1186              		.loc 1 590 0 discriminator 3
 1187 0038 FA7F     		ldrb	r2, [r7, #31]	@ zero_extendqisi2
 1188 003a A749     		ldr	r1, .L112
 1189 003c 1346     		mov	r3, r2
 1190 003e 5B00     		lsls	r3, r3, #1
 1191 0040 1344     		add	r3, r3, r2
 1192 0042 9B00     		lsls	r3, r3, #2
 1193 0044 0B44     		add	r3, r3, r1
 1194 0046 0022     		movs	r2, #0
 1195 0048 DA70     		strb	r2, [r3, #3]
 591:.\Generated_Source\PSoC5/USB_std.c ****         USB_EP[ep].bufferSize = 0u;
 1196              		.loc 1 591 0 discriminator 3
 1197 004a FA7F     		ldrb	r2, [r7, #31]	@ zero_extendqisi2
 1198 004c A249     		ldr	r1, .L112
 1199 004e 1346     		mov	r3, r2
 1200 0050 5B00     		lsls	r3, r3, #1
 1201 0052 1344     		add	r3, r3, r2
 1202 0054 9B00     		lsls	r3, r3, #2
 1203 0056 0B44     		add	r3, r3, r1
 1204 0058 0833     		adds	r3, r3, #8
 1205 005a 0022     		movs	r2, #0
 1206 005c 1A80     		strh	r2, [r3]	@ movhi
 592:.\Generated_Source\PSoC5/USB_std.c ****         USB_EP[ep].interface  = 0u;
 1207              		.loc 1 592 0 discriminator 3
 1208 005e FA7F     		ldrb	r2, [r7, #31]	@ zero_extendqisi2
 1209 0060 9D49     		ldr	r1, .L112
 1210 0062 1346     		mov	r3, r2
 1211 0064 5B00     		lsls	r3, r3, #1
 1212 0066 1344     		add	r3, r3, r2
 1213 0068 9B00     		lsls	r3, r3, #2
 1214 006a 0B44     		add	r3, r3, r1
 1215 006c 0833     		adds	r3, r3, #8
 1216 006e 0022     		movs	r2, #0
 1217 0070 9A70     		strb	r2, [r3, #2]
 593:.\Generated_Source\PSoC5/USB_std.c ****         USB_EP[ep].apiEpState = USB_NO_EVENT_PENDING;
 1218              		.loc 1 593 0 discriminator 3
 1219 0072 FA7F     		ldrb	r2, [r7, #31]	@ zero_extendqisi2
 1220 0074 9849     		ldr	r1, .L112
ARM GAS  C:\Users\LUKASC~1\AppData\Local\Temp\ccywSTdI.s 			page 34


 1221 0076 1346     		mov	r3, r2
 1222 0078 5B00     		lsls	r3, r3, #1
 1223 007a 1344     		add	r3, r3, r2
 1224 007c 9B00     		lsls	r3, r3, #2
 1225 007e 0B44     		add	r3, r3, r1
 1226 0080 0022     		movs	r2, #0
 1227 0082 5A70     		strb	r2, [r3, #1]
 594:.\Generated_Source\PSoC5/USB_std.c ****         USB_EP[ep].epMode     = USB_MODE_DISABLE;   
 1228              		.loc 1 594 0 discriminator 3
 1229 0084 FA7F     		ldrb	r2, [r7, #31]	@ zero_extendqisi2
 1230 0086 9449     		ldr	r1, .L112
 1231 0088 1346     		mov	r3, r2
 1232 008a 5B00     		lsls	r3, r3, #1
 1233 008c 1344     		add	r3, r3, r2
 1234 008e 9B00     		lsls	r3, r3, #2
 1235 0090 0B44     		add	r3, r3, r1
 1236 0092 0022     		movs	r2, #0
 1237 0094 5A71     		strb	r2, [r3, #5]
 586:.\Generated_Source\PSoC5/USB_std.c ****     {
 1238              		.loc 1 586 0 discriminator 3
 1239 0096 FB7F     		ldrb	r3, [r7, #31]
 1240 0098 0133     		adds	r3, r3, #1
 1241 009a FB77     		strb	r3, [r7, #31]
 1242              	.L88:
 586:.\Generated_Source\PSoC5/USB_std.c ****     {
 1243              		.loc 1 586 0 is_stmt 0 discriminator 1
 1244 009c FB7F     		ldrb	r3, [r7, #31]	@ zero_extendqisi2
 1245 009e 082B     		cmp	r3, #8
 1246 00a0 B8D9     		bls	.L89
 595:.\Generated_Source\PSoC5/USB_std.c ****     }
 596:.\Generated_Source\PSoC5/USB_std.c **** 
 597:.\Generated_Source\PSoC5/USB_std.c ****     /* Clear Alternate settings for all interfaces. */
 598:.\Generated_Source\PSoC5/USB_std.c ****     if (0u != clearAltSetting)
 1247              		.loc 1 598 0 is_stmt 1
 1248 00a2 FB79     		ldrb	r3, [r7, #7]	@ zero_extendqisi2
 1249 00a4 002B     		cmp	r3, #0
 1250 00a6 10D0     		beq	.L90
 599:.\Generated_Source\PSoC5/USB_std.c ****     {
 600:.\Generated_Source\PSoC5/USB_std.c ****         for (i = 0u; i < USB_MAX_INTERFACES_NUMBER; ++i)
 1251              		.loc 1 600 0
 1252 00a8 0023     		movs	r3, #0
 1253 00aa 7B77     		strb	r3, [r7, #29]
 1254 00ac 0AE0     		b	.L91
 1255              	.L92:
 601:.\Generated_Source\PSoC5/USB_std.c ****         {
 602:.\Generated_Source\PSoC5/USB_std.c ****             USB_interfaceSetting[i]     = 0u;
 1256              		.loc 1 602 0 discriminator 3
 1257 00ae 7B7F     		ldrb	r3, [r7, #29]	@ zero_extendqisi2
 1258 00b0 8A4A     		ldr	r2, .L112+4
 1259 00b2 0021     		movs	r1, #0
 1260 00b4 D154     		strb	r1, [r2, r3]
 603:.\Generated_Source\PSoC5/USB_std.c ****             USB_interfaceSettingLast[i] = 0u;
 1261              		.loc 1 603 0 discriminator 3
 1262 00b6 7B7F     		ldrb	r3, [r7, #29]	@ zero_extendqisi2
 1263 00b8 894A     		ldr	r2, .L112+8
 1264 00ba 0021     		movs	r1, #0
 1265 00bc D154     		strb	r1, [r2, r3]
ARM GAS  C:\Users\LUKASC~1\AppData\Local\Temp\ccywSTdI.s 			page 35


 600:.\Generated_Source\PSoC5/USB_std.c ****         {
 1266              		.loc 1 600 0 discriminator 3
 1267 00be 7B7F     		ldrb	r3, [r7, #29]
 1268 00c0 0133     		adds	r3, r3, #1
 1269 00c2 7B77     		strb	r3, [r7, #29]
 1270              	.L91:
 600:.\Generated_Source\PSoC5/USB_std.c ****         {
 1271              		.loc 1 600 0 is_stmt 0 discriminator 1
 1272 00c4 7B7F     		ldrb	r3, [r7, #29]	@ zero_extendqisi2
 1273 00c6 012B     		cmp	r3, #1
 1274 00c8 F1D9     		bls	.L92
 1275              	.L90:
 604:.\Generated_Source\PSoC5/USB_std.c ****         }
 605:.\Generated_Source\PSoC5/USB_std.c ****     }
 606:.\Generated_Source\PSoC5/USB_std.c **** 
 607:.\Generated_Source\PSoC5/USB_std.c ****     /* Init Endpoints and Device Status if configured */
 608:.\Generated_Source\PSoC5/USB_std.c ****     if (USB_configuration > 0u)
 1276              		.loc 1 608 0 is_stmt 1
 1277 00ca 864B     		ldr	r3, .L112+12
 1278 00cc 1B78     		ldrb	r3, [r3]
 1279 00ce DBB2     		uxtb	r3, r3
 1280 00d0 002B     		cmp	r3, #0
 1281 00d2 00F03681 		beq	.L87
 609:.\Generated_Source\PSoC5/USB_std.c ****     {
 610:.\Generated_Source\PSoC5/USB_std.c ****         #if defined(USB_ENABLE_CDC_CLASS)
 611:.\Generated_Source\PSoC5/USB_std.c ****             uint8 cdcComNums = 0u;
 612:.\Generated_Source\PSoC5/USB_std.c ****         #endif  /* (USB_ENABLE_CDC_CLASS) */  
 613:.\Generated_Source\PSoC5/USB_std.c **** 
 614:.\Generated_Source\PSoC5/USB_std.c ****         pTmp = USB_GetConfigTablePtr(USB_configuration - 1u);
 1282              		.loc 1 614 0
 1283 00d6 834B     		ldr	r3, .L112+12
 1284 00d8 1B78     		ldrb	r3, [r3]
 1285 00da DBB2     		uxtb	r3, r3
 1286 00dc 013B     		subs	r3, r3, #1
 1287 00de DBB2     		uxtb	r3, r3
 1288 00e0 1846     		mov	r0, r3
 1289 00e2 FFF7FEFF 		bl	USB_GetConfigTablePtr
 1290 00e6 3861     		str	r0, [r7, #16]
 615:.\Generated_Source\PSoC5/USB_std.c ****         
 616:.\Generated_Source\PSoC5/USB_std.c ****         /* Set Power status for current configuration */
 617:.\Generated_Source\PSoC5/USB_std.c ****         pDescr = (const uint8 *)pTmp->p_list;
 1291              		.loc 1 617 0
 1292 00e8 3B69     		ldr	r3, [r7, #16]
 1293 00ea 5B68     		ldr	r3, [r3, #4]
 1294 00ec FB60     		str	r3, [r7, #12]
 618:.\Generated_Source\PSoC5/USB_std.c ****         if ((pDescr[USB_CONFIG_DESCR_ATTRIB] & USB_CONFIG_DESCR_ATTRIB_SELF_POWERED) != 0u)
 1295              		.loc 1 618 0
 1296 00ee FB68     		ldr	r3, [r7, #12]
 1297 00f0 0733     		adds	r3, r3, #7
 1298 00f2 1B78     		ldrb	r3, [r3]	@ zero_extendqisi2
 1299 00f4 03F04003 		and	r3, r3, #64
 1300 00f8 002B     		cmp	r3, #0
 1301 00fa 08D0     		beq	.L94
 619:.\Generated_Source\PSoC5/USB_std.c ****         {
 620:.\Generated_Source\PSoC5/USB_std.c ****             USB_deviceStatus |= (uint8)  USB_DEVICE_STATUS_SELF_POWERED;
 1302              		.loc 1 620 0
 1303 00fc 7A4B     		ldr	r3, .L112+16
ARM GAS  C:\Users\LUKASC~1\AppData\Local\Temp\ccywSTdI.s 			page 36


 1304 00fe 1B78     		ldrb	r3, [r3]
 1305 0100 DBB2     		uxtb	r3, r3
 1306 0102 43F00103 		orr	r3, r3, #1
 1307 0106 DAB2     		uxtb	r2, r3
 1308 0108 774B     		ldr	r3, .L112+16
 1309 010a 1A70     		strb	r2, [r3]
 1310 010c 07E0     		b	.L95
 1311              	.L94:
 621:.\Generated_Source\PSoC5/USB_std.c ****         }
 622:.\Generated_Source\PSoC5/USB_std.c ****         else
 623:.\Generated_Source\PSoC5/USB_std.c ****         {
 624:.\Generated_Source\PSoC5/USB_std.c ****             USB_deviceStatus &= (uint8) ~USB_DEVICE_STATUS_SELF_POWERED;
 1312              		.loc 1 624 0
 1313 010e 764B     		ldr	r3, .L112+16
 1314 0110 1B78     		ldrb	r3, [r3]
 1315 0112 DBB2     		uxtb	r3, r3
 1316 0114 23F00103 		bic	r3, r3, #1
 1317 0118 DAB2     		uxtb	r2, r3
 1318 011a 734B     		ldr	r3, .L112+16
 1319 011c 1A70     		strb	r2, [r3]
 1320              	.L95:
 625:.\Generated_Source\PSoC5/USB_std.c ****         }
 626:.\Generated_Source\PSoC5/USB_std.c ****         
 627:.\Generated_Source\PSoC5/USB_std.c ****         /* Move to next element */
 628:.\Generated_Source\PSoC5/USB_std.c ****         pTmp = &pTmp[1u];
 1321              		.loc 1 628 0
 1322 011e 3B69     		ldr	r3, [r7, #16]
 1323 0120 0833     		adds	r3, r3, #8
 1324 0122 3B61     		str	r3, [r7, #16]
 629:.\Generated_Source\PSoC5/USB_std.c ****         ep = pTmp->c;  /* For this table, c is the number of endpoints configurations  */
 1325              		.loc 1 629 0
 1326 0124 3B69     		ldr	r3, [r7, #16]
 1327 0126 1B78     		ldrb	r3, [r3]
 1328 0128 FB77     		strb	r3, [r7, #31]
 630:.\Generated_Source\PSoC5/USB_std.c **** 
 631:.\Generated_Source\PSoC5/USB_std.c ****         #if (USB_EP_MANAGEMENT_MANUAL && USB_EP_ALLOC_DYNAMIC)
 632:.\Generated_Source\PSoC5/USB_std.c ****             /* Configure for dynamic EP memory allocation */
 633:.\Generated_Source\PSoC5/USB_std.c ****             /* p_list points the endpoint setting table. */
 634:.\Generated_Source\PSoC5/USB_std.c ****             pEP = (T_USB_EP_SETTINGS_BLOCK *) pTmp->p_list;
 635:.\Generated_Source\PSoC5/USB_std.c ****             
 636:.\Generated_Source\PSoC5/USB_std.c ****             for (i = 0u; i < ep; i++)
 637:.\Generated_Source\PSoC5/USB_std.c ****             {     
 638:.\Generated_Source\PSoC5/USB_std.c ****                 /* Compare current Alternate setting with EP Alt */
 639:.\Generated_Source\PSoC5/USB_std.c ****                 if (USB_interfaceSetting[pEP->interface] == pEP->altSetting)
 640:.\Generated_Source\PSoC5/USB_std.c ****                 {                                                          
 641:.\Generated_Source\PSoC5/USB_std.c ****                     curEp  = pEP->addr & USB_DIR_UNUSED;
 642:.\Generated_Source\PSoC5/USB_std.c ****                     epType = pEP->attributes & USB_EP_TYPE_MASK;
 643:.\Generated_Source\PSoC5/USB_std.c ****                     
 644:.\Generated_Source\PSoC5/USB_std.c ****                     USB_EP[curEp].addr       = pEP->addr;
 645:.\Generated_Source\PSoC5/USB_std.c ****                     USB_EP[curEp].attrib     = pEP->attributes;
 646:.\Generated_Source\PSoC5/USB_std.c ****                     USB_EP[curEp].bufferSize = pEP->bufferSize;
 647:.\Generated_Source\PSoC5/USB_std.c **** 
 648:.\Generated_Source\PSoC5/USB_std.c ****                     if (0u != (pEP->addr & USB_DIR_IN))
 649:.\Generated_Source\PSoC5/USB_std.c ****                     {
 650:.\Generated_Source\PSoC5/USB_std.c ****                         /* IN Endpoint */
 651:.\Generated_Source\PSoC5/USB_std.c ****                         USB_EP[curEp].epMode     = USB_GET_ACTIVE_IN_EP_CR0_MODE(epType);
 652:.\Generated_Source\PSoC5/USB_std.c ****                         USB_EP[curEp].apiEpState = USB_EVENT_PENDING;
ARM GAS  C:\Users\LUKASC~1\AppData\Local\Temp\ccywSTdI.s 			page 37


 653:.\Generated_Source\PSoC5/USB_std.c ****                     
 654:.\Generated_Source\PSoC5/USB_std.c ****                     #if (defined(USB_ENABLE_MIDI_STREAMING) && (USB_MIDI_IN_BUFF_SIZE > 0))
 655:.\Generated_Source\PSoC5/USB_std.c ****                         if ((pEP->bMisc == USB_CLASS_AUDIO) && (epType == USB_EP_TYPE_BULK))
 656:.\Generated_Source\PSoC5/USB_std.c ****                         {
 657:.\Generated_Source\PSoC5/USB_std.c ****                             USB_midi_in_ep = curEp;
 658:.\Generated_Source\PSoC5/USB_std.c ****                         }
 659:.\Generated_Source\PSoC5/USB_std.c ****                     #endif  /* (USB_ENABLE_MIDI_STREAMING) */
 660:.\Generated_Source\PSoC5/USB_std.c ****                     }
 661:.\Generated_Source\PSoC5/USB_std.c ****                     else
 662:.\Generated_Source\PSoC5/USB_std.c ****                     {
 663:.\Generated_Source\PSoC5/USB_std.c ****                         /* OUT Endpoint */
 664:.\Generated_Source\PSoC5/USB_std.c ****                         USB_EP[curEp].epMode     = USB_GET_ACTIVE_OUT_EP_CR0_MODE(epType);
 665:.\Generated_Source\PSoC5/USB_std.c ****                         USB_EP[curEp].apiEpState = USB_NO_EVENT_PENDING;
 666:.\Generated_Source\PSoC5/USB_std.c ****                         
 667:.\Generated_Source\PSoC5/USB_std.c ****                     #if (defined(USB_ENABLE_MIDI_STREAMING) && (USB_MIDI_OUT_BUFF_SIZE > 0))
 668:.\Generated_Source\PSoC5/USB_std.c ****                         if ((pEP->bMisc == USB_CLASS_AUDIO) && (epType == USB_EP_TYPE_BULK))
 669:.\Generated_Source\PSoC5/USB_std.c ****                         {
 670:.\Generated_Source\PSoC5/USB_std.c ****                             USB_midi_out_ep = curEp;
 671:.\Generated_Source\PSoC5/USB_std.c ****                         }
 672:.\Generated_Source\PSoC5/USB_std.c ****                     #endif  /* (USB_ENABLE_MIDI_STREAMING) */
 673:.\Generated_Source\PSoC5/USB_std.c ****                     }
 674:.\Generated_Source\PSoC5/USB_std.c **** 
 675:.\Generated_Source\PSoC5/USB_std.c ****                 #if(defined (USB_ENABLE_CDC_CLASS))
 676:.\Generated_Source\PSoC5/USB_std.c ****                     if((pEP->bMisc == USB_CLASS_CDC_DATA) ||(pEP->bMisc == USB_CLASS_CDC))
 677:.\Generated_Source\PSoC5/USB_std.c ****                     {
 678:.\Generated_Source\PSoC5/USB_std.c ****                         cdcComNums = USB_Cdc_EpInit(pEP, curEp, cdcComNums);
 679:.\Generated_Source\PSoC5/USB_std.c ****                     }
 680:.\Generated_Source\PSoC5/USB_std.c ****                 #endif  /* (USB_ENABLE_CDC_CLASS) */
 681:.\Generated_Source\PSoC5/USB_std.c ****                 }
 682:.\Generated_Source\PSoC5/USB_std.c ****                 
 683:.\Generated_Source\PSoC5/USB_std.c ****                 pEP = &pEP[1u];
 684:.\Generated_Source\PSoC5/USB_std.c ****             }
 685:.\Generated_Source\PSoC5/USB_std.c ****             
 686:.\Generated_Source\PSoC5/USB_std.c ****         #else
 687:.\Generated_Source\PSoC5/USB_std.c ****             for (i = USB_EP1; i < USB_MAX_EP; ++i)
 1329              		.loc 1 687 0
 1330 012a 0123     		movs	r3, #1
 1331 012c 7B77     		strb	r3, [r7, #29]
 1332 012e A5E0     		b	.L96
 1333              	.L107:
 688:.\Generated_Source\PSoC5/USB_std.c ****             {
 689:.\Generated_Source\PSoC5/USB_std.c ****                 /* p_list points the endpoint setting table. */
 690:.\Generated_Source\PSoC5/USB_std.c ****                 pEP = (const T_USB_EP_SETTINGS_BLOCK CYCODE *) pTmp->p_list;
 1334              		.loc 1 690 0
 1335 0130 3B69     		ldr	r3, [r7, #16]
 1336 0132 5B68     		ldr	r3, [r3, #4]
 1337 0134 7B61     		str	r3, [r7, #20]
 691:.\Generated_Source\PSoC5/USB_std.c ****                 /* Find max length for each EP and select it (length could be different in differen
 692:.\Generated_Source\PSoC5/USB_std.c ****                 /* but other settings should be correct with regards to Interface alt Setting */
 693:.\Generated_Source\PSoC5/USB_std.c ****                 
 694:.\Generated_Source\PSoC5/USB_std.c ****                 for (curEp = 0u; curEp < ep; ++curEp)
 1338              		.loc 1 694 0
 1339 0136 0023     		movs	r3, #0
 1340 0138 BB77     		strb	r3, [r7, #30]
 1341 013a 97E0     		b	.L97
 1342              	.L106:
 695:.\Generated_Source\PSoC5/USB_std.c ****                 {
ARM GAS  C:\Users\LUKASC~1\AppData\Local\Temp\ccywSTdI.s 			page 38


 696:.\Generated_Source\PSoC5/USB_std.c ****                     if (i == (pEP->addr & USB_DIR_UNUSED))
 1343              		.loc 1 696 0
 1344 013c 7A7F     		ldrb	r2, [r7, #29]	@ zero_extendqisi2
 1345 013e 7B69     		ldr	r3, [r7, #20]
 1346 0140 9B78     		ldrb	r3, [r3, #2]	@ zero_extendqisi2
 1347 0142 03F07F03 		and	r3, r3, #127
 1348 0146 9A42     		cmp	r2, r3
 1349 0148 40F08A80 		bne	.L98
 697:.\Generated_Source\PSoC5/USB_std.c ****                     {
 698:.\Generated_Source\PSoC5/USB_std.c ****                         /* Compare endpoint buffers size with current size to find greater. */
 699:.\Generated_Source\PSoC5/USB_std.c ****                         if (USB_EP[i].bufferSize < pEP->bufferSize)
 1350              		.loc 1 699 0
 1351 014c 7A7F     		ldrb	r2, [r7, #29]	@ zero_extendqisi2
 1352 014e 6249     		ldr	r1, .L112
 1353 0150 1346     		mov	r3, r2
 1354 0152 5B00     		lsls	r3, r3, #1
 1355 0154 1344     		add	r3, r3, r2
 1356 0156 9B00     		lsls	r3, r3, #2
 1357 0158 0B44     		add	r3, r3, r1
 1358 015a 0833     		adds	r3, r3, #8
 1359 015c 1B88     		ldrh	r3, [r3]	@ movhi
 1360 015e 9AB2     		uxth	r2, r3
 1361 0160 7B69     		ldr	r3, [r7, #20]
 1362 0162 9B88     		ldrh	r3, [r3, #4]
 1363 0164 9A42     		cmp	r2, r3
 1364 0166 0BD2     		bcs	.L99
 700:.\Generated_Source\PSoC5/USB_std.c ****                         {
 701:.\Generated_Source\PSoC5/USB_std.c ****                             USB_EP[i].bufferSize = pEP->bufferSize;
 1365              		.loc 1 701 0
 1366 0168 7A7F     		ldrb	r2, [r7, #29]	@ zero_extendqisi2
 1367 016a 7B69     		ldr	r3, [r7, #20]
 1368 016c 9888     		ldrh	r0, [r3, #4]
 1369 016e 5A49     		ldr	r1, .L112
 1370 0170 1346     		mov	r3, r2
 1371 0172 5B00     		lsls	r3, r3, #1
 1372 0174 1344     		add	r3, r3, r2
 1373 0176 9B00     		lsls	r3, r3, #2
 1374 0178 0B44     		add	r3, r3, r1
 1375 017a 0833     		adds	r3, r3, #8
 1376 017c 0246     		mov	r2, r0	@ movhi
 1377 017e 1A80     		strh	r2, [r3]	@ movhi
 1378              	.L99:
 702:.\Generated_Source\PSoC5/USB_std.c ****                         }
 703:.\Generated_Source\PSoC5/USB_std.c ****                         
 704:.\Generated_Source\PSoC5/USB_std.c ****                         /* Compare current Alternate setting with EP Alt */
 705:.\Generated_Source\PSoC5/USB_std.c ****                         if (USB_interfaceSetting[pEP->interface] == pEP->altSetting)
 1379              		.loc 1 705 0
 1380 0180 7B69     		ldr	r3, [r7, #20]
 1381 0182 1B78     		ldrb	r3, [r3]	@ zero_extendqisi2
 1382 0184 1A46     		mov	r2, r3
 1383 0186 554B     		ldr	r3, .L112+4
 1384 0188 9B5C     		ldrb	r3, [r3, r2]
 1385 018a DAB2     		uxtb	r2, r3
 1386 018c 7B69     		ldr	r3, [r7, #20]
 1387 018e 5B78     		ldrb	r3, [r3, #1]	@ zero_extendqisi2
 1388 0190 9A42     		cmp	r2, r3
 1389 0192 65D1     		bne	.L98
ARM GAS  C:\Users\LUKASC~1\AppData\Local\Temp\ccywSTdI.s 			page 39


 706:.\Generated_Source\PSoC5/USB_std.c ****                         {                            
 707:.\Generated_Source\PSoC5/USB_std.c ****                             USB_EP[i].addr = pEP->addr;
 1390              		.loc 1 707 0
 1391 0194 7A7F     		ldrb	r2, [r7, #29]	@ zero_extendqisi2
 1392 0196 7B69     		ldr	r3, [r7, #20]
 1393 0198 9878     		ldrb	r0, [r3, #2]	@ zero_extendqisi2
 1394 019a 4F49     		ldr	r1, .L112
 1395 019c 1346     		mov	r3, r2
 1396 019e 5B00     		lsls	r3, r3, #1
 1397 01a0 1344     		add	r3, r3, r2
 1398 01a2 9B00     		lsls	r3, r3, #2
 1399 01a4 0B44     		add	r3, r3, r1
 1400 01a6 0246     		mov	r2, r0
 1401 01a8 1A71     		strb	r2, [r3, #4]
 708:.\Generated_Source\PSoC5/USB_std.c ****                             USB_EP[i].attrib = pEP->attributes;
 1402              		.loc 1 708 0
 1403 01aa 7A7F     		ldrb	r2, [r7, #29]	@ zero_extendqisi2
 1404 01ac 7B69     		ldr	r3, [r7, #20]
 1405 01ae D878     		ldrb	r0, [r3, #3]	@ zero_extendqisi2
 1406 01b0 4949     		ldr	r1, .L112
 1407 01b2 1346     		mov	r3, r2
 1408 01b4 5B00     		lsls	r3, r3, #1
 1409 01b6 1344     		add	r3, r3, r2
 1410 01b8 9B00     		lsls	r3, r3, #2
 1411 01ba 0B44     		add	r3, r3, r1
 1412 01bc 0246     		mov	r2, r0
 1413 01be 1A70     		strb	r2, [r3]
 709:.\Generated_Source\PSoC5/USB_std.c ****                             
 710:.\Generated_Source\PSoC5/USB_std.c ****                             epType = pEP->attributes & USB_EP_TYPE_MASK;
 1414              		.loc 1 710 0
 1415 01c0 7B69     		ldr	r3, [r7, #20]
 1416 01c2 DB78     		ldrb	r3, [r3, #3]	@ zero_extendqisi2
 1417 01c4 03F00303 		and	r3, r3, #3
 1418 01c8 FB72     		strb	r3, [r7, #11]
 711:.\Generated_Source\PSoC5/USB_std.c ****                             
 712:.\Generated_Source\PSoC5/USB_std.c ****                             if (0u != (pEP->addr & USB_DIR_IN))
 1419              		.loc 1 712 0
 1420 01ca 7B69     		ldr	r3, [r7, #20]
 1421 01cc 9B78     		ldrb	r3, [r3, #2]	@ zero_extendqisi2
 1422 01ce DBB2     		uxtb	r3, r3
 1423 01d0 5BB2     		sxtb	r3, r3
 1424 01d2 002B     		cmp	r3, #0
 1425 01d4 22DA     		bge	.L100
 713:.\Generated_Source\PSoC5/USB_std.c ****                             {
 714:.\Generated_Source\PSoC5/USB_std.c ****                                 /* IN Endpoint */
 715:.\Generated_Source\PSoC5/USB_std.c ****                                 USB_EP[i].epMode     = USB_GET_ACTIVE_IN_EP_CR0_MODE(epType);
 1426              		.loc 1 715 0
 1427 01d6 7A7F     		ldrb	r2, [r7, #29]	@ zero_extendqisi2
 1428 01d8 FB7A     		ldrb	r3, [r7, #11]	@ zero_extendqisi2
 1429 01da 012B     		cmp	r3, #1
 1430 01dc 01D1     		bne	.L101
 1431              		.loc 1 715 0 is_stmt 0 discriminator 1
 1432 01de 0720     		movs	r0, #7
 1433 01e0 00E0     		b	.L102
 1434              	.L101:
 1435              		.loc 1 715 0 discriminator 2
 1436 01e2 0D20     		movs	r0, #13
ARM GAS  C:\Users\LUKASC~1\AppData\Local\Temp\ccywSTdI.s 			page 40


 1437              	.L102:
 1438              		.loc 1 715 0 discriminator 4
 1439 01e4 3C49     		ldr	r1, .L112
 1440 01e6 1346     		mov	r3, r2
 1441 01e8 5B00     		lsls	r3, r3, #1
 1442 01ea 1344     		add	r3, r3, r2
 1443 01ec 9B00     		lsls	r3, r3, #2
 1444 01ee 0B44     		add	r3, r3, r1
 1445 01f0 0246     		mov	r2, r0
 1446 01f2 5A71     		strb	r2, [r3, #5]
 716:.\Generated_Source\PSoC5/USB_std.c ****                                 USB_EP[i].apiEpState = USB_EVENT_PENDING;
 1447              		.loc 1 716 0 is_stmt 1 discriminator 4
 1448 01f4 7A7F     		ldrb	r2, [r7, #29]	@ zero_extendqisi2
 1449 01f6 3849     		ldr	r1, .L112
 1450 01f8 1346     		mov	r3, r2
 1451 01fa 5B00     		lsls	r3, r3, #1
 1452 01fc 1344     		add	r3, r3, r2
 1453 01fe 9B00     		lsls	r3, r3, #2
 1454 0200 0B44     		add	r3, r3, r1
 1455 0202 0122     		movs	r2, #1
 1456 0204 5A70     		strb	r2, [r3, #1]
 717:.\Generated_Source\PSoC5/USB_std.c ****                                 
 718:.\Generated_Source\PSoC5/USB_std.c ****                             #if (defined(USB_ENABLE_MIDI_STREAMING) && (USB_MIDI_IN_BUFF_SIZE > 0))
 719:.\Generated_Source\PSoC5/USB_std.c ****                                 if ((pEP->bMisc == USB_CLASS_AUDIO) && (epType == USB_EP_TYPE_BULK)
 1457              		.loc 1 719 0 discriminator 4
 1458 0206 7B69     		ldr	r3, [r7, #20]
 1459 0208 9B79     		ldrb	r3, [r3, #6]	@ zero_extendqisi2
 1460 020a 012B     		cmp	r3, #1
 1461 020c 28D1     		bne	.L98
 1462              		.loc 1 719 0 is_stmt 0 discriminator 1
 1463 020e FB7A     		ldrb	r3, [r7, #11]	@ zero_extendqisi2
 1464 0210 022B     		cmp	r3, #2
 1465 0212 25D1     		bne	.L98
 720:.\Generated_Source\PSoC5/USB_std.c ****                                 {
 721:.\Generated_Source\PSoC5/USB_std.c ****                                     USB_midi_in_ep = i;
 1466              		.loc 1 721 0 is_stmt 1
 1467 0214 354A     		ldr	r2, .L112+20
 1468 0216 7B7F     		ldrb	r3, [r7, #29]
 1469 0218 1370     		strb	r3, [r2]
 1470 021a 21E0     		b	.L98
 1471              	.L100:
 722:.\Generated_Source\PSoC5/USB_std.c ****                                 }
 723:.\Generated_Source\PSoC5/USB_std.c ****                             #endif  /* (USB_ENABLE_MIDI_STREAMING) */
 724:.\Generated_Source\PSoC5/USB_std.c ****                             }
 725:.\Generated_Source\PSoC5/USB_std.c ****                             else
 726:.\Generated_Source\PSoC5/USB_std.c ****                             {
 727:.\Generated_Source\PSoC5/USB_std.c ****                                 /* OUT Endpoint */
 728:.\Generated_Source\PSoC5/USB_std.c ****                                 USB_EP[i].epMode     = USB_GET_ACTIVE_OUT_EP_CR0_MODE(epType);
 1472              		.loc 1 728 0
 1473 021c 7A7F     		ldrb	r2, [r7, #29]	@ zero_extendqisi2
 1474 021e FB7A     		ldrb	r3, [r7, #11]	@ zero_extendqisi2
 1475 0220 012B     		cmp	r3, #1
 1476 0222 01D1     		bne	.L104
 1477              		.loc 1 728 0 is_stmt 0 discriminator 1
 1478 0224 0520     		movs	r0, #5
 1479 0226 00E0     		b	.L105
 1480              	.L104:
ARM GAS  C:\Users\LUKASC~1\AppData\Local\Temp\ccywSTdI.s 			page 41


 1481              		.loc 1 728 0 discriminator 2
 1482 0228 0920     		movs	r0, #9
 1483              	.L105:
 1484              		.loc 1 728 0 discriminator 4
 1485 022a 2B49     		ldr	r1, .L112
 1486 022c 1346     		mov	r3, r2
 1487 022e 5B00     		lsls	r3, r3, #1
 1488 0230 1344     		add	r3, r3, r2
 1489 0232 9B00     		lsls	r3, r3, #2
 1490 0234 0B44     		add	r3, r3, r1
 1491 0236 0246     		mov	r2, r0
 1492 0238 5A71     		strb	r2, [r3, #5]
 729:.\Generated_Source\PSoC5/USB_std.c ****                                 USB_EP[i].apiEpState = USB_NO_EVENT_PENDING;
 1493              		.loc 1 729 0 is_stmt 1 discriminator 4
 1494 023a 7A7F     		ldrb	r2, [r7, #29]	@ zero_extendqisi2
 1495 023c 2649     		ldr	r1, .L112
 1496 023e 1346     		mov	r3, r2
 1497 0240 5B00     		lsls	r3, r3, #1
 1498 0242 1344     		add	r3, r3, r2
 1499 0244 9B00     		lsls	r3, r3, #2
 1500 0246 0B44     		add	r3, r3, r1
 1501 0248 0022     		movs	r2, #0
 1502 024a 5A70     		strb	r2, [r3, #1]
 730:.\Generated_Source\PSoC5/USB_std.c ****                                 
 731:.\Generated_Source\PSoC5/USB_std.c ****                             #if (defined(USB_ENABLE_MIDI_STREAMING) && (USB_MIDI_OUT_BUFF_SIZE > 0)
 732:.\Generated_Source\PSoC5/USB_std.c ****                                 if ((pEP->bMisc == USB_CLASS_AUDIO) && (epType == USB_EP_TYPE_BULK)
 1503              		.loc 1 732 0 discriminator 4
 1504 024c 7B69     		ldr	r3, [r7, #20]
 1505 024e 9B79     		ldrb	r3, [r3, #6]	@ zero_extendqisi2
 1506 0250 012B     		cmp	r3, #1
 1507 0252 05D1     		bne	.L98
 1508              		.loc 1 732 0 is_stmt 0 discriminator 1
 1509 0254 FB7A     		ldrb	r3, [r7, #11]	@ zero_extendqisi2
 1510 0256 022B     		cmp	r3, #2
 1511 0258 02D1     		bne	.L98
 733:.\Generated_Source\PSoC5/USB_std.c ****                                 {
 734:.\Generated_Source\PSoC5/USB_std.c ****                                     USB_midi_out_ep = i;
 1512              		.loc 1 734 0 is_stmt 1
 1513 025a 254A     		ldr	r2, .L112+24
 1514 025c 7B7F     		ldrb	r3, [r7, #29]
 1515 025e 1370     		strb	r3, [r2]
 1516              	.L98:
 735:.\Generated_Source\PSoC5/USB_std.c ****                                 }
 736:.\Generated_Source\PSoC5/USB_std.c ****                             #endif  /* (USB_ENABLE_MIDI_STREAMING) */
 737:.\Generated_Source\PSoC5/USB_std.c ****                             }
 738:.\Generated_Source\PSoC5/USB_std.c **** 
 739:.\Generated_Source\PSoC5/USB_std.c ****                         #if (defined(USB_ENABLE_CDC_CLASS))
 740:.\Generated_Source\PSoC5/USB_std.c ****                             if((pEP->bMisc == USB_CLASS_CDC_DATA) ||(pEP->bMisc == USB_CLASS_CDC))
 741:.\Generated_Source\PSoC5/USB_std.c ****                             {
 742:.\Generated_Source\PSoC5/USB_std.c ****                                 cdcComNums = USB_Cdc_EpInit(pEP, i, cdcComNums);
 743:.\Generated_Source\PSoC5/USB_std.c ****                             }
 744:.\Generated_Source\PSoC5/USB_std.c ****                         #endif  /* (USB_ENABLE_CDC_CLASS) */
 745:.\Generated_Source\PSoC5/USB_std.c **** 
 746:.\Generated_Source\PSoC5/USB_std.c ****                             #if (USB_EP_MANAGEMENT_DMA_AUTO)
 747:.\Generated_Source\PSoC5/USB_std.c ****                                 break;  /* Use first EP setting in Auto memory management */
 748:.\Generated_Source\PSoC5/USB_std.c ****                             #endif /* (USB_EP_MANAGEMENT_DMA_AUTO) */
 749:.\Generated_Source\PSoC5/USB_std.c ****                         }
ARM GAS  C:\Users\LUKASC~1\AppData\Local\Temp\ccywSTdI.s 			page 42


 750:.\Generated_Source\PSoC5/USB_std.c ****                     }
 751:.\Generated_Source\PSoC5/USB_std.c ****                     
 752:.\Generated_Source\PSoC5/USB_std.c ****                     pEP = &pEP[1u];
 1517              		.loc 1 752 0 discriminator 2
 1518 0260 7B69     		ldr	r3, [r7, #20]
 1519 0262 0833     		adds	r3, r3, #8
 1520 0264 7B61     		str	r3, [r7, #20]
 694:.\Generated_Source\PSoC5/USB_std.c ****                 {
 1521              		.loc 1 694 0 discriminator 2
 1522 0266 BB7F     		ldrb	r3, [r7, #30]
 1523 0268 0133     		adds	r3, r3, #1
 1524 026a BB77     		strb	r3, [r7, #30]
 1525              	.L97:
 694:.\Generated_Source\PSoC5/USB_std.c ****                 {
 1526              		.loc 1 694 0 is_stmt 0 discriminator 1
 1527 026c BA7F     		ldrb	r2, [r7, #30]	@ zero_extendqisi2
 1528 026e FB7F     		ldrb	r3, [r7, #31]	@ zero_extendqisi2
 1529 0270 9A42     		cmp	r2, r3
 1530 0272 FFF463AF 		bcc	.L106
 687:.\Generated_Source\PSoC5/USB_std.c ****             {
 1531              		.loc 1 687 0 is_stmt 1 discriminator 2
 1532 0276 7B7F     		ldrb	r3, [r7, #29]
 1533 0278 0133     		adds	r3, r3, #1
 1534 027a 7B77     		strb	r3, [r7, #29]
 1535              	.L96:
 687:.\Generated_Source\PSoC5/USB_std.c ****             {
 1536              		.loc 1 687 0 is_stmt 0 discriminator 1
 1537 027c 7B7F     		ldrb	r3, [r7, #29]	@ zero_extendqisi2
 1538 027e 082B     		cmp	r3, #8
 1539 0280 7FF656AF 		bls	.L107
 753:.\Generated_Source\PSoC5/USB_std.c ****                 }
 754:.\Generated_Source\PSoC5/USB_std.c ****             }
 755:.\Generated_Source\PSoC5/USB_std.c ****         #endif /*  (USB_EP_MANAGEMENT_MANUAL && USB_EP_ALLOC_DYNAMIC) */
 756:.\Generated_Source\PSoC5/USB_std.c **** 
 757:.\Generated_Source\PSoC5/USB_std.c ****         /* Init class array for each interface and interface number for each EP.
 758:.\Generated_Source\PSoC5/USB_std.c ****         *  It is used for handling Class specific requests directed to either an
 759:.\Generated_Source\PSoC5/USB_std.c ****         *  interface or the endpoint.
 760:.\Generated_Source\PSoC5/USB_std.c ****         */
 761:.\Generated_Source\PSoC5/USB_std.c ****         /* p_list points the endpoint setting table. */
 762:.\Generated_Source\PSoC5/USB_std.c ****         pEP = (const T_USB_EP_SETTINGS_BLOCK CYCODE *) pTmp->p_list;
 1540              		.loc 1 762 0 is_stmt 1
 1541 0284 3B69     		ldr	r3, [r7, #16]
 1542 0286 5B68     		ldr	r3, [r3, #4]
 1543 0288 7B61     		str	r3, [r7, #20]
 763:.\Generated_Source\PSoC5/USB_std.c ****         for (i = 0u; i < ep; i++)
 1544              		.loc 1 763 0
 1545 028a 0023     		movs	r3, #0
 1546 028c 7B77     		strb	r3, [r7, #29]
 1547 028e 14E0     		b	.L108
 1548              	.L109:
 764:.\Generated_Source\PSoC5/USB_std.c ****         {
 765:.\Generated_Source\PSoC5/USB_std.c ****             /* Configure interface number for each EP */
 766:.\Generated_Source\PSoC5/USB_std.c ****             USB_EP[pEP->addr & USB_DIR_UNUSED].interface = pEP->interface;
 1549              		.loc 1 766 0 discriminator 3
 1550 0290 7B69     		ldr	r3, [r7, #20]
 1551 0292 9B78     		ldrb	r3, [r3, #2]	@ zero_extendqisi2
 1552 0294 03F07F02 		and	r2, r3, #127
ARM GAS  C:\Users\LUKASC~1\AppData\Local\Temp\ccywSTdI.s 			page 43


 1553 0298 7B69     		ldr	r3, [r7, #20]
 1554 029a 1878     		ldrb	r0, [r3]	@ zero_extendqisi2
 1555 029c 0E49     		ldr	r1, .L112
 1556 029e 1346     		mov	r3, r2
 1557 02a0 5B00     		lsls	r3, r3, #1
 1558 02a2 1344     		add	r3, r3, r2
 1559 02a4 9B00     		lsls	r3, r3, #2
 1560 02a6 0B44     		add	r3, r3, r1
 1561 02a8 0833     		adds	r3, r3, #8
 1562 02aa 0246     		mov	r2, r0
 1563 02ac 9A70     		strb	r2, [r3, #2]
 767:.\Generated_Source\PSoC5/USB_std.c ****             pEP = &pEP[1u];
 1564              		.loc 1 767 0 discriminator 3
 1565 02ae 7B69     		ldr	r3, [r7, #20]
 1566 02b0 0833     		adds	r3, r3, #8
 1567 02b2 7B61     		str	r3, [r7, #20]
 763:.\Generated_Source\PSoC5/USB_std.c ****         for (i = 0u; i < ep; i++)
 1568              		.loc 1 763 0 discriminator 3
 1569 02b4 7B7F     		ldrb	r3, [r7, #29]	@ zero_extendqisi2
 1570 02b6 0133     		adds	r3, r3, #1
 1571 02b8 7B77     		strb	r3, [r7, #29]
 1572              	.L108:
 763:.\Generated_Source\PSoC5/USB_std.c ****         for (i = 0u; i < ep; i++)
 1573              		.loc 1 763 0 is_stmt 0 discriminator 1
 1574 02ba 7A7F     		ldrb	r2, [r7, #29]	@ zero_extendqisi2
 1575 02bc FB7F     		ldrb	r3, [r7, #31]	@ zero_extendqisi2
 1576 02be 9A42     		cmp	r2, r3
 1577 02c0 E6D3     		bcc	.L109
 768:.\Generated_Source\PSoC5/USB_std.c ****         }
 769:.\Generated_Source\PSoC5/USB_std.c ****         
 770:.\Generated_Source\PSoC5/USB_std.c ****         /* Init pointer on interface class table */
 771:.\Generated_Source\PSoC5/USB_std.c ****         USB_interfaceClass = USB_GetInterfaceClassTablePtr();
 1578              		.loc 1 771 0 is_stmt 1
 1579 02c2 FFF7FEFF 		bl	USB_GetInterfaceClassTablePtr
 1580 02c6 0246     		mov	r2, r0
 1581 02c8 0A4B     		ldr	r3, .L112+28
 1582 02ca 1A60     		str	r2, [r3]
 772:.\Generated_Source\PSoC5/USB_std.c ****         
 773:.\Generated_Source\PSoC5/USB_std.c ****     /* Set the endpoint buffer addresses */
 774:.\Generated_Source\PSoC5/USB_std.c ****     #if (!USB_EP_MANAGEMENT_DMA_AUTO)
 775:.\Generated_Source\PSoC5/USB_std.c ****         buffCount = 0u;
 1583              		.loc 1 775 0
 1584 02cc 0023     		movs	r3, #0
 1585 02ce 7B83     		strh	r3, [r7, #26]	@ movhi
 776:.\Generated_Source\PSoC5/USB_std.c ****         for (ep = USB_EP1; ep < USB_MAX_EP; ++ep)
 1586              		.loc 1 776 0
 1587 02d0 0123     		movs	r3, #1
 1588 02d2 FB77     		strb	r3, [r7, #31]
 1589 02d4 30E0     		b	.L110
 1590              	.L113:
 1591 02d6 00BF     		.align	2
 1592              	.L112:
 1593 02d8 00000000 		.word	USB_EP
 1594 02dc 00000000 		.word	USB_interfaceSetting
 1595 02e0 00000000 		.word	USB_interfaceSettingLast
 1596 02e4 00000000 		.word	USB_configuration
 1597 02e8 00000000 		.word	USB_deviceStatus
ARM GAS  C:\Users\LUKASC~1\AppData\Local\Temp\ccywSTdI.s 			page 44


 1598 02ec 00000000 		.word	USB_midi_in_ep
 1599 02f0 00000000 		.word	USB_midi_out_ep
 1600 02f4 00000000 		.word	USB_interfaceClass
 1601              	.L111:
 777:.\Generated_Source\PSoC5/USB_std.c ****         {
 778:.\Generated_Source\PSoC5/USB_std.c ****             USB_EP[ep].buffOffset = buffCount;        
 1602              		.loc 1 778 0 discriminator 3
 1603 02f8 FA7F     		ldrb	r2, [r7, #31]	@ zero_extendqisi2
 1604 02fa 1349     		ldr	r1, .L114
 1605 02fc 1346     		mov	r3, r2
 1606 02fe 5B00     		lsls	r3, r3, #1
 1607 0300 1344     		add	r3, r3, r2
 1608 0302 9B00     		lsls	r3, r3, #2
 1609 0304 0B44     		add	r3, r3, r1
 1610 0306 7A8B     		ldrh	r2, [r7, #26]	@ movhi
 1611 0308 DA80     		strh	r2, [r3, #6]	@ movhi
 779:.\Generated_Source\PSoC5/USB_std.c ****             buffCount += USB_EP[ep].bufferSize;
 1612              		.loc 1 779 0 discriminator 3
 1613 030a FA7F     		ldrb	r2, [r7, #31]	@ zero_extendqisi2
 1614 030c 0E49     		ldr	r1, .L114
 1615 030e 1346     		mov	r3, r2
 1616 0310 5B00     		lsls	r3, r3, #1
 1617 0312 1344     		add	r3, r3, r2
 1618 0314 9B00     		lsls	r3, r3, #2
 1619 0316 0B44     		add	r3, r3, r1
 1620 0318 0833     		adds	r3, r3, #8
 1621 031a 1B88     		ldrh	r3, [r3]	@ movhi
 1622 031c 9AB2     		uxth	r2, r3
 1623 031e 7B8B     		ldrh	r3, [r7, #26]	@ movhi
 1624 0320 1344     		add	r3, r3, r2
 1625 0322 7B83     		strh	r3, [r7, #26]	@ movhi
 780:.\Generated_Source\PSoC5/USB_std.c ****             
 781:.\Generated_Source\PSoC5/USB_std.c ****         #if (USB_GEN_16BITS_EP_ACCESS)
 782:.\Generated_Source\PSoC5/USB_std.c ****             /* Align EP buffers to be event size to access 16-bits DR register. */
 783:.\Generated_Source\PSoC5/USB_std.c ****             buffCount += (0u != (buffCount & 0x01u)) ? 1u : 0u;
 1626              		.loc 1 783 0 discriminator 3
 1627 0324 7B8B     		ldrh	r3, [r7, #26]	@ movhi
 1628 0326 03F00103 		and	r3, r3, #1
 1629 032a 9AB2     		uxth	r2, r3
 1630 032c 7B8B     		ldrh	r3, [r7, #26]	@ movhi
 1631 032e 1344     		add	r3, r3, r2
 1632 0330 7B83     		strh	r3, [r7, #26]	@ movhi
 776:.\Generated_Source\PSoC5/USB_std.c ****         {
 1633              		.loc 1 776 0 discriminator 3
 1634 0332 FB7F     		ldrb	r3, [r7, #31]
 1635 0334 0133     		adds	r3, r3, #1
 1636 0336 FB77     		strb	r3, [r7, #31]
 1637              	.L110:
 776:.\Generated_Source\PSoC5/USB_std.c ****         {
 1638              		.loc 1 776 0 is_stmt 0 discriminator 1
 1639 0338 FB7F     		ldrb	r3, [r7, #31]	@ zero_extendqisi2
 1640 033a 082B     		cmp	r3, #8
 1641 033c DCD9     		bls	.L111
 784:.\Generated_Source\PSoC5/USB_std.c ****         #endif /* (USB_GEN_16BITS_EP_ACCESS) */            
 785:.\Generated_Source\PSoC5/USB_std.c ****         }
 786:.\Generated_Source\PSoC5/USB_std.c ****     #endif /* (!USB_EP_MANAGEMENT_DMA_AUTO) */
 787:.\Generated_Source\PSoC5/USB_std.c **** 
ARM GAS  C:\Users\LUKASC~1\AppData\Local\Temp\ccywSTdI.s 			page 45


 788:.\Generated_Source\PSoC5/USB_std.c ****         /* Configure hardware registers */
 789:.\Generated_Source\PSoC5/USB_std.c ****         USB_ConfigReg();
 1642              		.loc 1 789 0 is_stmt 1
 1643 033e FFF7FEFF 		bl	USB_ConfigReg
 1644              	.L87:
 790:.\Generated_Source\PSoC5/USB_std.c ****     }
 791:.\Generated_Source\PSoC5/USB_std.c **** }
 1645              		.loc 1 791 0
 1646 0342 2037     		adds	r7, r7, #32
 1647              		.cfi_def_cfa_offset 8
 1648 0344 BD46     		mov	sp, r7
 1649              		.cfi_def_cfa_register 13
 1650              		@ sp needed
 1651 0346 80BD     		pop	{r7, pc}
 1652              	.L115:
 1653              		.align	2
 1654              	.L114:
 1655 0348 00000000 		.word	USB_EP
 1656              		.cfi_endproc
 1657              	.LFE4:
 1658              		.size	USB_Config, .-USB_Config
 1659              		.section	.text.USB_ConfigAltChanged,"ax",%progbits
 1660              		.align	2
 1661              		.global	USB_ConfigAltChanged
 1662              		.thumb
 1663              		.thumb_func
 1664              		.type	USB_ConfigAltChanged, %function
 1665              	USB_ConfigAltChanged:
 1666              	.LFB5:
 792:.\Generated_Source\PSoC5/USB_std.c **** 
 793:.\Generated_Source\PSoC5/USB_std.c **** 
 794:.\Generated_Source\PSoC5/USB_std.c **** /*******************************************************************************
 795:.\Generated_Source\PSoC5/USB_std.c **** * Function Name: USB_ConfigAltChanged
 796:.\Generated_Source\PSoC5/USB_std.c **** ****************************************************************************//**
 797:.\Generated_Source\PSoC5/USB_std.c **** *
 798:.\Generated_Source\PSoC5/USB_std.c **** *  This routine update configuration for the required endpoints only.
 799:.\Generated_Source\PSoC5/USB_std.c **** *  It is called after SET_INTERFACE request when Static memory allocation used.
 800:.\Generated_Source\PSoC5/USB_std.c **** *
 801:.\Generated_Source\PSoC5/USB_std.c **** * \reentrant
 802:.\Generated_Source\PSoC5/USB_std.c **** *  No.
 803:.\Generated_Source\PSoC5/USB_std.c **** *
 804:.\Generated_Source\PSoC5/USB_std.c **** *******************************************************************************/
 805:.\Generated_Source\PSoC5/USB_std.c **** void USB_ConfigAltChanged(void) 
 806:.\Generated_Source\PSoC5/USB_std.c **** {
 1667              		.loc 1 806 0
 1668              		.cfi_startproc
 1669              		@ args = 0, pretend = 0, frame = 16
 1670              		@ frame_needed = 1, uses_anonymous_args = 0
 1671 0000 90B5     		push	{r4, r7, lr}
 1672              		.cfi_def_cfa_offset 12
 1673              		.cfi_offset 4, -12
 1674              		.cfi_offset 7, -8
 1675              		.cfi_offset 14, -4
 1676 0002 85B0     		sub	sp, sp, #20
 1677              		.cfi_def_cfa_offset 32
 1678 0004 00AF     		add	r7, sp, #0
 1679              		.cfi_def_cfa_register 7
ARM GAS  C:\Users\LUKASC~1\AppData\Local\Temp\ccywSTdI.s 			page 46


 807:.\Generated_Source\PSoC5/USB_std.c ****     uint8 ep;
 808:.\Generated_Source\PSoC5/USB_std.c ****     uint8 curEp;
 809:.\Generated_Source\PSoC5/USB_std.c ****     uint8 epType;
 810:.\Generated_Source\PSoC5/USB_std.c ****     uint8 i;
 811:.\Generated_Source\PSoC5/USB_std.c ****     uint8 interfaceNum;
 812:.\Generated_Source\PSoC5/USB_std.c **** 
 813:.\Generated_Source\PSoC5/USB_std.c ****     const T_USB_LUT CYCODE *pTmp;
 814:.\Generated_Source\PSoC5/USB_std.c ****     const T_USB_EP_SETTINGS_BLOCK CYCODE *pEP;
 815:.\Generated_Source\PSoC5/USB_std.c **** 
 816:.\Generated_Source\PSoC5/USB_std.c ****     /* Init Endpoints and Device Status if configured */
 817:.\Generated_Source\PSoC5/USB_std.c ****     if (USB_configuration > 0u)
 1680              		.loc 1 817 0
 1681 0006 874B     		ldr	r3, .L127
 1682 0008 1B78     		ldrb	r3, [r3]
 1683 000a DBB2     		uxtb	r3, r3
 1684 000c 002B     		cmp	r3, #0
 1685 000e 00F00681 		beq	.L116
 818:.\Generated_Source\PSoC5/USB_std.c ****     {
 819:.\Generated_Source\PSoC5/USB_std.c ****         /* Get number of endpoints configurations (ep). */
 820:.\Generated_Source\PSoC5/USB_std.c ****         pTmp = USB_GetConfigTablePtr(USB_configuration - 1u);
 1686              		.loc 1 820 0
 1687 0012 844B     		ldr	r3, .L127
 1688 0014 1B78     		ldrb	r3, [r3]
 1689 0016 DBB2     		uxtb	r3, r3
 1690 0018 013B     		subs	r3, r3, #1
 1691 001a DBB2     		uxtb	r3, r3
 1692 001c 1846     		mov	r0, r3
 1693 001e FFF7FEFF 		bl	USB_GetConfigTablePtr
 1694 0022 7860     		str	r0, [r7, #4]
 821:.\Generated_Source\PSoC5/USB_std.c ****         pTmp = &pTmp[1u];
 1695              		.loc 1 821 0
 1696 0024 7B68     		ldr	r3, [r7, #4]
 1697 0026 0833     		adds	r3, r3, #8
 1698 0028 7B60     		str	r3, [r7, #4]
 822:.\Generated_Source\PSoC5/USB_std.c ****         ep = pTmp->c;
 1699              		.loc 1 822 0
 1700 002a 7B68     		ldr	r3, [r7, #4]
 1701 002c 1B78     		ldrb	r3, [r3]
 1702 002e FB70     		strb	r3, [r7, #3]
 823:.\Generated_Source\PSoC5/USB_std.c **** 
 824:.\Generated_Source\PSoC5/USB_std.c ****         /* Get pointer to endpoints setting table (pEP). */
 825:.\Generated_Source\PSoC5/USB_std.c ****         pEP = (const T_USB_EP_SETTINGS_BLOCK CYCODE *) pTmp->p_list;
 1703              		.loc 1 825 0
 1704 0030 7B68     		ldr	r3, [r7, #4]
 1705 0032 5B68     		ldr	r3, [r3, #4]
 1706 0034 BB60     		str	r3, [r7, #8]
 826:.\Generated_Source\PSoC5/USB_std.c ****         
 827:.\Generated_Source\PSoC5/USB_std.c ****         /* Look through all possible endpoint configurations. Find endpoints 
 828:.\Generated_Source\PSoC5/USB_std.c ****         * which belong to current interface and alternate settings for 
 829:.\Generated_Source\PSoC5/USB_std.c ****         * re-configuration.
 830:.\Generated_Source\PSoC5/USB_std.c ****         */
 831:.\Generated_Source\PSoC5/USB_std.c ****         interfaceNum = USB_interfaceNumber;
 1707              		.loc 1 831 0
 1708 0036 7C4B     		ldr	r3, .L127+4
 1709 0038 1B78     		ldrb	r3, [r3]
 1710 003a BB70     		strb	r3, [r7, #2]
 832:.\Generated_Source\PSoC5/USB_std.c ****         for (i = 0u; i < ep; i++)
ARM GAS  C:\Users\LUKASC~1\AppData\Local\Temp\ccywSTdI.s 			page 47


 1711              		.loc 1 832 0
 1712 003c 0023     		movs	r3, #0
 1713 003e FB73     		strb	r3, [r7, #15]
 1714 0040 E8E0     		b	.L118
 1715              	.L126:
 833:.\Generated_Source\PSoC5/USB_std.c ****         {
 834:.\Generated_Source\PSoC5/USB_std.c ****             /* Find endpoints which belong to current interface and alternate settings. */
 835:.\Generated_Source\PSoC5/USB_std.c ****             if ((interfaceNum == pEP->interface) && 
 1716              		.loc 1 835 0
 1717 0042 BB68     		ldr	r3, [r7, #8]
 1718 0044 1B78     		ldrb	r3, [r3]	@ zero_extendqisi2
 1719 0046 BA78     		ldrb	r2, [r7, #2]	@ zero_extendqisi2
 1720 0048 9A42     		cmp	r2, r3
 1721 004a 40F0DD80 		bne	.L119
 836:.\Generated_Source\PSoC5/USB_std.c ****                 (USB_interfaceSetting[interfaceNum] == pEP->altSetting))
 1722              		.loc 1 836 0 discriminator 1
 1723 004e BB78     		ldrb	r3, [r7, #2]	@ zero_extendqisi2
 1724 0050 764A     		ldr	r2, .L127+8
 1725 0052 D35C     		ldrb	r3, [r2, r3]
 1726 0054 DAB2     		uxtb	r2, r3
 1727 0056 BB68     		ldr	r3, [r7, #8]
 1728 0058 5B78     		ldrb	r3, [r3, #1]	@ zero_extendqisi2
 835:.\Generated_Source\PSoC5/USB_std.c ****                 (USB_interfaceSetting[interfaceNum] == pEP->altSetting))
 1729              		.loc 1 835 0 discriminator 1
 1730 005a 9A42     		cmp	r2, r3
 1731 005c 40F0D480 		bne	.L119
 837:.\Generated_Source\PSoC5/USB_std.c ****             {
 838:.\Generated_Source\PSoC5/USB_std.c ****                 curEp  = ((uint8) pEP->addr & USB_DIR_UNUSED);
 1732              		.loc 1 838 0
 1733 0060 BB68     		ldr	r3, [r7, #8]
 1734 0062 9B78     		ldrb	r3, [r3, #2]	@ zero_extendqisi2
 1735 0064 03F07F03 		and	r3, r3, #127
 1736 0068 7B70     		strb	r3, [r7, #1]
 839:.\Generated_Source\PSoC5/USB_std.c ****                 epType = ((uint8) pEP->attributes & USB_EP_TYPE_MASK);
 1737              		.loc 1 839 0
 1738 006a BB68     		ldr	r3, [r7, #8]
 1739 006c DB78     		ldrb	r3, [r3, #3]	@ zero_extendqisi2
 1740 006e 03F00303 		and	r3, r3, #3
 1741 0072 3B70     		strb	r3, [r7]
 840:.\Generated_Source\PSoC5/USB_std.c ****                 
 841:.\Generated_Source\PSoC5/USB_std.c ****                 /* Change the SIE mode for the selected EP to NAK ALL */
 842:.\Generated_Source\PSoC5/USB_std.c ****                 USB_EP[curEp].epToggle   = 0u;
 1742              		.loc 1 842 0
 1743 0074 7A78     		ldrb	r2, [r7, #1]	@ zero_extendqisi2
 1744 0076 6E49     		ldr	r1, .L127+12
 1745 0078 1346     		mov	r3, r2
 1746 007a 5B00     		lsls	r3, r3, #1
 1747 007c 1344     		add	r3, r3, r2
 1748 007e 9B00     		lsls	r3, r3, #2
 1749 0080 0B44     		add	r3, r3, r1
 1750 0082 0022     		movs	r2, #0
 1751 0084 DA70     		strb	r2, [r3, #3]
 843:.\Generated_Source\PSoC5/USB_std.c ****                 USB_EP[curEp].addr       = pEP->addr;
 1752              		.loc 1 843 0
 1753 0086 7A78     		ldrb	r2, [r7, #1]	@ zero_extendqisi2
 1754 0088 BB68     		ldr	r3, [r7, #8]
 1755 008a 9878     		ldrb	r0, [r3, #2]	@ zero_extendqisi2
ARM GAS  C:\Users\LUKASC~1\AppData\Local\Temp\ccywSTdI.s 			page 48


 1756 008c 6849     		ldr	r1, .L127+12
 1757 008e 1346     		mov	r3, r2
 1758 0090 5B00     		lsls	r3, r3, #1
 1759 0092 1344     		add	r3, r3, r2
 1760 0094 9B00     		lsls	r3, r3, #2
 1761 0096 0B44     		add	r3, r3, r1
 1762 0098 0246     		mov	r2, r0
 1763 009a 1A71     		strb	r2, [r3, #4]
 844:.\Generated_Source\PSoC5/USB_std.c ****                 USB_EP[curEp].attrib     = pEP->attributes;
 1764              		.loc 1 844 0
 1765 009c 7A78     		ldrb	r2, [r7, #1]	@ zero_extendqisi2
 1766 009e BB68     		ldr	r3, [r7, #8]
 1767 00a0 D878     		ldrb	r0, [r3, #3]	@ zero_extendqisi2
 1768 00a2 6349     		ldr	r1, .L127+12
 1769 00a4 1346     		mov	r3, r2
 1770 00a6 5B00     		lsls	r3, r3, #1
 1771 00a8 1344     		add	r3, r3, r2
 1772 00aa 9B00     		lsls	r3, r3, #2
 1773 00ac 0B44     		add	r3, r3, r1
 1774 00ae 0246     		mov	r2, r0
 1775 00b0 1A70     		strb	r2, [r3]
 845:.\Generated_Source\PSoC5/USB_std.c ****                 USB_EP[curEp].bufferSize = pEP->bufferSize;
 1776              		.loc 1 845 0
 1777 00b2 7A78     		ldrb	r2, [r7, #1]	@ zero_extendqisi2
 1778 00b4 BB68     		ldr	r3, [r7, #8]
 1779 00b6 9888     		ldrh	r0, [r3, #4]
 1780 00b8 5D49     		ldr	r1, .L127+12
 1781 00ba 1346     		mov	r3, r2
 1782 00bc 5B00     		lsls	r3, r3, #1
 1783 00be 1344     		add	r3, r3, r2
 1784 00c0 9B00     		lsls	r3, r3, #2
 1785 00c2 0B44     		add	r3, r3, r1
 1786 00c4 0833     		adds	r3, r3, #8
 1787 00c6 0246     		mov	r2, r0	@ movhi
 1788 00c8 1A80     		strh	r2, [r3]	@ movhi
 846:.\Generated_Source\PSoC5/USB_std.c **** 
 847:.\Generated_Source\PSoC5/USB_std.c ****                 if (0u != (pEP->addr & USB_DIR_IN))
 1789              		.loc 1 847 0
 1790 00ca BB68     		ldr	r3, [r7, #8]
 1791 00cc 9B78     		ldrb	r3, [r3, #2]	@ zero_extendqisi2
 1792 00ce DBB2     		uxtb	r3, r3
 1793 00d0 5BB2     		sxtb	r3, r3
 1794 00d2 002B     		cmp	r3, #0
 1795 00d4 18DA     		bge	.L120
 848:.\Generated_Source\PSoC5/USB_std.c ****                 {
 849:.\Generated_Source\PSoC5/USB_std.c ****                     /* IN Endpoint */
 850:.\Generated_Source\PSoC5/USB_std.c ****                     USB_EP[curEp].epMode     = USB_GET_ACTIVE_IN_EP_CR0_MODE(epType);
 1796              		.loc 1 850 0
 1797 00d6 7A78     		ldrb	r2, [r7, #1]	@ zero_extendqisi2
 1798 00d8 3B78     		ldrb	r3, [r7]	@ zero_extendqisi2
 1799 00da 012B     		cmp	r3, #1
 1800 00dc 01D1     		bne	.L121
 1801              		.loc 1 850 0 is_stmt 0 discriminator 1
 1802 00de 0720     		movs	r0, #7
 1803 00e0 00E0     		b	.L122
 1804              	.L121:
 1805              		.loc 1 850 0 discriminator 2
ARM GAS  C:\Users\LUKASC~1\AppData\Local\Temp\ccywSTdI.s 			page 49


 1806 00e2 0D20     		movs	r0, #13
 1807              	.L122:
 1808              		.loc 1 850 0 discriminator 4
 1809 00e4 5249     		ldr	r1, .L127+12
 1810 00e6 1346     		mov	r3, r2
 1811 00e8 5B00     		lsls	r3, r3, #1
 1812 00ea 1344     		add	r3, r3, r2
 1813 00ec 9B00     		lsls	r3, r3, #2
 1814 00ee 0B44     		add	r3, r3, r1
 1815 00f0 0246     		mov	r2, r0
 1816 00f2 5A71     		strb	r2, [r3, #5]
 851:.\Generated_Source\PSoC5/USB_std.c ****                     USB_EP[curEp].apiEpState = USB_EVENT_PENDING;
 1817              		.loc 1 851 0 is_stmt 1 discriminator 4
 1818 00f4 7A78     		ldrb	r2, [r7, #1]	@ zero_extendqisi2
 1819 00f6 4E49     		ldr	r1, .L127+12
 1820 00f8 1346     		mov	r3, r2
 1821 00fa 5B00     		lsls	r3, r3, #1
 1822 00fc 1344     		add	r3, r3, r2
 1823 00fe 9B00     		lsls	r3, r3, #2
 1824 0100 0B44     		add	r3, r3, r1
 1825 0102 0122     		movs	r2, #1
 1826 0104 5A70     		strb	r2, [r3, #1]
 1827 0106 17E0     		b	.L123
 1828              	.L120:
 852:.\Generated_Source\PSoC5/USB_std.c ****                 }
 853:.\Generated_Source\PSoC5/USB_std.c ****                 else
 854:.\Generated_Source\PSoC5/USB_std.c ****                 {
 855:.\Generated_Source\PSoC5/USB_std.c ****                     /* OUT Endpoint */
 856:.\Generated_Source\PSoC5/USB_std.c ****                     USB_EP[curEp].epMode     = USB_GET_ACTIVE_OUT_EP_CR0_MODE(epType);
 1829              		.loc 1 856 0
 1830 0108 7A78     		ldrb	r2, [r7, #1]	@ zero_extendqisi2
 1831 010a 3B78     		ldrb	r3, [r7]	@ zero_extendqisi2
 1832 010c 012B     		cmp	r3, #1
 1833 010e 01D1     		bne	.L124
 1834              		.loc 1 856 0 is_stmt 0 discriminator 1
 1835 0110 0520     		movs	r0, #5
 1836 0112 00E0     		b	.L125
 1837              	.L124:
 1838              		.loc 1 856 0 discriminator 2
 1839 0114 0920     		movs	r0, #9
 1840              	.L125:
 1841              		.loc 1 856 0 discriminator 4
 1842 0116 4649     		ldr	r1, .L127+12
 1843 0118 1346     		mov	r3, r2
 1844 011a 5B00     		lsls	r3, r3, #1
 1845 011c 1344     		add	r3, r3, r2
 1846 011e 9B00     		lsls	r3, r3, #2
 1847 0120 0B44     		add	r3, r3, r1
 1848 0122 0246     		mov	r2, r0
 1849 0124 5A71     		strb	r2, [r3, #5]
 857:.\Generated_Source\PSoC5/USB_std.c ****                     USB_EP[curEp].apiEpState = USB_NO_EVENT_PENDING;
 1850              		.loc 1 857 0 is_stmt 1 discriminator 4
 1851 0126 7A78     		ldrb	r2, [r7, #1]	@ zero_extendqisi2
 1852 0128 4149     		ldr	r1, .L127+12
 1853 012a 1346     		mov	r3, r2
 1854 012c 5B00     		lsls	r3, r3, #1
 1855 012e 1344     		add	r3, r3, r2
ARM GAS  C:\Users\LUKASC~1\AppData\Local\Temp\ccywSTdI.s 			page 50


 1856 0130 9B00     		lsls	r3, r3, #2
 1857 0132 0B44     		add	r3, r3, r1
 1858 0134 0022     		movs	r2, #0
 1859 0136 5A70     		strb	r2, [r3, #1]
 1860              	.L123:
 858:.\Generated_Source\PSoC5/USB_std.c ****                 }
 859:.\Generated_Source\PSoC5/USB_std.c ****                 
 860:.\Generated_Source\PSoC5/USB_std.c ****                 /* Make SIE to NAK any endpoint requests */
 861:.\Generated_Source\PSoC5/USB_std.c ****                 USB_SIE_EP_BASE.sieEp[curEp].epCr0 = USB_MODE_NAK_IN_OUT;
 1861              		.loc 1 861 0
 1862 0138 3E4A     		ldr	r2, .L127+16
 1863 013a 7B78     		ldrb	r3, [r7, #1]	@ zero_extendqisi2
 1864 013c 1B01     		lsls	r3, r3, #4
 1865 013e 1344     		add	r3, r3, r2
 1866 0140 0122     		movs	r2, #1
 1867 0142 9A70     		strb	r2, [r3, #2]
 862:.\Generated_Source\PSoC5/USB_std.c **** 
 863:.\Generated_Source\PSoC5/USB_std.c ****             #if (USB_EP_MANAGEMENT_DMA_AUTO)
 864:.\Generated_Source\PSoC5/USB_std.c ****                 /* Clear IN data ready. */
 865:.\Generated_Source\PSoC5/USB_std.c ****                 USB_ARB_EP_BASE.arbEp[curEp].epCfg &= (uint8) ~USB_ARB_EPX_CFG_IN_DATA_RDY;
 866:.\Generated_Source\PSoC5/USB_std.c **** 
 867:.\Generated_Source\PSoC5/USB_std.c ****                 /* Select endpoint number of reconfiguration */
 868:.\Generated_Source\PSoC5/USB_std.c ****                 USB_DYN_RECONFIG_REG = (uint8) ((curEp - 1u) << USB_DYN_RECONFIG_EP_SHIFT);
 869:.\Generated_Source\PSoC5/USB_std.c ****                 
 870:.\Generated_Source\PSoC5/USB_std.c ****                 /* Request for dynamic re-configuration of endpoint. */
 871:.\Generated_Source\PSoC5/USB_std.c ****                 USB_DYN_RECONFIG_REG |= USB_DYN_RECONFIG_ENABLE;
 872:.\Generated_Source\PSoC5/USB_std.c ****                 
 873:.\Generated_Source\PSoC5/USB_std.c ****                 /* Wait until block is ready for re-configuration */
 874:.\Generated_Source\PSoC5/USB_std.c ****                 while (0u == (USB_DYN_RECONFIG_REG & USB_DYN_RECONFIG_RDY_STS))
 875:.\Generated_Source\PSoC5/USB_std.c ****                 {
 876:.\Generated_Source\PSoC5/USB_std.c ****                 }
 877:.\Generated_Source\PSoC5/USB_std.c ****                 
 878:.\Generated_Source\PSoC5/USB_std.c ****                 /* Once DYN_RECONFIG_RDY_STS bit is set, FW can change the EP configuration. */
 879:.\Generated_Source\PSoC5/USB_std.c ****                 /* Change EP Type with new direction */
 880:.\Generated_Source\PSoC5/USB_std.c ****                 if (0u != (pEP->addr & USB_DIR_IN))
 881:.\Generated_Source\PSoC5/USB_std.c ****                 {
 882:.\Generated_Source\PSoC5/USB_std.c ****                     /* Set endpoint type: 0 - IN and 1 - OUT. */
 883:.\Generated_Source\PSoC5/USB_std.c ****                     USB_EP_TYPE_REG &= (uint8) ~(uint8)((uint8) 0x01u << (curEp - 1u));
 884:.\Generated_Source\PSoC5/USB_std.c ****                     
 885:.\Generated_Source\PSoC5/USB_std.c ****                 #if (CY_PSOC4)
 886:.\Generated_Source\PSoC5/USB_std.c ****                     /* Clear DMA_TERMIN for IN endpoint */
 887:.\Generated_Source\PSoC5/USB_std.c ****                     USB_ARB_EP_BASE.arbEp[curEp].epIntEn &= (uint32) ~USB_ARB_EPX_INT_DMA_TERMIN;
 888:.\Generated_Source\PSoC5/USB_std.c ****                 #endif /* (CY_PSOC4) */
 889:.\Generated_Source\PSoC5/USB_std.c ****                 }
 890:.\Generated_Source\PSoC5/USB_std.c ****                 else
 891:.\Generated_Source\PSoC5/USB_std.c ****                 {
 892:.\Generated_Source\PSoC5/USB_std.c ****                     /* Set endpoint type: 0 - IN and 1- OUT. */
 893:.\Generated_Source\PSoC5/USB_std.c ****                     USB_EP_TYPE_REG |= (uint8) ((uint8) 0x01u << (curEp - 1u));
 894:.\Generated_Source\PSoC5/USB_std.c ****                     
 895:.\Generated_Source\PSoC5/USB_std.c ****                 #if (CY_PSOC4)
 896:.\Generated_Source\PSoC5/USB_std.c ****                     /* Set DMA_TERMIN for OUT endpoint */
 897:.\Generated_Source\PSoC5/USB_std.c ****                     USB_ARB_EP_BASE.arbEp[curEp].epIntEn |= (uint32) USB_ARB_EPX_INT_DMA_TERMIN;
 898:.\Generated_Source\PSoC5/USB_std.c ****                 #endif /* (CY_PSOC4) */
 899:.\Generated_Source\PSoC5/USB_std.c ****                 }
 900:.\Generated_Source\PSoC5/USB_std.c ****                 
 901:.\Generated_Source\PSoC5/USB_std.c ****                 /* Complete dynamic re-configuration: all endpoint related status and signals 
 902:.\Generated_Source\PSoC5/USB_std.c ****                 * are set into the default state.
ARM GAS  C:\Users\LUKASC~1\AppData\Local\Temp\ccywSTdI.s 			page 51


 903:.\Generated_Source\PSoC5/USB_std.c ****                 */
 904:.\Generated_Source\PSoC5/USB_std.c ****                 USB_DYN_RECONFIG_REG &= (uint8) ~USB_DYN_RECONFIG_ENABLE;
 905:.\Generated_Source\PSoC5/USB_std.c **** 
 906:.\Generated_Source\PSoC5/USB_std.c ****             #else
 907:.\Generated_Source\PSoC5/USB_std.c ****                 USB_SIE_EP_BASE.sieEp[curEp].epCnt0 = HI8(USB_EP[curEp].bufferSize);
 1868              		.loc 1 907 0
 1869 0144 3B48     		ldr	r0, .L127+16
 1870 0146 7978     		ldrb	r1, [r7, #1]	@ zero_extendqisi2
 1871 0148 7A78     		ldrb	r2, [r7, #1]	@ zero_extendqisi2
 1872 014a 394C     		ldr	r4, .L127+12
 1873 014c 1346     		mov	r3, r2
 1874 014e 5B00     		lsls	r3, r3, #1
 1875 0150 1344     		add	r3, r3, r2
 1876 0152 9B00     		lsls	r3, r3, #2
 1877 0154 2344     		add	r3, r3, r4
 1878 0156 0833     		adds	r3, r3, #8
 1879 0158 1B88     		ldrh	r3, [r3]	@ movhi
 1880 015a 9BB2     		uxth	r3, r3
 1881 015c 1B0A     		lsrs	r3, r3, #8
 1882 015e 9BB2     		uxth	r3, r3
 1883 0160 DAB2     		uxtb	r2, r3
 1884 0162 0B01     		lsls	r3, r1, #4
 1885 0164 0344     		add	r3, r3, r0
 1886 0166 1A70     		strb	r2, [r3]
 908:.\Generated_Source\PSoC5/USB_std.c ****                 USB_SIE_EP_BASE.sieEp[curEp].epCnt1 = LO8(USB_EP[curEp].bufferSize);
 1887              		.loc 1 908 0
 1888 0168 3248     		ldr	r0, .L127+16
 1889 016a 7978     		ldrb	r1, [r7, #1]	@ zero_extendqisi2
 1890 016c 7A78     		ldrb	r2, [r7, #1]	@ zero_extendqisi2
 1891 016e 304C     		ldr	r4, .L127+12
 1892 0170 1346     		mov	r3, r2
 1893 0172 5B00     		lsls	r3, r3, #1
 1894 0174 1344     		add	r3, r3, r2
 1895 0176 9B00     		lsls	r3, r3, #2
 1896 0178 2344     		add	r3, r3, r4
 1897 017a 0833     		adds	r3, r3, #8
 1898 017c 1B88     		ldrh	r3, [r3]	@ movhi
 1899 017e 9BB2     		uxth	r3, r3
 1900 0180 DAB2     		uxtb	r2, r3
 1901 0182 0B01     		lsls	r3, r1, #4
 1902 0184 0344     		add	r3, r3, r0
 1903 0186 5A70     		strb	r2, [r3, #1]
 909:.\Generated_Source\PSoC5/USB_std.c ****                 
 910:.\Generated_Source\PSoC5/USB_std.c ****                 #if (CY_PSOC4)
 911:.\Generated_Source\PSoC5/USB_std.c ****                     USB_ARB_EP16_BASE.arbEp[curEp].rwRa16  = (uint32) USB_EP[curEp].buffOffset;
 912:.\Generated_Source\PSoC5/USB_std.c ****                     USB_ARB_EP16_BASE.arbEp[curEp].rwWa16  = (uint32) USB_EP[curEp].buffOffset;
 913:.\Generated_Source\PSoC5/USB_std.c ****                 #else
 914:.\Generated_Source\PSoC5/USB_std.c ****                     USB_ARB_EP_BASE.arbEp[curEp].rwRa    = LO8(USB_EP[curEp].buffOffset);
 1904              		.loc 1 914 0
 1905 0188 2B48     		ldr	r0, .L127+20
 1906 018a 7978     		ldrb	r1, [r7, #1]	@ zero_extendqisi2
 1907 018c 7A78     		ldrb	r2, [r7, #1]	@ zero_extendqisi2
 1908 018e 284C     		ldr	r4, .L127+12
 1909 0190 1346     		mov	r3, r2
 1910 0192 5B00     		lsls	r3, r3, #1
 1911 0194 1344     		add	r3, r3, r2
 1912 0196 9B00     		lsls	r3, r3, #2
ARM GAS  C:\Users\LUKASC~1\AppData\Local\Temp\ccywSTdI.s 			page 52


 1913 0198 2344     		add	r3, r3, r4
 1914 019a DB88     		ldrh	r3, [r3, #6]	@ movhi
 1915 019c 9BB2     		uxth	r3, r3
 1916 019e DAB2     		uxtb	r2, r3
 1917 01a0 0B01     		lsls	r3, r1, #4
 1918 01a2 0344     		add	r3, r3, r0
 1919 01a4 9A71     		strb	r2, [r3, #6]
 915:.\Generated_Source\PSoC5/USB_std.c ****                     USB_ARB_EP_BASE.arbEp[curEp].rwRaMsb = HI8(USB_EP[curEp].buffOffset);
 1920              		.loc 1 915 0
 1921 01a6 2448     		ldr	r0, .L127+20
 1922 01a8 7978     		ldrb	r1, [r7, #1]	@ zero_extendqisi2
 1923 01aa 7A78     		ldrb	r2, [r7, #1]	@ zero_extendqisi2
 1924 01ac 204C     		ldr	r4, .L127+12
 1925 01ae 1346     		mov	r3, r2
 1926 01b0 5B00     		lsls	r3, r3, #1
 1927 01b2 1344     		add	r3, r3, r2
 1928 01b4 9B00     		lsls	r3, r3, #2
 1929 01b6 2344     		add	r3, r3, r4
 1930 01b8 DB88     		ldrh	r3, [r3, #6]	@ movhi
 1931 01ba 9BB2     		uxth	r3, r3
 1932 01bc 1B0A     		lsrs	r3, r3, #8
 1933 01be 9BB2     		uxth	r3, r3
 1934 01c0 DAB2     		uxtb	r2, r3
 1935 01c2 0B01     		lsls	r3, r1, #4
 1936 01c4 0344     		add	r3, r3, r0
 1937 01c6 DA71     		strb	r2, [r3, #7]
 916:.\Generated_Source\PSoC5/USB_std.c ****                     USB_ARB_EP_BASE.arbEp[curEp].rwWa    = LO8(USB_EP[curEp].buffOffset);
 1938              		.loc 1 916 0
 1939 01c8 1B48     		ldr	r0, .L127+20
 1940 01ca 7978     		ldrb	r1, [r7, #1]	@ zero_extendqisi2
 1941 01cc 7A78     		ldrb	r2, [r7, #1]	@ zero_extendqisi2
 1942 01ce 184C     		ldr	r4, .L127+12
 1943 01d0 1346     		mov	r3, r2
 1944 01d2 5B00     		lsls	r3, r3, #1
 1945 01d4 1344     		add	r3, r3, r2
 1946 01d6 9B00     		lsls	r3, r3, #2
 1947 01d8 2344     		add	r3, r3, r4
 1948 01da DB88     		ldrh	r3, [r3, #6]	@ movhi
 1949 01dc 9BB2     		uxth	r3, r3
 1950 01de DAB2     		uxtb	r2, r3
 1951 01e0 0B01     		lsls	r3, r1, #4
 1952 01e2 0344     		add	r3, r3, r0
 1953 01e4 1A71     		strb	r2, [r3, #4]
 917:.\Generated_Source\PSoC5/USB_std.c ****                     USB_ARB_EP_BASE.arbEp[curEp].rwWaMsb = HI8(USB_EP[curEp].buffOffset);
 1954              		.loc 1 917 0
 1955 01e6 1448     		ldr	r0, .L127+20
 1956 01e8 7978     		ldrb	r1, [r7, #1]	@ zero_extendqisi2
 1957 01ea 7A78     		ldrb	r2, [r7, #1]	@ zero_extendqisi2
 1958 01ec 104C     		ldr	r4, .L127+12
 1959 01ee 1346     		mov	r3, r2
 1960 01f0 5B00     		lsls	r3, r3, #1
 1961 01f2 1344     		add	r3, r3, r2
 1962 01f4 9B00     		lsls	r3, r3, #2
 1963 01f6 2344     		add	r3, r3, r4
 1964 01f8 DB88     		ldrh	r3, [r3, #6]	@ movhi
 1965 01fa 9BB2     		uxth	r3, r3
 1966 01fc 1B0A     		lsrs	r3, r3, #8
ARM GAS  C:\Users\LUKASC~1\AppData\Local\Temp\ccywSTdI.s 			page 53


 1967 01fe 9BB2     		uxth	r3, r3
 1968 0200 DAB2     		uxtb	r2, r3
 1969 0202 0B01     		lsls	r3, r1, #4
 1970 0204 0344     		add	r3, r3, r0
 1971 0206 5A71     		strb	r2, [r3, #5]
 1972              	.L119:
 918:.\Generated_Source\PSoC5/USB_std.c ****                 #endif /* (CY_PSOC4) */                
 919:.\Generated_Source\PSoC5/USB_std.c ****             #endif /* (USB_EP_MANAGEMENT_DMA_AUTO) */
 920:.\Generated_Source\PSoC5/USB_std.c ****             }
 921:.\Generated_Source\PSoC5/USB_std.c ****             
 922:.\Generated_Source\PSoC5/USB_std.c ****             pEP = &pEP[1u]; /* Get next EP element */
 1973              		.loc 1 922 0 discriminator 2
 1974 0208 BB68     		ldr	r3, [r7, #8]
 1975 020a 0833     		adds	r3, r3, #8
 1976 020c BB60     		str	r3, [r7, #8]
 832:.\Generated_Source\PSoC5/USB_std.c ****         {
 1977              		.loc 1 832 0 discriminator 2
 1978 020e FB7B     		ldrb	r3, [r7, #15]	@ zero_extendqisi2
 1979 0210 0133     		adds	r3, r3, #1
 1980 0212 FB73     		strb	r3, [r7, #15]
 1981              	.L118:
 832:.\Generated_Source\PSoC5/USB_std.c ****         {
 1982              		.loc 1 832 0 is_stmt 0 discriminator 1
 1983 0214 FA7B     		ldrb	r2, [r7, #15]	@ zero_extendqisi2
 1984 0216 FB78     		ldrb	r3, [r7, #3]	@ zero_extendqisi2
 1985 0218 9A42     		cmp	r2, r3
 1986 021a FFF412AF 		bcc	.L126
 1987              	.L116:
 923:.\Generated_Source\PSoC5/USB_std.c ****         }
 924:.\Generated_Source\PSoC5/USB_std.c ****         
 925:.\Generated_Source\PSoC5/USB_std.c ****         /* The main loop has to re-enable DMA and OUT endpoint */
 926:.\Generated_Source\PSoC5/USB_std.c ****     }
 927:.\Generated_Source\PSoC5/USB_std.c **** }
 1988              		.loc 1 927 0 is_stmt 1
 1989 021e 1437     		adds	r7, r7, #20
 1990              		.cfi_def_cfa_offset 12
 1991 0220 BD46     		mov	sp, r7
 1992              		.cfi_def_cfa_register 13
 1993              		@ sp needed
 1994 0222 90BD     		pop	{r4, r7, pc}
 1995              	.L128:
 1996              		.align	2
 1997              	.L127:
 1998 0224 00000000 		.word	USB_configuration
 1999 0228 00000000 		.word	USB_interfaceNumber
 2000 022c 00000000 		.word	USB_interfaceSetting
 2001 0230 00000000 		.word	USB_EP
 2002 0234 FC5F0040 		.word	1073766396
 2003 0238 70600040 		.word	1073766512
 2004              		.cfi_endproc
 2005              	.LFE5:
 2006              		.size	USB_ConfigAltChanged, .-USB_ConfigAltChanged
 2007              		.section	.text.USB_GetConfigTablePtr,"ax",%progbits
 2008              		.align	2
 2009              		.global	USB_GetConfigTablePtr
 2010              		.thumb
 2011              		.thumb_func
ARM GAS  C:\Users\LUKASC~1\AppData\Local\Temp\ccywSTdI.s 			page 54


 2012              		.type	USB_GetConfigTablePtr, %function
 2013              	USB_GetConfigTablePtr:
 2014              	.LFB6:
 928:.\Generated_Source\PSoC5/USB_std.c **** 
 929:.\Generated_Source\PSoC5/USB_std.c **** 
 930:.\Generated_Source\PSoC5/USB_std.c **** /*******************************************************************************
 931:.\Generated_Source\PSoC5/USB_std.c **** * Function Name: USB_GetConfigTablePtr
 932:.\Generated_Source\PSoC5/USB_std.c **** ****************************************************************************//**
 933:.\Generated_Source\PSoC5/USB_std.c **** *
 934:.\Generated_Source\PSoC5/USB_std.c **** *  This routine returns a pointer a configuration table entry
 935:.\Generated_Source\PSoC5/USB_std.c **** *
 936:.\Generated_Source\PSoC5/USB_std.c **** *  \param confIndex:  Configuration Index
 937:.\Generated_Source\PSoC5/USB_std.c **** *
 938:.\Generated_Source\PSoC5/USB_std.c **** * \return
 939:.\Generated_Source\PSoC5/USB_std.c **** *  Device Descriptor pointer or NULL when descriptor does not exist.
 940:.\Generated_Source\PSoC5/USB_std.c **** *
 941:.\Generated_Source\PSoC5/USB_std.c **** *******************************************************************************/
 942:.\Generated_Source\PSoC5/USB_std.c **** const T_USB_LUT CYCODE *USB_GetConfigTablePtr(uint8 confIndex)
 943:.\Generated_Source\PSoC5/USB_std.c ****                                                         
 944:.\Generated_Source\PSoC5/USB_std.c **** {
 2015              		.loc 1 944 0
 2016              		.cfi_startproc
 2017              		@ args = 0, pretend = 0, frame = 16
 2018              		@ frame_needed = 1, uses_anonymous_args = 0
 2019              		@ link register save eliminated.
 2020 0000 80B4     		push	{r7}
 2021              		.cfi_def_cfa_offset 4
 2022              		.cfi_offset 7, -4
 2023 0002 85B0     		sub	sp, sp, #20
 2024              		.cfi_def_cfa_offset 24
 2025 0004 00AF     		add	r7, sp, #0
 2026              		.cfi_def_cfa_register 7
 2027 0006 0346     		mov	r3, r0
 2028 0008 FB71     		strb	r3, [r7, #7]
 945:.\Generated_Source\PSoC5/USB_std.c ****     /* Device Table */
 946:.\Generated_Source\PSoC5/USB_std.c ****     const T_USB_LUT CYCODE *pTmp;
 947:.\Generated_Source\PSoC5/USB_std.c **** 
 948:.\Generated_Source\PSoC5/USB_std.c ****     pTmp = (const T_USB_LUT CYCODE *) USB_TABLE[USB_device].p_list;
 2029              		.loc 1 948 0
 2030 000a 104B     		ldr	r3, .L133
 2031 000c 1B78     		ldrb	r3, [r3]
 2032 000e DBB2     		uxtb	r3, r3
 2033 0010 0F4A     		ldr	r2, .L133+4
 2034 0012 DB00     		lsls	r3, r3, #3
 2035 0014 1344     		add	r3, r3, r2
 2036 0016 5B68     		ldr	r3, [r3, #4]
 2037 0018 FB60     		str	r3, [r7, #12]
 949:.\Generated_Source\PSoC5/USB_std.c **** 
 950:.\Generated_Source\PSoC5/USB_std.c ****     /* The first entry points to the Device Descriptor,
 951:.\Generated_Source\PSoC5/USB_std.c ****     *  the second entry point to the BOS Descriptor
 952:.\Generated_Source\PSoC5/USB_std.c ****     *  the rest configuration entries.
 953:.\Generated_Source\PSoC5/USB_std.c ****     *  Set pointer to the first Configuration Descriptor
 954:.\Generated_Source\PSoC5/USB_std.c ****     */
 955:.\Generated_Source\PSoC5/USB_std.c ****     pTmp = &pTmp[2u];
 2038              		.loc 1 955 0
 2039 001a FB68     		ldr	r3, [r7, #12]
 2040 001c 1033     		adds	r3, r3, #16
ARM GAS  C:\Users\LUKASC~1\AppData\Local\Temp\ccywSTdI.s 			page 55


 2041 001e FB60     		str	r3, [r7, #12]
 956:.\Generated_Source\PSoC5/USB_std.c ****     /* For this table, c is the number of configuration descriptors  */
 957:.\Generated_Source\PSoC5/USB_std.c ****     if(confIndex >= pTmp->c)   /* Verify that required configuration descriptor exists */
 2042              		.loc 1 957 0
 2043 0020 FB68     		ldr	r3, [r7, #12]
 2044 0022 1B78     		ldrb	r3, [r3]	@ zero_extendqisi2
 2045 0024 FA79     		ldrb	r2, [r7, #7]	@ zero_extendqisi2
 2046 0026 9A42     		cmp	r2, r3
 2047 0028 02D3     		bcc	.L130
 958:.\Generated_Source\PSoC5/USB_std.c ****     {
 959:.\Generated_Source\PSoC5/USB_std.c ****         pTmp = (const T_USB_LUT CYCODE *) NULL;
 2048              		.loc 1 959 0
 2049 002a 0023     		movs	r3, #0
 2050 002c FB60     		str	r3, [r7, #12]
 2051 002e 05E0     		b	.L131
 2052              	.L130:
 960:.\Generated_Source\PSoC5/USB_std.c ****     }
 961:.\Generated_Source\PSoC5/USB_std.c ****     else
 962:.\Generated_Source\PSoC5/USB_std.c ****     {
 963:.\Generated_Source\PSoC5/USB_std.c ****         pTmp = (const T_USB_LUT CYCODE *) pTmp[confIndex].p_list;
 2053              		.loc 1 963 0
 2054 0030 FB79     		ldrb	r3, [r7, #7]	@ zero_extendqisi2
 2055 0032 DB00     		lsls	r3, r3, #3
 2056 0034 FA68     		ldr	r2, [r7, #12]
 2057 0036 1344     		add	r3, r3, r2
 2058 0038 5B68     		ldr	r3, [r3, #4]
 2059 003a FB60     		str	r3, [r7, #12]
 2060              	.L131:
 964:.\Generated_Source\PSoC5/USB_std.c ****     }
 965:.\Generated_Source\PSoC5/USB_std.c **** 
 966:.\Generated_Source\PSoC5/USB_std.c ****     return (pTmp);
 2061              		.loc 1 966 0
 2062 003c FB68     		ldr	r3, [r7, #12]
 967:.\Generated_Source\PSoC5/USB_std.c **** }
 2063              		.loc 1 967 0
 2064 003e 1846     		mov	r0, r3
 2065 0040 1437     		adds	r7, r7, #20
 2066              		.cfi_def_cfa_offset 4
 2067 0042 BD46     		mov	sp, r7
 2068              		.cfi_def_cfa_register 13
 2069              		@ sp needed
 2070 0044 5DF8047B 		ldr	r7, [sp], #4
 2071              		.cfi_restore 7
 2072              		.cfi_def_cfa_offset 0
 2073 0048 7047     		bx	lr
 2074              	.L134:
 2075 004a 00BF     		.align	2
 2076              	.L133:
 2077 004c 00000000 		.word	USB_device
 2078 0050 00000000 		.word	USB_TABLE
 2079              		.cfi_endproc
 2080              	.LFE6:
 2081              		.size	USB_GetConfigTablePtr, .-USB_GetConfigTablePtr
 2082              		.section	.text.USB_GetDeviceTablePtr,"ax",%progbits
 2083              		.align	2
 2084              		.global	USB_GetDeviceTablePtr
 2085              		.thumb
ARM GAS  C:\Users\LUKASC~1\AppData\Local\Temp\ccywSTdI.s 			page 56


 2086              		.thumb_func
 2087              		.type	USB_GetDeviceTablePtr, %function
 2088              	USB_GetDeviceTablePtr:
 2089              	.LFB7:
 968:.\Generated_Source\PSoC5/USB_std.c **** 
 969:.\Generated_Source\PSoC5/USB_std.c **** 
 970:.\Generated_Source\PSoC5/USB_std.c **** #if (USB_BOS_ENABLE)
 971:.\Generated_Source\PSoC5/USB_std.c ****     /*******************************************************************************
 972:.\Generated_Source\PSoC5/USB_std.c ****     * Function Name: USB_GetBOSPtr
 973:.\Generated_Source\PSoC5/USB_std.c ****     ****************************************************************************//**
 974:.\Generated_Source\PSoC5/USB_std.c ****     *
 975:.\Generated_Source\PSoC5/USB_std.c ****     *  This routine returns a pointer a BOS table entry
 976:.\Generated_Source\PSoC5/USB_std.c ****     *
 977:.\Generated_Source\PSoC5/USB_std.c ****     *  
 978:.\Generated_Source\PSoC5/USB_std.c ****     *
 979:.\Generated_Source\PSoC5/USB_std.c ****     * \return
 980:.\Generated_Source\PSoC5/USB_std.c ****     *  BOS Descriptor pointer or NULL when descriptor does not exist.
 981:.\Generated_Source\PSoC5/USB_std.c ****     *
 982:.\Generated_Source\PSoC5/USB_std.c ****     *******************************************************************************/
 983:.\Generated_Source\PSoC5/USB_std.c ****     const T_USB_LUT CYCODE *USB_GetBOSPtr(void)
 984:.\Generated_Source\PSoC5/USB_std.c ****                                                             
 985:.\Generated_Source\PSoC5/USB_std.c ****     {
 986:.\Generated_Source\PSoC5/USB_std.c ****         /* Device Table */
 987:.\Generated_Source\PSoC5/USB_std.c ****         const T_USB_LUT CYCODE *pTmp;
 988:.\Generated_Source\PSoC5/USB_std.c **** 
 989:.\Generated_Source\PSoC5/USB_std.c ****         pTmp = (const T_USB_LUT CYCODE *) USB_TABLE[USB_device].p_list;
 990:.\Generated_Source\PSoC5/USB_std.c **** 
 991:.\Generated_Source\PSoC5/USB_std.c ****         /* The first entry points to the Device Descriptor,
 992:.\Generated_Source\PSoC5/USB_std.c ****         *  the second entry points to the BOS Descriptor
 993:.\Generated_Source\PSoC5/USB_std.c ****         */
 994:.\Generated_Source\PSoC5/USB_std.c ****         pTmp = &pTmp[1u];
 995:.\Generated_Source\PSoC5/USB_std.c ****         pTmp = (const T_USB_LUT CYCODE *) pTmp->p_list;
 996:.\Generated_Source\PSoC5/USB_std.c ****         return (pTmp);
 997:.\Generated_Source\PSoC5/USB_std.c ****     }
 998:.\Generated_Source\PSoC5/USB_std.c **** #endif /* (USB_BOS_ENABLE) */
 999:.\Generated_Source\PSoC5/USB_std.c **** 
1000:.\Generated_Source\PSoC5/USB_std.c **** 
1001:.\Generated_Source\PSoC5/USB_std.c **** /*******************************************************************************
1002:.\Generated_Source\PSoC5/USB_std.c **** * Function Name: USB_GetDeviceTablePtr
1003:.\Generated_Source\PSoC5/USB_std.c **** ****************************************************************************//**
1004:.\Generated_Source\PSoC5/USB_std.c **** *
1005:.\Generated_Source\PSoC5/USB_std.c **** *  This routine returns a pointer to the Device table
1006:.\Generated_Source\PSoC5/USB_std.c **** *
1007:.\Generated_Source\PSoC5/USB_std.c **** * \return
1008:.\Generated_Source\PSoC5/USB_std.c **** *  Device Table pointer
1009:.\Generated_Source\PSoC5/USB_std.c **** *
1010:.\Generated_Source\PSoC5/USB_std.c **** *******************************************************************************/
1011:.\Generated_Source\PSoC5/USB_std.c **** const T_USB_LUT CYCODE *USB_GetDeviceTablePtr(void)
1012:.\Generated_Source\PSoC5/USB_std.c ****                                                             
1013:.\Generated_Source\PSoC5/USB_std.c **** {
 2090              		.loc 1 1013 0
 2091              		.cfi_startproc
 2092              		@ args = 0, pretend = 0, frame = 0
 2093              		@ frame_needed = 1, uses_anonymous_args = 0
 2094              		@ link register save eliminated.
 2095 0000 80B4     		push	{r7}
 2096              		.cfi_def_cfa_offset 4
ARM GAS  C:\Users\LUKASC~1\AppData\Local\Temp\ccywSTdI.s 			page 57


 2097              		.cfi_offset 7, -4
 2098 0002 00AF     		add	r7, sp, #0
 2099              		.cfi_def_cfa_register 7
1014:.\Generated_Source\PSoC5/USB_std.c ****     /* Device Table */
1015:.\Generated_Source\PSoC5/USB_std.c ****     return( (const T_USB_LUT CYCODE *) USB_TABLE[USB_device].p_list );
 2100              		.loc 1 1015 0
 2101 0004 054B     		ldr	r3, .L137
 2102 0006 1B78     		ldrb	r3, [r3]
 2103 0008 DBB2     		uxtb	r3, r3
 2104 000a 054A     		ldr	r2, .L137+4
 2105 000c DB00     		lsls	r3, r3, #3
 2106 000e 1344     		add	r3, r3, r2
 2107 0010 5B68     		ldr	r3, [r3, #4]
1016:.\Generated_Source\PSoC5/USB_std.c **** }
 2108              		.loc 1 1016 0
 2109 0012 1846     		mov	r0, r3
 2110 0014 BD46     		mov	sp, r7
 2111              		.cfi_def_cfa_register 13
 2112              		@ sp needed
 2113 0016 5DF8047B 		ldr	r7, [sp], #4
 2114              		.cfi_restore 7
 2115              		.cfi_def_cfa_offset 0
 2116 001a 7047     		bx	lr
 2117              	.L138:
 2118              		.align	2
 2119              	.L137:
 2120 001c 00000000 		.word	USB_device
 2121 0020 00000000 		.word	USB_TABLE
 2122              		.cfi_endproc
 2123              	.LFE7:
 2124              		.size	USB_GetDeviceTablePtr, .-USB_GetDeviceTablePtr
 2125              		.section	.text.USB_GetInterfaceClassTablePtr,"ax",%progbits
 2126              		.align	2
 2127              		.global	USB_GetInterfaceClassTablePtr
 2128              		.thumb
 2129              		.thumb_func
 2130              		.type	USB_GetInterfaceClassTablePtr, %function
 2131              	USB_GetInterfaceClassTablePtr:
 2132              	.LFB8:
1017:.\Generated_Source\PSoC5/USB_std.c **** 
1018:.\Generated_Source\PSoC5/USB_std.c **** 
1019:.\Generated_Source\PSoC5/USB_std.c **** /*******************************************************************************
1020:.\Generated_Source\PSoC5/USB_std.c **** * Function Name: USB_GetInterfaceClassTablePtr
1021:.\Generated_Source\PSoC5/USB_std.c **** ****************************************************************************//**
1022:.\Generated_Source\PSoC5/USB_std.c **** *
1023:.\Generated_Source\PSoC5/USB_std.c **** *  This routine returns Interface Class table pointer, which contains
1024:.\Generated_Source\PSoC5/USB_std.c **** *  the relation between interface number and interface class.
1025:.\Generated_Source\PSoC5/USB_std.c **** *
1026:.\Generated_Source\PSoC5/USB_std.c **** * \return
1027:.\Generated_Source\PSoC5/USB_std.c **** *  Interface Class table pointer.
1028:.\Generated_Source\PSoC5/USB_std.c **** *
1029:.\Generated_Source\PSoC5/USB_std.c **** *******************************************************************************/
1030:.\Generated_Source\PSoC5/USB_std.c **** const uint8 CYCODE *USB_GetInterfaceClassTablePtr(void)
1031:.\Generated_Source\PSoC5/USB_std.c ****                                                         
1032:.\Generated_Source\PSoC5/USB_std.c **** {
 2133              		.loc 1 1032 0
 2134              		.cfi_startproc
ARM GAS  C:\Users\LUKASC~1\AppData\Local\Temp\ccywSTdI.s 			page 58


 2135              		@ args = 0, pretend = 0, frame = 16
 2136              		@ frame_needed = 1, uses_anonymous_args = 0
 2137 0000 80B5     		push	{r7, lr}
 2138              		.cfi_def_cfa_offset 8
 2139              		.cfi_offset 7, -8
 2140              		.cfi_offset 14, -4
 2141 0002 84B0     		sub	sp, sp, #16
 2142              		.cfi_def_cfa_offset 24
 2143 0004 00AF     		add	r7, sp, #0
 2144              		.cfi_def_cfa_register 7
1033:.\Generated_Source\PSoC5/USB_std.c ****     const T_USB_LUT CYCODE *pTmp;
1034:.\Generated_Source\PSoC5/USB_std.c ****     const uint8 CYCODE *pInterfaceClass;
1035:.\Generated_Source\PSoC5/USB_std.c ****     uint8 currentInterfacesNum;
1036:.\Generated_Source\PSoC5/USB_std.c **** 
1037:.\Generated_Source\PSoC5/USB_std.c ****     pTmp = USB_GetConfigTablePtr(USB_configuration - 1u);
 2145              		.loc 1 1037 0
 2146 0006 104B     		ldr	r3, .L143
 2147 0008 1B78     		ldrb	r3, [r3]
 2148 000a DBB2     		uxtb	r3, r3
 2149 000c 013B     		subs	r3, r3, #1
 2150 000e DBB2     		uxtb	r3, r3
 2151 0010 1846     		mov	r0, r3
 2152 0012 FFF7FEFF 		bl	USB_GetConfigTablePtr
 2153 0016 B860     		str	r0, [r7, #8]
1038:.\Generated_Source\PSoC5/USB_std.c ****     if (pTmp != NULL)
 2154              		.loc 1 1038 0
 2155 0018 BB68     		ldr	r3, [r7, #8]
 2156 001a 002B     		cmp	r3, #0
 2157 001c 0DD0     		beq	.L140
1039:.\Generated_Source\PSoC5/USB_std.c ****     {
1040:.\Generated_Source\PSoC5/USB_std.c ****         currentInterfacesNum  = ((const uint8 *) pTmp->p_list)[USB_CONFIG_DESCR_NUM_INTERFACES];
 2158              		.loc 1 1040 0
 2159 001e BB68     		ldr	r3, [r7, #8]
 2160 0020 5B68     		ldr	r3, [r3, #4]
 2161 0022 1B79     		ldrb	r3, [r3, #4]
 2162 0024 FB71     		strb	r3, [r7, #7]
1041:.\Generated_Source\PSoC5/USB_std.c ****         /* Third entry in the LUT starts the Interface Table pointers */
1042:.\Generated_Source\PSoC5/USB_std.c ****         /* The INTERFACE_CLASS table is located after all interfaces */
1043:.\Generated_Source\PSoC5/USB_std.c ****         pTmp = &pTmp[currentInterfacesNum + 2u];
 2163              		.loc 1 1043 0
 2164 0026 FB79     		ldrb	r3, [r7, #7]	@ zero_extendqisi2
 2165 0028 0233     		adds	r3, r3, #2
 2166 002a DB00     		lsls	r3, r3, #3
 2167 002c BA68     		ldr	r2, [r7, #8]
 2168 002e 1344     		add	r3, r3, r2
 2169 0030 BB60     		str	r3, [r7, #8]
1044:.\Generated_Source\PSoC5/USB_std.c ****         pInterfaceClass = (const uint8 CYCODE *) pTmp->p_list;
 2170              		.loc 1 1044 0
 2171 0032 BB68     		ldr	r3, [r7, #8]
 2172 0034 5B68     		ldr	r3, [r3, #4]
 2173 0036 FB60     		str	r3, [r7, #12]
 2174 0038 01E0     		b	.L141
 2175              	.L140:
1045:.\Generated_Source\PSoC5/USB_std.c ****     }
1046:.\Generated_Source\PSoC5/USB_std.c ****     else
1047:.\Generated_Source\PSoC5/USB_std.c ****     {
1048:.\Generated_Source\PSoC5/USB_std.c ****         pInterfaceClass = (const uint8 CYCODE *) NULL;
ARM GAS  C:\Users\LUKASC~1\AppData\Local\Temp\ccywSTdI.s 			page 59


 2176              		.loc 1 1048 0
 2177 003a 0023     		movs	r3, #0
 2178 003c FB60     		str	r3, [r7, #12]
 2179              	.L141:
1049:.\Generated_Source\PSoC5/USB_std.c ****     }
1050:.\Generated_Source\PSoC5/USB_std.c **** 
1051:.\Generated_Source\PSoC5/USB_std.c ****     return (pInterfaceClass);
 2180              		.loc 1 1051 0
 2181 003e FB68     		ldr	r3, [r7, #12]
1052:.\Generated_Source\PSoC5/USB_std.c **** }
 2182              		.loc 1 1052 0
 2183 0040 1846     		mov	r0, r3
 2184 0042 1037     		adds	r7, r7, #16
 2185              		.cfi_def_cfa_offset 8
 2186 0044 BD46     		mov	sp, r7
 2187              		.cfi_def_cfa_register 13
 2188              		@ sp needed
 2189 0046 80BD     		pop	{r7, pc}
 2190              	.L144:
 2191              		.align	2
 2192              	.L143:
 2193 0048 00000000 		.word	USB_configuration
 2194              		.cfi_endproc
 2195              	.LFE8:
 2196              		.size	USB_GetInterfaceClassTablePtr, .-USB_GetInterfaceClassTablePtr
 2197              		.section	.text.USB_TerminateEP,"ax",%progbits
 2198              		.align	2
 2199              		.global	USB_TerminateEP
 2200              		.thumb
 2201              		.thumb_func
 2202              		.type	USB_TerminateEP, %function
 2203              	USB_TerminateEP:
 2204              	.LFB9:
1053:.\Generated_Source\PSoC5/USB_std.c **** 
1054:.\Generated_Source\PSoC5/USB_std.c **** 
1055:.\Generated_Source\PSoC5/USB_std.c **** /*******************************************************************************
1056:.\Generated_Source\PSoC5/USB_std.c **** * Function Name: USB_TerminateEP
1057:.\Generated_Source\PSoC5/USB_std.c **** ****************************************************************************//**
1058:.\Generated_Source\PSoC5/USB_std.c **** *
1059:.\Generated_Source\PSoC5/USB_std.c **** *  This function terminates the specified USBFS endpoint.
1060:.\Generated_Source\PSoC5/USB_std.c **** *  This function should be used before endpoint reconfiguration.
1061:.\Generated_Source\PSoC5/USB_std.c **** *
1062:.\Generated_Source\PSoC5/USB_std.c **** *  \param ep Contains the data endpoint number.
1063:.\Generated_Source\PSoC5/USB_std.c **** *
1064:.\Generated_Source\PSoC5/USB_std.c **** *  \reentrant
1065:.\Generated_Source\PSoC5/USB_std.c **** *  No.
1066:.\Generated_Source\PSoC5/USB_std.c **** *
1067:.\Generated_Source\PSoC5/USB_std.c **** * \sideeffect
1068:.\Generated_Source\PSoC5/USB_std.c **** * 
1069:.\Generated_Source\PSoC5/USB_std.c **** * The device responds with a NAK for any transactions on the selected endpoint.
1070:.\Generated_Source\PSoC5/USB_std.c **** *   
1071:.\Generated_Source\PSoC5/USB_std.c **** *******************************************************************************/
1072:.\Generated_Source\PSoC5/USB_std.c **** void USB_TerminateEP(uint8 epNumber) 
1073:.\Generated_Source\PSoC5/USB_std.c **** {
 2205              		.loc 1 1073 0
 2206              		.cfi_startproc
 2207              		@ args = 0, pretend = 0, frame = 8
ARM GAS  C:\Users\LUKASC~1\AppData\Local\Temp\ccywSTdI.s 			page 60


 2208              		@ frame_needed = 1, uses_anonymous_args = 0
 2209              		@ link register save eliminated.
 2210 0000 80B4     		push	{r7}
 2211              		.cfi_def_cfa_offset 4
 2212              		.cfi_offset 7, -4
 2213 0002 83B0     		sub	sp, sp, #12
 2214              		.cfi_def_cfa_offset 16
 2215 0004 00AF     		add	r7, sp, #0
 2216              		.cfi_def_cfa_register 7
 2217 0006 0346     		mov	r3, r0
 2218 0008 FB71     		strb	r3, [r7, #7]
1074:.\Generated_Source\PSoC5/USB_std.c ****     /* Get endpoint number */
1075:.\Generated_Source\PSoC5/USB_std.c ****     epNumber &= USB_DIR_UNUSED;
 2219              		.loc 1 1075 0
 2220 000a FB79     		ldrb	r3, [r7, #7]
 2221 000c 03F07F03 		and	r3, r3, #127
 2222 0010 FB71     		strb	r3, [r7, #7]
1076:.\Generated_Source\PSoC5/USB_std.c **** 
1077:.\Generated_Source\PSoC5/USB_std.c ****     if ((epNumber > USB_EP0) && (epNumber < USB_MAX_EP))
 2223              		.loc 1 1077 0
 2224 0012 FB79     		ldrb	r3, [r7, #7]	@ zero_extendqisi2
 2225 0014 002B     		cmp	r3, #0
 2226 0016 43D0     		beq	.L145
 2227              		.loc 1 1077 0 is_stmt 0 discriminator 1
 2228 0018 FB79     		ldrb	r3, [r7, #7]	@ zero_extendqisi2
 2229 001a 082B     		cmp	r3, #8
 2230 001c 40D8     		bhi	.L145
1078:.\Generated_Source\PSoC5/USB_std.c ****     {
1079:.\Generated_Source\PSoC5/USB_std.c ****         /* Set the endpoint Halt */
1080:.\Generated_Source\PSoC5/USB_std.c ****         USB_EP[epNumber].hwEpState |= USB_ENDPOINT_STATUS_HALT;
 2231              		.loc 1 1080 0 is_stmt 1
 2232 001e FA79     		ldrb	r2, [r7, #7]	@ zero_extendqisi2
 2233 0020 F979     		ldrb	r1, [r7, #7]	@ zero_extendqisi2
 2234 0022 2248     		ldr	r0, .L148
 2235 0024 0B46     		mov	r3, r1
 2236 0026 5B00     		lsls	r3, r3, #1
 2237 0028 0B44     		add	r3, r3, r1
 2238 002a 9B00     		lsls	r3, r3, #2
 2239 002c 0344     		add	r3, r3, r0
 2240 002e 9B78     		ldrb	r3, [r3, #2]
 2241 0030 DBB2     		uxtb	r3, r3
 2242 0032 43F00103 		orr	r3, r3, #1
 2243 0036 D8B2     		uxtb	r0, r3
 2244 0038 1C49     		ldr	r1, .L148
 2245 003a 1346     		mov	r3, r2
 2246 003c 5B00     		lsls	r3, r3, #1
 2247 003e 1344     		add	r3, r3, r2
 2248 0040 9B00     		lsls	r3, r3, #2
 2249 0042 0B44     		add	r3, r3, r1
 2250 0044 0246     		mov	r2, r0
 2251 0046 9A70     		strb	r2, [r3, #2]
1081:.\Generated_Source\PSoC5/USB_std.c **** 
1082:.\Generated_Source\PSoC5/USB_std.c ****         /* Clear the data toggle */
1083:.\Generated_Source\PSoC5/USB_std.c ****         USB_EP[epNumber].epToggle = 0u;
 2252              		.loc 1 1083 0
 2253 0048 FA79     		ldrb	r2, [r7, #7]	@ zero_extendqisi2
 2254 004a 1849     		ldr	r1, .L148
ARM GAS  C:\Users\LUKASC~1\AppData\Local\Temp\ccywSTdI.s 			page 61


 2255 004c 1346     		mov	r3, r2
 2256 004e 5B00     		lsls	r3, r3, #1
 2257 0050 1344     		add	r3, r3, r2
 2258 0052 9B00     		lsls	r3, r3, #2
 2259 0054 0B44     		add	r3, r3, r1
 2260 0056 0022     		movs	r2, #0
 2261 0058 DA70     		strb	r2, [r3, #3]
1084:.\Generated_Source\PSoC5/USB_std.c ****         USB_EP[epNumber].apiEpState = USB_NO_EVENT_ALLOWED;
 2262              		.loc 1 1084 0
 2263 005a FA79     		ldrb	r2, [r7, #7]	@ zero_extendqisi2
 2264 005c 1349     		ldr	r1, .L148
 2265 005e 1346     		mov	r3, r2
 2266 0060 5B00     		lsls	r3, r3, #1
 2267 0062 1344     		add	r3, r3, r2
 2268 0064 9B00     		lsls	r3, r3, #2
 2269 0066 0B44     		add	r3, r3, r1
 2270 0068 0222     		movs	r2, #2
 2271 006a 5A70     		strb	r2, [r3, #1]
1085:.\Generated_Source\PSoC5/USB_std.c **** 
1086:.\Generated_Source\PSoC5/USB_std.c ****         if ((USB_EP[epNumber].addr & USB_DIR_IN) != 0u)
 2272              		.loc 1 1086 0
 2273 006c FA79     		ldrb	r2, [r7, #7]	@ zero_extendqisi2
 2274 006e 0F49     		ldr	r1, .L148
 2275 0070 1346     		mov	r3, r2
 2276 0072 5B00     		lsls	r3, r3, #1
 2277 0074 1344     		add	r3, r3, r2
 2278 0076 9B00     		lsls	r3, r3, #2
 2279 0078 0B44     		add	r3, r3, r1
 2280 007a 1B79     		ldrb	r3, [r3, #4]
 2281 007c DBB2     		uxtb	r3, r3
 2282 007e DBB2     		uxtb	r3, r3
 2283 0080 5BB2     		sxtb	r3, r3
 2284 0082 002B     		cmp	r3, #0
 2285 0084 06DA     		bge	.L147
1087:.\Generated_Source\PSoC5/USB_std.c ****         {   
1088:.\Generated_Source\PSoC5/USB_std.c ****             /* IN Endpoint */
1089:.\Generated_Source\PSoC5/USB_std.c ****             USB_SIE_EP_BASE.sieEp[epNumber].epCr0 = USB_MODE_NAK_IN;
 2286              		.loc 1 1089 0
 2287 0086 0A4A     		ldr	r2, .L148+4
 2288 0088 FB79     		ldrb	r3, [r7, #7]	@ zero_extendqisi2
 2289 008a 1B01     		lsls	r3, r3, #4
 2290 008c 1344     		add	r3, r3, r2
 2291 008e 0C22     		movs	r2, #12
 2292 0090 9A70     		strb	r2, [r3, #2]
 2293 0092 05E0     		b	.L145
 2294              	.L147:
1090:.\Generated_Source\PSoC5/USB_std.c ****         }
1091:.\Generated_Source\PSoC5/USB_std.c ****         else
1092:.\Generated_Source\PSoC5/USB_std.c ****         {
1093:.\Generated_Source\PSoC5/USB_std.c ****             /* OUT Endpoint */
1094:.\Generated_Source\PSoC5/USB_std.c ****             USB_SIE_EP_BASE.sieEp[epNumber].epCr0 = USB_MODE_NAK_OUT;
 2295              		.loc 1 1094 0
 2296 0094 064A     		ldr	r2, .L148+4
 2297 0096 FB79     		ldrb	r3, [r7, #7]	@ zero_extendqisi2
 2298 0098 1B01     		lsls	r3, r3, #4
 2299 009a 1344     		add	r3, r3, r2
 2300 009c 0822     		movs	r2, #8
ARM GAS  C:\Users\LUKASC~1\AppData\Local\Temp\ccywSTdI.s 			page 62


 2301 009e 9A70     		strb	r2, [r3, #2]
 2302              	.L145:
1095:.\Generated_Source\PSoC5/USB_std.c ****         }
1096:.\Generated_Source\PSoC5/USB_std.c ****     }
1097:.\Generated_Source\PSoC5/USB_std.c **** }
 2303              		.loc 1 1097 0
 2304 00a0 0C37     		adds	r7, r7, #12
 2305              		.cfi_def_cfa_offset 4
 2306 00a2 BD46     		mov	sp, r7
 2307              		.cfi_def_cfa_register 13
 2308              		@ sp needed
 2309 00a4 5DF8047B 		ldr	r7, [sp], #4
 2310              		.cfi_restore 7
 2311              		.cfi_def_cfa_offset 0
 2312 00a8 7047     		bx	lr
 2313              	.L149:
 2314 00aa 00BF     		.align	2
 2315              	.L148:
 2316 00ac 00000000 		.word	USB_EP
 2317 00b0 FC5F0040 		.word	1073766396
 2318              		.cfi_endproc
 2319              	.LFE9:
 2320              		.size	USB_TerminateEP, .-USB_TerminateEP
 2321              		.section	.text.USB_SetEndpointHalt,"ax",%progbits
 2322              		.align	2
 2323              		.global	USB_SetEndpointHalt
 2324              		.thumb
 2325              		.thumb_func
 2326              		.type	USB_SetEndpointHalt, %function
 2327              	USB_SetEndpointHalt:
 2328              	.LFB10:
1098:.\Generated_Source\PSoC5/USB_std.c **** 
1099:.\Generated_Source\PSoC5/USB_std.c **** 
1100:.\Generated_Source\PSoC5/USB_std.c **** /*******************************************************************************
1101:.\Generated_Source\PSoC5/USB_std.c **** * Function Name: USB_SetEndpointHalt
1102:.\Generated_Source\PSoC5/USB_std.c **** ****************************************************************************//**
1103:.\Generated_Source\PSoC5/USB_std.c **** *
1104:.\Generated_Source\PSoC5/USB_std.c **** *  This routine handles set endpoint halt.
1105:.\Generated_Source\PSoC5/USB_std.c **** *
1106:.\Generated_Source\PSoC5/USB_std.c **** * \return
1107:.\Generated_Source\PSoC5/USB_std.c **** *  requestHandled.
1108:.\Generated_Source\PSoC5/USB_std.c **** *
1109:.\Generated_Source\PSoC5/USB_std.c **** * \reentrant
1110:.\Generated_Source\PSoC5/USB_std.c **** *  No.
1111:.\Generated_Source\PSoC5/USB_std.c **** *
1112:.\Generated_Source\PSoC5/USB_std.c **** *******************************************************************************/
1113:.\Generated_Source\PSoC5/USB_std.c **** uint8 USB_SetEndpointHalt(void) 
1114:.\Generated_Source\PSoC5/USB_std.c **** {
 2329              		.loc 1 1114 0
 2330              		.cfi_startproc
 2331              		@ args = 0, pretend = 0, frame = 8
 2332              		@ frame_needed = 1, uses_anonymous_args = 0
 2333 0000 80B5     		push	{r7, lr}
 2334              		.cfi_def_cfa_offset 8
 2335              		.cfi_offset 7, -8
 2336              		.cfi_offset 14, -4
 2337 0002 82B0     		sub	sp, sp, #8
ARM GAS  C:\Users\LUKASC~1\AppData\Local\Temp\ccywSTdI.s 			page 63


 2338              		.cfi_def_cfa_offset 16
 2339 0004 00AF     		add	r7, sp, #0
 2340              		.cfi_def_cfa_register 7
1115:.\Generated_Source\PSoC5/USB_std.c ****     uint8 requestHandled = USB_FALSE;
 2341              		.loc 1 1115 0
 2342 0006 0023     		movs	r3, #0
 2343 0008 FB71     		strb	r3, [r7, #7]
1116:.\Generated_Source\PSoC5/USB_std.c ****     uint8 ep;
1117:.\Generated_Source\PSoC5/USB_std.c ****     
1118:.\Generated_Source\PSoC5/USB_std.c ****     /* Set endpoint halt */
1119:.\Generated_Source\PSoC5/USB_std.c ****     ep = USB_wIndexLoReg & USB_DIR_UNUSED;
 2344              		.loc 1 1119 0
 2345 000a 314B     		ldr	r3, .L155
 2346 000c 1B79     		ldrb	r3, [r3, #4]
 2347 000e DBB2     		uxtb	r3, r3
 2348 0010 03F07F03 		and	r3, r3, #127
 2349 0014 BB71     		strb	r3, [r7, #6]
1120:.\Generated_Source\PSoC5/USB_std.c **** 
1121:.\Generated_Source\PSoC5/USB_std.c ****     if ((ep > USB_EP0) && (ep < USB_MAX_EP))
 2350              		.loc 1 1121 0
 2351 0016 BB79     		ldrb	r3, [r7, #6]	@ zero_extendqisi2
 2352 0018 002B     		cmp	r3, #0
 2353 001a 53D0     		beq	.L151
 2354              		.loc 1 1121 0 is_stmt 0 discriminator 1
 2355 001c BB79     		ldrb	r3, [r7, #6]	@ zero_extendqisi2
 2356 001e 082B     		cmp	r3, #8
 2357 0020 50D8     		bhi	.L151
1122:.\Generated_Source\PSoC5/USB_std.c ****     {
1123:.\Generated_Source\PSoC5/USB_std.c ****         /* Set the endpoint Halt */
1124:.\Generated_Source\PSoC5/USB_std.c ****         USB_EP[ep].hwEpState |= (USB_ENDPOINT_STATUS_HALT);
 2358              		.loc 1 1124 0 is_stmt 1
 2359 0022 BA79     		ldrb	r2, [r7, #6]	@ zero_extendqisi2
 2360 0024 B979     		ldrb	r1, [r7, #6]	@ zero_extendqisi2
 2361 0026 2B48     		ldr	r0, .L155+4
 2362 0028 0B46     		mov	r3, r1
 2363 002a 5B00     		lsls	r3, r3, #1
 2364 002c 0B44     		add	r3, r3, r1
 2365 002e 9B00     		lsls	r3, r3, #2
 2366 0030 0344     		add	r3, r3, r0
 2367 0032 9B78     		ldrb	r3, [r3, #2]
 2368 0034 DBB2     		uxtb	r3, r3
 2369 0036 43F00103 		orr	r3, r3, #1
 2370 003a D8B2     		uxtb	r0, r3
 2371 003c 2549     		ldr	r1, .L155+4
 2372 003e 1346     		mov	r3, r2
 2373 0040 5B00     		lsls	r3, r3, #1
 2374 0042 1344     		add	r3, r3, r2
 2375 0044 9B00     		lsls	r3, r3, #2
 2376 0046 0B44     		add	r3, r3, r1
 2377 0048 0246     		mov	r2, r0
 2378 004a 9A70     		strb	r2, [r3, #2]
1125:.\Generated_Source\PSoC5/USB_std.c **** 
1126:.\Generated_Source\PSoC5/USB_std.c ****         /* Clear the data toggle */
1127:.\Generated_Source\PSoC5/USB_std.c ****         USB_EP[ep].epToggle = 0u;
 2379              		.loc 1 1127 0
 2380 004c BA79     		ldrb	r2, [r7, #6]	@ zero_extendqisi2
 2381 004e 2149     		ldr	r1, .L155+4
ARM GAS  C:\Users\LUKASC~1\AppData\Local\Temp\ccywSTdI.s 			page 64


 2382 0050 1346     		mov	r3, r2
 2383 0052 5B00     		lsls	r3, r3, #1
 2384 0054 1344     		add	r3, r3, r2
 2385 0056 9B00     		lsls	r3, r3, #2
 2386 0058 0B44     		add	r3, r3, r1
 2387 005a 0022     		movs	r2, #0
 2388 005c DA70     		strb	r2, [r3, #3]
1128:.\Generated_Source\PSoC5/USB_std.c ****         USB_EP[ep].apiEpState |= USB_NO_EVENT_ALLOWED;
 2389              		.loc 1 1128 0
 2390 005e BA79     		ldrb	r2, [r7, #6]	@ zero_extendqisi2
 2391 0060 B979     		ldrb	r1, [r7, #6]	@ zero_extendqisi2
 2392 0062 1C48     		ldr	r0, .L155+4
 2393 0064 0B46     		mov	r3, r1
 2394 0066 5B00     		lsls	r3, r3, #1
 2395 0068 0B44     		add	r3, r3, r1
 2396 006a 9B00     		lsls	r3, r3, #2
 2397 006c 0344     		add	r3, r3, r0
 2398 006e 5B78     		ldrb	r3, [r3, #1]
 2399 0070 DBB2     		uxtb	r3, r3
 2400 0072 43F00203 		orr	r3, r3, #2
 2401 0076 D8B2     		uxtb	r0, r3
 2402 0078 1649     		ldr	r1, .L155+4
 2403 007a 1346     		mov	r3, r2
 2404 007c 5B00     		lsls	r3, r3, #1
 2405 007e 1344     		add	r3, r3, r2
 2406 0080 9B00     		lsls	r3, r3, #2
 2407 0082 0B44     		add	r3, r3, r1
 2408 0084 0246     		mov	r2, r0
 2409 0086 5A70     		strb	r2, [r3, #1]
1129:.\Generated_Source\PSoC5/USB_std.c **** 
1130:.\Generated_Source\PSoC5/USB_std.c ****         if ((USB_EP[ep].addr & USB_DIR_IN) != 0u)
 2410              		.loc 1 1130 0
 2411 0088 BA79     		ldrb	r2, [r7, #6]	@ zero_extendqisi2
 2412 008a 1249     		ldr	r1, .L155+4
 2413 008c 1346     		mov	r3, r2
 2414 008e 5B00     		lsls	r3, r3, #1
 2415 0090 1344     		add	r3, r3, r2
 2416 0092 9B00     		lsls	r3, r3, #2
 2417 0094 0B44     		add	r3, r3, r1
 2418 0096 1B79     		ldrb	r3, [r3, #4]
 2419 0098 DBB2     		uxtb	r3, r3
 2420 009a DBB2     		uxtb	r3, r3
 2421 009c 5BB2     		sxtb	r3, r3
 2422 009e 002B     		cmp	r3, #0
 2423 00a0 06DA     		bge	.L152
1131:.\Generated_Source\PSoC5/USB_std.c ****         {
1132:.\Generated_Source\PSoC5/USB_std.c ****             /* IN Endpoint */
1133:.\Generated_Source\PSoC5/USB_std.c ****             USB_SIE_EP_BASE.sieEp[ep].epCr0 = (USB_MODE_STALL_DATA_EP | 
 2424              		.loc 1 1133 0
 2425 00a2 0D4A     		ldr	r2, .L155+8
 2426 00a4 BB79     		ldrb	r3, [r7, #6]	@ zero_extendqisi2
 2427 00a6 1B01     		lsls	r3, r3, #4
 2428 00a8 1344     		add	r3, r3, r2
 2429 00aa 8D22     		movs	r2, #141
 2430 00ac 9A70     		strb	r2, [r3, #2]
 2431 00ae 05E0     		b	.L153
 2432              	.L152:
ARM GAS  C:\Users\LUKASC~1\AppData\Local\Temp\ccywSTdI.s 			page 65


1134:.\Generated_Source\PSoC5/USB_std.c ****                                                             USB_MODE_ACK_IN);
1135:.\Generated_Source\PSoC5/USB_std.c ****         }
1136:.\Generated_Source\PSoC5/USB_std.c ****         else
1137:.\Generated_Source\PSoC5/USB_std.c ****         {
1138:.\Generated_Source\PSoC5/USB_std.c ****             /* OUT Endpoint */
1139:.\Generated_Source\PSoC5/USB_std.c ****             USB_SIE_EP_BASE.sieEp[ep].epCr0 = (USB_MODE_STALL_DATA_EP | 
 2433              		.loc 1 1139 0
 2434 00b0 094A     		ldr	r2, .L155+8
 2435 00b2 BB79     		ldrb	r3, [r7, #6]	@ zero_extendqisi2
 2436 00b4 1B01     		lsls	r3, r3, #4
 2437 00b6 1344     		add	r3, r3, r2
 2438 00b8 8922     		movs	r2, #137
 2439 00ba 9A70     		strb	r2, [r3, #2]
 2440              	.L153:
1140:.\Generated_Source\PSoC5/USB_std.c ****                                                             USB_MODE_ACK_OUT);
1141:.\Generated_Source\PSoC5/USB_std.c ****         }
1142:.\Generated_Source\PSoC5/USB_std.c ****         requestHandled = USB_InitNoDataControlTransfer();
 2441              		.loc 1 1142 0
 2442 00bc FFF7FEFF 		bl	USB_InitNoDataControlTransfer
 2443 00c0 0346     		mov	r3, r0
 2444 00c2 FB71     		strb	r3, [r7, #7]
 2445              	.L151:
1143:.\Generated_Source\PSoC5/USB_std.c ****     }
1144:.\Generated_Source\PSoC5/USB_std.c **** 
1145:.\Generated_Source\PSoC5/USB_std.c ****     return (requestHandled);
 2446              		.loc 1 1145 0
 2447 00c4 FB79     		ldrb	r3, [r7, #7]	@ zero_extendqisi2
1146:.\Generated_Source\PSoC5/USB_std.c **** }
 2448              		.loc 1 1146 0
 2449 00c6 1846     		mov	r0, r3
 2450 00c8 0837     		adds	r7, r7, #8
 2451              		.cfi_def_cfa_offset 8
 2452 00ca BD46     		mov	sp, r7
 2453              		.cfi_def_cfa_register 13
 2454              		@ sp needed
 2455 00cc 80BD     		pop	{r7, pc}
 2456              	.L156:
 2457 00ce 00BF     		.align	2
 2458              	.L155:
 2459 00d0 00600040 		.word	1073766400
 2460 00d4 00000000 		.word	USB_EP
 2461 00d8 FC5F0040 		.word	1073766396
 2462              		.cfi_endproc
 2463              	.LFE10:
 2464              		.size	USB_SetEndpointHalt, .-USB_SetEndpointHalt
 2465              		.section	.text.USB_ClearEndpointHalt,"ax",%progbits
 2466              		.align	2
 2467              		.global	USB_ClearEndpointHalt
 2468              		.thumb
 2469              		.thumb_func
 2470              		.type	USB_ClearEndpointHalt, %function
 2471              	USB_ClearEndpointHalt:
 2472              	.LFB11:
1147:.\Generated_Source\PSoC5/USB_std.c **** 
1148:.\Generated_Source\PSoC5/USB_std.c **** 
1149:.\Generated_Source\PSoC5/USB_std.c **** /*******************************************************************************
1150:.\Generated_Source\PSoC5/USB_std.c **** * Function Name: USB_ClearEndpointHalt
ARM GAS  C:\Users\LUKASC~1\AppData\Local\Temp\ccywSTdI.s 			page 66


1151:.\Generated_Source\PSoC5/USB_std.c **** ****************************************************************************//**
1152:.\Generated_Source\PSoC5/USB_std.c **** *
1153:.\Generated_Source\PSoC5/USB_std.c **** *  This routine handles clear endpoint halt.
1154:.\Generated_Source\PSoC5/USB_std.c **** *
1155:.\Generated_Source\PSoC5/USB_std.c **** * \return
1156:.\Generated_Source\PSoC5/USB_std.c **** *  requestHandled.
1157:.\Generated_Source\PSoC5/USB_std.c **** *
1158:.\Generated_Source\PSoC5/USB_std.c **** * \reentrant
1159:.\Generated_Source\PSoC5/USB_std.c **** *  No.
1160:.\Generated_Source\PSoC5/USB_std.c **** *
1161:.\Generated_Source\PSoC5/USB_std.c **** *******************************************************************************/
1162:.\Generated_Source\PSoC5/USB_std.c **** uint8 USB_ClearEndpointHalt(void) 
1163:.\Generated_Source\PSoC5/USB_std.c **** {
 2473              		.loc 1 1163 0
 2474              		.cfi_startproc
 2475              		@ args = 0, pretend = 0, frame = 8
 2476              		@ frame_needed = 1, uses_anonymous_args = 0
 2477 0000 80B5     		push	{r7, lr}
 2478              		.cfi_def_cfa_offset 8
 2479              		.cfi_offset 7, -8
 2480              		.cfi_offset 14, -4
 2481 0002 82B0     		sub	sp, sp, #8
 2482              		.cfi_def_cfa_offset 16
 2483 0004 00AF     		add	r7, sp, #0
 2484              		.cfi_def_cfa_register 7
1164:.\Generated_Source\PSoC5/USB_std.c ****     uint8 requestHandled = USB_FALSE;
 2485              		.loc 1 1164 0
 2486 0006 0023     		movs	r3, #0
 2487 0008 FB71     		strb	r3, [r7, #7]
1165:.\Generated_Source\PSoC5/USB_std.c ****     uint8 ep;
1166:.\Generated_Source\PSoC5/USB_std.c **** 
1167:.\Generated_Source\PSoC5/USB_std.c ****     /* Clear endpoint halt */
1168:.\Generated_Source\PSoC5/USB_std.c ****     ep = USB_wIndexLoReg & USB_DIR_UNUSED;
 2488              		.loc 1 1168 0
 2489 000a 464B     		ldr	r3, .L165
 2490 000c 1B79     		ldrb	r3, [r3, #4]
 2491 000e DBB2     		uxtb	r3, r3
 2492 0010 03F07F03 		and	r3, r3, #127
 2493 0014 BB71     		strb	r3, [r7, #6]
1169:.\Generated_Source\PSoC5/USB_std.c **** 
1170:.\Generated_Source\PSoC5/USB_std.c ****     if ((ep > USB_EP0) && (ep < USB_MAX_EP))
 2494              		.loc 1 1170 0
 2495 0016 BB79     		ldrb	r3, [r7, #6]	@ zero_extendqisi2
 2496 0018 002B     		cmp	r3, #0
 2497 001a 7DD0     		beq	.L158
 2498              		.loc 1 1170 0 is_stmt 0 discriminator 1
 2499 001c BB79     		ldrb	r3, [r7, #6]	@ zero_extendqisi2
 2500 001e 082B     		cmp	r3, #8
 2501 0020 7AD8     		bhi	.L158
1171:.\Generated_Source\PSoC5/USB_std.c ****     {
1172:.\Generated_Source\PSoC5/USB_std.c ****         /* Clear the endpoint Halt */
1173:.\Generated_Source\PSoC5/USB_std.c ****         USB_EP[ep].hwEpState &= (uint8) ~USB_ENDPOINT_STATUS_HALT;
 2502              		.loc 1 1173 0 is_stmt 1
 2503 0022 BA79     		ldrb	r2, [r7, #6]	@ zero_extendqisi2
 2504 0024 B979     		ldrb	r1, [r7, #6]	@ zero_extendqisi2
 2505 0026 4048     		ldr	r0, .L165+4
 2506 0028 0B46     		mov	r3, r1
ARM GAS  C:\Users\LUKASC~1\AppData\Local\Temp\ccywSTdI.s 			page 67


 2507 002a 5B00     		lsls	r3, r3, #1
 2508 002c 0B44     		add	r3, r3, r1
 2509 002e 9B00     		lsls	r3, r3, #2
 2510 0030 0344     		add	r3, r3, r0
 2511 0032 9B78     		ldrb	r3, [r3, #2]
 2512 0034 DBB2     		uxtb	r3, r3
 2513 0036 23F00103 		bic	r3, r3, #1
 2514 003a D8B2     		uxtb	r0, r3
 2515 003c 3A49     		ldr	r1, .L165+4
 2516 003e 1346     		mov	r3, r2
 2517 0040 5B00     		lsls	r3, r3, #1
 2518 0042 1344     		add	r3, r3, r2
 2519 0044 9B00     		lsls	r3, r3, #2
 2520 0046 0B44     		add	r3, r3, r1
 2521 0048 0246     		mov	r2, r0
 2522 004a 9A70     		strb	r2, [r3, #2]
1174:.\Generated_Source\PSoC5/USB_std.c **** 
1175:.\Generated_Source\PSoC5/USB_std.c ****         /* Clear the data toggle */
1176:.\Generated_Source\PSoC5/USB_std.c ****         USB_EP[ep].epToggle = 0u;
 2523              		.loc 1 1176 0
 2524 004c BA79     		ldrb	r2, [r7, #6]	@ zero_extendqisi2
 2525 004e 3649     		ldr	r1, .L165+4
 2526 0050 1346     		mov	r3, r2
 2527 0052 5B00     		lsls	r3, r3, #1
 2528 0054 1344     		add	r3, r3, r2
 2529 0056 9B00     		lsls	r3, r3, #2
 2530 0058 0B44     		add	r3, r3, r1
 2531 005a 0022     		movs	r2, #0
 2532 005c DA70     		strb	r2, [r3, #3]
1177:.\Generated_Source\PSoC5/USB_std.c ****         
1178:.\Generated_Source\PSoC5/USB_std.c ****         /* Clear toggle bit for already armed packet */
1179:.\Generated_Source\PSoC5/USB_std.c ****         USB_SIE_EP_BASE.sieEp[ep].epCnt0 = (uint8) ~(uint8)USB_EPX_CNT_DATA_TOGGLE;
 2533              		.loc 1 1179 0
 2534 005e 334A     		ldr	r2, .L165+8
 2535 0060 BB79     		ldrb	r3, [r7, #6]	@ zero_extendqisi2
 2536 0062 1B01     		lsls	r3, r3, #4
 2537 0064 1344     		add	r3, r3, r2
 2538 0066 7F22     		movs	r2, #127
 2539 0068 1A70     		strb	r2, [r3]
1180:.\Generated_Source\PSoC5/USB_std.c ****         
1181:.\Generated_Source\PSoC5/USB_std.c ****         /* Return API State as it was defined before */
1182:.\Generated_Source\PSoC5/USB_std.c ****         USB_EP[ep].apiEpState &= (uint8) ~USB_NO_EVENT_ALLOWED;
 2540              		.loc 1 1182 0
 2541 006a BA79     		ldrb	r2, [r7, #6]	@ zero_extendqisi2
 2542 006c B979     		ldrb	r1, [r7, #6]	@ zero_extendqisi2
 2543 006e 2E48     		ldr	r0, .L165+4
 2544 0070 0B46     		mov	r3, r1
 2545 0072 5B00     		lsls	r3, r3, #1
 2546 0074 0B44     		add	r3, r3, r1
 2547 0076 9B00     		lsls	r3, r3, #2
 2548 0078 0344     		add	r3, r3, r0
 2549 007a 5B78     		ldrb	r3, [r3, #1]
 2550 007c DBB2     		uxtb	r3, r3
 2551 007e 23F00203 		bic	r3, r3, #2
 2552 0082 D8B2     		uxtb	r0, r3
 2553 0084 2849     		ldr	r1, .L165+4
 2554 0086 1346     		mov	r3, r2
ARM GAS  C:\Users\LUKASC~1\AppData\Local\Temp\ccywSTdI.s 			page 68


 2555 0088 5B00     		lsls	r3, r3, #1
 2556 008a 1344     		add	r3, r3, r2
 2557 008c 9B00     		lsls	r3, r3, #2
 2558 008e 0B44     		add	r3, r3, r1
 2559 0090 0246     		mov	r2, r0
 2560 0092 5A70     		strb	r2, [r3, #1]
1183:.\Generated_Source\PSoC5/USB_std.c **** 
1184:.\Generated_Source\PSoC5/USB_std.c ****         if ((USB_EP[ep].addr & USB_DIR_IN) != 0u)
 2561              		.loc 1 1184 0
 2562 0094 BA79     		ldrb	r2, [r7, #6]	@ zero_extendqisi2
 2563 0096 2449     		ldr	r1, .L165+4
 2564 0098 1346     		mov	r3, r2
 2565 009a 5B00     		lsls	r3, r3, #1
 2566 009c 1344     		add	r3, r3, r2
 2567 009e 9B00     		lsls	r3, r3, #2
 2568 00a0 0B44     		add	r3, r3, r1
 2569 00a2 1B79     		ldrb	r3, [r3, #4]
 2570 00a4 DBB2     		uxtb	r3, r3
 2571 00a6 DBB2     		uxtb	r3, r3
 2572 00a8 5BB2     		sxtb	r3, r3
 2573 00aa 002B     		cmp	r3, #0
 2574 00ac 18DA     		bge	.L159
1185:.\Generated_Source\PSoC5/USB_std.c ****         {
1186:.\Generated_Source\PSoC5/USB_std.c ****             /* IN Endpoint */
1187:.\Generated_Source\PSoC5/USB_std.c ****             if(USB_EP[ep].apiEpState == USB_IN_BUFFER_EMPTY)
 2575              		.loc 1 1187 0
 2576 00ae BA79     		ldrb	r2, [r7, #6]	@ zero_extendqisi2
 2577 00b0 1D49     		ldr	r1, .L165+4
 2578 00b2 1346     		mov	r3, r2
 2579 00b4 5B00     		lsls	r3, r3, #1
 2580 00b6 1344     		add	r3, r3, r2
 2581 00b8 9B00     		lsls	r3, r3, #2
 2582 00ba 0B44     		add	r3, r3, r1
 2583 00bc 5B78     		ldrb	r3, [r3, #1]
 2584 00be DBB2     		uxtb	r3, r3
 2585 00c0 012B     		cmp	r3, #1
 2586 00c2 06D1     		bne	.L160
1188:.\Generated_Source\PSoC5/USB_std.c ****             {       
1189:.\Generated_Source\PSoC5/USB_std.c ****                 /* Wait for next packet from application */
1190:.\Generated_Source\PSoC5/USB_std.c ****                 USB_SIE_EP_BASE.sieEp[ep].epCr0 = USB_MODE_NAK_IN;
 2587              		.loc 1 1190 0
 2588 00c4 194A     		ldr	r2, .L165+8
 2589 00c6 BB79     		ldrb	r3, [r7, #6]	@ zero_extendqisi2
 2590 00c8 1B01     		lsls	r3, r3, #4
 2591 00ca 1344     		add	r3, r3, r2
 2592 00cc 0C22     		movs	r2, #12
 2593 00ce 9A70     		strb	r2, [r3, #2]
 2594 00d0 1EE0     		b	.L162
 2595              	.L160:
1191:.\Generated_Source\PSoC5/USB_std.c ****             }
1192:.\Generated_Source\PSoC5/USB_std.c ****             else    /* Continue armed transfer */
1193:.\Generated_Source\PSoC5/USB_std.c ****             {
1194:.\Generated_Source\PSoC5/USB_std.c ****                 USB_SIE_EP_BASE.sieEp[ep].epCr0 = USB_MODE_ACK_IN;
 2596              		.loc 1 1194 0
 2597 00d2 164A     		ldr	r2, .L165+8
 2598 00d4 BB79     		ldrb	r3, [r7, #6]	@ zero_extendqisi2
 2599 00d6 1B01     		lsls	r3, r3, #4
ARM GAS  C:\Users\LUKASC~1\AppData\Local\Temp\ccywSTdI.s 			page 69


 2600 00d8 1344     		add	r3, r3, r2
 2601 00da 0D22     		movs	r2, #13
 2602 00dc 9A70     		strb	r2, [r3, #2]
 2603 00de 17E0     		b	.L162
 2604              	.L159:
1195:.\Generated_Source\PSoC5/USB_std.c ****             }
1196:.\Generated_Source\PSoC5/USB_std.c ****         }
1197:.\Generated_Source\PSoC5/USB_std.c ****         else
1198:.\Generated_Source\PSoC5/USB_std.c ****         {
1199:.\Generated_Source\PSoC5/USB_std.c ****             /* OUT Endpoint */
1200:.\Generated_Source\PSoC5/USB_std.c ****             if (USB_EP[ep].apiEpState == USB_OUT_BUFFER_FULL)
 2605              		.loc 1 1200 0
 2606 00e0 BA79     		ldrb	r2, [r7, #6]	@ zero_extendqisi2
 2607 00e2 1149     		ldr	r1, .L165+4
 2608 00e4 1346     		mov	r3, r2
 2609 00e6 5B00     		lsls	r3, r3, #1
 2610 00e8 1344     		add	r3, r3, r2
 2611 00ea 9B00     		lsls	r3, r3, #2
 2612 00ec 0B44     		add	r3, r3, r1
 2613 00ee 5B78     		ldrb	r3, [r3, #1]
 2614 00f0 DBB2     		uxtb	r3, r3
 2615 00f2 012B     		cmp	r3, #1
 2616 00f4 06D1     		bne	.L163
1201:.\Generated_Source\PSoC5/USB_std.c ****             {       
1202:.\Generated_Source\PSoC5/USB_std.c ****                 /* Allow application to read full buffer */
1203:.\Generated_Source\PSoC5/USB_std.c ****                 USB_SIE_EP_BASE.sieEp[ep].epCr0 = USB_MODE_NAK_OUT;
 2617              		.loc 1 1203 0
 2618 00f6 0D4A     		ldr	r2, .L165+8
 2619 00f8 BB79     		ldrb	r3, [r7, #6]	@ zero_extendqisi2
 2620 00fa 1B01     		lsls	r3, r3, #4
 2621 00fc 1344     		add	r3, r3, r2
 2622 00fe 0822     		movs	r2, #8
 2623 0100 9A70     		strb	r2, [r3, #2]
 2624 0102 05E0     		b	.L162
 2625              	.L163:
1204:.\Generated_Source\PSoC5/USB_std.c ****             }
1205:.\Generated_Source\PSoC5/USB_std.c ****             else    /* Mark endpoint as empty, so it will be reloaded */
1206:.\Generated_Source\PSoC5/USB_std.c ****             {
1207:.\Generated_Source\PSoC5/USB_std.c ****                 USB_SIE_EP_BASE.sieEp[ep].epCr0 = USB_MODE_ACK_OUT;
 2626              		.loc 1 1207 0
 2627 0104 094A     		ldr	r2, .L165+8
 2628 0106 BB79     		ldrb	r3, [r7, #6]	@ zero_extendqisi2
 2629 0108 1B01     		lsls	r3, r3, #4
 2630 010a 1344     		add	r3, r3, r2
 2631 010c 0922     		movs	r2, #9
 2632 010e 9A70     		strb	r2, [r3, #2]
 2633              	.L162:
1208:.\Generated_Source\PSoC5/USB_std.c ****             }
1209:.\Generated_Source\PSoC5/USB_std.c ****         }
1210:.\Generated_Source\PSoC5/USB_std.c ****         
1211:.\Generated_Source\PSoC5/USB_std.c ****         requestHandled = USB_InitNoDataControlTransfer();
 2634              		.loc 1 1211 0
 2635 0110 FFF7FEFF 		bl	USB_InitNoDataControlTransfer
 2636 0114 0346     		mov	r3, r0
 2637 0116 FB71     		strb	r3, [r7, #7]
 2638              	.L158:
1212:.\Generated_Source\PSoC5/USB_std.c ****     }
ARM GAS  C:\Users\LUKASC~1\AppData\Local\Temp\ccywSTdI.s 			page 70


1213:.\Generated_Source\PSoC5/USB_std.c **** 
1214:.\Generated_Source\PSoC5/USB_std.c ****     return(requestHandled);
 2639              		.loc 1 1214 0
 2640 0118 FB79     		ldrb	r3, [r7, #7]	@ zero_extendqisi2
1215:.\Generated_Source\PSoC5/USB_std.c **** }
 2641              		.loc 1 1215 0
 2642 011a 1846     		mov	r0, r3
 2643 011c 0837     		adds	r7, r7, #8
 2644              		.cfi_def_cfa_offset 8
 2645 011e BD46     		mov	sp, r7
 2646              		.cfi_def_cfa_register 13
 2647              		@ sp needed
 2648 0120 80BD     		pop	{r7, pc}
 2649              	.L166:
 2650 0122 00BF     		.align	2
 2651              	.L165:
 2652 0124 00600040 		.word	1073766400
 2653 0128 00000000 		.word	USB_EP
 2654 012c FC5F0040 		.word	1073766396
 2655              		.cfi_endproc
 2656              	.LFE11:
 2657              		.size	USB_ClearEndpointHalt, .-USB_ClearEndpointHalt
 2658              		.section	.text.USB_ValidateAlternateSetting,"ax",%progbits
 2659              		.align	2
 2660              		.global	USB_ValidateAlternateSetting
 2661              		.thumb
 2662              		.thumb_func
 2663              		.type	USB_ValidateAlternateSetting, %function
 2664              	USB_ValidateAlternateSetting:
 2665              	.LFB12:
1216:.\Generated_Source\PSoC5/USB_std.c **** 
1217:.\Generated_Source\PSoC5/USB_std.c **** 
1218:.\Generated_Source\PSoC5/USB_std.c **** /*******************************************************************************
1219:.\Generated_Source\PSoC5/USB_std.c **** * Function Name: USB_ValidateAlternateSetting
1220:.\Generated_Source\PSoC5/USB_std.c **** ****************************************************************************//**
1221:.\Generated_Source\PSoC5/USB_std.c **** *
1222:.\Generated_Source\PSoC5/USB_std.c **** *  Validates (and records) a SET INTERFACE request.
1223:.\Generated_Source\PSoC5/USB_std.c **** *
1224:.\Generated_Source\PSoC5/USB_std.c **** * \return
1225:.\Generated_Source\PSoC5/USB_std.c **** *  requestHandled.
1226:.\Generated_Source\PSoC5/USB_std.c **** *
1227:.\Generated_Source\PSoC5/USB_std.c **** * \reentrant
1228:.\Generated_Source\PSoC5/USB_std.c **** *  No.
1229:.\Generated_Source\PSoC5/USB_std.c **** *
1230:.\Generated_Source\PSoC5/USB_std.c **** *******************************************************************************/
1231:.\Generated_Source\PSoC5/USB_std.c **** uint8 USB_ValidateAlternateSetting(void) 
1232:.\Generated_Source\PSoC5/USB_std.c **** {
 2666              		.loc 1 1232 0
 2667              		.cfi_startproc
 2668              		@ args = 0, pretend = 0, frame = 16
 2669              		@ frame_needed = 1, uses_anonymous_args = 0
 2670 0000 80B5     		push	{r7, lr}
 2671              		.cfi_def_cfa_offset 8
 2672              		.cfi_offset 7, -8
 2673              		.cfi_offset 14, -4
 2674 0002 84B0     		sub	sp, sp, #16
 2675              		.cfi_def_cfa_offset 24
ARM GAS  C:\Users\LUKASC~1\AppData\Local\Temp\ccywSTdI.s 			page 71


 2676 0004 00AF     		add	r7, sp, #0
 2677              		.cfi_def_cfa_register 7
1233:.\Generated_Source\PSoC5/USB_std.c ****     uint8 requestHandled = USB_FALSE;
 2678              		.loc 1 1233 0
 2679 0006 0023     		movs	r3, #0
 2680 0008 FB73     		strb	r3, [r7, #15]
1234:.\Generated_Source\PSoC5/USB_std.c ****     
1235:.\Generated_Source\PSoC5/USB_std.c ****     uint8 interfaceNum;
1236:.\Generated_Source\PSoC5/USB_std.c ****     uint8 curInterfacesNum;
1237:.\Generated_Source\PSoC5/USB_std.c ****     const T_USB_LUT CYCODE *pTmp;
1238:.\Generated_Source\PSoC5/USB_std.c ****     
1239:.\Generated_Source\PSoC5/USB_std.c ****     /* Get interface number from the request. */
1240:.\Generated_Source\PSoC5/USB_std.c ****     interfaceNum = (uint8) USB_wIndexLoReg;
 2681              		.loc 1 1240 0
 2682 000a 154B     		ldr	r3, .L171
 2683 000c 1B79     		ldrb	r3, [r3, #4]
 2684 000e BB73     		strb	r3, [r7, #14]
1241:.\Generated_Source\PSoC5/USB_std.c ****     
1242:.\Generated_Source\PSoC5/USB_std.c ****     /* Get number of interfaces for current configuration. */
1243:.\Generated_Source\PSoC5/USB_std.c ****     pTmp = USB_GetConfigTablePtr(USB_configuration - 1u);
 2685              		.loc 1 1243 0
 2686 0010 144B     		ldr	r3, .L171+4
 2687 0012 1B78     		ldrb	r3, [r3]
 2688 0014 DBB2     		uxtb	r3, r3
 2689 0016 013B     		subs	r3, r3, #1
 2690 0018 DBB2     		uxtb	r3, r3
 2691 001a 1846     		mov	r0, r3
 2692 001c FFF7FEFF 		bl	USB_GetConfigTablePtr
 2693 0020 B860     		str	r0, [r7, #8]
1244:.\Generated_Source\PSoC5/USB_std.c ****     curInterfacesNum  = ((const uint8 *) pTmp->p_list)[USB_CONFIG_DESCR_NUM_INTERFACES];
 2694              		.loc 1 1244 0
 2695 0022 BB68     		ldr	r3, [r7, #8]
 2696 0024 5B68     		ldr	r3, [r3, #4]
 2697 0026 1B79     		ldrb	r3, [r3, #4]
 2698 0028 FB71     		strb	r3, [r7, #7]
1245:.\Generated_Source\PSoC5/USB_std.c **** 
1246:.\Generated_Source\PSoC5/USB_std.c ****     /* Validate that interface number is within range. */
1247:.\Generated_Source\PSoC5/USB_std.c ****     if ((interfaceNum <= curInterfacesNum) || (interfaceNum <= USB_MAX_INTERFACES_NUMBER))
 2699              		.loc 1 1247 0
 2700 002a BA7B     		ldrb	r2, [r7, #14]	@ zero_extendqisi2
 2701 002c FB79     		ldrb	r3, [r7, #7]	@ zero_extendqisi2
 2702 002e 9A42     		cmp	r2, r3
 2703 0030 02D9     		bls	.L168
 2704              		.loc 1 1247 0 is_stmt 0 discriminator 1
 2705 0032 BB7B     		ldrb	r3, [r7, #14]	@ zero_extendqisi2
 2706 0034 022B     		cmp	r3, #2
 2707 0036 0ED8     		bhi	.L169
 2708              	.L168:
1248:.\Generated_Source\PSoC5/USB_std.c ****     {
1249:.\Generated_Source\PSoC5/USB_std.c ****         /* Save current and new alternate settings (come with request) to make 
1250:.\Generated_Source\PSoC5/USB_std.c ****         * desicion about following endpoint re-configuration.
1251:.\Generated_Source\PSoC5/USB_std.c ****         */
1252:.\Generated_Source\PSoC5/USB_std.c ****         USB_interfaceSettingLast[interfaceNum] = USB_interfaceSetting[interfaceNum];
 2709              		.loc 1 1252 0 is_stmt 1
 2710 0038 BB7B     		ldrb	r3, [r7, #14]	@ zero_extendqisi2
 2711 003a BA7B     		ldrb	r2, [r7, #14]	@ zero_extendqisi2
 2712 003c 0A49     		ldr	r1, .L171+8
ARM GAS  C:\Users\LUKASC~1\AppData\Local\Temp\ccywSTdI.s 			page 72


 2713 003e 8A5C     		ldrb	r2, [r1, r2]
 2714 0040 D1B2     		uxtb	r1, r2
 2715 0042 0A4A     		ldr	r2, .L171+12
 2716 0044 D154     		strb	r1, [r2, r3]
1253:.\Generated_Source\PSoC5/USB_std.c ****         USB_interfaceSetting[interfaceNum]     = (uint8) USB_wValueLoReg;
 2717              		.loc 1 1253 0
 2718 0046 BB7B     		ldrb	r3, [r7, #14]	@ zero_extendqisi2
 2719 0048 054A     		ldr	r2, .L171
 2720 004a 9278     		ldrb	r2, [r2, #2]
 2721 004c D1B2     		uxtb	r1, r2
 2722 004e 064A     		ldr	r2, .L171+8
 2723 0050 D154     		strb	r1, [r2, r3]
1254:.\Generated_Source\PSoC5/USB_std.c ****         
1255:.\Generated_Source\PSoC5/USB_std.c ****         requestHandled = USB_TRUE;
 2724              		.loc 1 1255 0
 2725 0052 0123     		movs	r3, #1
 2726 0054 FB73     		strb	r3, [r7, #15]
 2727              	.L169:
1256:.\Generated_Source\PSoC5/USB_std.c ****     }
1257:.\Generated_Source\PSoC5/USB_std.c **** 
1258:.\Generated_Source\PSoC5/USB_std.c ****     return (requestHandled);
 2728              		.loc 1 1258 0
 2729 0056 FB7B     		ldrb	r3, [r7, #15]	@ zero_extendqisi2
1259:.\Generated_Source\PSoC5/USB_std.c **** }
 2730              		.loc 1 1259 0
 2731 0058 1846     		mov	r0, r3
 2732 005a 1037     		adds	r7, r7, #16
 2733              		.cfi_def_cfa_offset 8
 2734 005c BD46     		mov	sp, r7
 2735              		.cfi_def_cfa_register 13
 2736              		@ sp needed
 2737 005e 80BD     		pop	{r7, pc}
 2738              	.L172:
 2739              		.align	2
 2740              	.L171:
 2741 0060 00600040 		.word	1073766400
 2742 0064 00000000 		.word	USB_configuration
 2743 0068 00000000 		.word	USB_interfaceSetting
 2744 006c 00000000 		.word	USB_interfaceSettingLast
 2745              		.cfi_endproc
 2746              	.LFE12:
 2747              		.size	USB_ValidateAlternateSetting, .-USB_ValidateAlternateSetting
 2748              		.bss
 2749              		.align	2
 2750              	USB_tBuffer.5271:
 2751 0000 0000     		.space	2
 2752 0002 0000     		.text
 2753              	.Letext0:
 2754              		.file 2 ".\\Generated_Source\\PSoC5\\cytypes.h"
 2755              		.file 3 ".\\Generated_Source\\PSoC5\\USB.h"
 2756              		.file 4 ".\\Generated_Source\\PSoC5\\USB_midi.h"
 2757              		.file 5 ".\\Generated_Source\\PSoC5\\USB_pvt.h"