ARM GAS  C:\Users\LUKASC~1\AppData\Local\Temp\ccB0wgbx.s 			page 1


   1              		.syntax unified
   2              		.cpu cortex-m3
   3              		.fpu softvfp
   4              		.eabi_attribute 20, 1
   5              		.eabi_attribute 21, 1
   6              		.eabi_attribute 23, 3
   7              		.eabi_attribute 24, 1
   8              		.eabi_attribute 25, 1
   9              		.eabi_attribute 26, 1
  10              		.eabi_attribute 30, 6
  11              		.eabi_attribute 34, 1
  12              		.eabi_attribute 18, 4
  13              		.thumb
  14              		.file	"cyfitter_cfg.c"
  15              		.text
  16              	.Ltext0:
  17              		.cfi_sections	.debug_frame
  18              		.section	.text.CYMEMZERO,"ax",%progbits
  19              		.align	2
  20              		.thumb
  21              		.thumb_func
  22              		.type	CYMEMZERO, %function
  23              	CYMEMZERO:
  24              	.LFB0:
  25              		.file 1 "Generated_Source\\PSoC5\\cyfitter_cfg.c"
   1:Generated_Source\PSoC5/cyfitter_cfg.c **** /*******************************************************************************
   2:Generated_Source\PSoC5/cyfitter_cfg.c **** * File Name: cyfitter_cfg.c
   3:Generated_Source\PSoC5/cyfitter_cfg.c **** * 
   4:Generated_Source\PSoC5/cyfitter_cfg.c **** * PSoC Creator  4.0
   5:Generated_Source\PSoC5/cyfitter_cfg.c **** *
   6:Generated_Source\PSoC5/cyfitter_cfg.c **** * Description:
   7:Generated_Source\PSoC5/cyfitter_cfg.c **** * This file contains device initialization code.
   8:Generated_Source\PSoC5/cyfitter_cfg.c **** * Except for the user defined sections in CyClockStartupError(), this file should not be modified.
   9:Generated_Source\PSoC5/cyfitter_cfg.c **** * This file is automatically generated by PSoC Creator.
  10:Generated_Source\PSoC5/cyfitter_cfg.c **** *
  11:Generated_Source\PSoC5/cyfitter_cfg.c **** ********************************************************************************
  12:Generated_Source\PSoC5/cyfitter_cfg.c **** * Copyright (c) 2007-2016 Cypress Semiconductor.  All rights reserved.
  13:Generated_Source\PSoC5/cyfitter_cfg.c **** * You may use this file only in accordance with the license, terms, conditions, 
  14:Generated_Source\PSoC5/cyfitter_cfg.c **** * disclaimers, and limitations in the end user license agreement accompanying 
  15:Generated_Source\PSoC5/cyfitter_cfg.c **** * the software package with which this file was provided.
  16:Generated_Source\PSoC5/cyfitter_cfg.c **** ********************************************************************************/
  17:Generated_Source\PSoC5/cyfitter_cfg.c **** 
  18:Generated_Source\PSoC5/cyfitter_cfg.c **** #include <string.h>
  19:Generated_Source\PSoC5/cyfitter_cfg.c **** #include "cytypes.h"
  20:Generated_Source\PSoC5/cyfitter_cfg.c **** #include "cydevice_trm.h"
  21:Generated_Source\PSoC5/cyfitter_cfg.c **** #include "cyfitter.h"
  22:Generated_Source\PSoC5/cyfitter_cfg.c **** #include "CyLib.h"
  23:Generated_Source\PSoC5/cyfitter_cfg.c **** #include "cyfitter_cfg.h"
  24:Generated_Source\PSoC5/cyfitter_cfg.c **** 
  25:Generated_Source\PSoC5/cyfitter_cfg.c **** #define CY_NEED_CYCLOCKSTARTUPERROR 1
  26:Generated_Source\PSoC5/cyfitter_cfg.c **** 
  27:Generated_Source\PSoC5/cyfitter_cfg.c **** 
  28:Generated_Source\PSoC5/cyfitter_cfg.c **** #if defined(__GNUC__) || defined(__ARMCC_VERSION)
  29:Generated_Source\PSoC5/cyfitter_cfg.c ****     #define CYPACKED 
  30:Generated_Source\PSoC5/cyfitter_cfg.c ****     #define CYPACKED_ATTR __attribute__ ((packed))
  31:Generated_Source\PSoC5/cyfitter_cfg.c ****     #define CYALIGNED __attribute__ ((aligned))
  32:Generated_Source\PSoC5/cyfitter_cfg.c ****     #define CY_CFG_UNUSED __attribute__ ((unused))
ARM GAS  C:\Users\LUKASC~1\AppData\Local\Temp\ccB0wgbx.s 			page 2


  33:Generated_Source\PSoC5/cyfitter_cfg.c ****     #ifndef CY_CFG_SECTION
  34:Generated_Source\PSoC5/cyfitter_cfg.c ****         #define CY_CFG_SECTION __attribute__ ((section(".psocinit")))
  35:Generated_Source\PSoC5/cyfitter_cfg.c ****     #endif
  36:Generated_Source\PSoC5/cyfitter_cfg.c ****     
  37:Generated_Source\PSoC5/cyfitter_cfg.c ****     #if defined(__ARMCC_VERSION)
  38:Generated_Source\PSoC5/cyfitter_cfg.c ****         #define CY_CFG_MEMORY_BARRIER() __memory_changed()
  39:Generated_Source\PSoC5/cyfitter_cfg.c ****     #else
  40:Generated_Source\PSoC5/cyfitter_cfg.c ****         #define CY_CFG_MEMORY_BARRIER() __sync_synchronize()
  41:Generated_Source\PSoC5/cyfitter_cfg.c ****     #endif
  42:Generated_Source\PSoC5/cyfitter_cfg.c ****     
  43:Generated_Source\PSoC5/cyfitter_cfg.c **** #elif defined(__ICCARM__)
  44:Generated_Source\PSoC5/cyfitter_cfg.c ****     #include <intrinsics.h>
  45:Generated_Source\PSoC5/cyfitter_cfg.c **** 
  46:Generated_Source\PSoC5/cyfitter_cfg.c ****     #define CYPACKED __packed
  47:Generated_Source\PSoC5/cyfitter_cfg.c ****     #define CYPACKED_ATTR 
  48:Generated_Source\PSoC5/cyfitter_cfg.c ****     #define CYALIGNED _Pragma("data_alignment=4")
  49:Generated_Source\PSoC5/cyfitter_cfg.c ****     #define CY_CFG_UNUSED _Pragma("diag_suppress=Pe177")
  50:Generated_Source\PSoC5/cyfitter_cfg.c ****     #define CY_CFG_SECTION _Pragma("location=\".psocinit\"")
  51:Generated_Source\PSoC5/cyfitter_cfg.c ****     
  52:Generated_Source\PSoC5/cyfitter_cfg.c ****     #define CY_CFG_MEMORY_BARRIER() __DMB()
  53:Generated_Source\PSoC5/cyfitter_cfg.c ****     
  54:Generated_Source\PSoC5/cyfitter_cfg.c **** #else
  55:Generated_Source\PSoC5/cyfitter_cfg.c ****     #error Unsupported toolchain
  56:Generated_Source\PSoC5/cyfitter_cfg.c **** #endif
  57:Generated_Source\PSoC5/cyfitter_cfg.c **** 
  58:Generated_Source\PSoC5/cyfitter_cfg.c **** 
  59:Generated_Source\PSoC5/cyfitter_cfg.c **** CY_CFG_UNUSED
  60:Generated_Source\PSoC5/cyfitter_cfg.c **** static void CYMEMZERO(void *s, size_t n);
  61:Generated_Source\PSoC5/cyfitter_cfg.c **** CY_CFG_UNUSED
  62:Generated_Source\PSoC5/cyfitter_cfg.c **** static void CYMEMZERO(void *s, size_t n)
  63:Generated_Source\PSoC5/cyfitter_cfg.c **** {
  26              		.loc 1 63 0
  27              		.cfi_startproc
  28              		@ args = 0, pretend = 0, frame = 8
  29              		@ frame_needed = 1, uses_anonymous_args = 0
  30 0000 80B5     		push	{r7, lr}
  31              		.cfi_def_cfa_offset 8
  32              		.cfi_offset 7, -8
  33              		.cfi_offset 14, -4
  34 0002 82B0     		sub	sp, sp, #8
  35              		.cfi_def_cfa_offset 16
  36 0004 00AF     		add	r7, sp, #0
  37              		.cfi_def_cfa_register 7
  38 0006 7860     		str	r0, [r7, #4]
  39 0008 3960     		str	r1, [r7]
  64:Generated_Source\PSoC5/cyfitter_cfg.c **** 	(void)memset(s, 0, n);
  40              		.loc 1 64 0
  41 000a 7868     		ldr	r0, [r7, #4]
  42 000c 0021     		movs	r1, #0
  43 000e 3A68     		ldr	r2, [r7]
  44 0010 FFF7FEFF 		bl	memset
  65:Generated_Source\PSoC5/cyfitter_cfg.c **** }
  45              		.loc 1 65 0
  46 0014 0837     		adds	r7, r7, #8
  47              		.cfi_def_cfa_offset 8
  48 0016 BD46     		mov	sp, r7
  49              		.cfi_def_cfa_register 13
ARM GAS  C:\Users\LUKASC~1\AppData\Local\Temp\ccB0wgbx.s 			page 3


  50              		@ sp needed
  51 0018 80BD     		pop	{r7, pc}
  52              		.cfi_endproc
  53              	.LFE0:
  54              		.size	CYMEMZERO, .-CYMEMZERO
  55 001a 00BF     		.section	.text.CYCONFIGCPY,"ax",%progbits
  56              		.align	2
  57              		.thumb
  58              		.thumb_func
  59              		.type	CYCONFIGCPY, %function
  60              	CYCONFIGCPY:
  61              	.LFB1:
  66:Generated_Source\PSoC5/cyfitter_cfg.c **** CY_CFG_UNUSED
  67:Generated_Source\PSoC5/cyfitter_cfg.c **** static void CYCONFIGCPY(void *dest, const void *src, size_t n);
  68:Generated_Source\PSoC5/cyfitter_cfg.c **** CY_CFG_UNUSED
  69:Generated_Source\PSoC5/cyfitter_cfg.c **** static void CYCONFIGCPY(void *dest, const void *src, size_t n)
  70:Generated_Source\PSoC5/cyfitter_cfg.c **** {
  62              		.loc 1 70 0
  63              		.cfi_startproc
  64              		@ args = 0, pretend = 0, frame = 16
  65              		@ frame_needed = 1, uses_anonymous_args = 0
  66 0000 80B5     		push	{r7, lr}
  67              		.cfi_def_cfa_offset 8
  68              		.cfi_offset 7, -8
  69              		.cfi_offset 14, -4
  70 0002 84B0     		sub	sp, sp, #16
  71              		.cfi_def_cfa_offset 24
  72 0004 00AF     		add	r7, sp, #0
  73              		.cfi_def_cfa_register 7
  74 0006 F860     		str	r0, [r7, #12]
  75 0008 B960     		str	r1, [r7, #8]
  76 000a 7A60     		str	r2, [r7, #4]
  71:Generated_Source\PSoC5/cyfitter_cfg.c **** 	(void)memcpy(dest, src, n);
  77              		.loc 1 71 0
  78 000c F868     		ldr	r0, [r7, #12]
  79 000e B968     		ldr	r1, [r7, #8]
  80 0010 7A68     		ldr	r2, [r7, #4]
  81 0012 FFF7FEFF 		bl	memcpy
  72:Generated_Source\PSoC5/cyfitter_cfg.c **** }
  82              		.loc 1 72 0
  83 0016 1037     		adds	r7, r7, #16
  84              		.cfi_def_cfa_offset 8
  85 0018 BD46     		mov	sp, r7
  86              		.cfi_def_cfa_register 13
  87              		@ sp needed
  88 001a 80BD     		pop	{r7, pc}
  89              		.cfi_endproc
  90              	.LFE1:
  91              		.size	CYCONFIGCPY, .-CYCONFIGCPY
  92              		.section	.text.CYCONFIGCPYCODE,"ax",%progbits
  93              		.align	2
  94              		.thumb
  95              		.thumb_func
  96              		.type	CYCONFIGCPYCODE, %function
  97              	CYCONFIGCPYCODE:
  98              	.LFB2:
  73:Generated_Source\PSoC5/cyfitter_cfg.c **** CY_CFG_UNUSED
ARM GAS  C:\Users\LUKASC~1\AppData\Local\Temp\ccB0wgbx.s 			page 4


  74:Generated_Source\PSoC5/cyfitter_cfg.c **** static void CYCONFIGCPYCODE(void *dest, const void *src, size_t n);
  75:Generated_Source\PSoC5/cyfitter_cfg.c **** CY_CFG_UNUSED
  76:Generated_Source\PSoC5/cyfitter_cfg.c **** static void CYCONFIGCPYCODE(void *dest, const void *src, size_t n)
  77:Generated_Source\PSoC5/cyfitter_cfg.c **** {
  99              		.loc 1 77 0
 100              		.cfi_startproc
 101              		@ args = 0, pretend = 0, frame = 16
 102              		@ frame_needed = 1, uses_anonymous_args = 0
 103 0000 80B5     		push	{r7, lr}
 104              		.cfi_def_cfa_offset 8
 105              		.cfi_offset 7, -8
 106              		.cfi_offset 14, -4
 107 0002 84B0     		sub	sp, sp, #16
 108              		.cfi_def_cfa_offset 24
 109 0004 00AF     		add	r7, sp, #0
 110              		.cfi_def_cfa_register 7
 111 0006 F860     		str	r0, [r7, #12]
 112 0008 B960     		str	r1, [r7, #8]
 113 000a 7A60     		str	r2, [r7, #4]
  78:Generated_Source\PSoC5/cyfitter_cfg.c **** 	(void)memcpy(dest, src, n);
 114              		.loc 1 78 0
 115 000c F868     		ldr	r0, [r7, #12]
 116 000e B968     		ldr	r1, [r7, #8]
 117 0010 7A68     		ldr	r2, [r7, #4]
 118 0012 FFF7FEFF 		bl	memcpy
  79:Generated_Source\PSoC5/cyfitter_cfg.c **** }
 119              		.loc 1 79 0
 120 0016 1037     		adds	r7, r7, #16
 121              		.cfi_def_cfa_offset 8
 122 0018 BD46     		mov	sp, r7
 123              		.cfi_def_cfa_register 13
 124              		@ sp needed
 125 001a 80BD     		pop	{r7, pc}
 126              		.cfi_endproc
 127              	.LFE2:
 128              		.size	CYCONFIGCPYCODE, .-CYCONFIGCPYCODE
 129              		.section	.text.CyClockStartupError,"ax",%progbits
 130              		.align	2
 131              		.thumb
 132              		.thumb_func
 133              		.type	CyClockStartupError, %function
 134              	CyClockStartupError:
 135              	.LFB3:
  80:Generated_Source\PSoC5/cyfitter_cfg.c **** 
  81:Generated_Source\PSoC5/cyfitter_cfg.c **** 
  82:Generated_Source\PSoC5/cyfitter_cfg.c **** 
  83:Generated_Source\PSoC5/cyfitter_cfg.c **** 
  84:Generated_Source\PSoC5/cyfitter_cfg.c **** /* Clock startup error codes                                                   */
  85:Generated_Source\PSoC5/cyfitter_cfg.c **** #define CYCLOCKSTART_NO_ERROR    0u
  86:Generated_Source\PSoC5/cyfitter_cfg.c **** #define CYCLOCKSTART_XTAL_ERROR  1u
  87:Generated_Source\PSoC5/cyfitter_cfg.c **** #define CYCLOCKSTART_32KHZ_ERROR 2u
  88:Generated_Source\PSoC5/cyfitter_cfg.c **** #define CYCLOCKSTART_PLL_ERROR   3u
  89:Generated_Source\PSoC5/cyfitter_cfg.c **** 
  90:Generated_Source\PSoC5/cyfitter_cfg.c **** 
  91:Generated_Source\PSoC5/cyfitter_cfg.c **** #ifdef CY_NEED_CYCLOCKSTARTUPERROR
  92:Generated_Source\PSoC5/cyfitter_cfg.c **** /*******************************************************************************
  93:Generated_Source\PSoC5/cyfitter_cfg.c **** * Function Name: CyClockStartupError
ARM GAS  C:\Users\LUKASC~1\AppData\Local\Temp\ccB0wgbx.s 			page 5


  94:Generated_Source\PSoC5/cyfitter_cfg.c **** ********************************************************************************
  95:Generated_Source\PSoC5/cyfitter_cfg.c **** * Summary:
  96:Generated_Source\PSoC5/cyfitter_cfg.c **** *  If an error is encountered during clock configuration (crystal startup error,
  97:Generated_Source\PSoC5/cyfitter_cfg.c **** *  PLL lock error, etc.), the system will end up here.  Unless reimplemented by
  98:Generated_Source\PSoC5/cyfitter_cfg.c **** *  the customer, this function will stop in an infinite loop.
  99:Generated_Source\PSoC5/cyfitter_cfg.c **** *
 100:Generated_Source\PSoC5/cyfitter_cfg.c **** * Parameters:
 101:Generated_Source\PSoC5/cyfitter_cfg.c **** *   void
 102:Generated_Source\PSoC5/cyfitter_cfg.c **** *
 103:Generated_Source\PSoC5/cyfitter_cfg.c **** * Return:
 104:Generated_Source\PSoC5/cyfitter_cfg.c **** *   void
 105:Generated_Source\PSoC5/cyfitter_cfg.c **** *
 106:Generated_Source\PSoC5/cyfitter_cfg.c **** *******************************************************************************/
 107:Generated_Source\PSoC5/cyfitter_cfg.c **** CY_CFG_UNUSED
 108:Generated_Source\PSoC5/cyfitter_cfg.c **** static void CyClockStartupError(uint8 errorCode);
 109:Generated_Source\PSoC5/cyfitter_cfg.c **** CY_CFG_UNUSED
 110:Generated_Source\PSoC5/cyfitter_cfg.c **** static void CyClockStartupError(uint8 errorCode)
 111:Generated_Source\PSoC5/cyfitter_cfg.c **** {
 136              		.loc 1 111 0
 137              		.cfi_startproc
 138              		@ args = 0, pretend = 0, frame = 8
 139              		@ frame_needed = 1, uses_anonymous_args = 0
 140              		@ link register save eliminated.
 141 0000 80B4     		push	{r7}
 142              		.cfi_def_cfa_offset 4
 143              		.cfi_offset 7, -4
 144 0002 83B0     		sub	sp, sp, #12
 145              		.cfi_def_cfa_offset 16
 146 0004 00AF     		add	r7, sp, #0
 147              		.cfi_def_cfa_register 7
 148 0006 0346     		mov	r3, r0
 149 0008 FB71     		strb	r3, [r7, #7]
 150              	.L5:
 112:Generated_Source\PSoC5/cyfitter_cfg.c ****     /* To remove the compiler warning if errorCode not used.                */
 113:Generated_Source\PSoC5/cyfitter_cfg.c ****     errorCode = errorCode;
 114:Generated_Source\PSoC5/cyfitter_cfg.c **** 
 115:Generated_Source\PSoC5/cyfitter_cfg.c ****     /* If we have a clock startup error (bad MHz crystal, PLL lock, etc.),  */
 116:Generated_Source\PSoC5/cyfitter_cfg.c ****     /* we will end up here to allow the customer to implement something to  */
 117:Generated_Source\PSoC5/cyfitter_cfg.c ****     /* deal with the clock condition.                                       */
 118:Generated_Source\PSoC5/cyfitter_cfg.c **** 
 119:Generated_Source\PSoC5/cyfitter_cfg.c **** #ifdef CY_CFG_CLOCK_STARTUP_ERROR_CALLBACK
 120:Generated_Source\PSoC5/cyfitter_cfg.c **** 	CY_CFG_Clock_Startup_ErrorCallback();
 121:Generated_Source\PSoC5/cyfitter_cfg.c **** #else
 122:Generated_Source\PSoC5/cyfitter_cfg.c **** 	/*  If not using CY_CFG_CLOCK_STARTUP_ERROR_CALLBACK, place your clock startup code here. */
 123:Generated_Source\PSoC5/cyfitter_cfg.c ****     /* `#START CyClockStartupError` */
 124:Generated_Source\PSoC5/cyfitter_cfg.c **** 
 125:Generated_Source\PSoC5/cyfitter_cfg.c ****     /* If we have a clock startup error (bad MHz crystal, PLL lock, etc.),  */
 126:Generated_Source\PSoC5/cyfitter_cfg.c ****     /* we will end up here to allow the customer to implement something to  */
 127:Generated_Source\PSoC5/cyfitter_cfg.c ****     /* deal with the clock condition.                                       */
 128:Generated_Source\PSoC5/cyfitter_cfg.c **** 
 129:Generated_Source\PSoC5/cyfitter_cfg.c ****     /* `#END` */
 130:Generated_Source\PSoC5/cyfitter_cfg.c **** 
 131:Generated_Source\PSoC5/cyfitter_cfg.c ****     /* If nothing else, stop here since the clocks have not started         */
 132:Generated_Source\PSoC5/cyfitter_cfg.c ****     /* correctly.                                                           */
 133:Generated_Source\PSoC5/cyfitter_cfg.c ****     while(1) {}
 151              		.loc 1 133 0 discriminator 1
 152 000a FEE7     		b	.L5
ARM GAS  C:\Users\LUKASC~1\AppData\Local\Temp\ccB0wgbx.s 			page 6


 153              		.cfi_endproc
 154              	.LFE3:
 155              		.size	CyClockStartupError, .-CyClockStartupError
 156              		.section	.text.cfg_write_bytes32,"ax",%progbits
 157              		.align	2
 158              		.thumb
 159              		.thumb_func
 160              		.type	cfg_write_bytes32, %function
 161              	cfg_write_bytes32:
 162              	.LFB4:
 134:Generated_Source\PSoC5/cyfitter_cfg.c **** #endif /* CY_CFG_CLOCK_STARTUP_ERROR_CALLBACK */ 
 135:Generated_Source\PSoC5/cyfitter_cfg.c **** }
 136:Generated_Source\PSoC5/cyfitter_cfg.c **** #endif
 137:Generated_Source\PSoC5/cyfitter_cfg.c **** 
 138:Generated_Source\PSoC5/cyfitter_cfg.c **** #define CY_CFG_BASE_ADDR_COUNT 17u
 139:Generated_Source\PSoC5/cyfitter_cfg.c **** CYPACKED typedef struct
 140:Generated_Source\PSoC5/cyfitter_cfg.c **** {
 141:Generated_Source\PSoC5/cyfitter_cfg.c **** 	uint8 offset;
 142:Generated_Source\PSoC5/cyfitter_cfg.c **** 	uint8 value;
 143:Generated_Source\PSoC5/cyfitter_cfg.c **** } CYPACKED_ATTR cy_cfg_addrvalue_t;
 144:Generated_Source\PSoC5/cyfitter_cfg.c **** 
 145:Generated_Source\PSoC5/cyfitter_cfg.c **** 
 146:Generated_Source\PSoC5/cyfitter_cfg.c **** 
 147:Generated_Source\PSoC5/cyfitter_cfg.c **** /*******************************************************************************
 148:Generated_Source\PSoC5/cyfitter_cfg.c **** * Function Name: cfg_write_bytes32
 149:Generated_Source\PSoC5/cyfitter_cfg.c **** ********************************************************************************
 150:Generated_Source\PSoC5/cyfitter_cfg.c **** * Summary:
 151:Generated_Source\PSoC5/cyfitter_cfg.c **** *  This function is used for setting up the chip configuration areas that
 152:Generated_Source\PSoC5/cyfitter_cfg.c **** *  contain relatively sparse data.
 153:Generated_Source\PSoC5/cyfitter_cfg.c **** *
 154:Generated_Source\PSoC5/cyfitter_cfg.c **** * Parameters:
 155:Generated_Source\PSoC5/cyfitter_cfg.c **** *   void
 156:Generated_Source\PSoC5/cyfitter_cfg.c **** *
 157:Generated_Source\PSoC5/cyfitter_cfg.c **** * Return:
 158:Generated_Source\PSoC5/cyfitter_cfg.c **** *   void
 159:Generated_Source\PSoC5/cyfitter_cfg.c **** *
 160:Generated_Source\PSoC5/cyfitter_cfg.c **** *******************************************************************************/
 161:Generated_Source\PSoC5/cyfitter_cfg.c **** static void cfg_write_bytes32(const uint32 addr_table[], const cy_cfg_addrvalue_t data_table[]);
 162:Generated_Source\PSoC5/cyfitter_cfg.c **** static void cfg_write_bytes32(const uint32 addr_table[], const cy_cfg_addrvalue_t data_table[])
 163:Generated_Source\PSoC5/cyfitter_cfg.c **** {
 163              		.loc 1 163 0
 164              		.cfi_startproc
 165              		@ args = 0, pretend = 0, frame = 24
 166              		@ frame_needed = 1, uses_anonymous_args = 0
 167              		@ link register save eliminated.
 168 0000 80B4     		push	{r7}
 169              		.cfi_def_cfa_offset 4
 170              		.cfi_offset 7, -4
 171 0002 87B0     		sub	sp, sp, #28
 172              		.cfi_def_cfa_offset 32
 173 0004 00AF     		add	r7, sp, #0
 174              		.cfi_def_cfa_register 7
 175 0006 7860     		str	r0, [r7, #4]
 176 0008 3960     		str	r1, [r7]
 164:Generated_Source\PSoC5/cyfitter_cfg.c **** 	/* For 32-bit little-endian architectures */
 165:Generated_Source\PSoC5/cyfitter_cfg.c **** 	uint32 i, j = 0u;
 177              		.loc 1 165 0
ARM GAS  C:\Users\LUKASC~1\AppData\Local\Temp\ccB0wgbx.s 			page 7


 178 000a 0023     		movs	r3, #0
 179 000c 3B61     		str	r3, [r7, #16]
 166:Generated_Source\PSoC5/cyfitter_cfg.c **** 	for (i = 0u; i < CY_CFG_BASE_ADDR_COUNT; i++)
 180              		.loc 1 166 0
 181 000e 0023     		movs	r3, #0
 182 0010 7B61     		str	r3, [r7, #20]
 183 0012 27E0     		b	.L7
 184              	.L10:
 185              	.LBB2:
 167:Generated_Source\PSoC5/cyfitter_cfg.c **** 	{
 168:Generated_Source\PSoC5/cyfitter_cfg.c **** 		uint32 baseAddr = addr_table[i];
 186              		.loc 1 168 0
 187 0014 7B69     		ldr	r3, [r7, #20]
 188 0016 9B00     		lsls	r3, r3, #2
 189 0018 7A68     		ldr	r2, [r7, #4]
 190 001a 1344     		add	r3, r3, r2
 191 001c 1B68     		ldr	r3, [r3]
 192 001e BB60     		str	r3, [r7, #8]
 169:Generated_Source\PSoC5/cyfitter_cfg.c **** 		uint8 count = (uint8)baseAddr;
 193              		.loc 1 169 0
 194 0020 BB68     		ldr	r3, [r7, #8]
 195 0022 FB73     		strb	r3, [r7, #15]
 170:Generated_Source\PSoC5/cyfitter_cfg.c **** 		baseAddr &= 0xFFFFFF00u;
 196              		.loc 1 170 0
 197 0024 BB68     		ldr	r3, [r7, #8]
 198 0026 23F0FF03 		bic	r3, r3, #255
 199 002a BB60     		str	r3, [r7, #8]
 171:Generated_Source\PSoC5/cyfitter_cfg.c **** 		while (count != 0u)
 200              		.loc 1 171 0
 201 002c 14E0     		b	.L8
 202              	.L9:
 172:Generated_Source\PSoC5/cyfitter_cfg.c **** 		{
 173:Generated_Source\PSoC5/cyfitter_cfg.c **** 			CY_SET_XTND_REG8((void CYFAR *)(baseAddr + data_table[j].offset), data_table[j].value);
 203              		.loc 1 173 0
 204 002e 3B69     		ldr	r3, [r7, #16]
 205 0030 5B00     		lsls	r3, r3, #1
 206 0032 3A68     		ldr	r2, [r7]
 207 0034 1344     		add	r3, r3, r2
 208 0036 1B78     		ldrb	r3, [r3]	@ zero_extendqisi2
 209 0038 1A46     		mov	r2, r3
 210 003a BB68     		ldr	r3, [r7, #8]
 211 003c 1344     		add	r3, r3, r2
 212 003e 1946     		mov	r1, r3
 213 0040 3B69     		ldr	r3, [r7, #16]
 214 0042 5B00     		lsls	r3, r3, #1
 215 0044 3A68     		ldr	r2, [r7]
 216 0046 1344     		add	r3, r3, r2
 217 0048 5B78     		ldrb	r3, [r3, #1]	@ zero_extendqisi2
 218 004a 0B70     		strb	r3, [r1]
 174:Generated_Source\PSoC5/cyfitter_cfg.c **** 			j++;
 219              		.loc 1 174 0
 220 004c 3B69     		ldr	r3, [r7, #16]
 221 004e 0133     		adds	r3, r3, #1
 222 0050 3B61     		str	r3, [r7, #16]
 175:Generated_Source\PSoC5/cyfitter_cfg.c **** 			count--;
 223              		.loc 1 175 0
 224 0052 FB7B     		ldrb	r3, [r7, #15]	@ zero_extendqisi2
ARM GAS  C:\Users\LUKASC~1\AppData\Local\Temp\ccB0wgbx.s 			page 8


 225 0054 013B     		subs	r3, r3, #1
 226 0056 FB73     		strb	r3, [r7, #15]
 227              	.L8:
 171:Generated_Source\PSoC5/cyfitter_cfg.c **** 		{
 228              		.loc 1 171 0
 229 0058 FB7B     		ldrb	r3, [r7, #15]	@ zero_extendqisi2
 230 005a 002B     		cmp	r3, #0
 231 005c E7D1     		bne	.L9
 232              	.LBE2:
 166:Generated_Source\PSoC5/cyfitter_cfg.c **** 	{
 233              		.loc 1 166 0 discriminator 2
 234 005e 7B69     		ldr	r3, [r7, #20]
 235 0060 0133     		adds	r3, r3, #1
 236 0062 7B61     		str	r3, [r7, #20]
 237              	.L7:
 166:Generated_Source\PSoC5/cyfitter_cfg.c **** 	{
 238              		.loc 1 166 0 is_stmt 0 discriminator 1
 239 0064 7B69     		ldr	r3, [r7, #20]
 240 0066 102B     		cmp	r3, #16
 241 0068 D4D9     		bls	.L10
 176:Generated_Source\PSoC5/cyfitter_cfg.c **** 		}
 177:Generated_Source\PSoC5/cyfitter_cfg.c **** 	}
 178:Generated_Source\PSoC5/cyfitter_cfg.c **** }
 242              		.loc 1 178 0 is_stmt 1
 243 006a 1C37     		adds	r7, r7, #28
 244              		.cfi_def_cfa_offset 4
 245 006c BD46     		mov	sp, r7
 246              		.cfi_def_cfa_register 13
 247              		@ sp needed
 248 006e 5DF8047B 		ldr	r7, [sp], #4
 249              		.cfi_restore 7
 250              		.cfi_def_cfa_offset 0
 251 0072 7047     		bx	lr
 252              		.cfi_endproc
 253              	.LFE4:
 254              		.size	cfg_write_bytes32, .-cfg_write_bytes32
 255              		.section	.text.ClockSetup,"ax",%progbits
 256              		.align	2
 257              		.thumb
 258              		.thumb_func
 259              		.type	ClockSetup, %function
 260              	ClockSetup:
 261              	.LFB5:
 179:Generated_Source\PSoC5/cyfitter_cfg.c **** 
 180:Generated_Source\PSoC5/cyfitter_cfg.c **** /*******************************************************************************
 181:Generated_Source\PSoC5/cyfitter_cfg.c **** * Function Name: ClockSetup
 182:Generated_Source\PSoC5/cyfitter_cfg.c **** ********************************************************************************
 183:Generated_Source\PSoC5/cyfitter_cfg.c **** *
 184:Generated_Source\PSoC5/cyfitter_cfg.c **** * Summary:
 185:Generated_Source\PSoC5/cyfitter_cfg.c **** *  Performs the initialization of all of the clocks in the device based on the
 186:Generated_Source\PSoC5/cyfitter_cfg.c **** *  settings in the Clock tab of the DWR.  This includes enabling the requested
 187:Generated_Source\PSoC5/cyfitter_cfg.c **** *  clocks and setting the necessary dividers to produce the desired frequency. 
 188:Generated_Source\PSoC5/cyfitter_cfg.c **** *
 189:Generated_Source\PSoC5/cyfitter_cfg.c **** * Parameters:
 190:Generated_Source\PSoC5/cyfitter_cfg.c **** *  void
 191:Generated_Source\PSoC5/cyfitter_cfg.c **** *
 192:Generated_Source\PSoC5/cyfitter_cfg.c **** * Return:
ARM GAS  C:\Users\LUKASC~1\AppData\Local\Temp\ccB0wgbx.s 			page 9


 193:Generated_Source\PSoC5/cyfitter_cfg.c **** *  void
 194:Generated_Source\PSoC5/cyfitter_cfg.c **** *
 195:Generated_Source\PSoC5/cyfitter_cfg.c **** *******************************************************************************/
 196:Generated_Source\PSoC5/cyfitter_cfg.c **** static void ClockSetup(void);
 197:Generated_Source\PSoC5/cyfitter_cfg.c **** static void ClockSetup(void)
 198:Generated_Source\PSoC5/cyfitter_cfg.c **** {
 262              		.loc 1 198 0
 263              		.cfi_startproc
 264              		@ args = 0, pretend = 0, frame = 8
 265              		@ frame_needed = 1, uses_anonymous_args = 0
 266 0000 80B5     		push	{r7, lr}
 267              		.cfi_def_cfa_offset 8
 268              		.cfi_offset 7, -8
 269              		.cfi_offset 14, -4
 270 0002 82B0     		sub	sp, sp, #8
 271              		.cfi_def_cfa_offset 16
 272 0004 00AF     		add	r7, sp, #0
 273              		.cfi_def_cfa_register 7
 199:Generated_Source\PSoC5/cyfitter_cfg.c **** 	uint32 timeout;
 200:Generated_Source\PSoC5/cyfitter_cfg.c **** 	uint8 pllLock;
 201:Generated_Source\PSoC5/cyfitter_cfg.c **** 
 202:Generated_Source\PSoC5/cyfitter_cfg.c **** 
 203:Generated_Source\PSoC5/cyfitter_cfg.c **** 	/* Configure Digital Clocks based on settings from Clock DWR */
 204:Generated_Source\PSoC5/cyfitter_cfg.c **** 	CY_SET_XTND_REG16((void CYFAR *)(CYREG_CLKDIST_DCFG0_CFG0), 0x0003u);
 274              		.loc 1 204 0
 275 0006 334B     		ldr	r3, .L16
 276 0008 0322     		movs	r2, #3
 277 000a 1A80     		strh	r2, [r3]	@ movhi
 205:Generated_Source\PSoC5/cyfitter_cfg.c **** 	CY_SET_XTND_REG8((void CYFAR *)(CYREG_CLKDIST_DCFG0_CFG0 + 0x2u), 0x19u);
 278              		.loc 1 205 0
 279 000c 324B     		ldr	r3, .L16+4
 280 000e 1922     		movs	r2, #25
 281 0010 1A70     		strb	r2, [r3]
 206:Generated_Source\PSoC5/cyfitter_cfg.c **** 	CY_SET_XTND_REG16((void CYFAR *)(CYREG_CLKDIST_DCFG1_CFG0), 0x02EDu);
 282              		.loc 1 206 0
 283 0012 324B     		ldr	r3, .L16+8
 284 0014 40F2ED22 		movw	r2, #749
 285 0018 1A80     		strh	r2, [r3]	@ movhi
 207:Generated_Source\PSoC5/cyfitter_cfg.c **** 	CY_SET_XTND_REG8((void CYFAR *)(CYREG_CLKDIST_DCFG1_CFG0 + 0x2u), 0x19u);
 286              		.loc 1 207 0
 287 001a 314B     		ldr	r3, .L16+12
 288 001c 1922     		movs	r2, #25
 289 001e 1A70     		strb	r2, [r3]
 208:Generated_Source\PSoC5/cyfitter_cfg.c **** 
 209:Generated_Source\PSoC5/cyfitter_cfg.c **** 	/* Configure ILO based on settings from Clock DWR */
 210:Generated_Source\PSoC5/cyfitter_cfg.c **** 	CY_SET_XTND_REG8((void CYFAR *)(CYREG_SLOWCLK_ILO_CR0), 0x06u);
 290              		.loc 1 210 0
 291 0020 304B     		ldr	r3, .L16+16
 292 0022 0622     		movs	r2, #6
 293 0024 1A70     		strb	r2, [r3]
 211:Generated_Source\PSoC5/cyfitter_cfg.c **** 
 212:Generated_Source\PSoC5/cyfitter_cfg.c **** 	/* Configure IMO based on settings from Clock DWR */
 213:Generated_Source\PSoC5/cyfitter_cfg.c **** 	CY_SET_XTND_REG8((void CYFAR *)(CYREG_FASTCLK_IMO_CR), 0x52u);
 294              		.loc 1 213 0
 295 0026 304B     		ldr	r3, .L16+20
 296 0028 5222     		movs	r2, #82
 297 002a 1A70     		strb	r2, [r3]
ARM GAS  C:\Users\LUKASC~1\AppData\Local\Temp\ccB0wgbx.s 			page 10


 214:Generated_Source\PSoC5/cyfitter_cfg.c **** 	CY_SET_XTND_REG8((void CYFAR *)(CYREG_IMO_TR1), (CY_GET_XTND_REG8((void CYFAR *)CYREG_FLSHID_CUST_
 298              		.loc 1 214 0
 299 002c 2F4B     		ldr	r3, .L16+24
 300 002e 304A     		ldr	r2, .L16+28
 301 0030 1278     		ldrb	r2, [r2]
 302 0032 D2B2     		uxtb	r2, r2
 303 0034 1A70     		strb	r2, [r3]
 215:Generated_Source\PSoC5/cyfitter_cfg.c **** 
 216:Generated_Source\PSoC5/cyfitter_cfg.c **** 	/* Configure PLL based on settings from Clock DWR */
 217:Generated_Source\PSoC5/cyfitter_cfg.c **** 	CY_SET_XTND_REG16((void CYFAR *)(CYREG_FASTCLK_PLL_P), 0x0818u);
 304              		.loc 1 217 0
 305 0036 2F4B     		ldr	r3, .L16+32
 306 0038 40F61802 		movw	r2, #2072
 307 003c 1A80     		strh	r2, [r3]	@ movhi
 218:Generated_Source\PSoC5/cyfitter_cfg.c **** 	CY_SET_XTND_REG16((void CYFAR *)(CYREG_FASTCLK_PLL_CFG0), 0x1251u);
 308              		.loc 1 218 0
 309 003e 2E4B     		ldr	r3, .L16+36
 310 0040 41F25122 		movw	r2, #4689
 311 0044 1A80     		strh	r2, [r3]	@ movhi
 219:Generated_Source\PSoC5/cyfitter_cfg.c **** 	/* Wait up to 250us for the PLL to lock */
 220:Generated_Source\PSoC5/cyfitter_cfg.c **** 	pllLock = 0u;
 312              		.loc 1 220 0
 313 0046 0023     		movs	r3, #0
 314 0048 FB70     		strb	r3, [r7, #3]
 221:Generated_Source\PSoC5/cyfitter_cfg.c **** 	for (timeout = 250u / 10u; (timeout > 0u) && (pllLock != 0x03u); timeout--)
 315              		.loc 1 221 0
 316 004a 1923     		movs	r3, #25
 317 004c 7B60     		str	r3, [r7, #4]
 318 004e 14E0     		b	.L12
 319              	.L14:
 222:Generated_Source\PSoC5/cyfitter_cfg.c **** 	{ 
 223:Generated_Source\PSoC5/cyfitter_cfg.c **** 		pllLock = 0x03u & ((uint8)((uint8)pllLock << 1) | ((CY_GET_XTND_REG8((void CYFAR *)CYREG_FASTCLK_
 320              		.loc 1 223 0 discriminator 4
 321 0050 FB78     		ldrb	r3, [r7, #3]
 322 0052 5B00     		lsls	r3, r3, #1
 323 0054 DAB2     		uxtb	r2, r3
 324 0056 294B     		ldr	r3, .L16+40
 325 0058 1B78     		ldrb	r3, [r3]
 326 005a DBB2     		uxtb	r3, r3
 327 005c 03F00103 		and	r3, r3, #1
 328 0060 DBB2     		uxtb	r3, r3
 329 0062 1343     		orrs	r3, r3, r2
 330 0064 DBB2     		uxtb	r3, r3
 331 0066 03F00303 		and	r3, r3, #3
 332 006a FB70     		strb	r3, [r7, #3]
 224:Generated_Source\PSoC5/cyfitter_cfg.c **** 		CyDelayCycles(10u * 48u); /* Delay 10us based on 48MHz clock */
 333              		.loc 1 224 0 discriminator 4
 334 006c 4FF4F070 		mov	r0, #480
 335 0070 FFF7FEFF 		bl	CyDelayCycles
 221:Generated_Source\PSoC5/cyfitter_cfg.c **** 	for (timeout = 250u / 10u; (timeout > 0u) && (pllLock != 0x03u); timeout--)
 336              		.loc 1 221 0 discriminator 4
 337 0074 7B68     		ldr	r3, [r7, #4]
 338 0076 013B     		subs	r3, r3, #1
 339 0078 7B60     		str	r3, [r7, #4]
 340              	.L12:
 221:Generated_Source\PSoC5/cyfitter_cfg.c **** 	for (timeout = 250u / 10u; (timeout > 0u) && (pllLock != 0x03u); timeout--)
 341              		.loc 1 221 0 is_stmt 0 discriminator 1
ARM GAS  C:\Users\LUKASC~1\AppData\Local\Temp\ccB0wgbx.s 			page 11


 342 007a 7B68     		ldr	r3, [r7, #4]
 343 007c 002B     		cmp	r3, #0
 344 007e 02D0     		beq	.L13
 221:Generated_Source\PSoC5/cyfitter_cfg.c **** 	for (timeout = 250u / 10u; (timeout > 0u) && (pllLock != 0x03u); timeout--)
 345              		.loc 1 221 0 discriminator 3
 346 0080 FB78     		ldrb	r3, [r7, #3]	@ zero_extendqisi2
 347 0082 032B     		cmp	r3, #3
 348 0084 E4D1     		bne	.L14
 349              	.L13:
 225:Generated_Source\PSoC5/cyfitter_cfg.c **** 	}
 226:Generated_Source\PSoC5/cyfitter_cfg.c **** 	/* If we ran out of time the PLL didn't lock so go to the error function */
 227:Generated_Source\PSoC5/cyfitter_cfg.c **** 	if (timeout == 0u)
 350              		.loc 1 227 0 is_stmt 1
 351 0086 7B68     		ldr	r3, [r7, #4]
 352 0088 002B     		cmp	r3, #0
 353 008a 02D1     		bne	.L15
 228:Generated_Source\PSoC5/cyfitter_cfg.c **** 	{
 229:Generated_Source\PSoC5/cyfitter_cfg.c **** 		CyClockStartupError(CYCLOCKSTART_PLL_ERROR);
 354              		.loc 1 229 0
 355 008c 0320     		movs	r0, #3
 356 008e FFF7FEFF 		bl	CyClockStartupError
 357              	.L15:
 230:Generated_Source\PSoC5/cyfitter_cfg.c **** 	}
 231:Generated_Source\PSoC5/cyfitter_cfg.c **** 
 232:Generated_Source\PSoC5/cyfitter_cfg.c **** 	/* Configure Bus/Master Clock based on settings from Clock DWR */
 233:Generated_Source\PSoC5/cyfitter_cfg.c **** 	CY_SET_XTND_REG16((void CYFAR *)(CYREG_CLKDIST_MSTR0), 0x0100u);
 358              		.loc 1 233 0
 359 0092 1B4B     		ldr	r3, .L16+44
 360 0094 4FF48072 		mov	r2, #256
 361 0098 1A80     		strh	r2, [r3]	@ movhi
 234:Generated_Source\PSoC5/cyfitter_cfg.c **** 	CY_SET_XTND_REG8((void CYFAR *)(CYREG_CLKDIST_MSTR0), 0x07u);
 362              		.loc 1 234 0
 363 009a 194B     		ldr	r3, .L16+44
 364 009c 0722     		movs	r2, #7
 365 009e 1A70     		strb	r2, [r3]
 235:Generated_Source\PSoC5/cyfitter_cfg.c **** 	CY_SET_XTND_REG8((void CYFAR *)(CYREG_CLKDIST_BCFG0), 0x00u);
 366              		.loc 1 235 0
 367 00a0 184B     		ldr	r3, .L16+48
 368 00a2 0022     		movs	r2, #0
 369 00a4 1A70     		strb	r2, [r3]
 236:Generated_Source\PSoC5/cyfitter_cfg.c **** 	CY_SET_XTND_REG8((void CYFAR *)(CYREG_CLKDIST_BCFG2), 0x48u);
 370              		.loc 1 236 0
 371 00a6 184B     		ldr	r3, .L16+52
 372 00a8 4822     		movs	r2, #72
 373 00aa 1A70     		strb	r2, [r3]
 237:Generated_Source\PSoC5/cyfitter_cfg.c **** 	CY_SET_XTND_REG8((void CYFAR *)(CYREG_CLKDIST_MSTR0), 0x00u);
 374              		.loc 1 237 0
 375 00ac 144B     		ldr	r3, .L16+44
 376 00ae 0022     		movs	r2, #0
 377 00b0 1A70     		strb	r2, [r3]
 238:Generated_Source\PSoC5/cyfitter_cfg.c **** 
 239:Generated_Source\PSoC5/cyfitter_cfg.c **** 	/* Configure USB Clock based on settings from Clock DWR */
 240:Generated_Source\PSoC5/cyfitter_cfg.c **** 	CY_SET_XTND_REG8((void CYFAR *)(CYREG_CLKDIST_UCFG), 0x00u);
 378              		.loc 1 240 0
 379 00b2 164B     		ldr	r3, .L16+56
 380 00b4 0022     		movs	r2, #0
 381 00b6 1A70     		strb	r2, [r3]
ARM GAS  C:\Users\LUKASC~1\AppData\Local\Temp\ccB0wgbx.s 			page 12


 241:Generated_Source\PSoC5/cyfitter_cfg.c **** 	CY_SET_XTND_REG8((void CYFAR *)(CYREG_CLKDIST_LD), 0x02u);
 382              		.loc 1 241 0
 383 00b8 154B     		ldr	r3, .L16+60
 384 00ba 0222     		movs	r2, #2
 385 00bc 1A70     		strb	r2, [r3]
 242:Generated_Source\PSoC5/cyfitter_cfg.c **** 
 243:Generated_Source\PSoC5/cyfitter_cfg.c **** 	CY_SET_XTND_REG8((void CYFAR *)(CYREG_PM_ACT_CFG2), ((CY_GET_XTND_REG8((void CYFAR *)CYREG_PM_ACT_
 386              		.loc 1 243 0
 387 00be 154A     		ldr	r2, .L16+64
 388 00c0 144B     		ldr	r3, .L16+64
 389 00c2 1B78     		ldrb	r3, [r3]
 390 00c4 DBB2     		uxtb	r3, r3
 391 00c6 43F00303 		orr	r3, r3, #3
 392 00ca DBB2     		uxtb	r3, r3
 393 00cc 1370     		strb	r3, [r2]
 244:Generated_Source\PSoC5/cyfitter_cfg.c **** }
 394              		.loc 1 244 0
 395 00ce 0837     		adds	r7, r7, #8
 396              		.cfi_def_cfa_offset 8
 397 00d0 BD46     		mov	sp, r7
 398              		.cfi_def_cfa_register 13
 399              		@ sp needed
 400 00d2 80BD     		pop	{r7, pc}
 401              	.L17:
 402              		.align	2
 403              	.L16:
 404 00d4 80400040 		.word	1073758336
 405 00d8 82400040 		.word	1073758338
 406 00dc 84400040 		.word	1073758340
 407 00e0 86400040 		.word	1073758342
 408 00e4 00430040 		.word	1073758976
 409 00e8 00420040 		.word	1073758720
 410 00ec A1460040 		.word	1073759905
 411 00f0 0F010049 		.word	1224737039
 412 00f4 22420040 		.word	1073758754
 413 00f8 20420040 		.word	1073758752
 414 00fc 25420040 		.word	1073758757
 415 0100 04400040 		.word	1073758212
 416 0104 06400040 		.word	1073758214
 417 0108 08400040 		.word	1073758216
 418 010c 09400040 		.word	1073758217
 419 0110 01400040 		.word	1073758209
 420 0114 A2430040 		.word	1073759138
 421              		.cfi_endproc
 422              	.LFE5:
 423              		.size	ClockSetup, .-ClockSetup
 424              		.section	.text.AnalogSetDefault,"ax",%progbits
 425              		.align	2
 426              		.thumb
 427              		.thumb_func
 428              		.type	AnalogSetDefault, %function
 429              	AnalogSetDefault:
 430              	.LFB6:
 245:Generated_Source\PSoC5/cyfitter_cfg.c **** 
 246:Generated_Source\PSoC5/cyfitter_cfg.c **** 
 247:Generated_Source\PSoC5/cyfitter_cfg.c **** /* Analog API Functions */
 248:Generated_Source\PSoC5/cyfitter_cfg.c **** 
ARM GAS  C:\Users\LUKASC~1\AppData\Local\Temp\ccB0wgbx.s 			page 13


 249:Generated_Source\PSoC5/cyfitter_cfg.c **** 
 250:Generated_Source\PSoC5/cyfitter_cfg.c **** /*******************************************************************************
 251:Generated_Source\PSoC5/cyfitter_cfg.c **** * Function Name: AnalogSetDefault
 252:Generated_Source\PSoC5/cyfitter_cfg.c **** ********************************************************************************
 253:Generated_Source\PSoC5/cyfitter_cfg.c **** *
 254:Generated_Source\PSoC5/cyfitter_cfg.c **** * Summary:
 255:Generated_Source\PSoC5/cyfitter_cfg.c **** *  Sets up the analog portions of the chip to default values based on chip
 256:Generated_Source\PSoC5/cyfitter_cfg.c **** *  configuration options from the project.
 257:Generated_Source\PSoC5/cyfitter_cfg.c **** *
 258:Generated_Source\PSoC5/cyfitter_cfg.c **** * Parameters:
 259:Generated_Source\PSoC5/cyfitter_cfg.c **** *  void
 260:Generated_Source\PSoC5/cyfitter_cfg.c **** *
 261:Generated_Source\PSoC5/cyfitter_cfg.c **** * Return:
 262:Generated_Source\PSoC5/cyfitter_cfg.c **** *  void
 263:Generated_Source\PSoC5/cyfitter_cfg.c **** *
 264:Generated_Source\PSoC5/cyfitter_cfg.c **** *******************************************************************************/
 265:Generated_Source\PSoC5/cyfitter_cfg.c **** static void AnalogSetDefault(void);
 266:Generated_Source\PSoC5/cyfitter_cfg.c **** static void AnalogSetDefault(void)
 267:Generated_Source\PSoC5/cyfitter_cfg.c **** {
 431              		.loc 1 267 0
 432              		.cfi_startproc
 433              		@ args = 0, pretend = 0, frame = 8
 434              		@ frame_needed = 1, uses_anonymous_args = 0
 435              		@ link register save eliminated.
 436 0000 80B4     		push	{r7}
 437              		.cfi_def_cfa_offset 4
 438              		.cfi_offset 7, -4
 439 0002 83B0     		sub	sp, sp, #12
 440              		.cfi_def_cfa_offset 16
 441 0004 00AF     		add	r7, sp, #0
 442              		.cfi_def_cfa_register 7
 268:Generated_Source\PSoC5/cyfitter_cfg.c **** 	uint8 bg_xover_inl_trim = CY_GET_XTND_REG8((void CYFAR *)(CYREG_FLSHID_MFG_CFG_BG_XOVER_INL_TRIM +
 443              		.loc 1 268 0
 444 0006 0E4B     		ldr	r3, .L19
 445 0008 1B78     		ldrb	r3, [r3]
 446 000a FB71     		strb	r3, [r7, #7]
 269:Generated_Source\PSoC5/cyfitter_cfg.c **** 	CY_SET_XTND_REG8((void CYFAR *)(CYREG_BG_DFT0), (bg_xover_inl_trim & 0x07u));
 447              		.loc 1 269 0
 448 000c 0D4A     		ldr	r2, .L19+4
 449 000e FB79     		ldrb	r3, [r7, #7]
 450 0010 03F00703 		and	r3, r3, #7
 451 0014 DBB2     		uxtb	r3, r3
 452 0016 1370     		strb	r3, [r2]
 270:Generated_Source\PSoC5/cyfitter_cfg.c **** 	CY_SET_XTND_REG8((void CYFAR *)(CYREG_BG_DFT1), ((bg_xover_inl_trim >> 4) & 0x0Fu));
 453              		.loc 1 270 0
 454 0018 0B4A     		ldr	r2, .L19+8
 455 001a FB79     		ldrb	r3, [r7, #7]	@ zero_extendqisi2
 456 001c 1B09     		lsrs	r3, r3, #4
 457 001e DBB2     		uxtb	r3, r3
 458 0020 1370     		strb	r3, [r2]
 271:Generated_Source\PSoC5/cyfitter_cfg.c **** 	CY_SET_XTND_REG8((void CYFAR *)CYREG_PRT0_AG, 0x01u);
 459              		.loc 1 271 0
 460 0022 0A4B     		ldr	r3, .L19+12
 461 0024 0122     		movs	r2, #1
 462 0026 1A70     		strb	r2, [r3]
 272:Generated_Source\PSoC5/cyfitter_cfg.c **** 	CY_SET_XTND_REG8((void CYFAR *)CYREG_DAC2_SW0, 0x10u);
 463              		.loc 1 272 0
ARM GAS  C:\Users\LUKASC~1\AppData\Local\Temp\ccB0wgbx.s 			page 14


 464 0028 094B     		ldr	r3, .L19+16
 465 002a 1022     		movs	r2, #16
 466 002c 1A70     		strb	r2, [r3]
 273:Generated_Source\PSoC5/cyfitter_cfg.c **** 	CY_SET_XTND_REG8((void CYFAR *)CYREG_PUMP_CR0, 0x44u);
 467              		.loc 1 273 0
 468 002e 094B     		ldr	r3, .L19+20
 469 0030 4422     		movs	r2, #68
 470 0032 1A70     		strb	r2, [r3]
 274:Generated_Source\PSoC5/cyfitter_cfg.c **** }
 471              		.loc 1 274 0
 472 0034 0C37     		adds	r7, r7, #12
 473              		.cfi_def_cfa_offset 4
 474 0036 BD46     		mov	sp, r7
 475              		.cfi_def_cfa_register 13
 476              		@ sp needed
 477 0038 5DF8047B 		ldr	r7, [sp], #4
 478              		.cfi_restore 7
 479              		.cfi_def_cfa_offset 0
 480 003c 7047     		bx	lr
 481              	.L20:
 482 003e 00BF     		.align	2
 483              	.L19:
 484 0040 CF010049 		.word	1224737231
 485 0044 6E580040 		.word	1073764462
 486 0048 6F580040 		.word	1073764463
 487 004c 0D510040 		.word	1073762573
 488 0050 905A0040 		.word	1073765008
 489 0054 76580040 		.word	1073764470
 490              		.cfi_endproc
 491              	.LFE6:
 492              		.size	AnalogSetDefault, .-AnalogSetDefault
 493              		.section	.text.SetAnalogRoutingPumps,"ax",%progbits
 494              		.align	2
 495              		.global	SetAnalogRoutingPumps
 496              		.thumb
 497              		.thumb_func
 498              		.type	SetAnalogRoutingPumps, %function
 499              	SetAnalogRoutingPumps:
 500              	.LFB7:
 275:Generated_Source\PSoC5/cyfitter_cfg.c **** 
 276:Generated_Source\PSoC5/cyfitter_cfg.c **** 
 277:Generated_Source\PSoC5/cyfitter_cfg.c **** /*******************************************************************************
 278:Generated_Source\PSoC5/cyfitter_cfg.c **** * Function Name: SetAnalogRoutingPumps
 279:Generated_Source\PSoC5/cyfitter_cfg.c **** ********************************************************************************
 280:Generated_Source\PSoC5/cyfitter_cfg.c **** *
 281:Generated_Source\PSoC5/cyfitter_cfg.c **** * Summary:
 282:Generated_Source\PSoC5/cyfitter_cfg.c **** * Enables or disables the analog pumps feeding analog routing switches.
 283:Generated_Source\PSoC5/cyfitter_cfg.c **** * Intended to be called at startup, based on the Vdda system configuration;
 284:Generated_Source\PSoC5/cyfitter_cfg.c **** * may be called during operation when the user informs us that the Vdda voltage
 285:Generated_Source\PSoC5/cyfitter_cfg.c **** * crossed the pump threshold.
 286:Generated_Source\PSoC5/cyfitter_cfg.c **** *
 287:Generated_Source\PSoC5/cyfitter_cfg.c **** * Parameters:
 288:Generated_Source\PSoC5/cyfitter_cfg.c **** *  enabled - 1 to enable the pumps, 0 to disable the pumps
 289:Generated_Source\PSoC5/cyfitter_cfg.c **** *
 290:Generated_Source\PSoC5/cyfitter_cfg.c **** * Return:
 291:Generated_Source\PSoC5/cyfitter_cfg.c **** *  void
 292:Generated_Source\PSoC5/cyfitter_cfg.c **** *
ARM GAS  C:\Users\LUKASC~1\AppData\Local\Temp\ccB0wgbx.s 			page 15


 293:Generated_Source\PSoC5/cyfitter_cfg.c **** *******************************************************************************/
 294:Generated_Source\PSoC5/cyfitter_cfg.c **** void SetAnalogRoutingPumps(uint8 enabled)
 295:Generated_Source\PSoC5/cyfitter_cfg.c **** {
 501              		.loc 1 295 0
 502              		.cfi_startproc
 503              		@ args = 0, pretend = 0, frame = 16
 504              		@ frame_needed = 1, uses_anonymous_args = 0
 505              		@ link register save eliminated.
 506 0000 80B4     		push	{r7}
 507              		.cfi_def_cfa_offset 4
 508              		.cfi_offset 7, -4
 509 0002 85B0     		sub	sp, sp, #20
 510              		.cfi_def_cfa_offset 24
 511 0004 00AF     		add	r7, sp, #0
 512              		.cfi_def_cfa_register 7
 513 0006 0346     		mov	r3, r0
 514 0008 FB71     		strb	r3, [r7, #7]
 296:Generated_Source\PSoC5/cyfitter_cfg.c **** 	uint8 regValue = CY_GET_XTND_REG8((void CYFAR *)CYREG_PUMP_CR0);
 515              		.loc 1 296 0
 516 000a 0B4B     		ldr	r3, .L24
 517 000c 1B78     		ldrb	r3, [r3]
 518 000e FB73     		strb	r3, [r7, #15]
 297:Generated_Source\PSoC5/cyfitter_cfg.c **** 	if (enabled != 0u)
 519              		.loc 1 297 0
 520 0010 FB79     		ldrb	r3, [r7, #7]	@ zero_extendqisi2
 521 0012 002B     		cmp	r3, #0
 522 0014 04D0     		beq	.L22
 298:Generated_Source\PSoC5/cyfitter_cfg.c **** 	{
 299:Generated_Source\PSoC5/cyfitter_cfg.c **** 		regValue |= 0x22u;
 523              		.loc 1 299 0
 524 0016 FB7B     		ldrb	r3, [r7, #15]
 525 0018 43F02203 		orr	r3, r3, #34
 526 001c FB73     		strb	r3, [r7, #15]
 527 001e 03E0     		b	.L23
 528              	.L22:
 300:Generated_Source\PSoC5/cyfitter_cfg.c **** 	}
 301:Generated_Source\PSoC5/cyfitter_cfg.c **** 	else
 302:Generated_Source\PSoC5/cyfitter_cfg.c **** 	{
 303:Generated_Source\PSoC5/cyfitter_cfg.c **** 		regValue &= (uint8)~0x22u;
 529              		.loc 1 303 0
 530 0020 FB7B     		ldrb	r3, [r7, #15]
 531 0022 23F02203 		bic	r3, r3, #34
 532 0026 FB73     		strb	r3, [r7, #15]
 533              	.L23:
 304:Generated_Source\PSoC5/cyfitter_cfg.c **** 	}
 305:Generated_Source\PSoC5/cyfitter_cfg.c **** 	CY_SET_XTND_REG8((void CYFAR *)CYREG_PUMP_CR0, regValue);
 534              		.loc 1 305 0
 535 0028 034A     		ldr	r2, .L24
 536 002a FB7B     		ldrb	r3, [r7, #15]
 537 002c 1370     		strb	r3, [r2]
 306:Generated_Source\PSoC5/cyfitter_cfg.c **** }
 538              		.loc 1 306 0
 539 002e 1437     		adds	r7, r7, #20
 540              		.cfi_def_cfa_offset 4
 541 0030 BD46     		mov	sp, r7
 542              		.cfi_def_cfa_register 13
 543              		@ sp needed
ARM GAS  C:\Users\LUKASC~1\AppData\Local\Temp\ccB0wgbx.s 			page 16


 544 0032 5DF8047B 		ldr	r7, [sp], #4
 545              		.cfi_restore 7
 546              		.cfi_def_cfa_offset 0
 547 0036 7047     		bx	lr
 548              	.L25:
 549              		.align	2
 550              	.L24:
 551 0038 76580040 		.word	1073764470
 552              		.cfi_endproc
 553              	.LFE7:
 554              		.size	SetAnalogRoutingPumps, .-SetAnalogRoutingPumps
 555              		.section	.text.cyfitter_cfg,"ax",%progbits
 556              		.align	2
 557              		.global	cyfitter_cfg
 558              		.thumb
 559              		.thumb_func
 560              		.type	cyfitter_cfg, %function
 561              	cyfitter_cfg:
 562              	.LFB8:
 307:Generated_Source\PSoC5/cyfitter_cfg.c **** 
 308:Generated_Source\PSoC5/cyfitter_cfg.c **** #define CY_AMUX_UNUSED CYREG_BOOST_SR
 309:Generated_Source\PSoC5/cyfitter_cfg.c **** 
 310:Generated_Source\PSoC5/cyfitter_cfg.c **** 
 311:Generated_Source\PSoC5/cyfitter_cfg.c **** /*******************************************************************************
 312:Generated_Source\PSoC5/cyfitter_cfg.c **** * Function Name: cyfitter_cfg
 313:Generated_Source\PSoC5/cyfitter_cfg.c **** ********************************************************************************
 314:Generated_Source\PSoC5/cyfitter_cfg.c **** * Summary:
 315:Generated_Source\PSoC5/cyfitter_cfg.c **** *  This function is called by the start-up code for the selected device. It
 316:Generated_Source\PSoC5/cyfitter_cfg.c **** *  performs all of the necessary device configuration based on the design
 317:Generated_Source\PSoC5/cyfitter_cfg.c **** *  settings.  This includes settings from the Design Wide Resources (DWR) such
 318:Generated_Source\PSoC5/cyfitter_cfg.c **** *  as Clocks and Pins as well as any component configuration that is necessary.
 319:Generated_Source\PSoC5/cyfitter_cfg.c **** *
 320:Generated_Source\PSoC5/cyfitter_cfg.c **** * Parameters:  
 321:Generated_Source\PSoC5/cyfitter_cfg.c **** *   void
 322:Generated_Source\PSoC5/cyfitter_cfg.c **** *
 323:Generated_Source\PSoC5/cyfitter_cfg.c **** * Return:
 324:Generated_Source\PSoC5/cyfitter_cfg.c **** *   void
 325:Generated_Source\PSoC5/cyfitter_cfg.c **** *
 326:Generated_Source\PSoC5/cyfitter_cfg.c **** *******************************************************************************/
 327:Generated_Source\PSoC5/cyfitter_cfg.c **** 
 328:Generated_Source\PSoC5/cyfitter_cfg.c **** void cyfitter_cfg(void)
 329:Generated_Source\PSoC5/cyfitter_cfg.c **** {
 563              		.loc 1 329 0
 564              		.cfi_startproc
 565              		@ args = 0, pretend = 0, frame = 8
 566              		@ frame_needed = 1, uses_anonymous_args = 0
 567 0000 80B5     		push	{r7, lr}
 568              		.cfi_def_cfa_offset 8
 569              		.cfi_offset 7, -8
 570              		.cfi_offset 14, -4
 571 0002 82B0     		sub	sp, sp, #8
 572              		.cfi_def_cfa_offset 16
 573 0004 00AF     		add	r7, sp, #0
 574              		.cfi_def_cfa_register 7
 330:Generated_Source\PSoC5/cyfitter_cfg.c **** 	/* IOPINS0_0 Address: CYREG_PRT0_DM0 Size (bytes): 8 */
 331:Generated_Source\PSoC5/cyfitter_cfg.c **** 	static const uint8 CYCODE BS_IOPINS0_0_VAL[] = {
 332:Generated_Source\PSoC5/cyfitter_cfg.c **** 		0x00u, 0x00u, 0x00u, 0x00u, 0x00u, 0x00u, 0x01u, 0x00u};
ARM GAS  C:\Users\LUKASC~1\AppData\Local\Temp\ccB0wgbx.s 			page 17


 333:Generated_Source\PSoC5/cyfitter_cfg.c **** 
 334:Generated_Source\PSoC5/cyfitter_cfg.c **** 	/* IOPINS0_7 Address: CYREG_PRT12_DM0 Size (bytes): 8 */
 335:Generated_Source\PSoC5/cyfitter_cfg.c **** 	static const uint8 CYCODE BS_IOPINS0_7_VAL[] = {
 336:Generated_Source\PSoC5/cyfitter_cfg.c **** 		0x00u, 0x0Fu, 0x0Fu, 0x00u, 0x0Fu, 0x00u, 0x00u, 0x00u};
 337:Generated_Source\PSoC5/cyfitter_cfg.c **** 
 338:Generated_Source\PSoC5/cyfitter_cfg.c **** 	/* IOPINS0_8 Address: CYREG_PRT15_DR Size (bytes): 10 */
 339:Generated_Source\PSoC5/cyfitter_cfg.c **** 	static const uint8 CYCODE BS_IOPINS0_8_VAL[] = {
 340:Generated_Source\PSoC5/cyfitter_cfg.c **** 		0x40u, 0x00u, 0x00u, 0x00u, 0x00u, 0x00u, 0x00u, 0x00u, 0xC0u, 0x00u};
 341:Generated_Source\PSoC5/cyfitter_cfg.c **** 
 342:Generated_Source\PSoC5/cyfitter_cfg.c **** 	/* IOPINS0_1 Address: CYREG_PRT1_DM0 Size (bytes): 8 */
 343:Generated_Source\PSoC5/cyfitter_cfg.c **** 	static const uint8 CYCODE BS_IOPINS0_1_VAL[] = {
 344:Generated_Source\PSoC5/cyfitter_cfg.c **** 		0x00u, 0x0Bu, 0x0Bu, 0x00u, 0x00u, 0x00u, 0x00u, 0x00u};
 345:Generated_Source\PSoC5/cyfitter_cfg.c **** 
 346:Generated_Source\PSoC5/cyfitter_cfg.c **** 	/* PHUB_CFGMEM1 Address: CYREG_PHUB_CFGMEM1_CFG0 Size (bytes): 4 */
 347:Generated_Source\PSoC5/cyfitter_cfg.c **** 	static const uint8 CYCODE BS_PHUB_CFGMEM1_VAL[] = {
 348:Generated_Source\PSoC5/cyfitter_cfg.c **** 		0x00u, 0x01u, 0x00u, 0x00u};
 349:Generated_Source\PSoC5/cyfitter_cfg.c **** 
 350:Generated_Source\PSoC5/cyfitter_cfg.c **** #ifdef CYGlobalIntDisable
 351:Generated_Source\PSoC5/cyfitter_cfg.c **** 	/* Disable interrupts by default. Let user enable if/when they want. */
 352:Generated_Source\PSoC5/cyfitter_cfg.c **** 	CYGlobalIntDisable
 575              		.loc 1 352 0
 576              	@ 352 "Generated_Source\PSoC5\cyfitter_cfg.c" 1
 577 0006 72B6     		CPSID   i
 578              	@ 0 "" 2
 353:Generated_Source\PSoC5/cyfitter_cfg.c **** #endif
 354:Generated_Source\PSoC5/cyfitter_cfg.c **** 
 355:Generated_Source\PSoC5/cyfitter_cfg.c **** 
 356:Generated_Source\PSoC5/cyfitter_cfg.c **** 	/* Set Flash Cycles based on max possible frequency in case a glitch occurs during ClockSetup(). *
 357:Generated_Source\PSoC5/cyfitter_cfg.c **** 	CY_SET_XTND_REG8((void CYFAR *)(CYREG_CACHE_CC_CTL), (((CYDEV_INSTRUCT_CACHE_ENABLED) != 0) ? 0x61
 579              		.loc 1 357 0
 580              		.thumb
 581 0008 424B     		ldr	r3, .L29
 582 000a 6122     		movs	r2, #97
 583 000c 1A70     		strb	r2, [r3]
 358:Generated_Source\PSoC5/cyfitter_cfg.c **** 	/* Setup clocks based on selections from Clock DWR */
 359:Generated_Source\PSoC5/cyfitter_cfg.c **** 	ClockSetup();
 584              		.loc 1 359 0
 585 000e FFF7FEFF 		bl	ClockSetup
 360:Generated_Source\PSoC5/cyfitter_cfg.c **** 	/* Set Flash Cycles based on newly configured 64.00MHz Bus Clock. */
 361:Generated_Source\PSoC5/cyfitter_cfg.c **** 	CY_SET_XTND_REG8((void CYFAR *)(CYREG_CACHE_CC_CTL), (((CYDEV_INSTRUCT_CACHE_ENABLED) != 0) ? 0x01
 586              		.loc 1 361 0
 587 0012 404B     		ldr	r3, .L29
 588 0014 0122     		movs	r2, #1
 589 0016 1A70     		strb	r2, [r3]
 362:Generated_Source\PSoC5/cyfitter_cfg.c **** 	/* Enable/Disable Debug functionality based on settings from System DWR */
 363:Generated_Source\PSoC5/cyfitter_cfg.c **** 	CY_SET_XTND_REG8((void CYFAR *)CYREG_MLOGIC_DEBUG, (CY_GET_XTND_REG8((void CYFAR *)CYREG_MLOGIC_DE
 590              		.loc 1 363 0
 591 0018 3F4A     		ldr	r2, .L29+4
 592 001a 3F4B     		ldr	r3, .L29+4
 593 001c 1B78     		ldrb	r3, [r3]
 594 001e DBB2     		uxtb	r3, r3
 595 0020 43F00403 		orr	r3, r3, #4
 596 0024 DBB2     		uxtb	r3, r3
 597 0026 1370     		strb	r3, [r2]
 598              	.LBB3:
 364:Generated_Source\PSoC5/cyfitter_cfg.c **** 
 365:Generated_Source\PSoC5/cyfitter_cfg.c **** 	{
ARM GAS  C:\Users\LUKASC~1\AppData\Local\Temp\ccB0wgbx.s 			page 18


 366:Generated_Source\PSoC5/cyfitter_cfg.c **** 		static const uint32 CYCODE cy_cfg_addr_table[] = {
 367:Generated_Source\PSoC5/cyfitter_cfg.c **** 			0x40004501u, /* Base address: 0x40004500 Count: 1 */
 368:Generated_Source\PSoC5/cyfitter_cfg.c **** 			0x40005203u, /* Base address: 0x40005200 Count: 3 */
 369:Generated_Source\PSoC5/cyfitter_cfg.c **** 			0x40006501u, /* Base address: 0x40006500 Count: 1 */
 370:Generated_Source\PSoC5/cyfitter_cfg.c **** 			0x40011503u, /* Base address: 0x40011500 Count: 3 */
 371:Generated_Source\PSoC5/cyfitter_cfg.c **** 			0x40011655u, /* Base address: 0x40011600 Count: 85 */
 372:Generated_Source\PSoC5/cyfitter_cfg.c **** 			0x40011737u, /* Base address: 0x40011700 Count: 55 */
 373:Generated_Source\PSoC5/cyfitter_cfg.c **** 			0x40011902u, /* Base address: 0x40011900 Count: 2 */
 374:Generated_Source\PSoC5/cyfitter_cfg.c **** 			0x40014009u, /* Base address: 0x40014000 Count: 9 */
 375:Generated_Source\PSoC5/cyfitter_cfg.c **** 			0x40014104u, /* Base address: 0x40014100 Count: 4 */
 376:Generated_Source\PSoC5/cyfitter_cfg.c **** 			0x40014207u, /* Base address: 0x40014200 Count: 7 */
 377:Generated_Source\PSoC5/cyfitter_cfg.c **** 			0x40014306u, /* Base address: 0x40014300 Count: 6 */
 378:Generated_Source\PSoC5/cyfitter_cfg.c **** 			0x40014704u, /* Base address: 0x40014700 Count: 4 */
 379:Generated_Source\PSoC5/cyfitter_cfg.c **** 			0x4001480Eu, /* Base address: 0x40014800 Count: 14 */
 380:Generated_Source\PSoC5/cyfitter_cfg.c **** 			0x40014906u, /* Base address: 0x40014900 Count: 6 */
 381:Generated_Source\PSoC5/cyfitter_cfg.c **** 			0x40014C02u, /* Base address: 0x40014C00 Count: 2 */
 382:Generated_Source\PSoC5/cyfitter_cfg.c **** 			0x40015002u, /* Base address: 0x40015000 Count: 2 */
 383:Generated_Source\PSoC5/cyfitter_cfg.c **** 			0x40015102u, /* Base address: 0x40015100 Count: 2 */
 384:Generated_Source\PSoC5/cyfitter_cfg.c **** 		};
 385:Generated_Source\PSoC5/cyfitter_cfg.c **** 
 386:Generated_Source\PSoC5/cyfitter_cfg.c **** 		static const cy_cfg_addrvalue_t CYCODE cy_cfg_data_table[] = {
 387:Generated_Source\PSoC5/cyfitter_cfg.c **** 			{0x7Eu, 0x02u},
 388:Generated_Source\PSoC5/cyfitter_cfg.c **** 			{0x60u, 0x0Cu},
 389:Generated_Source\PSoC5/cyfitter_cfg.c **** 			{0x61u, 0x05u},
 390:Generated_Source\PSoC5/cyfitter_cfg.c **** 			{0x7Cu, 0x40u},
 391:Generated_Source\PSoC5/cyfitter_cfg.c **** 			{0x87u, 0x7Fu},
 392:Generated_Source\PSoC5/cyfitter_cfg.c **** 			{0x8Bu, 0x80u},
 393:Generated_Source\PSoC5/cyfitter_cfg.c **** 			{0x9Bu, 0x80u},
 394:Generated_Source\PSoC5/cyfitter_cfg.c **** 			{0xE6u, 0x20u},
 395:Generated_Source\PSoC5/cyfitter_cfg.c **** 			{0x02u, 0x03u},
 396:Generated_Source\PSoC5/cyfitter_cfg.c **** 			{0x04u, 0x12u},
 397:Generated_Source\PSoC5/cyfitter_cfg.c **** 			{0x0Au, 0x12u},
 398:Generated_Source\PSoC5/cyfitter_cfg.c **** 			{0x0Cu, 0x12u},
 399:Generated_Source\PSoC5/cyfitter_cfg.c **** 			{0x12u, 0x08u},
 400:Generated_Source\PSoC5/cyfitter_cfg.c **** 			{0x16u, 0x01u},
 401:Generated_Source\PSoC5/cyfitter_cfg.c **** 			{0x1Au, 0x12u},
 402:Generated_Source\PSoC5/cyfitter_cfg.c **** 			{0x1Eu, 0x04u},
 403:Generated_Source\PSoC5/cyfitter_cfg.c **** 			{0x20u, 0x04u},
 404:Generated_Source\PSoC5/cyfitter_cfg.c **** 			{0x22u, 0x08u},
 405:Generated_Source\PSoC5/cyfitter_cfg.c **** 			{0x28u, 0x20u},
 406:Generated_Source\PSoC5/cyfitter_cfg.c **** 			{0x30u, 0x10u},
 407:Generated_Source\PSoC5/cyfitter_cfg.c **** 			{0x32u, 0x03u},
 408:Generated_Source\PSoC5/cyfitter_cfg.c **** 			{0x34u, 0x20u},
 409:Generated_Source\PSoC5/cyfitter_cfg.c **** 			{0x36u, 0x0Cu},
 410:Generated_Source\PSoC5/cyfitter_cfg.c **** 			{0x3Eu, 0x01u},
 411:Generated_Source\PSoC5/cyfitter_cfg.c **** 			{0x40u, 0x23u},
 412:Generated_Source\PSoC5/cyfitter_cfg.c **** 			{0x41u, 0x04u},
 413:Generated_Source\PSoC5/cyfitter_cfg.c **** 			{0x45u, 0x0Cu},
 414:Generated_Source\PSoC5/cyfitter_cfg.c **** 			{0x46u, 0xEBu},
 415:Generated_Source\PSoC5/cyfitter_cfg.c **** 			{0x48u, 0x0Du},
 416:Generated_Source\PSoC5/cyfitter_cfg.c **** 			{0x49u, 0xFFu},
 417:Generated_Source\PSoC5/cyfitter_cfg.c **** 			{0x4Au, 0xFFu},
 418:Generated_Source\PSoC5/cyfitter_cfg.c **** 			{0x4Bu, 0xFFu},
 419:Generated_Source\PSoC5/cyfitter_cfg.c **** 			{0x50u, 0x04u},
 420:Generated_Source\PSoC5/cyfitter_cfg.c **** 			{0x52u, 0x05u},
 421:Generated_Source\PSoC5/cyfitter_cfg.c **** 			{0x54u, 0x01u},
 422:Generated_Source\PSoC5/cyfitter_cfg.c **** 			{0x58u, 0x04u},
ARM GAS  C:\Users\LUKASC~1\AppData\Local\Temp\ccB0wgbx.s 			page 19


 423:Generated_Source\PSoC5/cyfitter_cfg.c **** 			{0x5Au, 0x04u},
 424:Generated_Source\PSoC5/cyfitter_cfg.c **** 			{0x5Bu, 0x04u},
 425:Generated_Source\PSoC5/cyfitter_cfg.c **** 			{0x5Fu, 0x01u},
 426:Generated_Source\PSoC5/cyfitter_cfg.c **** 			{0x62u, 0xC0u},
 427:Generated_Source\PSoC5/cyfitter_cfg.c **** 			{0x64u, 0x40u},
 428:Generated_Source\PSoC5/cyfitter_cfg.c **** 			{0x65u, 0x01u},
 429:Generated_Source\PSoC5/cyfitter_cfg.c **** 			{0x66u, 0x80u},
 430:Generated_Source\PSoC5/cyfitter_cfg.c **** 			{0x68u, 0x30u},
 431:Generated_Source\PSoC5/cyfitter_cfg.c **** 			{0x6Au, 0x40u},
 432:Generated_Source\PSoC5/cyfitter_cfg.c **** 			{0x6Bu, 0x10u},
 433:Generated_Source\PSoC5/cyfitter_cfg.c **** 			{0x6Cu, 0x10u},
 434:Generated_Source\PSoC5/cyfitter_cfg.c **** 			{0x6Eu, 0x40u},
 435:Generated_Source\PSoC5/cyfitter_cfg.c **** 			{0x6Fu, 0xA8u},
 436:Generated_Source\PSoC5/cyfitter_cfg.c **** 			{0x80u, 0x80u},
 437:Generated_Source\PSoC5/cyfitter_cfg.c **** 			{0x81u, 0x01u},
 438:Generated_Source\PSoC5/cyfitter_cfg.c **** 			{0x82u, 0x08u},
 439:Generated_Source\PSoC5/cyfitter_cfg.c **** 			{0x83u, 0x20u},
 440:Generated_Source\PSoC5/cyfitter_cfg.c **** 			{0x84u, 0x80u},
 441:Generated_Source\PSoC5/cyfitter_cfg.c **** 			{0x85u, 0x02u},
 442:Generated_Source\PSoC5/cyfitter_cfg.c **** 			{0x86u, 0x10u},
 443:Generated_Source\PSoC5/cyfitter_cfg.c **** 			{0x87u, 0x20u},
 444:Generated_Source\PSoC5/cyfitter_cfg.c **** 			{0x88u, 0xFFu},
 445:Generated_Source\PSoC5/cyfitter_cfg.c **** 			{0x89u, 0x04u},
 446:Generated_Source\PSoC5/cyfitter_cfg.c **** 			{0x8Bu, 0x20u},
 447:Generated_Source\PSoC5/cyfitter_cfg.c **** 			{0x8Eu, 0x7Fu},
 448:Generated_Source\PSoC5/cyfitter_cfg.c **** 			{0x92u, 0x80u},
 449:Generated_Source\PSoC5/cyfitter_cfg.c **** 			{0x94u, 0x80u},
 450:Generated_Source\PSoC5/cyfitter_cfg.c **** 			{0x95u, 0x27u},
 451:Generated_Source\PSoC5/cyfitter_cfg.c **** 			{0x96u, 0x01u},
 452:Generated_Source\PSoC5/cyfitter_cfg.c **** 			{0x97u, 0x40u},
 453:Generated_Source\PSoC5/cyfitter_cfg.c **** 			{0x99u, 0x10u},
 454:Generated_Source\PSoC5/cyfitter_cfg.c **** 			{0x9Au, 0x7Fu},
 455:Generated_Source\PSoC5/cyfitter_cfg.c **** 			{0x9Du, 0x27u},
 456:Generated_Source\PSoC5/cyfitter_cfg.c **** 			{0x9Fu, 0x40u},
 457:Generated_Source\PSoC5/cyfitter_cfg.c **** 			{0xA0u, 0x80u},
 458:Generated_Source\PSoC5/cyfitter_cfg.c **** 			{0xA1u, 0x08u},
 459:Generated_Source\PSoC5/cyfitter_cfg.c **** 			{0xA2u, 0x04u},
 460:Generated_Source\PSoC5/cyfitter_cfg.c **** 			{0xA4u, 0x80u},
 461:Generated_Source\PSoC5/cyfitter_cfg.c **** 			{0xA5u, 0x27u},
 462:Generated_Source\PSoC5/cyfitter_cfg.c **** 			{0xA6u, 0x02u},
 463:Generated_Source\PSoC5/cyfitter_cfg.c **** 			{0xA7u, 0x40u},
 464:Generated_Source\PSoC5/cyfitter_cfg.c **** 			{0xA8u, 0x80u},
 465:Generated_Source\PSoC5/cyfitter_cfg.c **** 			{0xA9u, 0x10u},
 466:Generated_Source\PSoC5/cyfitter_cfg.c **** 			{0xAAu, 0x20u},
 467:Generated_Source\PSoC5/cyfitter_cfg.c **** 			{0xACu, 0x80u},
 468:Generated_Source\PSoC5/cyfitter_cfg.c **** 			{0xAEu, 0x40u},
 469:Generated_Source\PSoC5/cyfitter_cfg.c **** 			{0xB0u, 0xFFu},
 470:Generated_Source\PSoC5/cyfitter_cfg.c **** 			{0xB1u, 0x10u},
 471:Generated_Source\PSoC5/cyfitter_cfg.c **** 			{0xB3u, 0x0Fu},
 472:Generated_Source\PSoC5/cyfitter_cfg.c **** 			{0xB5u, 0x68u},
 473:Generated_Source\PSoC5/cyfitter_cfg.c **** 			{0xB7u, 0x08u},
 474:Generated_Source\PSoC5/cyfitter_cfg.c **** 			{0xD6u, 0x02u},
 475:Generated_Source\PSoC5/cyfitter_cfg.c **** 			{0xD7u, 0x24u},
 476:Generated_Source\PSoC5/cyfitter_cfg.c **** 			{0xD8u, 0x04u},
 477:Generated_Source\PSoC5/cyfitter_cfg.c **** 			{0xD9u, 0x04u},
 478:Generated_Source\PSoC5/cyfitter_cfg.c **** 			{0xDBu, 0x04u},
 479:Generated_Source\PSoC5/cyfitter_cfg.c **** 			{0xDFu, 0x01u},
ARM GAS  C:\Users\LUKASC~1\AppData\Local\Temp\ccB0wgbx.s 			page 20


 480:Generated_Source\PSoC5/cyfitter_cfg.c **** 			{0x00u, 0x50u},
 481:Generated_Source\PSoC5/cyfitter_cfg.c **** 			{0x01u, 0x05u},
 482:Generated_Source\PSoC5/cyfitter_cfg.c **** 			{0x04u, 0x02u},
 483:Generated_Source\PSoC5/cyfitter_cfg.c **** 			{0x06u, 0x04u},
 484:Generated_Source\PSoC5/cyfitter_cfg.c **** 			{0x07u, 0x2Au},
 485:Generated_Source\PSoC5/cyfitter_cfg.c **** 			{0x0Au, 0x54u},
 486:Generated_Source\PSoC5/cyfitter_cfg.c **** 			{0x0Eu, 0x22u},
 487:Generated_Source\PSoC5/cyfitter_cfg.c **** 			{0x0Fu, 0x88u},
 488:Generated_Source\PSoC5/cyfitter_cfg.c **** 			{0x11u, 0x50u},
 489:Generated_Source\PSoC5/cyfitter_cfg.c **** 			{0x13u, 0x05u},
 490:Generated_Source\PSoC5/cyfitter_cfg.c **** 			{0x17u, 0x11u},
 491:Generated_Source\PSoC5/cyfitter_cfg.c **** 			{0x18u, 0x40u},
 492:Generated_Source\PSoC5/cyfitter_cfg.c **** 			{0x19u, 0x01u},
 493:Generated_Source\PSoC5/cyfitter_cfg.c **** 			{0x1Cu, 0x10u},
 494:Generated_Source\PSoC5/cyfitter_cfg.c **** 			{0x1Du, 0x10u},
 495:Generated_Source\PSoC5/cyfitter_cfg.c **** 			{0x1Eu, 0xA2u},
 496:Generated_Source\PSoC5/cyfitter_cfg.c **** 			{0x21u, 0x08u},
 497:Generated_Source\PSoC5/cyfitter_cfg.c **** 			{0x22u, 0x40u},
 498:Generated_Source\PSoC5/cyfitter_cfg.c **** 			{0x23u, 0xAAu},
 499:Generated_Source\PSoC5/cyfitter_cfg.c **** 			{0x29u, 0x01u},
 500:Generated_Source\PSoC5/cyfitter_cfg.c **** 			{0x2Au, 0x24u},
 501:Generated_Source\PSoC5/cyfitter_cfg.c **** 			{0x31u, 0x18u},
 502:Generated_Source\PSoC5/cyfitter_cfg.c **** 			{0x32u, 0x40u},
 503:Generated_Source\PSoC5/cyfitter_cfg.c **** 			{0x39u, 0x15u},
 504:Generated_Source\PSoC5/cyfitter_cfg.c **** 			{0x47u, 0x2Au},
 505:Generated_Source\PSoC5/cyfitter_cfg.c **** 			{0x4Fu, 0x08u},
 506:Generated_Source\PSoC5/cyfitter_cfg.c **** 			{0x57u, 0x70u},
 507:Generated_Source\PSoC5/cyfitter_cfg.c **** 			{0x58u, 0x08u},
 508:Generated_Source\PSoC5/cyfitter_cfg.c **** 			{0x5Au, 0x04u},
 509:Generated_Source\PSoC5/cyfitter_cfg.c **** 			{0x5Eu, 0x80u},
 510:Generated_Source\PSoC5/cyfitter_cfg.c **** 			{0x5Fu, 0x10u},
 511:Generated_Source\PSoC5/cyfitter_cfg.c **** 			{0x60u, 0x08u},
 512:Generated_Source\PSoC5/cyfitter_cfg.c **** 			{0x63u, 0x30u},
 513:Generated_Source\PSoC5/cyfitter_cfg.c **** 			{0x69u, 0x55u},
 514:Generated_Source\PSoC5/cyfitter_cfg.c **** 			{0x6Bu, 0x01u},
 515:Generated_Source\PSoC5/cyfitter_cfg.c **** 			{0x6Cu, 0x01u},
 516:Generated_Source\PSoC5/cyfitter_cfg.c **** 			{0x6Eu, 0x44u},
 517:Generated_Source\PSoC5/cyfitter_cfg.c **** 			{0x6Fu, 0x10u},
 518:Generated_Source\PSoC5/cyfitter_cfg.c **** 			{0x72u, 0x30u},
 519:Generated_Source\PSoC5/cyfitter_cfg.c **** 			{0x73u, 0x05u},
 520:Generated_Source\PSoC5/cyfitter_cfg.c **** 			{0x82u, 0x01u},
 521:Generated_Source\PSoC5/cyfitter_cfg.c **** 			{0x83u, 0x20u},
 522:Generated_Source\PSoC5/cyfitter_cfg.c **** 			{0x9Fu, 0x01u},
 523:Generated_Source\PSoC5/cyfitter_cfg.c **** 			{0xB3u, 0x01u},
 524:Generated_Source\PSoC5/cyfitter_cfg.c **** 			{0xC0u, 0xFFu},
 525:Generated_Source\PSoC5/cyfitter_cfg.c **** 			{0xC2u, 0xFEu},
 526:Generated_Source\PSoC5/cyfitter_cfg.c **** 			{0xC4u, 0x5Fu},
 527:Generated_Source\PSoC5/cyfitter_cfg.c **** 			{0xCAu, 0x07u},
 528:Generated_Source\PSoC5/cyfitter_cfg.c **** 			{0xCCu, 0x0Eu},
 529:Generated_Source\PSoC5/cyfitter_cfg.c **** 			{0xCEu, 0x07u},
 530:Generated_Source\PSoC5/cyfitter_cfg.c **** 			{0xD0u, 0xE0u},
 531:Generated_Source\PSoC5/cyfitter_cfg.c **** 			{0xD6u, 0x30u},
 532:Generated_Source\PSoC5/cyfitter_cfg.c **** 			{0xD8u, 0x04u},
 533:Generated_Source\PSoC5/cyfitter_cfg.c **** 			{0xEAu, 0x02u},
 534:Generated_Source\PSoC5/cyfitter_cfg.c **** 			{0xEEu, 0x22u},
 535:Generated_Source\PSoC5/cyfitter_cfg.c **** 			{0xEAu, 0x02u},
 536:Generated_Source\PSoC5/cyfitter_cfg.c **** 			{0xEEu, 0x02u},
ARM GAS  C:\Users\LUKASC~1\AppData\Local\Temp\ccB0wgbx.s 			page 21


 537:Generated_Source\PSoC5/cyfitter_cfg.c **** 			{0x14u, 0x40u},
 538:Generated_Source\PSoC5/cyfitter_cfg.c **** 			{0x30u, 0x40u},
 539:Generated_Source\PSoC5/cyfitter_cfg.c **** 			{0x33u, 0x01u},
 540:Generated_Source\PSoC5/cyfitter_cfg.c **** 			{0x36u, 0x40u},
 541:Generated_Source\PSoC5/cyfitter_cfg.c **** 			{0x39u, 0x08u},
 542:Generated_Source\PSoC5/cyfitter_cfg.c **** 			{0x3Fu, 0x08u},
 543:Generated_Source\PSoC5/cyfitter_cfg.c **** 			{0xC4u, 0x20u},
 544:Generated_Source\PSoC5/cyfitter_cfg.c **** 			{0xCCu, 0x70u},
 545:Generated_Source\PSoC5/cyfitter_cfg.c **** 			{0xCEu, 0xC0u},
 546:Generated_Source\PSoC5/cyfitter_cfg.c **** 			{0x95u, 0x08u},
 547:Generated_Source\PSoC5/cyfitter_cfg.c **** 			{0x9Fu, 0x01u},
 548:Generated_Source\PSoC5/cyfitter_cfg.c **** 			{0xA6u, 0x40u},
 549:Generated_Source\PSoC5/cyfitter_cfg.c **** 			{0xA7u, 0x04u},
 550:Generated_Source\PSoC5/cyfitter_cfg.c **** 			{0x51u, 0x08u},
 551:Generated_Source\PSoC5/cyfitter_cfg.c **** 			{0x56u, 0x08u},
 552:Generated_Source\PSoC5/cyfitter_cfg.c **** 			{0x95u, 0x08u},
 553:Generated_Source\PSoC5/cyfitter_cfg.c **** 			{0x9Fu, 0x01u},
 554:Generated_Source\PSoC5/cyfitter_cfg.c **** 			{0xA6u, 0x40u},
 555:Generated_Source\PSoC5/cyfitter_cfg.c **** 			{0xA7u, 0x04u},
 556:Generated_Source\PSoC5/cyfitter_cfg.c **** 			{0xD4u, 0x60u},
 557:Generated_Source\PSoC5/cyfitter_cfg.c **** 			{0x95u, 0x08u},
 558:Generated_Source\PSoC5/cyfitter_cfg.c **** 			{0x9Eu, 0x08u},
 559:Generated_Source\PSoC5/cyfitter_cfg.c **** 			{0x9Fu, 0x01u},
 560:Generated_Source\PSoC5/cyfitter_cfg.c **** 			{0xA5u, 0x08u},
 561:Generated_Source\PSoC5/cyfitter_cfg.c **** 			{0xA6u, 0x40u},
 562:Generated_Source\PSoC5/cyfitter_cfg.c **** 			{0xA7u, 0x04u},
 563:Generated_Source\PSoC5/cyfitter_cfg.c **** 			{0x0Bu, 0x40u},
 564:Generated_Source\PSoC5/cyfitter_cfg.c **** 			{0x16u, 0x10u},
 565:Generated_Source\PSoC5/cyfitter_cfg.c **** 			{0xC2u, 0x08u},
 566:Generated_Source\PSoC5/cyfitter_cfg.c **** 			{0xC4u, 0x04u},
 567:Generated_Source\PSoC5/cyfitter_cfg.c **** 			{0x21u, 0x04u},
 568:Generated_Source\PSoC5/cyfitter_cfg.c **** 			{0x25u, 0x40u},
 569:Generated_Source\PSoC5/cyfitter_cfg.c **** 			{0x82u, 0x08u},
 570:Generated_Source\PSoC5/cyfitter_cfg.c **** 			{0x83u, 0x04u},
 571:Generated_Source\PSoC5/cyfitter_cfg.c **** 			{0x95u, 0x08u},
 572:Generated_Source\PSoC5/cyfitter_cfg.c **** 			{0x9Eu, 0x08u},
 573:Generated_Source\PSoC5/cyfitter_cfg.c **** 			{0xA7u, 0x04u},
 574:Generated_Source\PSoC5/cyfitter_cfg.c **** 			{0xAEu, 0x40u},
 575:Generated_Source\PSoC5/cyfitter_cfg.c **** 			{0xAFu, 0x01u},
 576:Generated_Source\PSoC5/cyfitter_cfg.c **** 			{0xB1u, 0x08u},
 577:Generated_Source\PSoC5/cyfitter_cfg.c **** 			{0xC8u, 0x60u},
 578:Generated_Source\PSoC5/cyfitter_cfg.c **** 			{0xE6u, 0xA0u},
 579:Generated_Source\PSoC5/cyfitter_cfg.c **** 			{0xEAu, 0x40u},
 580:Generated_Source\PSoC5/cyfitter_cfg.c **** 			{0xEEu, 0x40u},
 581:Generated_Source\PSoC5/cyfitter_cfg.c **** 			{0x70u, 0x08u},
 582:Generated_Source\PSoC5/cyfitter_cfg.c **** 			{0x7Du, 0x80u},
 583:Generated_Source\PSoC5/cyfitter_cfg.c **** 			{0x88u, 0x08u},
 584:Generated_Source\PSoC5/cyfitter_cfg.c **** 			{0xA1u, 0x40u},
 585:Generated_Source\PSoC5/cyfitter_cfg.c **** 			{0xDCu, 0x80u},
 586:Generated_Source\PSoC5/cyfitter_cfg.c **** 			{0xDEu, 0x20u},
 587:Generated_Source\PSoC5/cyfitter_cfg.c **** 			{0xAEu, 0x10u},
 588:Generated_Source\PSoC5/cyfitter_cfg.c **** 			{0xAFu, 0x40u},
 589:Generated_Source\PSoC5/cyfitter_cfg.c **** 			{0x10u, 0x01u},
 590:Generated_Source\PSoC5/cyfitter_cfg.c **** 			{0x1Au, 0x01u},
 591:Generated_Source\PSoC5/cyfitter_cfg.c **** 			{0x00u, 0x2Bu},
 592:Generated_Source\PSoC5/cyfitter_cfg.c **** 			{0x10u, 0x18u},
 593:Generated_Source\PSoC5/cyfitter_cfg.c **** 		};
ARM GAS  C:\Users\LUKASC~1\AppData\Local\Temp\ccB0wgbx.s 			page 22


 594:Generated_Source\PSoC5/cyfitter_cfg.c **** 
 595:Generated_Source\PSoC5/cyfitter_cfg.c **** 
 596:Generated_Source\PSoC5/cyfitter_cfg.c **** 
 597:Generated_Source\PSoC5/cyfitter_cfg.c **** 		CYPACKED typedef struct {
 598:Generated_Source\PSoC5/cyfitter_cfg.c **** 			void CYFAR *address;
 599:Generated_Source\PSoC5/cyfitter_cfg.c **** 			uint16 size;
 600:Generated_Source\PSoC5/cyfitter_cfg.c **** 		} CYPACKED_ATTR cfg_memset_t;
 601:Generated_Source\PSoC5/cyfitter_cfg.c **** 
 602:Generated_Source\PSoC5/cyfitter_cfg.c **** 		static const cfg_memset_t CYCODE cfg_memset_list [] = {
 603:Generated_Source\PSoC5/cyfitter_cfg.c **** 			/* address, size */
 604:Generated_Source\PSoC5/cyfitter_cfg.c **** 			{(void CYFAR *)(CYREG_PRT2_DR), 80u},
 605:Generated_Source\PSoC5/cyfitter_cfg.c **** 			{(void CYFAR *)(CYDEV_UCFG_B0_P0_U0_BASE), 4096u},
 606:Generated_Source\PSoC5/cyfitter_cfg.c **** 			{(void CYFAR *)(CYDEV_UCFG_B1_P2_U0_BASE), 2048u},
 607:Generated_Source\PSoC5/cyfitter_cfg.c **** 			{(void CYFAR *)(CYDEV_UCFG_DSI0_BASE), 2560u},
 608:Generated_Source\PSoC5/cyfitter_cfg.c **** 			{(void CYFAR *)(CYDEV_UCFG_DSI12_BASE), 512u},
 609:Generated_Source\PSoC5/cyfitter_cfg.c **** 			{(void CYFAR *)(CYREG_BCTL0_MDCLK_EN), 32u},
 610:Generated_Source\PSoC5/cyfitter_cfg.c **** 		};
 611:Generated_Source\PSoC5/cyfitter_cfg.c **** 
 612:Generated_Source\PSoC5/cyfitter_cfg.c **** 		uint8 CYDATA i;
 613:Generated_Source\PSoC5/cyfitter_cfg.c **** 
 614:Generated_Source\PSoC5/cyfitter_cfg.c **** 		/* Zero out critical memory blocks before beginning configuration */
 615:Generated_Source\PSoC5/cyfitter_cfg.c **** 		for (i = 0u; i < (sizeof(cfg_memset_list)/sizeof(cfg_memset_list[0])); i++)
 599              		.loc 1 615 0
 600 0028 0023     		movs	r3, #0
 601 002a FB71     		strb	r3, [r7, #7]
 602 002c 13E0     		b	.L27
 603              	.L28:
 604              	.LBB4:
 616:Generated_Source\PSoC5/cyfitter_cfg.c **** 		{
 617:Generated_Source\PSoC5/cyfitter_cfg.c **** 			const cfg_memset_t CYCODE * CYDATA ms = &cfg_memset_list[i];
 605              		.loc 1 617 0 discriminator 3
 606 002e FA79     		ldrb	r2, [r7, #7]	@ zero_extendqisi2
 607 0030 1346     		mov	r3, r2
 608 0032 5B00     		lsls	r3, r3, #1
 609 0034 1344     		add	r3, r3, r2
 610 0036 5B00     		lsls	r3, r3, #1
 611 0038 384A     		ldr	r2, .L29+8
 612 003a 1344     		add	r3, r3, r2
 613 003c 3B60     		str	r3, [r7]
 618:Generated_Source\PSoC5/cyfitter_cfg.c **** 			CYMEMZERO(ms->address, (size_t)(uint32)(ms->size));
 614              		.loc 1 618 0 discriminator 3
 615 003e 3B68     		ldr	r3, [r7]
 616 0040 1A68     		ldr	r2, [r3]	@ unaligned
 617 0042 3B68     		ldr	r3, [r7]
 618 0044 9B88     		ldrh	r3, [r3, #4]	@ unaligned
 619 0046 9BB2     		uxth	r3, r3
 620 0048 1046     		mov	r0, r2
 621 004a 1946     		mov	r1, r3
 622 004c FFF7FEFF 		bl	CYMEMZERO
 623              	.LBE4:
 615:Generated_Source\PSoC5/cyfitter_cfg.c **** 		{
 624              		.loc 1 615 0 discriminator 3
 625 0050 FB79     		ldrb	r3, [r7, #7]	@ zero_extendqisi2
 626 0052 0133     		adds	r3, r3, #1
 627 0054 FB71     		strb	r3, [r7, #7]
 628              	.L27:
 615:Generated_Source\PSoC5/cyfitter_cfg.c **** 		{
ARM GAS  C:\Users\LUKASC~1\AppData\Local\Temp\ccB0wgbx.s 			page 23


 629              		.loc 1 615 0 is_stmt 0 discriminator 1
 630 0056 FB79     		ldrb	r3, [r7, #7]	@ zero_extendqisi2
 631 0058 052B     		cmp	r3, #5
 632 005a E8D9     		bls	.L28
 619:Generated_Source\PSoC5/cyfitter_cfg.c **** 		}
 620:Generated_Source\PSoC5/cyfitter_cfg.c **** 
 621:Generated_Source\PSoC5/cyfitter_cfg.c **** 		cfg_write_bytes32(cy_cfg_addr_table, cy_cfg_data_table);
 633              		.loc 1 621 0 is_stmt 1
 634 005c 3048     		ldr	r0, .L29+12
 635 005e 3149     		ldr	r1, .L29+16
 636 0060 FFF7FEFF 		bl	cfg_write_bytes32
 622:Generated_Source\PSoC5/cyfitter_cfg.c **** 
 623:Generated_Source\PSoC5/cyfitter_cfg.c **** 		/* Perform normal device configuration. Order is not critical for these items. */
 624:Generated_Source\PSoC5/cyfitter_cfg.c **** 		CYMEMZERO((void CYFAR *)(CYREG_PHUB_CFGMEM0_CFG0), 4u);
 637              		.loc 1 624 0
 638 0064 3048     		ldr	r0, .L29+20
 639 0066 0421     		movs	r1, #4
 640 0068 FFF7FEFF 		bl	CYMEMZERO
 625:Generated_Source\PSoC5/cyfitter_cfg.c **** 		CYCONFIGCPYCODE((void CYFAR *)(CYREG_PHUB_CFGMEM1_CFG0), (const void CYCODE *)(BS_PHUB_CFGMEM1_VA
 641              		.loc 1 625 0
 642 006c 2F48     		ldr	r0, .L29+24
 643 006e 3049     		ldr	r1, .L29+28
 644 0070 0422     		movs	r2, #4
 645 0072 FFF7FEFF 		bl	CYCONFIGCPYCODE
 626:Generated_Source\PSoC5/cyfitter_cfg.c **** 		CYMEMZERO((void CYFAR *)(CYREG_PHUB_CFGMEM2_CFG0), 4u);
 646              		.loc 1 626 0
 647 0076 2F48     		ldr	r0, .L29+32
 648 0078 0421     		movs	r1, #4
 649 007a FFF7FEFF 		bl	CYMEMZERO
 627:Generated_Source\PSoC5/cyfitter_cfg.c **** 		CYMEMZERO((void CYFAR *)(CYREG_PHUB_CFGMEM5_CFG0), 4u);
 650              		.loc 1 627 0
 651 007e 2E48     		ldr	r0, .L29+36
 652 0080 0421     		movs	r1, #4
 653 0082 FFF7FEFF 		bl	CYMEMZERO
 628:Generated_Source\PSoC5/cyfitter_cfg.c **** 
 629:Generated_Source\PSoC5/cyfitter_cfg.c **** 		/* Enable digital routing */
 630:Generated_Source\PSoC5/cyfitter_cfg.c **** 		CY_SET_XTND_REG8((void CYFAR *)CYREG_BCTL0_BANK_CTL, CY_GET_XTND_REG8((void CYFAR *)CYREG_BCTL0_B
 654              		.loc 1 630 0
 655 0086 2D4A     		ldr	r2, .L29+40
 656 0088 2C4B     		ldr	r3, .L29+40
 657 008a 1B78     		ldrb	r3, [r3]
 658 008c DBB2     		uxtb	r3, r3
 659 008e 43F00203 		orr	r3, r3, #2
 660 0092 DBB2     		uxtb	r3, r3
 661 0094 1370     		strb	r3, [r2]
 631:Generated_Source\PSoC5/cyfitter_cfg.c **** 		CY_SET_XTND_REG8((void CYFAR *)CYREG_BCTL1_BANK_CTL, CY_GET_XTND_REG8((void CYFAR *)CYREG_BCTL1_B
 662              		.loc 1 631 0
 663 0096 2A4A     		ldr	r2, .L29+44
 664 0098 294B     		ldr	r3, .L29+44
 665 009a 1B78     		ldrb	r3, [r3]
 666 009c DBB2     		uxtb	r3, r3
 667 009e 43F00203 		orr	r3, r3, #2
 668 00a2 DBB2     		uxtb	r3, r3
 669 00a4 1370     		strb	r3, [r2]
 632:Generated_Source\PSoC5/cyfitter_cfg.c **** 
 633:Generated_Source\PSoC5/cyfitter_cfg.c **** 		/* Enable UDB array */
 634:Generated_Source\PSoC5/cyfitter_cfg.c **** 		CY_SET_XTND_REG8((void CYFAR *)CYREG_PM_ACT_CFG0, CY_GET_XTND_REG8((void CYFAR *)CYREG_PM_ACT_CFG
ARM GAS  C:\Users\LUKASC~1\AppData\Local\Temp\ccB0wgbx.s 			page 24


 670              		.loc 1 634 0
 671 00a6 274A     		ldr	r2, .L29+48
 672 00a8 264B     		ldr	r3, .L29+48
 673 00aa 1B78     		ldrb	r3, [r3]
 674 00ac DBB2     		uxtb	r3, r3
 675 00ae 43F04003 		orr	r3, r3, #64
 676 00b2 DBB2     		uxtb	r3, r3
 677 00b4 1370     		strb	r3, [r2]
 635:Generated_Source\PSoC5/cyfitter_cfg.c **** 		CY_SET_XTND_REG8((void CYFAR *)CYREG_PM_AVAIL_CR2, CY_GET_XTND_REG8((void CYFAR *)CYREG_PM_AVAIL_
 678              		.loc 1 635 0
 679 00b6 244A     		ldr	r2, .L29+52
 680 00b8 234B     		ldr	r3, .L29+52
 681 00ba 1B78     		ldrb	r3, [r3]
 682 00bc DBB2     		uxtb	r3, r3
 683 00be 43F01003 		orr	r3, r3, #16
 684 00c2 DBB2     		uxtb	r3, r3
 685 00c4 1370     		strb	r3, [r2]
 686              	.LBE3:
 636:Generated_Source\PSoC5/cyfitter_cfg.c **** 	}
 637:Generated_Source\PSoC5/cyfitter_cfg.c **** 
 638:Generated_Source\PSoC5/cyfitter_cfg.c **** 
 639:Generated_Source\PSoC5/cyfitter_cfg.c **** 	/* Perform second pass device configuration. These items must be configured in specific order afte
 640:Generated_Source\PSoC5/cyfitter_cfg.c **** 	CYCONFIGCPYCODE((void CYFAR *)(CYREG_PRT0_DM0), (const void CYCODE *)(BS_IOPINS0_0_VAL), 8u);
 687              		.loc 1 640 0
 688 00c6 2148     		ldr	r0, .L29+56
 689 00c8 2149     		ldr	r1, .L29+60
 690 00ca 0822     		movs	r2, #8
 691 00cc FFF7FEFF 		bl	CYCONFIGCPYCODE
 641:Generated_Source\PSoC5/cyfitter_cfg.c **** 	CYCONFIGCPYCODE((void CYFAR *)(CYREG_PRT12_DM0), (const void CYCODE *)(BS_IOPINS0_7_VAL), 8u);
 692              		.loc 1 641 0
 693 00d0 2048     		ldr	r0, .L29+64
 694 00d2 2149     		ldr	r1, .L29+68
 695 00d4 0822     		movs	r2, #8
 696 00d6 FFF7FEFF 		bl	CYCONFIGCPYCODE
 642:Generated_Source\PSoC5/cyfitter_cfg.c **** 	CYCONFIGCPYCODE((void CYFAR *)(CYREG_PRT15_DR), (const void CYCODE *)(BS_IOPINS0_8_VAL), 10u);
 697              		.loc 1 642 0
 698 00da 2048     		ldr	r0, .L29+72
 699 00dc 2049     		ldr	r1, .L29+76
 700 00de 0A22     		movs	r2, #10
 701 00e0 FFF7FEFF 		bl	CYCONFIGCPYCODE
 643:Generated_Source\PSoC5/cyfitter_cfg.c **** 	CYCONFIGCPYCODE((void CYFAR *)(CYREG_PRT1_DM0), (const void CYCODE *)(BS_IOPINS0_1_VAL), 8u);
 702              		.loc 1 643 0
 703 00e4 1F48     		ldr	r0, .L29+80
 704 00e6 2049     		ldr	r1, .L29+84
 705 00e8 0822     		movs	r2, #8
 706 00ea FFF7FEFF 		bl	CYCONFIGCPYCODE
 644:Generated_Source\PSoC5/cyfitter_cfg.c **** 	/* Switch Boost to the precision bandgap reference from its internal reference */
 645:Generated_Source\PSoC5/cyfitter_cfg.c **** 	CY_SET_REG8((void CYXDATA *)CYREG_BOOST_CR2, (CY_GET_REG8((void CYXDATA *)CYREG_BOOST_CR2) | 0x08u
 707              		.loc 1 645 0
 708 00ee 1F4A     		ldr	r2, .L29+88
 709 00f0 1E4B     		ldr	r3, .L29+88
 710 00f2 1B78     		ldrb	r3, [r3]
 711 00f4 DBB2     		uxtb	r3, r3
 712 00f6 43F00803 		orr	r3, r3, #8
 713 00fa DBB2     		uxtb	r3, r3
 714 00fc 1370     		strb	r3, [r2]
 646:Generated_Source\PSoC5/cyfitter_cfg.c **** 
ARM GAS  C:\Users\LUKASC~1\AppData\Local\Temp\ccB0wgbx.s 			page 25


 647:Generated_Source\PSoC5/cyfitter_cfg.c **** 	/* Perform basic analog initialization to defaults */
 648:Generated_Source\PSoC5/cyfitter_cfg.c **** 	AnalogSetDefault();
 715              		.loc 1 648 0
 716 00fe FFF7FEFF 		bl	AnalogSetDefault
 649:Generated_Source\PSoC5/cyfitter_cfg.c **** 
 650:Generated_Source\PSoC5/cyfitter_cfg.c **** 	/* Configure alternate active mode */
 651:Generated_Source\PSoC5/cyfitter_cfg.c **** 	CYCONFIGCPY((void CYFAR *)CYDEV_PM_STBY_BASE, (const void CYFAR *)CYDEV_PM_ACT_BASE, 14u);
 717              		.loc 1 651 0
 718 0102 1B48     		ldr	r0, .L29+92
 719 0104 0F49     		ldr	r1, .L29+48
 720 0106 0E22     		movs	r2, #14
 721 0108 FFF7FEFF 		bl	CYCONFIGCPY
 652:Generated_Source\PSoC5/cyfitter_cfg.c **** }
 722              		.loc 1 652 0
 723 010c 0837     		adds	r7, r7, #8
 724              		.cfi_def_cfa_offset 8
 725 010e BD46     		mov	sp, r7
 726              		.cfi_def_cfa_register 13
 727              		@ sp needed
 728 0110 80BD     		pop	{r7, pc}
 729              	.L30:
 730 0112 00BF     		.align	2
 731              	.L29:
 732 0114 00480040 		.word	1073760256
 733 0118 E8460040 		.word	1073759976
 734 011c 00000000 		.word	cfg_memset_list.4891
 735 0120 24000000 		.word	cy_cfg_addr_table.4885
 736 0124 68000000 		.word	cy_cfg_data_table.4886
 737 0128 00760040 		.word	1073772032
 738 012c 08760040 		.word	1073772040
 739 0130 04020000 		.word	BS_PHUB_CFGMEM1_VAL.4884
 740 0134 10760040 		.word	1073772048
 741 0138 28760040 		.word	1073772072
 742 013c 03500140 		.word	1073827843
 743 0140 13500140 		.word	1073827859
 744 0144 A0430040 		.word	1073759136
 745 0148 C2430040 		.word	1073759170
 746 014c 02510040 		.word	1073762562
 747 0150 08020000 		.word	BS_IOPINS0_0_VAL.4880
 748 0154 C2510040 		.word	1073762754
 749 0158 10020000 		.word	BS_IOPINS0_7_VAL.4881
 750 015c F0510040 		.word	1073762800
 751 0160 18020000 		.word	BS_IOPINS0_8_VAL.4882
 752 0164 12510040 		.word	1073762578
 753 0168 24020000 		.word	BS_IOPINS0_1_VAL.4883
 754 016c 22430040 		.word	1073759010
 755 0170 B0430040 		.word	1073759152
 756              		.cfi_endproc
 757              	.LFE8:
 758              		.size	cyfitter_cfg, .-cyfitter_cfg
 759              		.section	.rodata
 760              		.align	2
 761              		.type	cfg_memset_list.4891, %object
 762              		.size	cfg_memset_list.4891, 36
 763              	cfg_memset_list.4891:
 764 0000 20510040 		.word	1073762592
 765 0004 5000     		.short	80
ARM GAS  C:\Users\LUKASC~1\AppData\Local\Temp\ccB0wgbx.s 			page 26


 766 0006 00000140 		.4byte	1073807360
 767 000a 0010     		.short	4096
 768 000c 00140140 		.word	1073812480
 769 0010 0008     		.short	2048
 770 0012 00400140 		.4byte	1073823744
 771 0016 000A     		.short	2560
 772 0018 004C0140 		.word	1073826816
 773 001c 0002     		.short	512
 774 001e 00500140 		.4byte	1073827840
 775 0022 2000     		.short	32
 776              		.align	2
 777              		.type	cy_cfg_addr_table.4885, %object
 778              		.size	cy_cfg_addr_table.4885, 68
 779              	cy_cfg_addr_table.4885:
 780 0024 01450040 		.word	1073759489
 781 0028 03520040 		.word	1073762819
 782 002c 01650040 		.word	1073767681
 783 0030 03150140 		.word	1073812739
 784 0034 55160140 		.word	1073813077
 785 0038 37170140 		.word	1073813303
 786 003c 02190140 		.word	1073813762
 787 0040 09400140 		.word	1073823753
 788 0044 04410140 		.word	1073824004
 789 0048 07420140 		.word	1073824263
 790 004c 06430140 		.word	1073824518
 791 0050 04470140 		.word	1073825540
 792 0054 0E480140 		.word	1073825806
 793 0058 06490140 		.word	1073826054
 794 005c 024C0140 		.word	1073826818
 795 0060 02500140 		.word	1073827842
 796 0064 02510140 		.word	1073828098
 797              		.align	2
 798              		.type	cy_cfg_data_table.4886, %object
 799              		.size	cy_cfg_data_table.4886, 412
 800              	cy_cfg_data_table.4886:
 801 0068 7E       		.byte	126
 802 0069 02       		.byte	2
 803 006a 60       		.byte	96
 804 006b 0C       		.byte	12
 805 006c 61       		.byte	97
 806 006d 05       		.byte	5
 807 006e 7C       		.byte	124
 808 006f 40       		.byte	64
 809 0070 87       		.byte	-121
 810 0071 7F       		.byte	127
 811 0072 8B       		.byte	-117
 812 0073 80       		.byte	-128
 813 0074 9B       		.byte	-101
 814 0075 80       		.byte	-128
 815 0076 E6       		.byte	-26
 816 0077 20       		.byte	32
 817 0078 02       		.byte	2
 818 0079 03       		.byte	3
 819 007a 04       		.byte	4
 820 007b 12       		.byte	18
 821 007c 0A       		.byte	10
 822 007d 12       		.byte	18
ARM GAS  C:\Users\LUKASC~1\AppData\Local\Temp\ccB0wgbx.s 			page 27


 823 007e 0C       		.byte	12
 824 007f 12       		.byte	18
 825 0080 12       		.byte	18
 826 0081 08       		.byte	8
 827 0082 16       		.byte	22
 828 0083 01       		.byte	1
 829 0084 1A       		.byte	26
 830 0085 12       		.byte	18
 831 0086 1E       		.byte	30
 832 0087 04       		.byte	4
 833 0088 20       		.byte	32
 834 0089 04       		.byte	4
 835 008a 22       		.byte	34
 836 008b 08       		.byte	8
 837 008c 28       		.byte	40
 838 008d 20       		.byte	32
 839 008e 30       		.byte	48
 840 008f 10       		.byte	16
 841 0090 32       		.byte	50
 842 0091 03       		.byte	3
 843 0092 34       		.byte	52
 844 0093 20       		.byte	32
 845 0094 36       		.byte	54
 846 0095 0C       		.byte	12
 847 0096 3E       		.byte	62
 848 0097 01       		.byte	1
 849 0098 40       		.byte	64
 850 0099 23       		.byte	35
 851 009a 41       		.byte	65
 852 009b 04       		.byte	4
 853 009c 45       		.byte	69
 854 009d 0C       		.byte	12
 855 009e 46       		.byte	70
 856 009f EB       		.byte	-21
 857 00a0 48       		.byte	72
 858 00a1 0D       		.byte	13
 859 00a2 49       		.byte	73
 860 00a3 FF       		.byte	-1
 861 00a4 4A       		.byte	74
 862 00a5 FF       		.byte	-1
 863 00a6 4B       		.byte	75
 864 00a7 FF       		.byte	-1
 865 00a8 50       		.byte	80
 866 00a9 04       		.byte	4
 867 00aa 52       		.byte	82
 868 00ab 05       		.byte	5
 869 00ac 54       		.byte	84
 870 00ad 01       		.byte	1
 871 00ae 58       		.byte	88
 872 00af 04       		.byte	4
 873 00b0 5A       		.byte	90
 874 00b1 04       		.byte	4
 875 00b2 5B       		.byte	91
 876 00b3 04       		.byte	4
 877 00b4 5F       		.byte	95
 878 00b5 01       		.byte	1
 879 00b6 62       		.byte	98
ARM GAS  C:\Users\LUKASC~1\AppData\Local\Temp\ccB0wgbx.s 			page 28


 880 00b7 C0       		.byte	-64
 881 00b8 64       		.byte	100
 882 00b9 40       		.byte	64
 883 00ba 65       		.byte	101
 884 00bb 01       		.byte	1
 885 00bc 66       		.byte	102
 886 00bd 80       		.byte	-128
 887 00be 68       		.byte	104
 888 00bf 30       		.byte	48
 889 00c0 6A       		.byte	106
 890 00c1 40       		.byte	64
 891 00c2 6B       		.byte	107
 892 00c3 10       		.byte	16
 893 00c4 6C       		.byte	108
 894 00c5 10       		.byte	16
 895 00c6 6E       		.byte	110
 896 00c7 40       		.byte	64
 897 00c8 6F       		.byte	111
 898 00c9 A8       		.byte	-88
 899 00ca 80       		.byte	-128
 900 00cb 80       		.byte	-128
 901 00cc 81       		.byte	-127
 902 00cd 01       		.byte	1
 903 00ce 82       		.byte	-126
 904 00cf 08       		.byte	8
 905 00d0 83       		.byte	-125
 906 00d1 20       		.byte	32
 907 00d2 84       		.byte	-124
 908 00d3 80       		.byte	-128
 909 00d4 85       		.byte	-123
 910 00d5 02       		.byte	2
 911 00d6 86       		.byte	-122
 912 00d7 10       		.byte	16
 913 00d8 87       		.byte	-121
 914 00d9 20       		.byte	32
 915 00da 88       		.byte	-120
 916 00db FF       		.byte	-1
 917 00dc 89       		.byte	-119
 918 00dd 04       		.byte	4
 919 00de 8B       		.byte	-117
 920 00df 20       		.byte	32
 921 00e0 8E       		.byte	-114
 922 00e1 7F       		.byte	127
 923 00e2 92       		.byte	-110
 924 00e3 80       		.byte	-128
 925 00e4 94       		.byte	-108
 926 00e5 80       		.byte	-128
 927 00e6 95       		.byte	-107
 928 00e7 27       		.byte	39
 929 00e8 96       		.byte	-106
 930 00e9 01       		.byte	1
 931 00ea 97       		.byte	-105
 932 00eb 40       		.byte	64
 933 00ec 99       		.byte	-103
 934 00ed 10       		.byte	16
 935 00ee 9A       		.byte	-102
 936 00ef 7F       		.byte	127
ARM GAS  C:\Users\LUKASC~1\AppData\Local\Temp\ccB0wgbx.s 			page 29


 937 00f0 9D       		.byte	-99
 938 00f1 27       		.byte	39
 939 00f2 9F       		.byte	-97
 940 00f3 40       		.byte	64
 941 00f4 A0       		.byte	-96
 942 00f5 80       		.byte	-128
 943 00f6 A1       		.byte	-95
 944 00f7 08       		.byte	8
 945 00f8 A2       		.byte	-94
 946 00f9 04       		.byte	4
 947 00fa A4       		.byte	-92
 948 00fb 80       		.byte	-128
 949 00fc A5       		.byte	-91
 950 00fd 27       		.byte	39
 951 00fe A6       		.byte	-90
 952 00ff 02       		.byte	2
 953 0100 A7       		.byte	-89
 954 0101 40       		.byte	64
 955 0102 A8       		.byte	-88
 956 0103 80       		.byte	-128
 957 0104 A9       		.byte	-87
 958 0105 10       		.byte	16
 959 0106 AA       		.byte	-86
 960 0107 20       		.byte	32
 961 0108 AC       		.byte	-84
 962 0109 80       		.byte	-128
 963 010a AE       		.byte	-82
 964 010b 40       		.byte	64
 965 010c B0       		.byte	-80
 966 010d FF       		.byte	-1
 967 010e B1       		.byte	-79
 968 010f 10       		.byte	16
 969 0110 B3       		.byte	-77
 970 0111 0F       		.byte	15
 971 0112 B5       		.byte	-75
 972 0113 68       		.byte	104
 973 0114 B7       		.byte	-73
 974 0115 08       		.byte	8
 975 0116 D6       		.byte	-42
 976 0117 02       		.byte	2
 977 0118 D7       		.byte	-41
 978 0119 24       		.byte	36
 979 011a D8       		.byte	-40
 980 011b 04       		.byte	4
 981 011c D9       		.byte	-39
 982 011d 04       		.byte	4
 983 011e DB       		.byte	-37
 984 011f 04       		.byte	4
 985 0120 DF       		.byte	-33
 986 0121 01       		.byte	1
 987 0122 00       		.byte	0
 988 0123 50       		.byte	80
 989 0124 01       		.byte	1
 990 0125 05       		.byte	5
 991 0126 04       		.byte	4
 992 0127 02       		.byte	2
 993 0128 06       		.byte	6
ARM GAS  C:\Users\LUKASC~1\AppData\Local\Temp\ccB0wgbx.s 			page 30


 994 0129 04       		.byte	4
 995 012a 07       		.byte	7
 996 012b 2A       		.byte	42
 997 012c 0A       		.byte	10
 998 012d 54       		.byte	84
 999 012e 0E       		.byte	14
 1000 012f 22       		.byte	34
 1001 0130 0F       		.byte	15
 1002 0131 88       		.byte	-120
 1003 0132 11       		.byte	17
 1004 0133 50       		.byte	80
 1005 0134 13       		.byte	19
 1006 0135 05       		.byte	5
 1007 0136 17       		.byte	23
 1008 0137 11       		.byte	17
 1009 0138 18       		.byte	24
 1010 0139 40       		.byte	64
 1011 013a 19       		.byte	25
 1012 013b 01       		.byte	1
 1013 013c 1C       		.byte	28
 1014 013d 10       		.byte	16
 1015 013e 1D       		.byte	29
 1016 013f 10       		.byte	16
 1017 0140 1E       		.byte	30
 1018 0141 A2       		.byte	-94
 1019 0142 21       		.byte	33
 1020 0143 08       		.byte	8
 1021 0144 22       		.byte	34
 1022 0145 40       		.byte	64
 1023 0146 23       		.byte	35
 1024 0147 AA       		.byte	-86
 1025 0148 29       		.byte	41
 1026 0149 01       		.byte	1
 1027 014a 2A       		.byte	42
 1028 014b 24       		.byte	36
 1029 014c 31       		.byte	49
 1030 014d 18       		.byte	24
 1031 014e 32       		.byte	50
 1032 014f 40       		.byte	64
 1033 0150 39       		.byte	57
 1034 0151 15       		.byte	21
 1035 0152 47       		.byte	71
 1036 0153 2A       		.byte	42
 1037 0154 4F       		.byte	79
 1038 0155 08       		.byte	8
 1039 0156 57       		.byte	87
 1040 0157 70       		.byte	112
 1041 0158 58       		.byte	88
 1042 0159 08       		.byte	8
 1043 015a 5A       		.byte	90
 1044 015b 04       		.byte	4
 1045 015c 5E       		.byte	94
 1046 015d 80       		.byte	-128
 1047 015e 5F       		.byte	95
 1048 015f 10       		.byte	16
 1049 0160 60       		.byte	96
 1050 0161 08       		.byte	8
ARM GAS  C:\Users\LUKASC~1\AppData\Local\Temp\ccB0wgbx.s 			page 31


 1051 0162 63       		.byte	99
 1052 0163 30       		.byte	48
 1053 0164 69       		.byte	105
 1054 0165 55       		.byte	85
 1055 0166 6B       		.byte	107
 1056 0167 01       		.byte	1
 1057 0168 6C       		.byte	108
 1058 0169 01       		.byte	1
 1059 016a 6E       		.byte	110
 1060 016b 44       		.byte	68
 1061 016c 6F       		.byte	111
 1062 016d 10       		.byte	16
 1063 016e 72       		.byte	114
 1064 016f 30       		.byte	48
 1065 0170 73       		.byte	115
 1066 0171 05       		.byte	5
 1067 0172 82       		.byte	-126
 1068 0173 01       		.byte	1
 1069 0174 83       		.byte	-125
 1070 0175 20       		.byte	32
 1071 0176 9F       		.byte	-97
 1072 0177 01       		.byte	1
 1073 0178 B3       		.byte	-77
 1074 0179 01       		.byte	1
 1075 017a C0       		.byte	-64
 1076 017b FF       		.byte	-1
 1077 017c C2       		.byte	-62
 1078 017d FE       		.byte	-2
 1079 017e C4       		.byte	-60
 1080 017f 5F       		.byte	95
 1081 0180 CA       		.byte	-54
 1082 0181 07       		.byte	7
 1083 0182 CC       		.byte	-52
 1084 0183 0E       		.byte	14
 1085 0184 CE       		.byte	-50
 1086 0185 07       		.byte	7
 1087 0186 D0       		.byte	-48
 1088 0187 E0       		.byte	-32
 1089 0188 D6       		.byte	-42
 1090 0189 30       		.byte	48
 1091 018a D8       		.byte	-40
 1092 018b 04       		.byte	4
 1093 018c EA       		.byte	-22
 1094 018d 02       		.byte	2
 1095 018e EE       		.byte	-18
 1096 018f 22       		.byte	34
 1097 0190 EA       		.byte	-22
 1098 0191 02       		.byte	2
 1099 0192 EE       		.byte	-18
 1100 0193 02       		.byte	2
 1101 0194 14       		.byte	20
 1102 0195 40       		.byte	64
 1103 0196 30       		.byte	48
 1104 0197 40       		.byte	64
 1105 0198 33       		.byte	51
 1106 0199 01       		.byte	1
 1107 019a 36       		.byte	54
ARM GAS  C:\Users\LUKASC~1\AppData\Local\Temp\ccB0wgbx.s 			page 32


 1108 019b 40       		.byte	64
 1109 019c 39       		.byte	57
 1110 019d 08       		.byte	8
 1111 019e 3F       		.byte	63
 1112 019f 08       		.byte	8
 1113 01a0 C4       		.byte	-60
 1114 01a1 20       		.byte	32
 1115 01a2 CC       		.byte	-52
 1116 01a3 70       		.byte	112
 1117 01a4 CE       		.byte	-50
 1118 01a5 C0       		.byte	-64
 1119 01a6 95       		.byte	-107
 1120 01a7 08       		.byte	8
 1121 01a8 9F       		.byte	-97
 1122 01a9 01       		.byte	1
 1123 01aa A6       		.byte	-90
 1124 01ab 40       		.byte	64
 1125 01ac A7       		.byte	-89
 1126 01ad 04       		.byte	4
 1127 01ae 51       		.byte	81
 1128 01af 08       		.byte	8
 1129 01b0 56       		.byte	86
 1130 01b1 08       		.byte	8
 1131 01b2 95       		.byte	-107
 1132 01b3 08       		.byte	8
 1133 01b4 9F       		.byte	-97
 1134 01b5 01       		.byte	1
 1135 01b6 A6       		.byte	-90
 1136 01b7 40       		.byte	64
 1137 01b8 A7       		.byte	-89
 1138 01b9 04       		.byte	4
 1139 01ba D4       		.byte	-44
 1140 01bb 60       		.byte	96
 1141 01bc 95       		.byte	-107
 1142 01bd 08       		.byte	8
 1143 01be 9E       		.byte	-98
 1144 01bf 08       		.byte	8
 1145 01c0 9F       		.byte	-97
 1146 01c1 01       		.byte	1
 1147 01c2 A5       		.byte	-91
 1148 01c3 08       		.byte	8
 1149 01c4 A6       		.byte	-90
 1150 01c5 40       		.byte	64
 1151 01c6 A7       		.byte	-89
 1152 01c7 04       		.byte	4
 1153 01c8 0B       		.byte	11
 1154 01c9 40       		.byte	64
 1155 01ca 16       		.byte	22
 1156 01cb 10       		.byte	16
 1157 01cc C2       		.byte	-62
 1158 01cd 08       		.byte	8
 1159 01ce C4       		.byte	-60
 1160 01cf 04       		.byte	4
 1161 01d0 21       		.byte	33
 1162 01d1 04       		.byte	4
 1163 01d2 25       		.byte	37
 1164 01d3 40       		.byte	64
ARM GAS  C:\Users\LUKASC~1\AppData\Local\Temp\ccB0wgbx.s 			page 33


 1165 01d4 82       		.byte	-126
 1166 01d5 08       		.byte	8
 1167 01d6 83       		.byte	-125
 1168 01d7 04       		.byte	4
 1169 01d8 95       		.byte	-107
 1170 01d9 08       		.byte	8
 1171 01da 9E       		.byte	-98
 1172 01db 08       		.byte	8
 1173 01dc A7       		.byte	-89
 1174 01dd 04       		.byte	4
 1175 01de AE       		.byte	-82
 1176 01df 40       		.byte	64
 1177 01e0 AF       		.byte	-81
 1178 01e1 01       		.byte	1
 1179 01e2 B1       		.byte	-79
 1180 01e3 08       		.byte	8
 1181 01e4 C8       		.byte	-56
 1182 01e5 60       		.byte	96
 1183 01e6 E6       		.byte	-26
 1184 01e7 A0       		.byte	-96
 1185 01e8 EA       		.byte	-22
 1186 01e9 40       		.byte	64
 1187 01ea EE       		.byte	-18
 1188 01eb 40       		.byte	64
 1189 01ec 70       		.byte	112
 1190 01ed 08       		.byte	8
 1191 01ee 7D       		.byte	125
 1192 01ef 80       		.byte	-128
 1193 01f0 88       		.byte	-120
 1194 01f1 08       		.byte	8
 1195 01f2 A1       		.byte	-95
 1196 01f3 40       		.byte	64
 1197 01f4 DC       		.byte	-36
 1198 01f5 80       		.byte	-128
 1199 01f6 DE       		.byte	-34
 1200 01f7 20       		.byte	32
 1201 01f8 AE       		.byte	-82
 1202 01f9 10       		.byte	16
 1203 01fa AF       		.byte	-81
 1204 01fb 40       		.byte	64
 1205 01fc 10       		.byte	16
 1206 01fd 01       		.byte	1
 1207 01fe 1A       		.byte	26
 1208 01ff 01       		.byte	1
 1209 0200 00       		.byte	0
 1210 0201 2B       		.byte	43
 1211 0202 10       		.byte	16
 1212 0203 18       		.byte	24
 1213              		.align	2
 1214              		.type	BS_PHUB_CFGMEM1_VAL.4884, %object
 1215              		.size	BS_PHUB_CFGMEM1_VAL.4884, 4
 1216              	BS_PHUB_CFGMEM1_VAL.4884:
 1217 0204 00       		.byte	0
 1218 0205 01       		.byte	1
 1219 0206 00       		.byte	0
 1220 0207 00       		.byte	0
 1221              		.align	2
ARM GAS  C:\Users\LUKASC~1\AppData\Local\Temp\ccB0wgbx.s 			page 34


 1222              		.type	BS_IOPINS0_0_VAL.4880, %object
 1223              		.size	BS_IOPINS0_0_VAL.4880, 8
 1224              	BS_IOPINS0_0_VAL.4880:
 1225 0208 00       		.byte	0
 1226 0209 00       		.byte	0
 1227 020a 00       		.byte	0
 1228 020b 00       		.byte	0
 1229 020c 00       		.byte	0
 1230 020d 00       		.byte	0
 1231 020e 01       		.byte	1
 1232 020f 00       		.byte	0
 1233              		.align	2
 1234              		.type	BS_IOPINS0_7_VAL.4881, %object
 1235              		.size	BS_IOPINS0_7_VAL.4881, 8
 1236              	BS_IOPINS0_7_VAL.4881:
 1237 0210 00       		.byte	0
 1238 0211 0F       		.byte	15
 1239 0212 0F       		.byte	15
 1240 0213 00       		.byte	0
 1241 0214 0F       		.byte	15
 1242 0215 00       		.byte	0
 1243 0216 00       		.byte	0
 1244 0217 00       		.byte	0
 1245              		.align	2
 1246              		.type	BS_IOPINS0_8_VAL.4882, %object
 1247              		.size	BS_IOPINS0_8_VAL.4882, 10
 1248              	BS_IOPINS0_8_VAL.4882:
 1249 0218 40       		.byte	64
 1250 0219 00       		.byte	0
 1251 021a 00       		.byte	0
 1252 021b 00       		.byte	0
 1253 021c 00       		.byte	0
 1254 021d 00       		.byte	0
 1255 021e 00       		.byte	0
 1256 021f 00       		.byte	0
 1257 0220 C0       		.byte	-64
 1258 0221 00       		.byte	0
 1259 0222 0000     		.align	2
 1260              		.type	BS_IOPINS0_1_VAL.4883, %object
 1261              		.size	BS_IOPINS0_1_VAL.4883, 8
 1262              	BS_IOPINS0_1_VAL.4883:
 1263 0224 00       		.byte	0
 1264 0225 0B       		.byte	11
 1265 0226 0B       		.byte	11
 1266 0227 00       		.byte	0
 1267 0228 00       		.byte	0
 1268 0229 00       		.byte	0
 1269 022a 00       		.byte	0
 1270 022b 00       		.byte	0
 1271              		.text
 1272              	.Letext0:
 1273              		.file 2 "c:\\program files (x86)\\cypress\\psoc creator\\4.0\\psoc creator\\import\\gnu\\arm\\4.9.
 1274              		.file 3 "Generated_Source\\PSoC5\\cytypes.h"