ARM GAS  C:\Users\LUKASC~1\AppData\Local\Temp\cc9yyYuk.s 			page 1


   1              		.syntax unified
   2              		.cpu cortex-m3
   3              		.fpu softvfp
   4              		.eabi_attribute 20, 1
   5              		.eabi_attribute 21, 1
   6              		.eabi_attribute 23, 3
   7              		.eabi_attribute 24, 1
   8              		.eabi_attribute 25, 1
   9              		.eabi_attribute 26, 1
  10              		.eabi_attribute 30, 6
  11              		.eabi_attribute 34, 1
  12              		.eabi_attribute 18, 4
  13              		.thumb
  14              		.file	"CyFlash.c"
  15              		.text
  16              	.Ltext0:
  17              		.cfi_sections	.debug_frame
  18              		.comm	dieTemperature,2,4
  19              		.bss
  20              		.align	2
  21              	rowBuffer:
  22 0000 00000000 		.space	4
  23              		.section	.text.CyFlash_Start,"ax",%progbits
  24              		.align	2
  25              		.global	CyFlash_Start
  26              		.thumb
  27              		.thumb_func
  28              		.type	CyFlash_Start, %function
  29              	CyFlash_Start:
  30              	.LFB0:
  31              		.file 1 "Generated_Source\\PSoC5\\CyFlash.c"
   1:Generated_Source\PSoC5/CyFlash.c **** /***************************************************************************//**
   2:Generated_Source\PSoC5/CyFlash.c **** * \file CyFlash.c
   3:Generated_Source\PSoC5/CyFlash.c **** * \version 5.50
   4:Generated_Source\PSoC5/CyFlash.c **** *
   5:Generated_Source\PSoC5/CyFlash.c **** * \brief Provides an API for the FLASH/EEPROM.
   6:Generated_Source\PSoC5/CyFlash.c **** *
   7:Generated_Source\PSoC5/CyFlash.c **** * \note This code is endian agnostic.
   8:Generated_Source\PSoC5/CyFlash.c **** *
   9:Generated_Source\PSoC5/CyFlash.c **** * \note Documentation of the API's in this file is located in the System
  10:Generated_Source\PSoC5/CyFlash.c **** * Reference Guide provided with PSoC Creator.
  11:Generated_Source\PSoC5/CyFlash.c **** *
  12:Generated_Source\PSoC5/CyFlash.c **** ********************************************************************************
  13:Generated_Source\PSoC5/CyFlash.c **** * \copyright
  14:Generated_Source\PSoC5/CyFlash.c **** * Copyright 2008-2016, Cypress Semiconductor Corporation. All rights reserved.
  15:Generated_Source\PSoC5/CyFlash.c **** * You may use this file only in accordance with the license, terms, conditions,
  16:Generated_Source\PSoC5/CyFlash.c **** * disclaimers, and limitations in the end user license agreement accompanying
  17:Generated_Source\PSoC5/CyFlash.c **** * the software package with which this file was provided.
  18:Generated_Source\PSoC5/CyFlash.c **** *******************************************************************************/
  19:Generated_Source\PSoC5/CyFlash.c **** 
  20:Generated_Source\PSoC5/CyFlash.c **** #include "CyFlash.h"
  21:Generated_Source\PSoC5/CyFlash.c **** 
  22:Generated_Source\PSoC5/CyFlash.c **** /*  The number of EEPROM arrays */
  23:Generated_Source\PSoC5/CyFlash.c **** #define CY_FLASH_EEPROM_NUMBER_ARRAYS                 (1u)
  24:Generated_Source\PSoC5/CyFlash.c **** 
  25:Generated_Source\PSoC5/CyFlash.c **** 
  26:Generated_Source\PSoC5/CyFlash.c **** /*******************************************************************************
ARM GAS  C:\Users\LUKASC~1\AppData\Local\Temp\cc9yyYuk.s 			page 2


  27:Generated_Source\PSoC5/CyFlash.c **** * Holds the die temperature, updated by CySetTemp(). Used for flash writing.
  28:Generated_Source\PSoC5/CyFlash.c **** * The first byte is the sign of the temperature (0 = negative, 1 = positive).
  29:Generated_Source\PSoC5/CyFlash.c **** * The second byte is the magnitude.
  30:Generated_Source\PSoC5/CyFlash.c **** *******************************************************************************/
  31:Generated_Source\PSoC5/CyFlash.c **** uint8 dieTemperature[CY_FLASH_DIE_TEMP_DATA_SIZE];
  32:Generated_Source\PSoC5/CyFlash.c **** 
  33:Generated_Source\PSoC5/CyFlash.c **** #if(CYDEV_ECC_ENABLE == 0)
  34:Generated_Source\PSoC5/CyFlash.c ****     static uint8 * rowBuffer = 0;
  35:Generated_Source\PSoC5/CyFlash.c **** #endif  /* (CYDEV_ECC_ENABLE == 0) */
  36:Generated_Source\PSoC5/CyFlash.c **** 
  37:Generated_Source\PSoC5/CyFlash.c **** 
  38:Generated_Source\PSoC5/CyFlash.c **** static cystatus CySetTempInt(void);
  39:Generated_Source\PSoC5/CyFlash.c **** static cystatus CyFlashGetSpcAlgorithm(void);
  40:Generated_Source\PSoC5/CyFlash.c **** 
  41:Generated_Source\PSoC5/CyFlash.c **** 
  42:Generated_Source\PSoC5/CyFlash.c **** /*******************************************************************************
  43:Generated_Source\PSoC5/CyFlash.c **** * Function Name: CyFlash_Start
  44:Generated_Source\PSoC5/CyFlash.c **** ****************************************************************************//**
  45:Generated_Source\PSoC5/CyFlash.c **** *
  46:Generated_Source\PSoC5/CyFlash.c **** *  Enable the Flash.
  47:Generated_Source\PSoC5/CyFlash.c **** *
  48:Generated_Source\PSoC5/CyFlash.c **** *******************************************************************************/
  49:Generated_Source\PSoC5/CyFlash.c **** void CyFlash_Start(void) 
  50:Generated_Source\PSoC5/CyFlash.c **** {
  32              		.loc 1 50 0
  33              		.cfi_startproc
  34              		@ args = 0, pretend = 0, frame = 8
  35              		@ frame_needed = 1, uses_anonymous_args = 0
  36 0000 80B5     		push	{r7, lr}
  37              		.cfi_def_cfa_offset 8
  38              		.cfi_offset 7, -8
  39              		.cfi_offset 14, -4
  40 0002 82B0     		sub	sp, sp, #8
  41              		.cfi_def_cfa_offset 16
  42 0004 00AF     		add	r7, sp, #0
  43              		.cfi_def_cfa_register 7
  51:Generated_Source\PSoC5/CyFlash.c ****     uint8 interruptState;
  52:Generated_Source\PSoC5/CyFlash.c **** 
  53:Generated_Source\PSoC5/CyFlash.c ****     interruptState = CyEnterCriticalSection();
  44              		.loc 1 53 0
  45 0006 FFF7FEFF 		bl	CyEnterCriticalSection
  46 000a 0346     		mov	r3, r0
  47 000c FB71     		strb	r3, [r7, #7]
  54:Generated_Source\PSoC5/CyFlash.c **** 
  55:Generated_Source\PSoC5/CyFlash.c **** 
  56:Generated_Source\PSoC5/CyFlash.c ****     /***************************************************************************
  57:Generated_Source\PSoC5/CyFlash.c ****     * Enable SPC clock. This also internally enables the 36MHz IMO, since this
  58:Generated_Source\PSoC5/CyFlash.c ****     * is required for the SPC to function.
  59:Generated_Source\PSoC5/CyFlash.c ****     ***************************************************************************/
  60:Generated_Source\PSoC5/CyFlash.c ****     CY_FLASH_PM_ACT_CFG0_REG    |= CY_FLASH_PM_ACT_CFG0_EN_CLK_SPC;
  48              		.loc 1 60 0
  49 000e 194A     		ldr	r2, .L3
  50 0010 184B     		ldr	r3, .L3
  51 0012 1B78     		ldrb	r3, [r3]
  52 0014 DBB2     		uxtb	r3, r3
  53 0016 43F00803 		orr	r3, r3, #8
  54 001a DBB2     		uxtb	r3, r3
ARM GAS  C:\Users\LUKASC~1\AppData\Local\Temp\cc9yyYuk.s 			page 3


  55 001c 1370     		strb	r3, [r2]
  61:Generated_Source\PSoC5/CyFlash.c ****     CY_FLASH_PM_ALTACT_CFG0_REG |= CY_FLASH_PM_ALTACT_CFG0_EN_CLK_SPC;
  56              		.loc 1 61 0
  57 001e 164A     		ldr	r2, .L3+4
  58 0020 154B     		ldr	r3, .L3+4
  59 0022 1B78     		ldrb	r3, [r3]
  60 0024 DBB2     		uxtb	r3, r3
  61 0026 43F00803 		orr	r3, r3, #8
  62 002a DBB2     		uxtb	r3, r3
  63 002c 1370     		strb	r3, [r2]
  62:Generated_Source\PSoC5/CyFlash.c **** 
  63:Generated_Source\PSoC5/CyFlash.c **** 
  64:Generated_Source\PSoC5/CyFlash.c ****     /***************************************************************************
  65:Generated_Source\PSoC5/CyFlash.c ****     * The wake count defines the number of Bus Clock cycles it takes for the
  66:Generated_Source\PSoC5/CyFlash.c ****     * flash or eeprom to wake up from a low power mode independent of the chip
  67:Generated_Source\PSoC5/CyFlash.c ****     * power mode. Wake up time for these blocks is 5 us.
  68:Generated_Source\PSoC5/CyFlash.c ****     * The granularity of this register is 2 Bus Clock cycles, so a value of 0x1E
  69:Generated_Source\PSoC5/CyFlash.c ****     * (30d) defines the wake up time as 60 cycles of the Bus Clock.
  70:Generated_Source\PSoC5/CyFlash.c ****     * This register needs to be written with a value dependent on the Bus Clock
  71:Generated_Source\PSoC5/CyFlash.c ****     * frequency so that the duration of the cycles is equal to or greater than
  72:Generated_Source\PSoC5/CyFlash.c ****     * the 5 us delay required.
  73:Generated_Source\PSoC5/CyFlash.c ****     ***************************************************************************/
  74:Generated_Source\PSoC5/CyFlash.c ****     CY_FLASH_SPC_FM_EE_WAKE_CNT_REG = CY_FLASH_SPC_FM_EE_WAKE_CNT_80MHZ;
  64              		.loc 1 74 0
  65 002e 134B     		ldr	r3, .L3+8
  66 0030 C822     		movs	r2, #200
  67 0032 1A70     		strb	r2, [r3]
  75:Generated_Source\PSoC5/CyFlash.c **** 
  76:Generated_Source\PSoC5/CyFlash.c **** 
  77:Generated_Source\PSoC5/CyFlash.c ****     /***************************************************************************
  78:Generated_Source\PSoC5/CyFlash.c ****     * Enable flash. Active flash macros consume current, but re-enabling a
  79:Generated_Source\PSoC5/CyFlash.c ****     * disabled flash macro takes 5us. If the CPU attempts to fetch out of the
  80:Generated_Source\PSoC5/CyFlash.c ****     * macro during that time, it will be stalled. This bit allows the flash to
  81:Generated_Source\PSoC5/CyFlash.c ****     * be enabled even if the CPU is disabled, which allows a quicker return to
  82:Generated_Source\PSoC5/CyFlash.c ****     * code execution.
  83:Generated_Source\PSoC5/CyFlash.c ****     ***************************************************************************/
  84:Generated_Source\PSoC5/CyFlash.c ****     CY_FLASH_PM_ACT_CFG12_REG    |= CY_FLASH_PM_ACT_CFG12_EN_FM;
  68              		.loc 1 84 0
  69 0034 124A     		ldr	r2, .L3+12
  70 0036 124B     		ldr	r3, .L3+12
  71 0038 1B78     		ldrb	r3, [r3]
  72 003a DBB2     		uxtb	r3, r3
  73 003c 43F00F03 		orr	r3, r3, #15
  74 0040 DBB2     		uxtb	r3, r3
  75 0042 1370     		strb	r3, [r2]
  85:Generated_Source\PSoC5/CyFlash.c ****     CY_FLASH_PM_ALTACT_CFG12_REG |= CY_FLASH_PM_ALTACT_CFG12_EN_FM;
  76              		.loc 1 85 0
  77 0044 0F4A     		ldr	r2, .L3+16
  78 0046 0F4B     		ldr	r3, .L3+16
  79 0048 1B78     		ldrb	r3, [r3]
  80 004a DBB2     		uxtb	r3, r3
  81 004c 43F00F03 		orr	r3, r3, #15
  82 0050 DBB2     		uxtb	r3, r3
  83 0052 1370     		strb	r3, [r2]
  86:Generated_Source\PSoC5/CyFlash.c **** 
  87:Generated_Source\PSoC5/CyFlash.c ****     while(0u == (CY_FLASH_SPC_FM_EE_CR_REG & CY_FLASH_EE_EE_AWAKE))
  84              		.loc 1 87 0
ARM GAS  C:\Users\LUKASC~1\AppData\Local\Temp\cc9yyYuk.s 			page 4


  85 0054 00BF     		nop
  86              	.L2:
  87              		.loc 1 87 0 is_stmt 0 discriminator 1
  88 0056 0C4B     		ldr	r3, .L3+20
  89 0058 1B78     		ldrb	r3, [r3]
  90 005a DBB2     		uxtb	r3, r3
  91 005c 03F02003 		and	r3, r3, #32
  92 0060 002B     		cmp	r3, #0
  93 0062 F8D0     		beq	.L2
  88:Generated_Source\PSoC5/CyFlash.c ****     {
  89:Generated_Source\PSoC5/CyFlash.c ****         /* Non-zero status denotes that the EEPROM/Flash is awake & powered. */
  90:Generated_Source\PSoC5/CyFlash.c ****     }
  91:Generated_Source\PSoC5/CyFlash.c **** 
  92:Generated_Source\PSoC5/CyFlash.c ****     CyExitCriticalSection(interruptState);
  94              		.loc 1 92 0 is_stmt 1
  95 0064 FB79     		ldrb	r3, [r7, #7]	@ zero_extendqisi2
  96 0066 1846     		mov	r0, r3
  97 0068 FFF7FEFF 		bl	CyExitCriticalSection
  93:Generated_Source\PSoC5/CyFlash.c **** }
  98              		.loc 1 93 0
  99 006c 0837     		adds	r7, r7, #8
 100              		.cfi_def_cfa_offset 8
 101 006e BD46     		mov	sp, r7
 102              		.cfi_def_cfa_register 13
 103              		@ sp needed
 104 0070 80BD     		pop	{r7, pc}
 105              	.L4:
 106 0072 00BF     		.align	2
 107              	.L3:
 108 0074 A0430040 		.word	1073759136
 109 0078 B0430040 		.word	1073759152
 110 007c 01470040 		.word	1073760001
 111 0080 AC430040 		.word	1073759148
 112 0084 BC430040 		.word	1073759164
 113 0088 00470040 		.word	1073760000
 114              		.cfi_endproc
 115              	.LFE0:
 116              		.size	CyFlash_Start, .-CyFlash_Start
 117              		.section	.text.CyFlash_Stop,"ax",%progbits
 118              		.align	2
 119              		.global	CyFlash_Stop
 120              		.thumb
 121              		.thumb_func
 122              		.type	CyFlash_Stop, %function
 123              	CyFlash_Stop:
 124              	.LFB1:
  94:Generated_Source\PSoC5/CyFlash.c **** 
  95:Generated_Source\PSoC5/CyFlash.c **** 
  96:Generated_Source\PSoC5/CyFlash.c **** /*******************************************************************************
  97:Generated_Source\PSoC5/CyFlash.c **** * Function Name: CyFlash_Stop
  98:Generated_Source\PSoC5/CyFlash.c **** ****************************************************************************//**
  99:Generated_Source\PSoC5/CyFlash.c **** *
 100:Generated_Source\PSoC5/CyFlash.c **** *  Disable the Flash.
 101:Generated_Source\PSoC5/CyFlash.c **** *
 102:Generated_Source\PSoC5/CyFlash.c **** * \sideeffect
 103:Generated_Source\PSoC5/CyFlash.c **** *  This setting is ignored as long as the CPU is currently running.  This will
 104:Generated_Source\PSoC5/CyFlash.c **** *  only take effect when the CPU is later disabled.
ARM GAS  C:\Users\LUKASC~1\AppData\Local\Temp\cc9yyYuk.s 			page 5


 105:Generated_Source\PSoC5/CyFlash.c **** *
 106:Generated_Source\PSoC5/CyFlash.c **** *******************************************************************************/
 107:Generated_Source\PSoC5/CyFlash.c **** void CyFlash_Stop(void) 
 108:Generated_Source\PSoC5/CyFlash.c **** {
 125              		.loc 1 108 0
 126              		.cfi_startproc
 127              		@ args = 0, pretend = 0, frame = 8
 128              		@ frame_needed = 1, uses_anonymous_args = 0
 129 0000 80B5     		push	{r7, lr}
 130              		.cfi_def_cfa_offset 8
 131              		.cfi_offset 7, -8
 132              		.cfi_offset 14, -4
 133 0002 82B0     		sub	sp, sp, #8
 134              		.cfi_def_cfa_offset 16
 135 0004 00AF     		add	r7, sp, #0
 136              		.cfi_def_cfa_register 7
 109:Generated_Source\PSoC5/CyFlash.c ****     uint8 interruptState;
 110:Generated_Source\PSoC5/CyFlash.c **** 
 111:Generated_Source\PSoC5/CyFlash.c ****     interruptState = CyEnterCriticalSection();
 137              		.loc 1 111 0
 138 0006 FFF7FEFF 		bl	CyEnterCriticalSection
 139 000a 0346     		mov	r3, r0
 140 000c FB71     		strb	r3, [r7, #7]
 112:Generated_Source\PSoC5/CyFlash.c **** 
 113:Generated_Source\PSoC5/CyFlash.c ****     CY_FLASH_PM_ACT_CFG12_REG    &= ((uint8)(~CY_FLASH_PM_ACT_CFG12_EN_FM));
 141              		.loc 1 113 0
 142 000e 0B4A     		ldr	r2, .L6
 143 0010 0A4B     		ldr	r3, .L6
 144 0012 1B78     		ldrb	r3, [r3]
 145 0014 DBB2     		uxtb	r3, r3
 146 0016 23F00F03 		bic	r3, r3, #15
 147 001a DBB2     		uxtb	r3, r3
 148 001c 1370     		strb	r3, [r2]
 114:Generated_Source\PSoC5/CyFlash.c ****     CY_FLASH_PM_ALTACT_CFG12_REG &= ((uint8)(~CY_FLASH_PM_ALTACT_CFG12_EN_FM));
 149              		.loc 1 114 0
 150 001e 084A     		ldr	r2, .L6+4
 151 0020 074B     		ldr	r3, .L6+4
 152 0022 1B78     		ldrb	r3, [r3]
 153 0024 DBB2     		uxtb	r3, r3
 154 0026 23F00F03 		bic	r3, r3, #15
 155 002a DBB2     		uxtb	r3, r3
 156 002c 1370     		strb	r3, [r2]
 115:Generated_Source\PSoC5/CyFlash.c **** 
 116:Generated_Source\PSoC5/CyFlash.c ****     CyExitCriticalSection(interruptState);
 157              		.loc 1 116 0
 158 002e FB79     		ldrb	r3, [r7, #7]	@ zero_extendqisi2
 159 0030 1846     		mov	r0, r3
 160 0032 FFF7FEFF 		bl	CyExitCriticalSection
 117:Generated_Source\PSoC5/CyFlash.c **** }
 161              		.loc 1 117 0
 162 0036 0837     		adds	r7, r7, #8
 163              		.cfi_def_cfa_offset 8
 164 0038 BD46     		mov	sp, r7
 165              		.cfi_def_cfa_register 13
 166              		@ sp needed
 167 003a 80BD     		pop	{r7, pc}
 168              	.L7:
ARM GAS  C:\Users\LUKASC~1\AppData\Local\Temp\cc9yyYuk.s 			page 6


 169              		.align	2
 170              	.L6:
 171 003c AC430040 		.word	1073759148
 172 0040 BC430040 		.word	1073759164
 173              		.cfi_endproc
 174              	.LFE1:
 175              		.size	CyFlash_Stop, .-CyFlash_Stop
 176              		.section	.text.CySetTempInt,"ax",%progbits
 177              		.align	2
 178              		.thumb
 179              		.thumb_func
 180              		.type	CySetTempInt, %function
 181              	CySetTempInt:
 182              	.LFB2:
 118:Generated_Source\PSoC5/CyFlash.c **** 
 119:Generated_Source\PSoC5/CyFlash.c **** 
 120:Generated_Source\PSoC5/CyFlash.c **** /*******************************************************************************
 121:Generated_Source\PSoC5/CyFlash.c **** * Function Name: CySetTempInt
 122:Generated_Source\PSoC5/CyFlash.c **** ****************************************************************************//**
 123:Generated_Source\PSoC5/CyFlash.c **** *
 124:Generated_Source\PSoC5/CyFlash.c **** *  Sends a command to the SPC to read the die temperature. Sets a global value
 125:Generated_Source\PSoC5/CyFlash.c **** *  used by the Write function. This function must be called once before
 126:Generated_Source\PSoC5/CyFlash.c **** *  executing a series of Flash writing functions.
 127:Generated_Source\PSoC5/CyFlash.c **** *
 128:Generated_Source\PSoC5/CyFlash.c **** * \return
 129:Generated_Source\PSoC5/CyFlash.c **** *  status:
 130:Generated_Source\PSoC5/CyFlash.c **** *   CYRET_SUCCESS - if successful
 131:Generated_Source\PSoC5/CyFlash.c **** *   CYRET_LOCKED  - if Flash writing already in use
 132:Generated_Source\PSoC5/CyFlash.c **** *   CYRET_UNKNOWN - if there was an SPC error
 133:Generated_Source\PSoC5/CyFlash.c **** *
 134:Generated_Source\PSoC5/CyFlash.c **** *******************************************************************************/
 135:Generated_Source\PSoC5/CyFlash.c **** static cystatus CySetTempInt(void) 
 136:Generated_Source\PSoC5/CyFlash.c **** {
 183              		.loc 1 136 0
 184              		.cfi_startproc
 185              		@ args = 0, pretend = 0, frame = 8
 186              		@ frame_needed = 1, uses_anonymous_args = 0
 187 0000 80B5     		push	{r7, lr}
 188              		.cfi_def_cfa_offset 8
 189              		.cfi_offset 7, -8
 190              		.cfi_offset 14, -4
 191 0002 82B0     		sub	sp, sp, #8
 192              		.cfi_def_cfa_offset 16
 193 0004 00AF     		add	r7, sp, #0
 194              		.cfi_def_cfa_register 7
 137:Generated_Source\PSoC5/CyFlash.c ****     cystatus status;
 138:Generated_Source\PSoC5/CyFlash.c **** 
 139:Generated_Source\PSoC5/CyFlash.c ****     /* Make sure SPC is powered */
 140:Generated_Source\PSoC5/CyFlash.c ****     CySpcStart();
 195              		.loc 1 140 0
 196 0006 FFF7FEFF 		bl	CySpcStart
 141:Generated_Source\PSoC5/CyFlash.c **** 
 142:Generated_Source\PSoC5/CyFlash.c ****     /* Plan for failure. */
 143:Generated_Source\PSoC5/CyFlash.c ****     status = CYRET_UNKNOWN;
 197              		.loc 1 143 0
 198 000a 4FF0FF33 		mov	r3, #-1
 199 000e 7B60     		str	r3, [r7, #4]
ARM GAS  C:\Users\LUKASC~1\AppData\Local\Temp\cc9yyYuk.s 			page 7


 144:Generated_Source\PSoC5/CyFlash.c **** 
 145:Generated_Source\PSoC5/CyFlash.c ****     if(CySpcLock() == CYRET_SUCCESS)
 200              		.loc 1 145 0
 201 0010 FFF7FEFF 		bl	CySpcLock
 202 0014 0346     		mov	r3, r0
 203 0016 002B     		cmp	r3, #0
 204 0018 24D1     		bne	.L9
 146:Generated_Source\PSoC5/CyFlash.c ****     {
 147:Generated_Source\PSoC5/CyFlash.c ****         /* Write the command. */
 148:Generated_Source\PSoC5/CyFlash.c ****         if(CYRET_STARTED == CySpcGetTemp(CY_TEMP_NUMBER_OF_SAMPLES))
 205              		.loc 1 148 0
 206 001a 0120     		movs	r0, #1
 207 001c FFF7FEFF 		bl	CySpcGetTemp
 208 0020 0346     		mov	r3, r0
 209 0022 072B     		cmp	r3, #7
 210 0024 1BD1     		bne	.L10
 211              	.L14:
 149:Generated_Source\PSoC5/CyFlash.c ****         {
 150:Generated_Source\PSoC5/CyFlash.c ****             do
 151:Generated_Source\PSoC5/CyFlash.c ****             {
 152:Generated_Source\PSoC5/CyFlash.c ****                 if(CySpcReadData(dieTemperature, CY_FLASH_DIE_TEMP_DATA_SIZE) == CY_FLASH_DIE_TEMP_
 212              		.loc 1 152 0
 213 0026 1348     		ldr	r0, .L17
 214 0028 0221     		movs	r1, #2
 215 002a FFF7FEFF 		bl	CySpcReadData
 216 002e 0346     		mov	r3, r0
 217 0030 022B     		cmp	r3, #2
 218 0032 0DD1     		bne	.L11
 153:Generated_Source\PSoC5/CyFlash.c ****                 {
 154:Generated_Source\PSoC5/CyFlash.c ****                     status = CYRET_SUCCESS;
 219              		.loc 1 154 0
 220 0034 0023     		movs	r3, #0
 221 0036 7B60     		str	r3, [r7, #4]
 155:Generated_Source\PSoC5/CyFlash.c **** 
 156:Generated_Source\PSoC5/CyFlash.c ****                     while(CY_SPC_BUSY)
 222              		.loc 1 156 0
 223 0038 02E0     		b	.L12
 224              	.L13:
 157:Generated_Source\PSoC5/CyFlash.c ****                     {
 158:Generated_Source\PSoC5/CyFlash.c ****                         /* Spin until idle. */
 159:Generated_Source\PSoC5/CyFlash.c ****                         CyDelayUs(1u);
 225              		.loc 1 159 0
 226 003a 0120     		movs	r0, #1
 227 003c FFF7FEFF 		bl	CyDelayUs
 228              	.L12:
 156:Generated_Source\PSoC5/CyFlash.c ****                     {
 229              		.loc 1 156 0
 230 0040 0D4B     		ldr	r3, .L17+4
 231 0042 1B78     		ldrb	r3, [r3]
 232 0044 DBB2     		uxtb	r3, r3
 233 0046 03F00203 		and	r3, r3, #2
 234 004a 002B     		cmp	r3, #0
 235 004c F5D0     		beq	.L13
 160:Generated_Source\PSoC5/CyFlash.c ****                     }
 161:Generated_Source\PSoC5/CyFlash.c ****                     break;
 236              		.loc 1 161 0
 237 004e 06E0     		b	.L10
ARM GAS  C:\Users\LUKASC~1\AppData\Local\Temp\cc9yyYuk.s 			page 8


 238              	.L11:
 162:Generated_Source\PSoC5/CyFlash.c ****                 }
 163:Generated_Source\PSoC5/CyFlash.c **** 
 164:Generated_Source\PSoC5/CyFlash.c ****             } while(CY_SPC_BUSY);
 239              		.loc 1 164 0
 240 0050 094B     		ldr	r3, .L17+4
 241 0052 1B78     		ldrb	r3, [r3]
 242 0054 DBB2     		uxtb	r3, r3
 243 0056 03F00203 		and	r3, r3, #2
 244 005a 002B     		cmp	r3, #0
 245 005c E3D0     		beq	.L14
 246              	.L10:
 165:Generated_Source\PSoC5/CyFlash.c ****         }
 166:Generated_Source\PSoC5/CyFlash.c **** 
 167:Generated_Source\PSoC5/CyFlash.c ****         CySpcUnlock();
 247              		.loc 1 167 0
 248 005e FFF7FEFF 		bl	CySpcUnlock
 249 0062 01E0     		b	.L15
 250              	.L9:
 168:Generated_Source\PSoC5/CyFlash.c ****     }
 169:Generated_Source\PSoC5/CyFlash.c ****     else
 170:Generated_Source\PSoC5/CyFlash.c ****     {
 171:Generated_Source\PSoC5/CyFlash.c ****         status = CYRET_LOCKED;
 251              		.loc 1 171 0
 252 0064 0423     		movs	r3, #4
 253 0066 7B60     		str	r3, [r7, #4]
 254              	.L15:
 172:Generated_Source\PSoC5/CyFlash.c ****     }
 173:Generated_Source\PSoC5/CyFlash.c **** 
 174:Generated_Source\PSoC5/CyFlash.c ****     return (status);
 255              		.loc 1 174 0
 256 0068 7B68     		ldr	r3, [r7, #4]
 175:Generated_Source\PSoC5/CyFlash.c **** }
 257              		.loc 1 175 0
 258 006a 1846     		mov	r0, r3
 259 006c 0837     		adds	r7, r7, #8
 260              		.cfi_def_cfa_offset 8
 261 006e BD46     		mov	sp, r7
 262              		.cfi_def_cfa_register 13
 263              		@ sp needed
 264 0070 80BD     		pop	{r7, pc}
 265              	.L18:
 266 0072 00BF     		.align	2
 267              	.L17:
 268 0074 00000000 		.word	dieTemperature
 269 0078 22470040 		.word	1073760034
 270              		.cfi_endproc
 271              	.LFE2:
 272              		.size	CySetTempInt, .-CySetTempInt
 273              		.section	.text.CyFlashGetSpcAlgorithm,"ax",%progbits
 274              		.align	2
 275              		.thumb
 276              		.thumb_func
 277              		.type	CyFlashGetSpcAlgorithm, %function
 278              	CyFlashGetSpcAlgorithm:
 279              	.LFB3:
 176:Generated_Source\PSoC5/CyFlash.c **** 
ARM GAS  C:\Users\LUKASC~1\AppData\Local\Temp\cc9yyYuk.s 			page 9


 177:Generated_Source\PSoC5/CyFlash.c **** 
 178:Generated_Source\PSoC5/CyFlash.c **** /*******************************************************************************
 179:Generated_Source\PSoC5/CyFlash.c **** * Function Name: CyFlashGetSpcAlgorithm
 180:Generated_Source\PSoC5/CyFlash.c **** ****************************************************************************//**
 181:Generated_Source\PSoC5/CyFlash.c **** *
 182:Generated_Source\PSoC5/CyFlash.c **** *  Sends a command to the SPC to download code into RAM.
 183:Generated_Source\PSoC5/CyFlash.c **** *
 184:Generated_Source\PSoC5/CyFlash.c **** * \return
 185:Generated_Source\PSoC5/CyFlash.c **** *  status:
 186:Generated_Source\PSoC5/CyFlash.c **** *   CYRET_SUCCESS - if successful
 187:Generated_Source\PSoC5/CyFlash.c **** *   CYRET_LOCKED  - if Flash writing already in use
 188:Generated_Source\PSoC5/CyFlash.c **** *   CYRET_UNKNOWN - if there was an SPC error
 189:Generated_Source\PSoC5/CyFlash.c **** *
 190:Generated_Source\PSoC5/CyFlash.c **** *******************************************************************************/
 191:Generated_Source\PSoC5/CyFlash.c **** static cystatus CyFlashGetSpcAlgorithm(void) 
 192:Generated_Source\PSoC5/CyFlash.c **** {
 280              		.loc 1 192 0
 281              		.cfi_startproc
 282              		@ args = 0, pretend = 0, frame = 8
 283              		@ frame_needed = 1, uses_anonymous_args = 0
 284 0000 80B5     		push	{r7, lr}
 285              		.cfi_def_cfa_offset 8
 286              		.cfi_offset 7, -8
 287              		.cfi_offset 14, -4
 288 0002 82B0     		sub	sp, sp, #8
 289              		.cfi_def_cfa_offset 16
 290 0004 00AF     		add	r7, sp, #0
 291              		.cfi_def_cfa_register 7
 193:Generated_Source\PSoC5/CyFlash.c ****     cystatus status;
 194:Generated_Source\PSoC5/CyFlash.c **** 
 195:Generated_Source\PSoC5/CyFlash.c ****     /* Make sure SPC is powered */
 196:Generated_Source\PSoC5/CyFlash.c ****     CySpcStart();
 292              		.loc 1 196 0
 293 0006 FFF7FEFF 		bl	CySpcStart
 197:Generated_Source\PSoC5/CyFlash.c **** 
 198:Generated_Source\PSoC5/CyFlash.c ****     if(CySpcLock() == CYRET_SUCCESS)
 294              		.loc 1 198 0
 295 000a FFF7FEFF 		bl	CySpcLock
 296 000e 0346     		mov	r3, r0
 297 0010 002B     		cmp	r3, #0
 298 0012 23D1     		bne	.L20
 199:Generated_Source\PSoC5/CyFlash.c ****     {
 200:Generated_Source\PSoC5/CyFlash.c ****         status = CySpcGetAlgorithm();
 299              		.loc 1 200 0
 300 0014 FFF7FEFF 		bl	CySpcGetAlgorithm
 301 0018 7860     		str	r0, [r7, #4]
 201:Generated_Source\PSoC5/CyFlash.c **** 
 202:Generated_Source\PSoC5/CyFlash.c ****         if(CYRET_STARTED == status)
 302              		.loc 1 202 0
 303 001a 7B68     		ldr	r3, [r7, #4]
 304 001c 072B     		cmp	r3, #7
 305 001e 1AD1     		bne	.L21
 203:Generated_Source\PSoC5/CyFlash.c ****         {
 204:Generated_Source\PSoC5/CyFlash.c ****             while(CY_SPC_BUSY)
 306              		.loc 1 204 0
 307 0020 02E0     		b	.L22
 308              	.L23:
ARM GAS  C:\Users\LUKASC~1\AppData\Local\Temp\cc9yyYuk.s 			page 10


 205:Generated_Source\PSoC5/CyFlash.c ****             {
 206:Generated_Source\PSoC5/CyFlash.c ****                 /* Spin until idle. */
 207:Generated_Source\PSoC5/CyFlash.c ****                 CyDelayUs(1u);
 309              		.loc 1 207 0
 310 0022 0120     		movs	r0, #1
 311 0024 FFF7FEFF 		bl	CyDelayUs
 312              	.L22:
 204:Generated_Source\PSoC5/CyFlash.c ****             {
 313              		.loc 1 204 0
 314 0028 104B     		ldr	r3, .L26
 315 002a 1B78     		ldrb	r3, [r3]
 316 002c DBB2     		uxtb	r3, r3
 317 002e 03F00203 		and	r3, r3, #2
 318 0032 002B     		cmp	r3, #0
 319 0034 F5D0     		beq	.L23
 208:Generated_Source\PSoC5/CyFlash.c ****             }
 209:Generated_Source\PSoC5/CyFlash.c **** 
 210:Generated_Source\PSoC5/CyFlash.c ****             if(CY_SPC_STATUS_SUCCESS == CY_SPC_READ_STATUS)
 320              		.loc 1 210 0
 321 0036 0D4B     		ldr	r3, .L26
 322 0038 1B78     		ldrb	r3, [r3]
 323 003a DBB2     		uxtb	r3, r3
 324 003c 03F00203 		and	r3, r3, #2
 325 0040 002B     		cmp	r3, #0
 326 0042 08D0     		beq	.L21
 327              		.loc 1 210 0 is_stmt 0 discriminator 1
 328 0044 094B     		ldr	r3, .L26
 329 0046 1B78     		ldrb	r3, [r3]
 330 0048 DBB2     		uxtb	r3, r3
 331 004a 9B08     		lsrs	r3, r3, #2
 332 004c DBB2     		uxtb	r3, r3
 333 004e 002B     		cmp	r3, #0
 334 0050 01D1     		bne	.L21
 211:Generated_Source\PSoC5/CyFlash.c ****             {
 212:Generated_Source\PSoC5/CyFlash.c ****                 status = CYRET_SUCCESS;
 335              		.loc 1 212 0 is_stmt 1
 336 0052 0023     		movs	r3, #0
 337 0054 7B60     		str	r3, [r7, #4]
 338              	.L21:
 213:Generated_Source\PSoC5/CyFlash.c ****             }
 214:Generated_Source\PSoC5/CyFlash.c ****         }
 215:Generated_Source\PSoC5/CyFlash.c ****         CySpcUnlock();
 339              		.loc 1 215 0
 340 0056 FFF7FEFF 		bl	CySpcUnlock
 341 005a 01E0     		b	.L24
 342              	.L20:
 216:Generated_Source\PSoC5/CyFlash.c ****     }
 217:Generated_Source\PSoC5/CyFlash.c ****     else
 218:Generated_Source\PSoC5/CyFlash.c ****     {
 219:Generated_Source\PSoC5/CyFlash.c ****         status = CYRET_LOCKED;
 343              		.loc 1 219 0
 344 005c 0423     		movs	r3, #4
 345 005e 7B60     		str	r3, [r7, #4]
 346              	.L24:
 220:Generated_Source\PSoC5/CyFlash.c ****     }
 221:Generated_Source\PSoC5/CyFlash.c **** 
 222:Generated_Source\PSoC5/CyFlash.c ****     return (status);
ARM GAS  C:\Users\LUKASC~1\AppData\Local\Temp\cc9yyYuk.s 			page 11


 347              		.loc 1 222 0
 348 0060 7B68     		ldr	r3, [r7, #4]
 223:Generated_Source\PSoC5/CyFlash.c **** }
 349              		.loc 1 223 0
 350 0062 1846     		mov	r0, r3
 351 0064 0837     		adds	r7, r7, #8
 352              		.cfi_def_cfa_offset 8
 353 0066 BD46     		mov	sp, r7
 354              		.cfi_def_cfa_register 13
 355              		@ sp needed
 356 0068 80BD     		pop	{r7, pc}
 357              	.L27:
 358 006a 00BF     		.align	2
 359              	.L26:
 360 006c 22470040 		.word	1073760034
 361              		.cfi_endproc
 362              	.LFE3:
 363              		.size	CyFlashGetSpcAlgorithm, .-CyFlashGetSpcAlgorithm
 364              		.section	.text.CySetTemp,"ax",%progbits
 365              		.align	2
 366              		.global	CySetTemp
 367              		.thumb
 368              		.thumb_func
 369              		.type	CySetTemp, %function
 370              	CySetTemp:
 371              	.LFB4:
 224:Generated_Source\PSoC5/CyFlash.c **** 
 225:Generated_Source\PSoC5/CyFlash.c **** 
 226:Generated_Source\PSoC5/CyFlash.c **** /*******************************************************************************
 227:Generated_Source\PSoC5/CyFlash.c **** * Function Name: CySetTemp
 228:Generated_Source\PSoC5/CyFlash.c **** ****************************************************************************//**
 229:Generated_Source\PSoC5/CyFlash.c **** *
 230:Generated_Source\PSoC5/CyFlash.c **** *  This is a wraparound for CySetTempInt(). It is used to return the second
 231:Generated_Source\PSoC5/CyFlash.c **** *  successful read of the temperature value.
 232:Generated_Source\PSoC5/CyFlash.c **** *
 233:Generated_Source\PSoC5/CyFlash.c **** * \return
 234:Generated_Source\PSoC5/CyFlash.c **** *  status:
 235:Generated_Source\PSoC5/CyFlash.c **** *   CYRET_SUCCESS if successful.
 236:Generated_Source\PSoC5/CyFlash.c **** *   CYRET_LOCKED  if Flash writing already in use
 237:Generated_Source\PSoC5/CyFlash.c **** *   CYRET_UNKNOWN if there was an SPC error.
 238:Generated_Source\PSoC5/CyFlash.c **** *
 239:Generated_Source\PSoC5/CyFlash.c **** *  uint8 dieTemperature[2]:
 240:Generated_Source\PSoC5/CyFlash.c **** *   Holds the die temperature for the flash writing algorithm. The first byte is
 241:Generated_Source\PSoC5/CyFlash.c **** *   the sign of the temperature (0 = negative, 1 = positive). The second byte is
 242:Generated_Source\PSoC5/CyFlash.c **** *   the magnitude.
 243:Generated_Source\PSoC5/CyFlash.c **** *
 244:Generated_Source\PSoC5/CyFlash.c **** *******************************************************************************/
 245:Generated_Source\PSoC5/CyFlash.c **** cystatus CySetTemp(void) 
 246:Generated_Source\PSoC5/CyFlash.c **** {
 372              		.loc 1 246 0
 373              		.cfi_startproc
 374              		@ args = 0, pretend = 0, frame = 8
 375              		@ frame_needed = 1, uses_anonymous_args = 0
 376 0000 80B5     		push	{r7, lr}
 377              		.cfi_def_cfa_offset 8
 378              		.cfi_offset 7, -8
 379              		.cfi_offset 14, -4
ARM GAS  C:\Users\LUKASC~1\AppData\Local\Temp\cc9yyYuk.s 			page 12


 380 0002 82B0     		sub	sp, sp, #8
 381              		.cfi_def_cfa_offset 16
 382 0004 00AF     		add	r7, sp, #0
 383              		.cfi_def_cfa_register 7
 247:Generated_Source\PSoC5/CyFlash.c ****     cystatus status = CyFlashGetSpcAlgorithm();
 384              		.loc 1 247 0
 385 0006 FFF7FEFF 		bl	CyFlashGetSpcAlgorithm
 386 000a 7860     		str	r0, [r7, #4]
 248:Generated_Source\PSoC5/CyFlash.c **** 
 249:Generated_Source\PSoC5/CyFlash.c ****     if(status == CYRET_SUCCESS)
 387              		.loc 1 249 0
 388 000c 7B68     		ldr	r3, [r7, #4]
 389 000e 002B     		cmp	r3, #0
 390 0010 02D1     		bne	.L29
 250:Generated_Source\PSoC5/CyFlash.c ****     {
 251:Generated_Source\PSoC5/CyFlash.c ****         status = CySetTempInt();
 391              		.loc 1 251 0
 392 0012 FFF7FEFF 		bl	CySetTempInt
 393 0016 7860     		str	r0, [r7, #4]
 394              	.L29:
 252:Generated_Source\PSoC5/CyFlash.c ****     }
 253:Generated_Source\PSoC5/CyFlash.c **** 
 254:Generated_Source\PSoC5/CyFlash.c ****     return (status);
 395              		.loc 1 254 0
 396 0018 7B68     		ldr	r3, [r7, #4]
 255:Generated_Source\PSoC5/CyFlash.c **** }
 397              		.loc 1 255 0
 398 001a 1846     		mov	r0, r3
 399 001c 0837     		adds	r7, r7, #8
 400              		.cfi_def_cfa_offset 8
 401 001e BD46     		mov	sp, r7
 402              		.cfi_def_cfa_register 13
 403              		@ sp needed
 404 0020 80BD     		pop	{r7, pc}
 405              		.cfi_endproc
 406              	.LFE4:
 407              		.size	CySetTemp, .-CySetTemp
 408 0022 00BF     		.section	.text.CySetFlashEEBuffer,"ax",%progbits
 409              		.align	2
 410              		.global	CySetFlashEEBuffer
 411              		.thumb
 412              		.thumb_func
 413              		.type	CySetFlashEEBuffer, %function
 414              	CySetFlashEEBuffer:
 415              	.LFB5:
 256:Generated_Source\PSoC5/CyFlash.c **** 
 257:Generated_Source\PSoC5/CyFlash.c **** 
 258:Generated_Source\PSoC5/CyFlash.c **** /*******************************************************************************
 259:Generated_Source\PSoC5/CyFlash.c **** * Function Name: CySetFlashEEBuffer
 260:Generated_Source\PSoC5/CyFlash.c **** ****************************************************************************//**
 261:Generated_Source\PSoC5/CyFlash.c **** *
 262:Generated_Source\PSoC5/CyFlash.c **** *  Sets the user supplied temporary buffer to store SPC data while performing
 263:Generated_Source\PSoC5/CyFlash.c **** *  Flash and EEPROM commands. This buffer is only necessary when the Flash ECC
 264:Generated_Source\PSoC5/CyFlash.c **** *  is disabled.
 265:Generated_Source\PSoC5/CyFlash.c **** *
 266:Generated_Source\PSoC5/CyFlash.c **** *  \param buffer:
 267:Generated_Source\PSoC5/CyFlash.c **** *   The address of a block of memory to store temporary memory. The size of the
ARM GAS  C:\Users\LUKASC~1\AppData\Local\Temp\cc9yyYuk.s 			page 13


 268:Generated_Source\PSoC5/CyFlash.c **** *   block of memory is CYDEV_FLS_ROW_SIZE + CYDEV_ECC_ROW_SIZE.
 269:Generated_Source\PSoC5/CyFlash.c **** *
 270:Generated_Source\PSoC5/CyFlash.c **** * \return
 271:Generated_Source\PSoC5/CyFlash.c **** *  status:
 272:Generated_Source\PSoC5/CyFlash.c **** *   CYRET_SUCCESS if successful.
 273:Generated_Source\PSoC5/CyFlash.c **** *   CYRET_BAD_PARAM if the buffer is NULL
 274:Generated_Source\PSoC5/CyFlash.c **** *
 275:Generated_Source\PSoC5/CyFlash.c **** *******************************************************************************/
 276:Generated_Source\PSoC5/CyFlash.c **** cystatus CySetFlashEEBuffer(uint8 * buffer) 
 277:Generated_Source\PSoC5/CyFlash.c **** {
 416              		.loc 1 277 0
 417              		.cfi_startproc
 418              		@ args = 0, pretend = 0, frame = 16
 419              		@ frame_needed = 1, uses_anonymous_args = 0
 420 0000 80B5     		push	{r7, lr}
 421              		.cfi_def_cfa_offset 8
 422              		.cfi_offset 7, -8
 423              		.cfi_offset 14, -4
 424 0002 84B0     		sub	sp, sp, #16
 425              		.cfi_def_cfa_offset 24
 426 0004 00AF     		add	r7, sp, #0
 427              		.cfi_def_cfa_register 7
 428 0006 7860     		str	r0, [r7, #4]
 278:Generated_Source\PSoC5/CyFlash.c ****     cystatus status = CYRET_SUCCESS;
 429              		.loc 1 278 0
 430 0008 0023     		movs	r3, #0
 431 000a FB60     		str	r3, [r7, #12]
 279:Generated_Source\PSoC5/CyFlash.c **** 
 280:Generated_Source\PSoC5/CyFlash.c ****     CySpcStart();
 432              		.loc 1 280 0
 433 000c FFF7FEFF 		bl	CySpcStart
 281:Generated_Source\PSoC5/CyFlash.c **** 
 282:Generated_Source\PSoC5/CyFlash.c ****     #if(CYDEV_ECC_ENABLE == 0)
 283:Generated_Source\PSoC5/CyFlash.c **** 
 284:Generated_Source\PSoC5/CyFlash.c ****         if(NULL == buffer)
 434              		.loc 1 284 0
 435 0010 7B68     		ldr	r3, [r7, #4]
 436 0012 002B     		cmp	r3, #0
 437 0014 06D1     		bne	.L32
 285:Generated_Source\PSoC5/CyFlash.c ****         {
 286:Generated_Source\PSoC5/CyFlash.c ****             rowBuffer = rowBuffer;
 438              		.loc 1 286 0
 439 0016 0E4B     		ldr	r3, .L36
 440 0018 1B68     		ldr	r3, [r3]
 441 001a 0D4A     		ldr	r2, .L36
 442 001c 1360     		str	r3, [r2]
 287:Generated_Source\PSoC5/CyFlash.c ****             status = CYRET_BAD_PARAM;
 443              		.loc 1 287 0
 444 001e 0123     		movs	r3, #1
 445 0020 FB60     		str	r3, [r7, #12]
 446 0022 10E0     		b	.L33
 447              	.L32:
 288:Generated_Source\PSoC5/CyFlash.c ****         }
 289:Generated_Source\PSoC5/CyFlash.c ****         else if(CySpcLock() != CYRET_SUCCESS)
 448              		.loc 1 289 0
 449 0024 FFF7FEFF 		bl	CySpcLock
 450 0028 0346     		mov	r3, r0
ARM GAS  C:\Users\LUKASC~1\AppData\Local\Temp\cc9yyYuk.s 			page 14


 451 002a 002B     		cmp	r3, #0
 452 002c 06D0     		beq	.L34
 290:Generated_Source\PSoC5/CyFlash.c ****         {
 291:Generated_Source\PSoC5/CyFlash.c ****             rowBuffer = rowBuffer;
 453              		.loc 1 291 0
 454 002e 084B     		ldr	r3, .L36
 455 0030 1B68     		ldr	r3, [r3]
 456 0032 074A     		ldr	r2, .L36
 457 0034 1360     		str	r3, [r2]
 292:Generated_Source\PSoC5/CyFlash.c ****             status = CYRET_LOCKED;
 458              		.loc 1 292 0
 459 0036 0423     		movs	r3, #4
 460 0038 FB60     		str	r3, [r7, #12]
 461 003a 04E0     		b	.L33
 462              	.L34:
 293:Generated_Source\PSoC5/CyFlash.c ****         }
 294:Generated_Source\PSoC5/CyFlash.c ****         else
 295:Generated_Source\PSoC5/CyFlash.c ****         {
 296:Generated_Source\PSoC5/CyFlash.c ****             rowBuffer = buffer;
 463              		.loc 1 296 0
 464 003c 044A     		ldr	r2, .L36
 465 003e 7B68     		ldr	r3, [r7, #4]
 466 0040 1360     		str	r3, [r2]
 297:Generated_Source\PSoC5/CyFlash.c ****             CySpcUnlock();
 467              		.loc 1 297 0
 468 0042 FFF7FEFF 		bl	CySpcUnlock
 469              	.L33:
 298:Generated_Source\PSoC5/CyFlash.c ****         }
 299:Generated_Source\PSoC5/CyFlash.c **** 
 300:Generated_Source\PSoC5/CyFlash.c ****     #else
 301:Generated_Source\PSoC5/CyFlash.c **** 
 302:Generated_Source\PSoC5/CyFlash.c ****         /* To suppress warning */
 303:Generated_Source\PSoC5/CyFlash.c ****         buffer = buffer;
 304:Generated_Source\PSoC5/CyFlash.c **** 
 305:Generated_Source\PSoC5/CyFlash.c ****     #endif  /* (CYDEV_ECC_ENABLE == 0u) */
 306:Generated_Source\PSoC5/CyFlash.c **** 
 307:Generated_Source\PSoC5/CyFlash.c ****     return(status);
 470              		.loc 1 307 0
 471 0046 FB68     		ldr	r3, [r7, #12]
 308:Generated_Source\PSoC5/CyFlash.c **** }
 472              		.loc 1 308 0
 473 0048 1846     		mov	r0, r3
 474 004a 1037     		adds	r7, r7, #16
 475              		.cfi_def_cfa_offset 8
 476 004c BD46     		mov	sp, r7
 477              		.cfi_def_cfa_register 13
 478              		@ sp needed
 479 004e 80BD     		pop	{r7, pc}
 480              	.L37:
 481              		.align	2
 482              	.L36:
 483 0050 00000000 		.word	rowBuffer
 484              		.cfi_endproc
 485              	.LFE5:
 486              		.size	CySetFlashEEBuffer, .-CySetFlashEEBuffer
 487              		.section	.text.CyWriteRowData,"ax",%progbits
 488              		.align	2
ARM GAS  C:\Users\LUKASC~1\AppData\Local\Temp\cc9yyYuk.s 			page 15


 489              		.global	CyWriteRowData
 490              		.thumb
 491              		.thumb_func
 492              		.type	CyWriteRowData, %function
 493              	CyWriteRowData:
 494              	.LFB6:
 309:Generated_Source\PSoC5/CyFlash.c **** 
 310:Generated_Source\PSoC5/CyFlash.c **** 
 311:Generated_Source\PSoC5/CyFlash.c **** /*******************************************************************************
 312:Generated_Source\PSoC5/CyFlash.c **** * Function Name: CyWriteRowData
 313:Generated_Source\PSoC5/CyFlash.c **** ****************************************************************************//**
 314:Generated_Source\PSoC5/CyFlash.c **** *
 315:Generated_Source\PSoC5/CyFlash.c **** *  Sends a command to the SPC to load and program a row of data in
 316:Generated_Source\PSoC5/CyFlash.c **** *  Flash or EEPROM.
 317:Generated_Source\PSoC5/CyFlash.c **** *
 318:Generated_Source\PSoC5/CyFlash.c **** *  \param arrayID:    ID of the array to write.
 319:Generated_Source\PSoC5/CyFlash.c **** *   The type of write, Flash or EEPROM, is determined from the array ID.
 320:Generated_Source\PSoC5/CyFlash.c **** *   The arrays in the part are sequential starting at the first ID for the
 321:Generated_Source\PSoC5/CyFlash.c **** *   specific memory type. The array ID for the Flash memory lasts from 0x00 to
 322:Generated_Source\PSoC5/CyFlash.c **** *   0x3F and for the EEPROM memory it lasts from 0x40 to 0x7F.
 323:Generated_Source\PSoC5/CyFlash.c **** *  \param rowAddress: rowAddress of flash row to program.
 324:Generated_Source\PSoC5/CyFlash.c **** *  \param rowData:    Array of bytes to write.
 325:Generated_Source\PSoC5/CyFlash.c **** *
 326:Generated_Source\PSoC5/CyFlash.c **** * \return
 327:Generated_Source\PSoC5/CyFlash.c **** *  status:
 328:Generated_Source\PSoC5/CyFlash.c **** *   CYRET_SUCCESS if successful.
 329:Generated_Source\PSoC5/CyFlash.c **** *   CYRET_LOCKED if the SPC is already in use.
 330:Generated_Source\PSoC5/CyFlash.c **** *   CYRET_CANCELED if command not accepted
 331:Generated_Source\PSoC5/CyFlash.c **** *   CYRET_UNKNOWN if there was an SPC error.
 332:Generated_Source\PSoC5/CyFlash.c **** *
 333:Generated_Source\PSoC5/CyFlash.c **** *******************************************************************************/
 334:Generated_Source\PSoC5/CyFlash.c **** cystatus CyWriteRowData(uint8 arrayId, uint16 rowAddress, const uint8 * rowData) 
 335:Generated_Source\PSoC5/CyFlash.c **** {
 495              		.loc 1 335 0
 496              		.cfi_startproc
 497              		@ args = 0, pretend = 0, frame = 16
 498              		@ frame_needed = 1, uses_anonymous_args = 0
 499 0000 80B5     		push	{r7, lr}
 500              		.cfi_def_cfa_offset 8
 501              		.cfi_offset 7, -8
 502              		.cfi_offset 14, -4
 503 0002 84B0     		sub	sp, sp, #16
 504              		.cfi_def_cfa_offset 24
 505 0004 00AF     		add	r7, sp, #0
 506              		.cfi_def_cfa_register 7
 507 0006 0346     		mov	r3, r0
 508 0008 3A60     		str	r2, [r7]
 509 000a FB71     		strb	r3, [r7, #7]
 510 000c 0B46     		mov	r3, r1	@ movhi
 511 000e BB80     		strh	r3, [r7, #4]	@ movhi
 336:Generated_Source\PSoC5/CyFlash.c ****     uint16 rowSize;
 337:Generated_Source\PSoC5/CyFlash.c ****     cystatus status;
 338:Generated_Source\PSoC5/CyFlash.c **** 
 339:Generated_Source\PSoC5/CyFlash.c ****     rowSize = (arrayId > CY_SPC_LAST_FLASH_ARRAYID) ? CYDEV_EEPROM_ROW_SIZE : CYDEV_FLS_ROW_SIZE;
 512              		.loc 1 339 0
 513 0010 FB79     		ldrb	r3, [r7, #7]	@ zero_extendqisi2
 514 0012 3F2B     		cmp	r3, #63
ARM GAS  C:\Users\LUKASC~1\AppData\Local\Temp\cc9yyYuk.s 			page 16


 515 0014 01D9     		bls	.L39
 516              		.loc 1 339 0 is_stmt 0 discriminator 1
 517 0016 1023     		movs	r3, #16
 518 0018 01E0     		b	.L40
 519              	.L39:
 520              		.loc 1 339 0 discriminator 2
 521 001a 4FF48073 		mov	r3, #256
 522              	.L40:
 523              		.loc 1 339 0 discriminator 4
 524 001e FB81     		strh	r3, [r7, #14]	@ movhi
 340:Generated_Source\PSoC5/CyFlash.c ****     status = CyWriteRowFull(arrayId, rowAddress, rowData, rowSize);
 525              		.loc 1 340 0 is_stmt 1 discriminator 4
 526 0020 F979     		ldrb	r1, [r7, #7]	@ zero_extendqisi2
 527 0022 BA88     		ldrh	r2, [r7, #4]
 528 0024 FB89     		ldrh	r3, [r7, #14]
 529 0026 0846     		mov	r0, r1
 530 0028 1146     		mov	r1, r2
 531 002a 3A68     		ldr	r2, [r7]
 532 002c FFF7FEFF 		bl	CyWriteRowFull
 533 0030 B860     		str	r0, [r7, #8]
 341:Generated_Source\PSoC5/CyFlash.c **** 
 342:Generated_Source\PSoC5/CyFlash.c ****     return(status);
 534              		.loc 1 342 0 discriminator 4
 535 0032 BB68     		ldr	r3, [r7, #8]
 343:Generated_Source\PSoC5/CyFlash.c **** }
 536              		.loc 1 343 0 discriminator 4
 537 0034 1846     		mov	r0, r3
 538 0036 1037     		adds	r7, r7, #16
 539              		.cfi_def_cfa_offset 8
 540 0038 BD46     		mov	sp, r7
 541              		.cfi_def_cfa_register 13
 542              		@ sp needed
 543 003a 80BD     		pop	{r7, pc}
 544              		.cfi_endproc
 545              	.LFE6:
 546              		.size	CyWriteRowData, .-CyWriteRowData
 547              		.section	.text.CyWriteRowConfig,"ax",%progbits
 548              		.align	2
 549              		.global	CyWriteRowConfig
 550              		.thumb
 551              		.thumb_func
 552              		.type	CyWriteRowConfig, %function
 553              	CyWriteRowConfig:
 554              	.LFB7:
 344:Generated_Source\PSoC5/CyFlash.c **** 
 345:Generated_Source\PSoC5/CyFlash.c **** 
 346:Generated_Source\PSoC5/CyFlash.c **** /*******************************************************************
 347:Generated_Source\PSoC5/CyFlash.c **** * If "Enable Error Correcting Code (ECC)" and "Store Configuration
 348:Generated_Source\PSoC5/CyFlash.c **** * Data in ECC" DWR options are disabled, ECC section is available
 349:Generated_Source\PSoC5/CyFlash.c **** * for user data.
 350:Generated_Source\PSoC5/CyFlash.c **** *******************************************************************/
 351:Generated_Source\PSoC5/CyFlash.c **** #if ((CYDEV_ECC_ENABLE == 0u) && (CYDEV_CONFIGURATION_ECC == 0u))
 352:Generated_Source\PSoC5/CyFlash.c **** 
 353:Generated_Source\PSoC5/CyFlash.c ****     /*******************************************************************************
 354:Generated_Source\PSoC5/CyFlash.c ****     * Function Name: CyWriteRowConfig
 355:Generated_Source\PSoC5/CyFlash.c ****     ****************************************************************************//**
 356:Generated_Source\PSoC5/CyFlash.c ****     *
ARM GAS  C:\Users\LUKASC~1\AppData\Local\Temp\cc9yyYuk.s 			page 17


 357:Generated_Source\PSoC5/CyFlash.c ****     *  Sends a command to the SPC to load and program a row of config data in the
 358:Generated_Source\PSoC5/CyFlash.c ****     *  Flash. This function is only valid for Flash array IDs (not for EEPROM).
 359:Generated_Source\PSoC5/CyFlash.c ****     *
 360:Generated_Source\PSoC5/CyFlash.c ****     *  \param arrayId:      ID of the array to write
 361:Generated_Source\PSoC5/CyFlash.c ****     *   The arrays in the part are sequential starting at the first ID for the
 362:Generated_Source\PSoC5/CyFlash.c ****     *   specific memory type. The array ID for the Flash memory lasts
 363:Generated_Source\PSoC5/CyFlash.c ****     *   from 0x00 to 0x3F.
 364:Generated_Source\PSoC5/CyFlash.c ****     *  \param rowAddress:   The address of the sector to erase.
 365:Generated_Source\PSoC5/CyFlash.c ****     *  \param rowECC:       The array of bytes to write.
 366:Generated_Source\PSoC5/CyFlash.c ****     *
 367:Generated_Source\PSoC5/CyFlash.c ****     * \return
 368:Generated_Source\PSoC5/CyFlash.c ****     *  status:
 369:Generated_Source\PSoC5/CyFlash.c ****     *   CYRET_SUCCESS if successful.
 370:Generated_Source\PSoC5/CyFlash.c ****     *   CYRET_LOCKED if the SPC is already in use.
 371:Generated_Source\PSoC5/CyFlash.c ****     *   CYRET_CANCELED if command not accepted
 372:Generated_Source\PSoC5/CyFlash.c ****     *   CYRET_UNKNOWN if there was an SPC error.
 373:Generated_Source\PSoC5/CyFlash.c ****     *
 374:Generated_Source\PSoC5/CyFlash.c ****     *******************************************************************************/
 375:Generated_Source\PSoC5/CyFlash.c ****     cystatus CyWriteRowConfig(uint8 arrayId, uint16 rowAddress, const uint8 * rowECC)\
 376:Generated_Source\PSoC5/CyFlash.c ****     
 377:Generated_Source\PSoC5/CyFlash.c ****     {
 555              		.loc 1 377 0
 556              		.cfi_startproc
 557              		@ args = 0, pretend = 0, frame = 16
 558              		@ frame_needed = 1, uses_anonymous_args = 0
 559 0000 80B5     		push	{r7, lr}
 560              		.cfi_def_cfa_offset 8
 561              		.cfi_offset 7, -8
 562              		.cfi_offset 14, -4
 563 0002 84B0     		sub	sp, sp, #16
 564              		.cfi_def_cfa_offset 24
 565 0004 00AF     		add	r7, sp, #0
 566              		.cfi_def_cfa_register 7
 567 0006 0346     		mov	r3, r0
 568 0008 3A60     		str	r2, [r7]
 569 000a FB71     		strb	r3, [r7, #7]
 570 000c 0B46     		mov	r3, r1	@ movhi
 571 000e BB80     		strh	r3, [r7, #4]	@ movhi
 378:Generated_Source\PSoC5/CyFlash.c ****         cystatus status;
 379:Generated_Source\PSoC5/CyFlash.c **** 
 380:Generated_Source\PSoC5/CyFlash.c ****         status = CyWriteRowFull(arrayId, rowAddress, rowECC, CYDEV_ECC_ROW_SIZE);
 572              		.loc 1 380 0
 573 0010 FA79     		ldrb	r2, [r7, #7]	@ zero_extendqisi2
 574 0012 BB88     		ldrh	r3, [r7, #4]
 575 0014 1046     		mov	r0, r2
 576 0016 1946     		mov	r1, r3
 577 0018 3A68     		ldr	r2, [r7]
 578 001a 2023     		movs	r3, #32
 579 001c FFF7FEFF 		bl	CyWriteRowFull
 580 0020 F860     		str	r0, [r7, #12]
 381:Generated_Source\PSoC5/CyFlash.c **** 
 382:Generated_Source\PSoC5/CyFlash.c ****         return (status);
 581              		.loc 1 382 0
 582 0022 FB68     		ldr	r3, [r7, #12]
 383:Generated_Source\PSoC5/CyFlash.c ****     }
 583              		.loc 1 383 0
 584 0024 1846     		mov	r0, r3
ARM GAS  C:\Users\LUKASC~1\AppData\Local\Temp\cc9yyYuk.s 			page 18


 585 0026 1037     		adds	r7, r7, #16
 586              		.cfi_def_cfa_offset 8
 587 0028 BD46     		mov	sp, r7
 588              		.cfi_def_cfa_register 13
 589              		@ sp needed
 590 002a 80BD     		pop	{r7, pc}
 591              		.cfi_endproc
 592              	.LFE7:
 593              		.size	CyWriteRowConfig, .-CyWriteRowConfig
 594              		.section	.text.CyWriteRowFull,"ax",%progbits
 595              		.align	2
 596              		.global	CyWriteRowFull
 597              		.thumb
 598              		.thumb_func
 599              		.type	CyWriteRowFull, %function
 600              	CyWriteRowFull:
 601              	.LFB8:
 384:Generated_Source\PSoC5/CyFlash.c **** 
 385:Generated_Source\PSoC5/CyFlash.c **** #endif  /* ((CYDEV_ECC_ENABLE == 0u) && (CYDEV_CONFIGURATION_ECC == 0u)) */
 386:Generated_Source\PSoC5/CyFlash.c **** 
 387:Generated_Source\PSoC5/CyFlash.c **** 
 388:Generated_Source\PSoC5/CyFlash.c **** 
 389:Generated_Source\PSoC5/CyFlash.c **** /*******************************************************************************
 390:Generated_Source\PSoC5/CyFlash.c **** * Function Name: CyWriteRowFull
 391:Generated_Source\PSoC5/CyFlash.c **** ****************************************************************************//**
 392:Generated_Source\PSoC5/CyFlash.c **** *  Sends a command to the SPC to load and program a row of data in the Flash.
 393:Generated_Source\PSoC5/CyFlash.c **** *  rowData array is expected to contain Flash and ECC data if needed.
 394:Generated_Source\PSoC5/CyFlash.c **** *
 395:Generated_Source\PSoC5/CyFlash.c **** *  \param arrayId:    FLASH or EEPROM array id.
 396:Generated_Source\PSoC5/CyFlash.c **** *  \param rowData:    Pointer to a row of data to write.
 397:Generated_Source\PSoC5/CyFlash.c **** *  \param rowNumber:  Zero based number of the row.
 398:Generated_Source\PSoC5/CyFlash.c **** *  \param rowSize:    Size of the row.
 399:Generated_Source\PSoC5/CyFlash.c **** *
 400:Generated_Source\PSoC5/CyFlash.c **** * \return
 401:Generated_Source\PSoC5/CyFlash.c **** *  CYRET_SUCCESS if successful.
 402:Generated_Source\PSoC5/CyFlash.c **** *  CYRET_LOCKED if the SPC is already in use.
 403:Generated_Source\PSoC5/CyFlash.c **** *  CYRET_CANCELED if command not accepted
 404:Generated_Source\PSoC5/CyFlash.c **** *  CYRET_UNKNOWN if there was an SPC error.
 405:Generated_Source\PSoC5/CyFlash.c **** *
 406:Generated_Source\PSoC5/CyFlash.c **** *******************************************************************************/
 407:Generated_Source\PSoC5/CyFlash.c **** cystatus CyWriteRowFull(uint8 arrayId, uint16 rowNumber, const uint8* rowData, uint16 rowSize) \
 408:Generated_Source\PSoC5/CyFlash.c ****         
 409:Generated_Source\PSoC5/CyFlash.c **** {
 602              		.loc 1 409 0
 603              		.cfi_startproc
 604              		@ args = 0, pretend = 0, frame = 24
 605              		@ frame_needed = 1, uses_anonymous_args = 0
 606 0000 80B5     		push	{r7, lr}
 607              		.cfi_def_cfa_offset 8
 608              		.cfi_offset 7, -8
 609              		.cfi_offset 14, -4
 610 0002 86B0     		sub	sp, sp, #24
 611              		.cfi_def_cfa_offset 32
 612 0004 00AF     		add	r7, sp, #0
 613              		.cfi_def_cfa_register 7
 614 0006 BA60     		str	r2, [r7, #8]
 615 0008 1A46     		mov	r2, r3
ARM GAS  C:\Users\LUKASC~1\AppData\Local\Temp\cc9yyYuk.s 			page 19


 616 000a 0346     		mov	r3, r0
 617 000c FB73     		strb	r3, [r7, #15]
 618 000e 0B46     		mov	r3, r1	@ movhi
 619 0010 BB81     		strh	r3, [r7, #12]	@ movhi
 620 0012 1346     		mov	r3, r2	@ movhi
 621 0014 FB80     		strh	r3, [r7, #6]	@ movhi
 410:Generated_Source\PSoC5/CyFlash.c ****     cystatus status = CYRET_SUCCESS;
 622              		.loc 1 410 0
 623 0016 0023     		movs	r3, #0
 624 0018 7B61     		str	r3, [r7, #20]
 411:Generated_Source\PSoC5/CyFlash.c **** 
 412:Generated_Source\PSoC5/CyFlash.c ****     if((arrayId <=  CY_SPC_LAST_FLASH_ARRAYID) && (arrayId > (CY_FLASH_NUMBER_ARRAYS  + CY_SPC_FIRS
 625              		.loc 1 412 0
 626 001a FB7B     		ldrb	r3, [r7, #15]	@ zero_extendqisi2
 627 001c 3F2B     		cmp	r3, #63
 628 001e 04D8     		bhi	.L45
 629              		.loc 1 412 0 is_stmt 0 discriminator 1
 630 0020 FB7B     		ldrb	r3, [r7, #15]	@ zero_extendqisi2
 631 0022 042B     		cmp	r3, #4
 632 0024 01D9     		bls	.L45
 413:Generated_Source\PSoC5/CyFlash.c ****     {
 414:Generated_Source\PSoC5/CyFlash.c ****         status = CYRET_BAD_PARAM;
 633              		.loc 1 414 0 is_stmt 1
 634 0026 0123     		movs	r3, #1
 635 0028 7B61     		str	r3, [r7, #20]
 636              	.L45:
 415:Generated_Source\PSoC5/CyFlash.c ****     }
 416:Generated_Source\PSoC5/CyFlash.c **** 
 417:Generated_Source\PSoC5/CyFlash.c ****     if(arrayId > CY_SPC_LAST_EE_ARRAYID)
 637              		.loc 1 417 0
 638 002a FB7B     		ldrb	r3, [r7, #15]	@ zero_extendqisi2
 639 002c 5BB2     		sxtb	r3, r3
 640 002e 002B     		cmp	r3, #0
 641 0030 01DA     		bge	.L46
 418:Generated_Source\PSoC5/CyFlash.c ****     {
 419:Generated_Source\PSoC5/CyFlash.c ****         status = CYRET_BAD_PARAM;
 642              		.loc 1 419 0
 643 0032 0123     		movs	r3, #1
 644 0034 7B61     		str	r3, [r7, #20]
 645              	.L46:
 420:Generated_Source\PSoC5/CyFlash.c ****     }
 421:Generated_Source\PSoC5/CyFlash.c **** 
 422:Generated_Source\PSoC5/CyFlash.c ****     if((arrayId >= CY_SPC_FIRST_EE_ARRAYID) && (arrayId > (CY_FLASH_EEPROM_NUMBER_ARRAYS + CY_SPC_F
 646              		.loc 1 422 0
 647 0036 FB7B     		ldrb	r3, [r7, #15]	@ zero_extendqisi2
 648 0038 3F2B     		cmp	r3, #63
 649 003a 04D9     		bls	.L47
 650              		.loc 1 422 0 is_stmt 0 discriminator 1
 651 003c FB7B     		ldrb	r3, [r7, #15]	@ zero_extendqisi2
 652 003e 412B     		cmp	r3, #65
 653 0040 01D9     		bls	.L47
 423:Generated_Source\PSoC5/CyFlash.c ****     {
 424:Generated_Source\PSoC5/CyFlash.c ****         status = CYRET_BAD_PARAM;
 654              		.loc 1 424 0 is_stmt 1
 655 0042 0123     		movs	r3, #1
 656 0044 7B61     		str	r3, [r7, #20]
 657              	.L47:
ARM GAS  C:\Users\LUKASC~1\AppData\Local\Temp\cc9yyYuk.s 			page 20


 425:Generated_Source\PSoC5/CyFlash.c ****     }
 426:Generated_Source\PSoC5/CyFlash.c **** 
 427:Generated_Source\PSoC5/CyFlash.c ****     if(arrayId <=  CY_SPC_LAST_FLASH_ARRAYID)
 658              		.loc 1 427 0
 659 0046 FB7B     		ldrb	r3, [r7, #15]	@ zero_extendqisi2
 660 0048 3F2B     		cmp	r3, #63
 661 004a 06D8     		bhi	.L48
 428:Generated_Source\PSoC5/CyFlash.c ****     {
 429:Generated_Source\PSoC5/CyFlash.c ****         /* Flash */
 430:Generated_Source\PSoC5/CyFlash.c ****         if(rowNumber > (CY_FLASH_NUMBER_ROWS/CY_FLASH_NUMBER_ARRAYS))
 662              		.loc 1 430 0
 663 004c BB89     		ldrh	r3, [r7, #12]
 664 004e B3F5807F 		cmp	r3, #256
 665 0052 0CD9     		bls	.L50
 431:Generated_Source\PSoC5/CyFlash.c ****         {
 432:Generated_Source\PSoC5/CyFlash.c ****             status = CYRET_BAD_PARAM;
 666              		.loc 1 432 0
 667 0054 0123     		movs	r3, #1
 668 0056 7B61     		str	r3, [r7, #20]
 669 0058 09E0     		b	.L50
 670              	.L48:
 433:Generated_Source\PSoC5/CyFlash.c ****         }
 434:Generated_Source\PSoC5/CyFlash.c ****     }
 435:Generated_Source\PSoC5/CyFlash.c ****     else
 436:Generated_Source\PSoC5/CyFlash.c ****     {
 437:Generated_Source\PSoC5/CyFlash.c ****         /* EEPROM */
 438:Generated_Source\PSoC5/CyFlash.c ****         if(rowNumber > (CY_EEPROM_NUMBER_ROWS/CY_FLASH_EEPROM_NUMBER_ARRAYS))
 671              		.loc 1 438 0
 672 005a BB89     		ldrh	r3, [r7, #12]
 673 005c 802B     		cmp	r3, #128
 674 005e 01D9     		bls	.L51
 439:Generated_Source\PSoC5/CyFlash.c ****         {
 440:Generated_Source\PSoC5/CyFlash.c ****             status = CYRET_BAD_PARAM;
 675              		.loc 1 440 0
 676 0060 0123     		movs	r3, #1
 677 0062 7B61     		str	r3, [r7, #20]
 678              	.L51:
 441:Generated_Source\PSoC5/CyFlash.c ****         }
 442:Generated_Source\PSoC5/CyFlash.c **** 
 443:Generated_Source\PSoC5/CyFlash.c ****         if(CY_EEPROM_SIZEOF_ROW != rowSize)
 679              		.loc 1 443 0
 680 0064 FB88     		ldrh	r3, [r7, #6]
 681 0066 102B     		cmp	r3, #16
 682 0068 01D0     		beq	.L50
 444:Generated_Source\PSoC5/CyFlash.c ****         {
 445:Generated_Source\PSoC5/CyFlash.c ****             status = CYRET_BAD_PARAM;
 683              		.loc 1 445 0
 684 006a 0123     		movs	r3, #1
 685 006c 7B61     		str	r3, [r7, #20]
 686              	.L50:
 446:Generated_Source\PSoC5/CyFlash.c ****         }
 447:Generated_Source\PSoC5/CyFlash.c ****     }
 448:Generated_Source\PSoC5/CyFlash.c **** 
 449:Generated_Source\PSoC5/CyFlash.c ****     if(rowData == NULL)
 687              		.loc 1 449 0
 688 006e BB68     		ldr	r3, [r7, #8]
 689 0070 002B     		cmp	r3, #0
ARM GAS  C:\Users\LUKASC~1\AppData\Local\Temp\cc9yyYuk.s 			page 21


 690 0072 01D1     		bne	.L52
 450:Generated_Source\PSoC5/CyFlash.c ****     {
 451:Generated_Source\PSoC5/CyFlash.c ****         status = CYRET_BAD_PARAM;
 691              		.loc 1 451 0
 692 0074 0123     		movs	r3, #1
 693 0076 7B61     		str	r3, [r7, #20]
 694              	.L52:
 452:Generated_Source\PSoC5/CyFlash.c ****     }
 453:Generated_Source\PSoC5/CyFlash.c **** 
 454:Generated_Source\PSoC5/CyFlash.c **** 
 455:Generated_Source\PSoC5/CyFlash.c ****     if(status == CYRET_SUCCESS)
 695              		.loc 1 455 0
 696 0078 7B69     		ldr	r3, [r7, #20]
 697 007a 002B     		cmp	r3, #0
 698 007c 62D1     		bne	.L53
 456:Generated_Source\PSoC5/CyFlash.c ****     {
 457:Generated_Source\PSoC5/CyFlash.c ****         if(CySpcLock() == CYRET_SUCCESS)
 699              		.loc 1 457 0
 700 007e FFF7FEFF 		bl	CySpcLock
 701 0082 0346     		mov	r3, r0
 702 0084 002B     		cmp	r3, #0
 703 0086 5BD1     		bne	.L54
 458:Generated_Source\PSoC5/CyFlash.c ****         {
 459:Generated_Source\PSoC5/CyFlash.c ****             /* Load row data into SPC internal latch */
 460:Generated_Source\PSoC5/CyFlash.c ****             status = CySpcLoadRowFull(arrayId, rowNumber, rowData, rowSize);
 704              		.loc 1 460 0
 705 0088 F97B     		ldrb	r1, [r7, #15]	@ zero_extendqisi2
 706 008a BA89     		ldrh	r2, [r7, #12]
 707 008c FB88     		ldrh	r3, [r7, #6]
 708 008e 0846     		mov	r0, r1
 709 0090 1146     		mov	r1, r2
 710 0092 BA68     		ldr	r2, [r7, #8]
 711 0094 FFF7FEFF 		bl	CySpcLoadRowFull
 712 0098 7861     		str	r0, [r7, #20]
 461:Generated_Source\PSoC5/CyFlash.c **** 
 462:Generated_Source\PSoC5/CyFlash.c ****             if(CYRET_STARTED == status)
 713              		.loc 1 462 0
 714 009a 7B69     		ldr	r3, [r7, #20]
 715 009c 072B     		cmp	r3, #7
 716 009e 4CD1     		bne	.L55
 463:Generated_Source\PSoC5/CyFlash.c ****             {
 464:Generated_Source\PSoC5/CyFlash.c ****                 while(CY_SPC_BUSY)
 717              		.loc 1 464 0
 718 00a0 02E0     		b	.L56
 719              	.L57:
 465:Generated_Source\PSoC5/CyFlash.c ****                 {
 466:Generated_Source\PSoC5/CyFlash.c ****                     /* Wait for SPC to finish and get SPC status */
 467:Generated_Source\PSoC5/CyFlash.c ****                     CyDelayUs(1u);
 720              		.loc 1 467 0
 721 00a2 0120     		movs	r0, #1
 722 00a4 FFF7FEFF 		bl	CyDelayUs
 723              	.L56:
 464:Generated_Source\PSoC5/CyFlash.c ****                 {
 724              		.loc 1 464 0
 725 00a8 294B     		ldr	r3, .L64
 726 00aa 1B78     		ldrb	r3, [r3]
 727 00ac DBB2     		uxtb	r3, r3
ARM GAS  C:\Users\LUKASC~1\AppData\Local\Temp\cc9yyYuk.s 			page 22


 728 00ae 03F00203 		and	r3, r3, #2
 729 00b2 002B     		cmp	r3, #0
 730 00b4 F5D0     		beq	.L57
 468:Generated_Source\PSoC5/CyFlash.c ****                 }
 469:Generated_Source\PSoC5/CyFlash.c **** 
 470:Generated_Source\PSoC5/CyFlash.c ****                 /* Hide SPC status */
 471:Generated_Source\PSoC5/CyFlash.c ****                 if(CY_SPC_STATUS_SUCCESS == CY_SPC_READ_STATUS)
 731              		.loc 1 471 0
 732 00b6 264B     		ldr	r3, .L64
 733 00b8 1B78     		ldrb	r3, [r3]
 734 00ba DBB2     		uxtb	r3, r3
 735 00bc 03F00203 		and	r3, r3, #2
 736 00c0 002B     		cmp	r3, #0
 737 00c2 09D0     		beq	.L58
 738              		.loc 1 471 0 is_stmt 0 discriminator 1
 739 00c4 224B     		ldr	r3, .L64
 740 00c6 1B78     		ldrb	r3, [r3]
 741 00c8 DBB2     		uxtb	r3, r3
 742 00ca 9B08     		lsrs	r3, r3, #2
 743 00cc DBB2     		uxtb	r3, r3
 744 00ce 002B     		cmp	r3, #0
 745 00d0 02D1     		bne	.L58
 472:Generated_Source\PSoC5/CyFlash.c ****                 {
 473:Generated_Source\PSoC5/CyFlash.c ****                     status = CYRET_SUCCESS;
 746              		.loc 1 473 0 is_stmt 1
 747 00d2 0023     		movs	r3, #0
 748 00d4 7B61     		str	r3, [r7, #20]
 749 00d6 02E0     		b	.L59
 750              	.L58:
 474:Generated_Source\PSoC5/CyFlash.c ****                 }
 475:Generated_Source\PSoC5/CyFlash.c ****                 else
 476:Generated_Source\PSoC5/CyFlash.c ****                 {
 477:Generated_Source\PSoC5/CyFlash.c ****                     status = CYRET_UNKNOWN;
 751              		.loc 1 477 0
 752 00d8 4FF0FF33 		mov	r3, #-1
 753 00dc 7B61     		str	r3, [r7, #20]
 754              	.L59:
 478:Generated_Source\PSoC5/CyFlash.c ****                 }
 479:Generated_Source\PSoC5/CyFlash.c **** 
 480:Generated_Source\PSoC5/CyFlash.c ****                 if(CYRET_SUCCESS == status)
 755              		.loc 1 480 0
 756 00de 7B69     		ldr	r3, [r7, #20]
 757 00e0 002B     		cmp	r3, #0
 758 00e2 2AD1     		bne	.L55
 481:Generated_Source\PSoC5/CyFlash.c ****                 {
 482:Generated_Source\PSoC5/CyFlash.c ****                     /* Erase and program flash with data from SPC interval latch */
 483:Generated_Source\PSoC5/CyFlash.c ****                     status = CySpcWriteRow(arrayId, rowNumber, dieTemperature[0u], dieTemperature[1
 759              		.loc 1 483 0
 760 00e4 1B4B     		ldr	r3, .L64+4
 761 00e6 1A78     		ldrb	r2, [r3]	@ zero_extendqisi2
 762 00e8 1A4B     		ldr	r3, .L64+4
 763 00ea 5B78     		ldrb	r3, [r3, #1]	@ zero_extendqisi2
 764 00ec F87B     		ldrb	r0, [r7, #15]	@ zero_extendqisi2
 765 00ee B989     		ldrh	r1, [r7, #12]
 766 00f0 FFF7FEFF 		bl	CySpcWriteRow
 767 00f4 7861     		str	r0, [r7, #20]
 484:Generated_Source\PSoC5/CyFlash.c **** 
ARM GAS  C:\Users\LUKASC~1\AppData\Local\Temp\cc9yyYuk.s 			page 23


 485:Generated_Source\PSoC5/CyFlash.c ****                     if(CYRET_STARTED == status)
 768              		.loc 1 485 0
 769 00f6 7B69     		ldr	r3, [r7, #20]
 770 00f8 072B     		cmp	r3, #7
 771 00fa 1ED1     		bne	.L55
 486:Generated_Source\PSoC5/CyFlash.c ****                     {
 487:Generated_Source\PSoC5/CyFlash.c ****                         while(CY_SPC_BUSY)
 772              		.loc 1 487 0
 773 00fc 02E0     		b	.L60
 774              	.L61:
 488:Generated_Source\PSoC5/CyFlash.c ****                         {
 489:Generated_Source\PSoC5/CyFlash.c ****                             /* Wait for SPC to finish and get SPC status */
 490:Generated_Source\PSoC5/CyFlash.c ****                             CyDelayUs(1u);
 775              		.loc 1 490 0
 776 00fe 0120     		movs	r0, #1
 777 0100 FFF7FEFF 		bl	CyDelayUs
 778              	.L60:
 487:Generated_Source\PSoC5/CyFlash.c ****                         {
 779              		.loc 1 487 0
 780 0104 124B     		ldr	r3, .L64
 781 0106 1B78     		ldrb	r3, [r3]
 782 0108 DBB2     		uxtb	r3, r3
 783 010a 03F00203 		and	r3, r3, #2
 784 010e 002B     		cmp	r3, #0
 785 0110 F5D0     		beq	.L61
 491:Generated_Source\PSoC5/CyFlash.c ****                         }
 492:Generated_Source\PSoC5/CyFlash.c **** 
 493:Generated_Source\PSoC5/CyFlash.c ****                         /* Hide SPC status */
 494:Generated_Source\PSoC5/CyFlash.c ****                         if(CY_SPC_STATUS_SUCCESS == CY_SPC_READ_STATUS)
 786              		.loc 1 494 0
 787 0112 0F4B     		ldr	r3, .L64
 788 0114 1B78     		ldrb	r3, [r3]
 789 0116 DBB2     		uxtb	r3, r3
 790 0118 03F00203 		and	r3, r3, #2
 791 011c 002B     		cmp	r3, #0
 792 011e 09D0     		beq	.L62
 793              		.loc 1 494 0 is_stmt 0 discriminator 1
 794 0120 0B4B     		ldr	r3, .L64
 795 0122 1B78     		ldrb	r3, [r3]
 796 0124 DBB2     		uxtb	r3, r3
 797 0126 9B08     		lsrs	r3, r3, #2
 798 0128 DBB2     		uxtb	r3, r3
 799 012a 002B     		cmp	r3, #0
 800 012c 02D1     		bne	.L62
 495:Generated_Source\PSoC5/CyFlash.c ****                         {
 496:Generated_Source\PSoC5/CyFlash.c ****                             status = CYRET_SUCCESS;
 801              		.loc 1 496 0 is_stmt 1
 802 012e 0023     		movs	r3, #0
 803 0130 7B61     		str	r3, [r7, #20]
 804 0132 02E0     		b	.L55
 805              	.L62:
 497:Generated_Source\PSoC5/CyFlash.c ****                         }
 498:Generated_Source\PSoC5/CyFlash.c ****                         else
 499:Generated_Source\PSoC5/CyFlash.c ****                         {
 500:Generated_Source\PSoC5/CyFlash.c ****                             status = CYRET_UNKNOWN;
 806              		.loc 1 500 0
 807 0134 4FF0FF33 		mov	r3, #-1
ARM GAS  C:\Users\LUKASC~1\AppData\Local\Temp\cc9yyYuk.s 			page 24


 808 0138 7B61     		str	r3, [r7, #20]
 809              	.L55:
 501:Generated_Source\PSoC5/CyFlash.c ****                         }
 502:Generated_Source\PSoC5/CyFlash.c ****                     }
 503:Generated_Source\PSoC5/CyFlash.c ****                 }
 504:Generated_Source\PSoC5/CyFlash.c ****             }
 505:Generated_Source\PSoC5/CyFlash.c ****             CySpcUnlock();
 810              		.loc 1 505 0
 811 013a FFF7FEFF 		bl	CySpcUnlock
 812 013e 01E0     		b	.L53
 813              	.L54:
 506:Generated_Source\PSoC5/CyFlash.c ****         }   /* if(CySpcLock() == CYRET_SUCCESS) */
 507:Generated_Source\PSoC5/CyFlash.c ****         else
 508:Generated_Source\PSoC5/CyFlash.c ****         {
 509:Generated_Source\PSoC5/CyFlash.c ****             status = CYRET_LOCKED;
 814              		.loc 1 509 0
 815 0140 0423     		movs	r3, #4
 816 0142 7B61     		str	r3, [r7, #20]
 817              	.L53:
 510:Generated_Source\PSoC5/CyFlash.c ****         }
 511:Generated_Source\PSoC5/CyFlash.c ****     }
 512:Generated_Source\PSoC5/CyFlash.c **** 
 513:Generated_Source\PSoC5/CyFlash.c ****     return(status);
 818              		.loc 1 513 0
 819 0144 7B69     		ldr	r3, [r7, #20]
 514:Generated_Source\PSoC5/CyFlash.c **** }
 820              		.loc 1 514 0
 821 0146 1846     		mov	r0, r3
 822 0148 1837     		adds	r7, r7, #24
 823              		.cfi_def_cfa_offset 8
 824 014a BD46     		mov	sp, r7
 825              		.cfi_def_cfa_register 13
 826              		@ sp needed
 827 014c 80BD     		pop	{r7, pc}
 828              	.L65:
 829 014e 00BF     		.align	2
 830              	.L64:
 831 0150 22470040 		.word	1073760034
 832 0154 00000000 		.word	dieTemperature
 833              		.cfi_endproc
 834              	.LFE8:
 835              		.size	CyWriteRowFull, .-CyWriteRowFull
 836              		.section	.text.CyFlash_SetWaitCycles,"ax",%progbits
 837              		.align	2
 838              		.global	CyFlash_SetWaitCycles
 839              		.thumb
 840              		.thumb_func
 841              		.type	CyFlash_SetWaitCycles, %function
 842              	CyFlash_SetWaitCycles:
 843              	.LFB9:
 515:Generated_Source\PSoC5/CyFlash.c **** 
 516:Generated_Source\PSoC5/CyFlash.c **** 
 517:Generated_Source\PSoC5/CyFlash.c **** /*******************************************************************************
 518:Generated_Source\PSoC5/CyFlash.c **** * Function Name: CyFlash_SetWaitCycles
 519:Generated_Source\PSoC5/CyFlash.c **** ****************************************************************************//**
 520:Generated_Source\PSoC5/CyFlash.c **** *
 521:Generated_Source\PSoC5/CyFlash.c **** *  Sets the number of clock cycles the cache will wait before it samples data
ARM GAS  C:\Users\LUKASC~1\AppData\Local\Temp\cc9yyYuk.s 			page 25


 522:Generated_Source\PSoC5/CyFlash.c **** *  coming back from the Flash. This function must be called before increasing
 523:Generated_Source\PSoC5/CyFlash.c **** *  the CPU clock frequency. It can optionally be called after lowering the CPU
 524:Generated_Source\PSoC5/CyFlash.c **** *  clock frequency in order to improve the CPU performance.
 525:Generated_Source\PSoC5/CyFlash.c **** *
 526:Generated_Source\PSoC5/CyFlash.c **** *  \param uint8 freq:
 527:Generated_Source\PSoC5/CyFlash.c **** *   Frequency of operation in Megahertz.
 528:Generated_Source\PSoC5/CyFlash.c **** *
 529:Generated_Source\PSoC5/CyFlash.c **** *******************************************************************************/
 530:Generated_Source\PSoC5/CyFlash.c **** void CyFlash_SetWaitCycles(uint8 freq) 
 531:Generated_Source\PSoC5/CyFlash.c **** {
 844              		.loc 1 531 0
 845              		.cfi_startproc
 846              		@ args = 0, pretend = 0, frame = 16
 847              		@ frame_needed = 1, uses_anonymous_args = 0
 848 0000 80B5     		push	{r7, lr}
 849              		.cfi_def_cfa_offset 8
 850              		.cfi_offset 7, -8
 851              		.cfi_offset 14, -4
 852 0002 84B0     		sub	sp, sp, #16
 853              		.cfi_def_cfa_offset 24
 854 0004 00AF     		add	r7, sp, #0
 855              		.cfi_def_cfa_register 7
 856 0006 0346     		mov	r3, r0
 857 0008 FB71     		strb	r3, [r7, #7]
 532:Generated_Source\PSoC5/CyFlash.c ****     uint8 interruptState;
 533:Generated_Source\PSoC5/CyFlash.c **** 
 534:Generated_Source\PSoC5/CyFlash.c ****     /* Save current global interrupt enable and disable it */
 535:Generated_Source\PSoC5/CyFlash.c ****     interruptState = CyEnterCriticalSection();
 858              		.loc 1 535 0
 859 000a FFF7FEFF 		bl	CyEnterCriticalSection
 860 000e 0346     		mov	r3, r0
 861 0010 FB73     		strb	r3, [r7, #15]
 536:Generated_Source\PSoC5/CyFlash.c **** 
 537:Generated_Source\PSoC5/CyFlash.c ****     /***************************************************************************
 538:Generated_Source\PSoC5/CyFlash.c ****     * The number of clock cycles the cache will wait before it samples data
 539:Generated_Source\PSoC5/CyFlash.c ****     * coming back from the Flash must be equal or greater to to the CPU frequency
 540:Generated_Source\PSoC5/CyFlash.c ****     * outlined in clock cycles.
 541:Generated_Source\PSoC5/CyFlash.c ****     ***************************************************************************/
 542:Generated_Source\PSoC5/CyFlash.c **** 
 543:Generated_Source\PSoC5/CyFlash.c ****     if (freq < CY_FLASH_CACHE_WS_1_FREQ_MAX)
 862              		.loc 1 543 0
 863 0012 FB79     		ldrb	r3, [r7, #7]	@ zero_extendqisi2
 864 0014 0F2B     		cmp	r3, #15
 865 0016 0BD8     		bhi	.L67
 544:Generated_Source\PSoC5/CyFlash.c ****     {
 545:Generated_Source\PSoC5/CyFlash.c ****         CY_FLASH_CONTROL_REG = (CY_FLASH_CONTROL_REG & (uint8)(~CY_FLASH_CACHE_WS_VALUE_MASK)) |
 866              		.loc 1 545 0
 867 0018 274A     		ldr	r2, .L73
 868 001a 274B     		ldr	r3, .L73
 869 001c 1B78     		ldrb	r3, [r3]
 870 001e DBB2     		uxtb	r3, r3
 871 0020 03F01F03 		and	r3, r3, #31
 872 0024 DBB2     		uxtb	r3, r3
 873 0026 43F04003 		orr	r3, r3, #64
 874 002a DBB2     		uxtb	r3, r3
 875 002c 1370     		strb	r3, [r2]
 876 002e 3BE0     		b	.L68
ARM GAS  C:\Users\LUKASC~1\AppData\Local\Temp\cc9yyYuk.s 			page 26


 877              	.L67:
 546:Generated_Source\PSoC5/CyFlash.c ****                                     CY_FLASH_CACHE_WS_1_VALUE_MASK;
 547:Generated_Source\PSoC5/CyFlash.c ****     }
 548:Generated_Source\PSoC5/CyFlash.c ****     else if (freq < CY_FLASH_CACHE_WS_2_FREQ_MAX)
 878              		.loc 1 548 0
 879 0030 FB79     		ldrb	r3, [r7, #7]	@ zero_extendqisi2
 880 0032 202B     		cmp	r3, #32
 881 0034 0BD8     		bhi	.L69
 549:Generated_Source\PSoC5/CyFlash.c ****     {
 550:Generated_Source\PSoC5/CyFlash.c ****         CY_FLASH_CONTROL_REG = (CY_FLASH_CONTROL_REG & (uint8)(~CY_FLASH_CACHE_WS_VALUE_MASK)) |
 882              		.loc 1 550 0
 883 0036 204A     		ldr	r2, .L73
 884 0038 1F4B     		ldr	r3, .L73
 885 003a 1B78     		ldrb	r3, [r3]
 886 003c DBB2     		uxtb	r3, r3
 887 003e 03F01F03 		and	r3, r3, #31
 888 0042 DBB2     		uxtb	r3, r3
 889 0044 63F07F03 		orn	r3, r3, #127
 890 0048 DBB2     		uxtb	r3, r3
 891 004a 1370     		strb	r3, [r2]
 892 004c 2CE0     		b	.L68
 893              	.L69:
 551:Generated_Source\PSoC5/CyFlash.c ****                                     CY_FLASH_CACHE_WS_2_VALUE_MASK;
 552:Generated_Source\PSoC5/CyFlash.c ****     }
 553:Generated_Source\PSoC5/CyFlash.c ****     else if (freq < CY_FLASH_CACHE_WS_3_FREQ_MAX)
 894              		.loc 1 553 0
 895 004e FB79     		ldrb	r3, [r7, #7]	@ zero_extendqisi2
 896 0050 312B     		cmp	r3, #49
 897 0052 0BD8     		bhi	.L70
 554:Generated_Source\PSoC5/CyFlash.c ****     {
 555:Generated_Source\PSoC5/CyFlash.c ****         CY_FLASH_CONTROL_REG = (CY_FLASH_CONTROL_REG & (uint8)(~CY_FLASH_CACHE_WS_VALUE_MASK)) |
 898              		.loc 1 555 0
 899 0054 184A     		ldr	r2, .L73
 900 0056 184B     		ldr	r3, .L73
 901 0058 1B78     		ldrb	r3, [r3]
 902 005a DBB2     		uxtb	r3, r3
 903 005c 03F01F03 		and	r3, r3, #31
 904 0060 DBB2     		uxtb	r3, r3
 905 0062 63F03F03 		orn	r3, r3, #63
 906 0066 DBB2     		uxtb	r3, r3
 907 0068 1370     		strb	r3, [r2]
 908 006a 1DE0     		b	.L68
 909              	.L70:
 556:Generated_Source\PSoC5/CyFlash.c ****                                     CY_FLASH_CACHE_WS_3_VALUE_MASK;
 557:Generated_Source\PSoC5/CyFlash.c ****     }
 558:Generated_Source\PSoC5/CyFlash.c **** #if (CY_PSOC5)
 559:Generated_Source\PSoC5/CyFlash.c ****     else if (freq < CY_FLASH_CACHE_WS_4_FREQ_MAX)
 910              		.loc 1 559 0
 911 006c FB79     		ldrb	r3, [r7, #7]	@ zero_extendqisi2
 912 006e 422B     		cmp	r3, #66
 913 0070 08D8     		bhi	.L71
 560:Generated_Source\PSoC5/CyFlash.c ****     {
 561:Generated_Source\PSoC5/CyFlash.c ****         CY_FLASH_CONTROL_REG = (CY_FLASH_CONTROL_REG & (uint8)(~CY_FLASH_CACHE_WS_VALUE_MASK)) |
 914              		.loc 1 561 0
 915 0072 114A     		ldr	r2, .L73
 916 0074 104B     		ldr	r3, .L73
 917 0076 1B78     		ldrb	r3, [r3]
ARM GAS  C:\Users\LUKASC~1\AppData\Local\Temp\cc9yyYuk.s 			page 27


 918 0078 DBB2     		uxtb	r3, r3
 919 007a 03F01F03 		and	r3, r3, #31
 920 007e DBB2     		uxtb	r3, r3
 921 0080 1370     		strb	r3, [r2]
 922 0082 11E0     		b	.L68
 923              	.L71:
 562:Generated_Source\PSoC5/CyFlash.c ****                                     CY_FLASH_CACHE_WS_4_VALUE_MASK;
 563:Generated_Source\PSoC5/CyFlash.c ****     }
 564:Generated_Source\PSoC5/CyFlash.c ****     else if (freq <= CY_FLASH_CACHE_WS_5_FREQ_MAX)
 924              		.loc 1 564 0
 925 0084 FB79     		ldrb	r3, [r7, #7]	@ zero_extendqisi2
 926 0086 532B     		cmp	r3, #83
 927 0088 0BD8     		bhi	.L72
 565:Generated_Source\PSoC5/CyFlash.c ****     {
 566:Generated_Source\PSoC5/CyFlash.c ****         CY_FLASH_CONTROL_REG = (CY_FLASH_CONTROL_REG & (uint8)(~CY_FLASH_CACHE_WS_VALUE_MASK)) |
 928              		.loc 1 566 0
 929 008a 0B4A     		ldr	r2, .L73
 930 008c 0A4B     		ldr	r3, .L73
 931 008e 1B78     		ldrb	r3, [r3]
 932 0090 DBB2     		uxtb	r3, r3
 933 0092 03F01F03 		and	r3, r3, #31
 934 0096 DBB2     		uxtb	r3, r3
 935 0098 43F02003 		orr	r3, r3, #32
 936 009c DBB2     		uxtb	r3, r3
 937 009e 1370     		strb	r3, [r2]
 938 00a0 02E0     		b	.L68
 939              	.L72:
 567:Generated_Source\PSoC5/CyFlash.c ****                                     CY_FLASH_CACHE_WS_5_VALUE_MASK;
 568:Generated_Source\PSoC5/CyFlash.c ****     }
 569:Generated_Source\PSoC5/CyFlash.c **** #endif  /* (CY_PSOC5) */
 570:Generated_Source\PSoC5/CyFlash.c ****     else
 571:Generated_Source\PSoC5/CyFlash.c ****     {
 572:Generated_Source\PSoC5/CyFlash.c ****         /* Halt CPU in debug mode if frequency is invalid */
 573:Generated_Source\PSoC5/CyFlash.c ****         CYASSERT(0u != 0u);
 940              		.loc 1 573 0 discriminator 1
 941 00a2 0020     		movs	r0, #0
 942 00a4 FFF7FEFF 		bl	CyHalt
 943              	.L68:
 574:Generated_Source\PSoC5/CyFlash.c ****     }
 575:Generated_Source\PSoC5/CyFlash.c **** 
 576:Generated_Source\PSoC5/CyFlash.c ****     /* Restore global interrupt enable state */
 577:Generated_Source\PSoC5/CyFlash.c ****     CyExitCriticalSection(interruptState);
 944              		.loc 1 577 0
 945 00a8 FB7B     		ldrb	r3, [r7, #15]	@ zero_extendqisi2
 946 00aa 1846     		mov	r0, r3
 947 00ac FFF7FEFF 		bl	CyExitCriticalSection
 578:Generated_Source\PSoC5/CyFlash.c **** }
 948              		.loc 1 578 0
 949 00b0 1037     		adds	r7, r7, #16
 950              		.cfi_def_cfa_offset 8
 951 00b2 BD46     		mov	sp, r7
 952              		.cfi_def_cfa_register 13
 953              		@ sp needed
 954 00b4 80BD     		pop	{r7, pc}
 955              	.L74:
 956 00b6 00BF     		.align	2
 957              	.L73:
ARM GAS  C:\Users\LUKASC~1\AppData\Local\Temp\cc9yyYuk.s 			page 28


 958 00b8 00480040 		.word	1073760256
 959              		.cfi_endproc
 960              	.LFE9:
 961              		.size	CyFlash_SetWaitCycles, .-CyFlash_SetWaitCycles
 962              		.section	.text.CyEEPROM_Start,"ax",%progbits
 963              		.align	2
 964              		.global	CyEEPROM_Start
 965              		.thumb
 966              		.thumb_func
 967              		.type	CyEEPROM_Start, %function
 968              	CyEEPROM_Start:
 969              	.LFB10:
 579:Generated_Source\PSoC5/CyFlash.c **** 
 580:Generated_Source\PSoC5/CyFlash.c **** 
 581:Generated_Source\PSoC5/CyFlash.c **** /*******************************************************************************
 582:Generated_Source\PSoC5/CyFlash.c **** * Function Name: CyEEPROM_Start
 583:Generated_Source\PSoC5/CyFlash.c **** ****************************************************************************//**
 584:Generated_Source\PSoC5/CyFlash.c **** *
 585:Generated_Source\PSoC5/CyFlash.c **** *  Enable the EEPROM.
 586:Generated_Source\PSoC5/CyFlash.c **** *
 587:Generated_Source\PSoC5/CyFlash.c **** *******************************************************************************/
 588:Generated_Source\PSoC5/CyFlash.c **** void CyEEPROM_Start(void) 
 589:Generated_Source\PSoC5/CyFlash.c **** {
 970              		.loc 1 589 0
 971              		.cfi_startproc
 972              		@ args = 0, pretend = 0, frame = 8
 973              		@ frame_needed = 1, uses_anonymous_args = 0
 974 0000 80B5     		push	{r7, lr}
 975              		.cfi_def_cfa_offset 8
 976              		.cfi_offset 7, -8
 977              		.cfi_offset 14, -4
 978 0002 82B0     		sub	sp, sp, #8
 979              		.cfi_def_cfa_offset 16
 980 0004 00AF     		add	r7, sp, #0
 981              		.cfi_def_cfa_register 7
 590:Generated_Source\PSoC5/CyFlash.c ****     uint8 interruptState;
 591:Generated_Source\PSoC5/CyFlash.c **** 
 592:Generated_Source\PSoC5/CyFlash.c ****     interruptState = CyEnterCriticalSection();
 982              		.loc 1 592 0
 983 0006 FFF7FEFF 		bl	CyEnterCriticalSection
 984 000a 0346     		mov	r3, r0
 985 000c FB71     		strb	r3, [r7, #7]
 593:Generated_Source\PSoC5/CyFlash.c **** 
 594:Generated_Source\PSoC5/CyFlash.c **** 
 595:Generated_Source\PSoC5/CyFlash.c ****     /***************************************************************************
 596:Generated_Source\PSoC5/CyFlash.c ****     * Enable SPC clock. This also internally enables the 36MHz IMO, since this
 597:Generated_Source\PSoC5/CyFlash.c ****     * is required for the SPC to function.
 598:Generated_Source\PSoC5/CyFlash.c ****     ***************************************************************************/
 599:Generated_Source\PSoC5/CyFlash.c ****     CY_FLASH_PM_ACT_CFG0_REG    |= CY_FLASH_PM_ACT_CFG0_EN_CLK_SPC;
 986              		.loc 1 599 0
 987 000e 194A     		ldr	r2, .L77
 988 0010 184B     		ldr	r3, .L77
 989 0012 1B78     		ldrb	r3, [r3]
 990 0014 DBB2     		uxtb	r3, r3
 991 0016 43F00803 		orr	r3, r3, #8
 992 001a DBB2     		uxtb	r3, r3
 993 001c 1370     		strb	r3, [r2]
ARM GAS  C:\Users\LUKASC~1\AppData\Local\Temp\cc9yyYuk.s 			page 29


 600:Generated_Source\PSoC5/CyFlash.c ****     CY_FLASH_PM_ALTACT_CFG0_REG |= CY_FLASH_PM_ALTACT_CFG0_EN_CLK_SPC;
 994              		.loc 1 600 0
 995 001e 164A     		ldr	r2, .L77+4
 996 0020 154B     		ldr	r3, .L77+4
 997 0022 1B78     		ldrb	r3, [r3]
 998 0024 DBB2     		uxtb	r3, r3
 999 0026 43F00803 		orr	r3, r3, #8
 1000 002a DBB2     		uxtb	r3, r3
 1001 002c 1370     		strb	r3, [r2]
 601:Generated_Source\PSoC5/CyFlash.c **** 
 602:Generated_Source\PSoC5/CyFlash.c **** 
 603:Generated_Source\PSoC5/CyFlash.c ****     /***************************************************************************
 604:Generated_Source\PSoC5/CyFlash.c ****     * The wake count defines the number of Bus Clock cycles it takes for the
 605:Generated_Source\PSoC5/CyFlash.c ****     * flash or EEPROM to wake up from a low power mode independent of the chip
 606:Generated_Source\PSoC5/CyFlash.c ****     * power mode. Wake up time for these blocks is 5 us.
 607:Generated_Source\PSoC5/CyFlash.c ****     * The granularity of this register is 2 Bus Clock cycles, so a value of 0x1E
 608:Generated_Source\PSoC5/CyFlash.c ****     * (30d) defines the wake up time as 60 cycles of the Bus Clock.
 609:Generated_Source\PSoC5/CyFlash.c ****     * This register needs to be written with a value dependent on the Bus Clock
 610:Generated_Source\PSoC5/CyFlash.c ****     * frequency so that the duration of the cycles is equal to or greater than
 611:Generated_Source\PSoC5/CyFlash.c ****     * the 5 us delay required.
 612:Generated_Source\PSoC5/CyFlash.c ****     ***************************************************************************/
 613:Generated_Source\PSoC5/CyFlash.c ****     CY_FLASH_SPC_FM_EE_WAKE_CNT_REG = CY_FLASH_SPC_FM_EE_WAKE_CNT_80MHZ;
 1002              		.loc 1 613 0
 1003 002e 134B     		ldr	r3, .L77+8
 1004 0030 C822     		movs	r2, #200
 1005 0032 1A70     		strb	r2, [r3]
 614:Generated_Source\PSoC5/CyFlash.c **** 
 615:Generated_Source\PSoC5/CyFlash.c **** 
 616:Generated_Source\PSoC5/CyFlash.c ****     /***************************************************************************
 617:Generated_Source\PSoC5/CyFlash.c ****     * Enable EEPROM. Re-enabling an EEPROM macro takes 5us. During this time,
 618:Generated_Source\PSoC5/CyFlash.c ****     * the EE will not acknowledge a PHUB request.
 619:Generated_Source\PSoC5/CyFlash.c ****     ***************************************************************************/
 620:Generated_Source\PSoC5/CyFlash.c ****     CY_FLASH_PM_ACT_CFG12_REG    |= CY_FLASH_PM_ACT_CFG12_EN_EE;
 1006              		.loc 1 620 0
 1007 0034 124A     		ldr	r2, .L77+12
 1008 0036 124B     		ldr	r3, .L77+12
 1009 0038 1B78     		ldrb	r3, [r3]
 1010 003a DBB2     		uxtb	r3, r3
 1011 003c 43F01003 		orr	r3, r3, #16
 1012 0040 DBB2     		uxtb	r3, r3
 1013 0042 1370     		strb	r3, [r2]
 621:Generated_Source\PSoC5/CyFlash.c ****     CY_FLASH_PM_ALTACT_CFG12_REG |= CY_FLASH_PM_ALTACT_CFG12_EN_EE;
 1014              		.loc 1 621 0
 1015 0044 0F4A     		ldr	r2, .L77+16
 1016 0046 0F4B     		ldr	r3, .L77+16
 1017 0048 1B78     		ldrb	r3, [r3]
 1018 004a DBB2     		uxtb	r3, r3
 1019 004c 43F01003 		orr	r3, r3, #16
 1020 0050 DBB2     		uxtb	r3, r3
 1021 0052 1370     		strb	r3, [r2]
 622:Generated_Source\PSoC5/CyFlash.c **** 
 623:Generated_Source\PSoC5/CyFlash.c ****     while(0u == (CY_FLASH_SPC_FM_EE_CR_REG & CY_FLASH_EE_EE_AWAKE))
 1022              		.loc 1 623 0
 1023 0054 00BF     		nop
 1024              	.L76:
 1025              		.loc 1 623 0 is_stmt 0 discriminator 1
 1026 0056 0C4B     		ldr	r3, .L77+20
ARM GAS  C:\Users\LUKASC~1\AppData\Local\Temp\cc9yyYuk.s 			page 30


 1027 0058 1B78     		ldrb	r3, [r3]
 1028 005a DBB2     		uxtb	r3, r3
 1029 005c 03F02003 		and	r3, r3, #32
 1030 0060 002B     		cmp	r3, #0
 1031 0062 F8D0     		beq	.L76
 624:Generated_Source\PSoC5/CyFlash.c ****     {
 625:Generated_Source\PSoC5/CyFlash.c ****         /* Non-zero status denotes that the EEPROM/Flash is awake & powered. */
 626:Generated_Source\PSoC5/CyFlash.c ****     }
 627:Generated_Source\PSoC5/CyFlash.c **** 
 628:Generated_Source\PSoC5/CyFlash.c ****     CyExitCriticalSection(interruptState);
 1032              		.loc 1 628 0 is_stmt 1
 1033 0064 FB79     		ldrb	r3, [r7, #7]	@ zero_extendqisi2
 1034 0066 1846     		mov	r0, r3
 1035 0068 FFF7FEFF 		bl	CyExitCriticalSection
 629:Generated_Source\PSoC5/CyFlash.c **** }
 1036              		.loc 1 629 0
 1037 006c 0837     		adds	r7, r7, #8
 1038              		.cfi_def_cfa_offset 8
 1039 006e BD46     		mov	sp, r7
 1040              		.cfi_def_cfa_register 13
 1041              		@ sp needed
 1042 0070 80BD     		pop	{r7, pc}
 1043              	.L78:
 1044 0072 00BF     		.align	2
 1045              	.L77:
 1046 0074 A0430040 		.word	1073759136
 1047 0078 B0430040 		.word	1073759152
 1048 007c 01470040 		.word	1073760001
 1049 0080 AC430040 		.word	1073759148
 1050 0084 BC430040 		.word	1073759164
 1051 0088 00470040 		.word	1073760000
 1052              		.cfi_endproc
 1053              	.LFE10:
 1054              		.size	CyEEPROM_Start, .-CyEEPROM_Start
 1055              		.section	.text.CyEEPROM_Stop,"ax",%progbits
 1056              		.align	2
 1057              		.global	CyEEPROM_Stop
 1058              		.thumb
 1059              		.thumb_func
 1060              		.type	CyEEPROM_Stop, %function
 1061              	CyEEPROM_Stop:
 1062              	.LFB11:
 630:Generated_Source\PSoC5/CyFlash.c **** 
 631:Generated_Source\PSoC5/CyFlash.c **** 
 632:Generated_Source\PSoC5/CyFlash.c **** /*******************************************************************************
 633:Generated_Source\PSoC5/CyFlash.c **** * Function Name: CyEEPROM_Stop
 634:Generated_Source\PSoC5/CyFlash.c **** ****************************************************************************//**
 635:Generated_Source\PSoC5/CyFlash.c **** *
 636:Generated_Source\PSoC5/CyFlash.c **** *  Disable the EEPROM.
 637:Generated_Source\PSoC5/CyFlash.c **** *
 638:Generated_Source\PSoC5/CyFlash.c **** *******************************************************************************/
 639:Generated_Source\PSoC5/CyFlash.c **** void CyEEPROM_Stop (void) 
 640:Generated_Source\PSoC5/CyFlash.c **** {
 1063              		.loc 1 640 0
 1064              		.cfi_startproc
 1065              		@ args = 0, pretend = 0, frame = 8
 1066              		@ frame_needed = 1, uses_anonymous_args = 0
ARM GAS  C:\Users\LUKASC~1\AppData\Local\Temp\cc9yyYuk.s 			page 31


 1067 0000 80B5     		push	{r7, lr}
 1068              		.cfi_def_cfa_offset 8
 1069              		.cfi_offset 7, -8
 1070              		.cfi_offset 14, -4
 1071 0002 82B0     		sub	sp, sp, #8
 1072              		.cfi_def_cfa_offset 16
 1073 0004 00AF     		add	r7, sp, #0
 1074              		.cfi_def_cfa_register 7
 641:Generated_Source\PSoC5/CyFlash.c ****     uint8 interruptState;
 642:Generated_Source\PSoC5/CyFlash.c **** 
 643:Generated_Source\PSoC5/CyFlash.c ****     interruptState = CyEnterCriticalSection();
 1075              		.loc 1 643 0
 1076 0006 FFF7FEFF 		bl	CyEnterCriticalSection
 1077 000a 0346     		mov	r3, r0
 1078 000c FB71     		strb	r3, [r7, #7]
 644:Generated_Source\PSoC5/CyFlash.c **** 
 645:Generated_Source\PSoC5/CyFlash.c ****     CY_FLASH_PM_ACT_CFG12_REG    &= ((uint8)(~CY_FLASH_PM_ACT_CFG12_EN_EE));
 1079              		.loc 1 645 0
 1080 000e 0B4A     		ldr	r2, .L80
 1081 0010 0A4B     		ldr	r3, .L80
 1082 0012 1B78     		ldrb	r3, [r3]
 1083 0014 DBB2     		uxtb	r3, r3
 1084 0016 23F01003 		bic	r3, r3, #16
 1085 001a DBB2     		uxtb	r3, r3
 1086 001c 1370     		strb	r3, [r2]
 646:Generated_Source\PSoC5/CyFlash.c ****     CY_FLASH_PM_ALTACT_CFG12_REG &= ((uint8)(~CY_FLASH_PM_ALTACT_CFG12_EN_EE));
 1087              		.loc 1 646 0
 1088 001e 084A     		ldr	r2, .L80+4
 1089 0020 074B     		ldr	r3, .L80+4
 1090 0022 1B78     		ldrb	r3, [r3]
 1091 0024 DBB2     		uxtb	r3, r3
 1092 0026 23F01003 		bic	r3, r3, #16
 1093 002a DBB2     		uxtb	r3, r3
 1094 002c 1370     		strb	r3, [r2]
 647:Generated_Source\PSoC5/CyFlash.c **** 
 648:Generated_Source\PSoC5/CyFlash.c ****     CyExitCriticalSection(interruptState);
 1095              		.loc 1 648 0
 1096 002e FB79     		ldrb	r3, [r7, #7]	@ zero_extendqisi2
 1097 0030 1846     		mov	r0, r3
 1098 0032 FFF7FEFF 		bl	CyExitCriticalSection
 649:Generated_Source\PSoC5/CyFlash.c **** }
 1099              		.loc 1 649 0
 1100 0036 0837     		adds	r7, r7, #8
 1101              		.cfi_def_cfa_offset 8
 1102 0038 BD46     		mov	sp, r7
 1103              		.cfi_def_cfa_register 13
 1104              		@ sp needed
 1105 003a 80BD     		pop	{r7, pc}
 1106              	.L81:
 1107              		.align	2
 1108              	.L80:
 1109 003c AC430040 		.word	1073759148
 1110 0040 BC430040 		.word	1073759164
 1111              		.cfi_endproc
 1112              	.LFE11:
 1113              		.size	CyEEPROM_Stop, .-CyEEPROM_Stop
 1114              		.section	.text.CyEEPROM_ReadReserve,"ax",%progbits
ARM GAS  C:\Users\LUKASC~1\AppData\Local\Temp\cc9yyYuk.s 			page 32


 1115              		.align	2
 1116              		.global	CyEEPROM_ReadReserve
 1117              		.thumb
 1118              		.thumb_func
 1119              		.type	CyEEPROM_ReadReserve, %function
 1120              	CyEEPROM_ReadReserve:
 1121              	.LFB12:
 650:Generated_Source\PSoC5/CyFlash.c **** 
 651:Generated_Source\PSoC5/CyFlash.c **** 
 652:Generated_Source\PSoC5/CyFlash.c **** /*******************************************************************************
 653:Generated_Source\PSoC5/CyFlash.c **** * Function Name: CyEEPROM_ReadReserve
 654:Generated_Source\PSoC5/CyFlash.c **** ****************************************************************************//**
 655:Generated_Source\PSoC5/CyFlash.c **** *
 656:Generated_Source\PSoC5/CyFlash.c **** *  Request access to the EEPROM for reading and wait until access is available.
 657:Generated_Source\PSoC5/CyFlash.c **** *
 658:Generated_Source\PSoC5/CyFlash.c **** *******************************************************************************/
 659:Generated_Source\PSoC5/CyFlash.c **** void CyEEPROM_ReadReserve(void) 
 660:Generated_Source\PSoC5/CyFlash.c **** {
 1122              		.loc 1 660 0
 1123              		.cfi_startproc
 1124              		@ args = 0, pretend = 0, frame = 0
 1125              		@ frame_needed = 1, uses_anonymous_args = 0
 1126              		@ link register save eliminated.
 1127 0000 80B4     		push	{r7}
 1128              		.cfi_def_cfa_offset 4
 1129              		.cfi_offset 7, -4
 1130 0002 00AF     		add	r7, sp, #0
 1131              		.cfi_def_cfa_register 7
 661:Generated_Source\PSoC5/CyFlash.c ****     /* Make request for PHUB to have access */
 662:Generated_Source\PSoC5/CyFlash.c ****     CY_FLASH_EE_SCR_REG |= CY_FLASH_EE_SCR_AHB_EE_REQ;
 1132              		.loc 1 662 0
 1133 0004 094A     		ldr	r2, .L84
 1134 0006 094B     		ldr	r3, .L84
 1135 0008 1B78     		ldrb	r3, [r3]
 1136 000a DBB2     		uxtb	r3, r3
 1137 000c 43F00103 		orr	r3, r3, #1
 1138 0010 DBB2     		uxtb	r3, r3
 1139 0012 1370     		strb	r3, [r2]
 663:Generated_Source\PSoC5/CyFlash.c **** 
 664:Generated_Source\PSoC5/CyFlash.c ****     while (0u == (CY_FLASH_EE_SCR_REG & CY_FLASH_EE_SCR_AHB_EE_ACK))
 1140              		.loc 1 664 0
 1141 0014 00BF     		nop
 1142              	.L83:
 1143              		.loc 1 664 0 is_stmt 0 discriminator 1
 1144 0016 054B     		ldr	r3, .L84
 1145 0018 1B78     		ldrb	r3, [r3]
 1146 001a DBB2     		uxtb	r3, r3
 1147 001c 03F00203 		and	r3, r3, #2
 1148 0020 002B     		cmp	r3, #0
 1149 0022 F8D0     		beq	.L83
 665:Generated_Source\PSoC5/CyFlash.c ****     {
 666:Generated_Source\PSoC5/CyFlash.c ****         /* Wait for acknowledgment from PHUB */
 667:Generated_Source\PSoC5/CyFlash.c ****     }
 668:Generated_Source\PSoC5/CyFlash.c **** }
 1150              		.loc 1 668 0 is_stmt 1
 1151 0024 BD46     		mov	sp, r7
 1152              		.cfi_def_cfa_register 13
ARM GAS  C:\Users\LUKASC~1\AppData\Local\Temp\cc9yyYuk.s 			page 33


 1153              		@ sp needed
 1154 0026 5DF8047B 		ldr	r7, [sp], #4
 1155              		.cfi_restore 7
 1156              		.cfi_def_cfa_offset 0
 1157 002a 7047     		bx	lr
 1158              	.L85:
 1159              		.align	2
 1160              	.L84:
 1161 002c 02470040 		.word	1073760002
 1162              		.cfi_endproc
 1163              	.LFE12:
 1164              		.size	CyEEPROM_ReadReserve, .-CyEEPROM_ReadReserve
 1165              		.section	.text.CyEEPROM_ReadRelease,"ax",%progbits
 1166              		.align	2
 1167              		.global	CyEEPROM_ReadRelease
 1168              		.thumb
 1169              		.thumb_func
 1170              		.type	CyEEPROM_ReadRelease, %function
 1171              	CyEEPROM_ReadRelease:
 1172              	.LFB13:
 669:Generated_Source\PSoC5/CyFlash.c **** 
 670:Generated_Source\PSoC5/CyFlash.c **** 
 671:Generated_Source\PSoC5/CyFlash.c **** /*******************************************************************************
 672:Generated_Source\PSoC5/CyFlash.c **** * Function Name: CyEEPROM_ReadRelease
 673:Generated_Source\PSoC5/CyFlash.c **** ****************************************************************************//**
 674:Generated_Source\PSoC5/CyFlash.c **** *
 675:Generated_Source\PSoC5/CyFlash.c **** *  Release the read reservation of the EEPROM.
 676:Generated_Source\PSoC5/CyFlash.c **** *
 677:Generated_Source\PSoC5/CyFlash.c **** *******************************************************************************/
 678:Generated_Source\PSoC5/CyFlash.c **** void CyEEPROM_ReadRelease(void) 
 679:Generated_Source\PSoC5/CyFlash.c **** {
 1173              		.loc 1 679 0
 1174              		.cfi_startproc
 1175              		@ args = 0, pretend = 0, frame = 0
 1176              		@ frame_needed = 1, uses_anonymous_args = 0
 1177              		@ link register save eliminated.
 1178 0000 80B4     		push	{r7}
 1179              		.cfi_def_cfa_offset 4
 1180              		.cfi_offset 7, -4
 1181 0002 00AF     		add	r7, sp, #0
 1182              		.cfi_def_cfa_register 7
 680:Generated_Source\PSoC5/CyFlash.c ****     CY_FLASH_EE_SCR_REG &= (uint8)(~CY_FLASH_EE_SCR_AHB_EE_REQ);
 1183              		.loc 1 680 0
 1184 0004 054A     		ldr	r2, .L87
 1185 0006 054B     		ldr	r3, .L87
 1186 0008 1B78     		ldrb	r3, [r3]
 1187 000a DBB2     		uxtb	r3, r3
 1188 000c 23F00103 		bic	r3, r3, #1
 1189 0010 DBB2     		uxtb	r3, r3
 1190 0012 1370     		strb	r3, [r2]
 681:Generated_Source\PSoC5/CyFlash.c **** }
 1191              		.loc 1 681 0
 1192 0014 BD46     		mov	sp, r7
 1193              		.cfi_def_cfa_register 13
 1194              		@ sp needed
 1195 0016 5DF8047B 		ldr	r7, [sp], #4
 1196              		.cfi_restore 7
ARM GAS  C:\Users\LUKASC~1\AppData\Local\Temp\cc9yyYuk.s 			page 34


 1197              		.cfi_def_cfa_offset 0
 1198 001a 7047     		bx	lr
 1199              	.L88:
 1200              		.align	2
 1201              	.L87:
 1202 001c 02470040 		.word	1073760002
 1203              		.cfi_endproc
 1204              	.LFE13:
 1205              		.size	CyEEPROM_ReadRelease, .-CyEEPROM_ReadRelease
 1206              		.text
 1207              	.Letext0:
 1208              		.file 2 "Generated_Source\\PSoC5\\cytypes.h"