ARM GAS  C:\Users\LUKASC~1\AppData\Local\Temp\ccRj2rZF.s 			page 1


   1              		.syntax unified
   2              		.cpu cortex-m3
   3              		.fpu softvfp
   4              		.eabi_attribute 20, 1
   5              		.eabi_attribute 21, 1
   6              		.eabi_attribute 23, 3
   7              		.eabi_attribute 24, 1
   8              		.eabi_attribute 25, 1
   9              		.eabi_attribute 26, 1
  10              		.eabi_attribute 30, 6
  11              		.eabi_attribute 34, 1
  12              		.eabi_attribute 18, 4
  13              		.thumb
  14              		.file	"I2S_1_PM.c"
  15              		.text
  16              	.Ltext0:
  17              		.cfi_sections	.debug_frame
  18              		.bss
  19              		.align	2
  20              	I2S_1_backup:
  21 0000 00       		.space	1
  22 0001 000000   		.section	.text.I2S_1_SaveConfig,"ax",%progbits
  23              		.align	2
  24              		.global	I2S_1_SaveConfig
  25              		.thumb
  26              		.thumb_func
  27              		.type	I2S_1_SaveConfig, %function
  28              	I2S_1_SaveConfig:
  29              	.LFB0:
  30              		.file 1 "Generated_Source\\PSoC5\\I2S_1_PM.c"
   1:Generated_Source\PSoC5/I2S_1_PM.c **** /*******************************************************************************
   2:Generated_Source\PSoC5/I2S_1_PM.c **** * File Name: I2S_1_PM.c
   3:Generated_Source\PSoC5/I2S_1_PM.c **** * Version 2.70
   4:Generated_Source\PSoC5/I2S_1_PM.c **** *
   5:Generated_Source\PSoC5/I2S_1_PM.c **** * Description:
   6:Generated_Source\PSoC5/I2S_1_PM.c **** *  This file contains the setup, control and status commands to support
   7:Generated_Source\PSoC5/I2S_1_PM.c **** *  component operations in low power mode.
   8:Generated_Source\PSoC5/I2S_1_PM.c **** *
   9:Generated_Source\PSoC5/I2S_1_PM.c **** * Note:
  10:Generated_Source\PSoC5/I2S_1_PM.c **** *
  11:Generated_Source\PSoC5/I2S_1_PM.c **** ********************************************************************************
  12:Generated_Source\PSoC5/I2S_1_PM.c **** * Copyright 2008-2015, Cypress Semiconductor Corporation.  All rights reserved.
  13:Generated_Source\PSoC5/I2S_1_PM.c **** * You may use this file only in accordance with the license, terms, conditions,
  14:Generated_Source\PSoC5/I2S_1_PM.c **** * disclaimers, and limitations in the end user license agreement accompanying
  15:Generated_Source\PSoC5/I2S_1_PM.c **** * the software package with which this file was provided.
  16:Generated_Source\PSoC5/I2S_1_PM.c **** *******************************************************************************/
  17:Generated_Source\PSoC5/I2S_1_PM.c **** 
  18:Generated_Source\PSoC5/I2S_1_PM.c **** #include "I2S_1.h"
  19:Generated_Source\PSoC5/I2S_1_PM.c **** 
  20:Generated_Source\PSoC5/I2S_1_PM.c **** static I2S_1_BACKUP_STRUCT  I2S_1_backup = {0u};
  21:Generated_Source\PSoC5/I2S_1_PM.c **** 
  22:Generated_Source\PSoC5/I2S_1_PM.c **** 
  23:Generated_Source\PSoC5/I2S_1_PM.c **** /*******************************************************************************
  24:Generated_Source\PSoC5/I2S_1_PM.c **** * Function Name: I2S_1_SaveConfig
  25:Generated_Source\PSoC5/I2S_1_PM.c **** ********************************************************************************
  26:Generated_Source\PSoC5/I2S_1_PM.c **** *
  27:Generated_Source\PSoC5/I2S_1_PM.c **** * Summary:
ARM GAS  C:\Users\LUKASC~1\AppData\Local\Temp\ccRj2rZF.s 			page 2


  28:Generated_Source\PSoC5/I2S_1_PM.c **** *  Empty function. Left to preserve backward compatibility.
  29:Generated_Source\PSoC5/I2S_1_PM.c **** *
  30:Generated_Source\PSoC5/I2S_1_PM.c **** * Parameters:
  31:Generated_Source\PSoC5/I2S_1_PM.c **** *  None.
  32:Generated_Source\PSoC5/I2S_1_PM.c **** *
  33:Generated_Source\PSoC5/I2S_1_PM.c **** * Return:
  34:Generated_Source\PSoC5/I2S_1_PM.c **** *  None.
  35:Generated_Source\PSoC5/I2S_1_PM.c **** *
  36:Generated_Source\PSoC5/I2S_1_PM.c **** *******************************************************************************/
  37:Generated_Source\PSoC5/I2S_1_PM.c **** void I2S_1_SaveConfig(void) 
  38:Generated_Source\PSoC5/I2S_1_PM.c **** {
  31              		.loc 1 38 0
  32              		.cfi_startproc
  33              		@ args = 0, pretend = 0, frame = 0
  34              		@ frame_needed = 1, uses_anonymous_args = 0
  35              		@ link register save eliminated.
  36 0000 80B4     		push	{r7}
  37              		.cfi_def_cfa_offset 4
  38              		.cfi_offset 7, -4
  39 0002 00AF     		add	r7, sp, #0
  40              		.cfi_def_cfa_register 7
  39:Generated_Source\PSoC5/I2S_1_PM.c ****     /* Nothing to save. All registers are retention. */
  40:Generated_Source\PSoC5/I2S_1_PM.c **** }
  41              		.loc 1 40 0
  42 0004 BD46     		mov	sp, r7
  43              		.cfi_def_cfa_register 13
  44              		@ sp needed
  45 0006 5DF8047B 		ldr	r7, [sp], #4
  46              		.cfi_restore 7
  47              		.cfi_def_cfa_offset 0
  48 000a 7047     		bx	lr
  49              		.cfi_endproc
  50              	.LFE0:
  51              		.size	I2S_1_SaveConfig, .-I2S_1_SaveConfig
  52              		.section	.text.I2S_1_RestoreConfig,"ax",%progbits
  53              		.align	2
  54              		.global	I2S_1_RestoreConfig
  55              		.thumb
  56              		.thumb_func
  57              		.type	I2S_1_RestoreConfig, %function
  58              	I2S_1_RestoreConfig:
  59              	.LFB1:
  41:Generated_Source\PSoC5/I2S_1_PM.c **** 
  42:Generated_Source\PSoC5/I2S_1_PM.c **** 
  43:Generated_Source\PSoC5/I2S_1_PM.c **** /*******************************************************************************
  44:Generated_Source\PSoC5/I2S_1_PM.c **** * Function Name: I2S_1_RestoreConfig
  45:Generated_Source\PSoC5/I2S_1_PM.c **** ********************************************************************************
  46:Generated_Source\PSoC5/I2S_1_PM.c **** *
  47:Generated_Source\PSoC5/I2S_1_PM.c **** * Summary:
  48:Generated_Source\PSoC5/I2S_1_PM.c **** *  Empty function. Left to preserve backward compatibility.
  49:Generated_Source\PSoC5/I2S_1_PM.c **** *
  50:Generated_Source\PSoC5/I2S_1_PM.c **** * Parameters:
  51:Generated_Source\PSoC5/I2S_1_PM.c **** *  None.
  52:Generated_Source\PSoC5/I2S_1_PM.c **** *
  53:Generated_Source\PSoC5/I2S_1_PM.c **** * Return:
  54:Generated_Source\PSoC5/I2S_1_PM.c **** *  None.
  55:Generated_Source\PSoC5/I2S_1_PM.c **** *
ARM GAS  C:\Users\LUKASC~1\AppData\Local\Temp\ccRj2rZF.s 			page 3


  56:Generated_Source\PSoC5/I2S_1_PM.c **** *******************************************************************************/
  57:Generated_Source\PSoC5/I2S_1_PM.c **** void I2S_1_RestoreConfig(void) 
  58:Generated_Source\PSoC5/I2S_1_PM.c **** {
  60              		.loc 1 58 0
  61              		.cfi_startproc
  62              		@ args = 0, pretend = 0, frame = 0
  63              		@ frame_needed = 1, uses_anonymous_args = 0
  64              		@ link register save eliminated.
  65 0000 80B4     		push	{r7}
  66              		.cfi_def_cfa_offset 4
  67              		.cfi_offset 7, -4
  68 0002 00AF     		add	r7, sp, #0
  69              		.cfi_def_cfa_register 7
  59:Generated_Source\PSoC5/I2S_1_PM.c ****     /* Nothing to restore. All registers are retention. */
  60:Generated_Source\PSoC5/I2S_1_PM.c **** }
  70              		.loc 1 60 0
  71 0004 BD46     		mov	sp, r7
  72              		.cfi_def_cfa_register 13
  73              		@ sp needed
  74 0006 5DF8047B 		ldr	r7, [sp], #4
  75              		.cfi_restore 7
  76              		.cfi_def_cfa_offset 0
  77 000a 7047     		bx	lr
  78              		.cfi_endproc
  79              	.LFE1:
  80              		.size	I2S_1_RestoreConfig, .-I2S_1_RestoreConfig
  81              		.section	.text.I2S_1_Sleep,"ax",%progbits
  82              		.align	2
  83              		.global	I2S_1_Sleep
  84              		.thumb
  85              		.thumb_func
  86              		.type	I2S_1_Sleep, %function
  87              	I2S_1_Sleep:
  88              	.LFB2:
  61:Generated_Source\PSoC5/I2S_1_PM.c **** 
  62:Generated_Source\PSoC5/I2S_1_PM.c **** 
  63:Generated_Source\PSoC5/I2S_1_PM.c **** /*******************************************************************************
  64:Generated_Source\PSoC5/I2S_1_PM.c **** * Function Name: I2S_1_Sleep
  65:Generated_Source\PSoC5/I2S_1_PM.c **** ********************************************************************************
  66:Generated_Source\PSoC5/I2S_1_PM.c **** *
  67:Generated_Source\PSoC5/I2S_1_PM.c **** * Summary:
  68:Generated_Source\PSoC5/I2S_1_PM.c **** *  Prepares I2S for entering sleep mode.
  69:Generated_Source\PSoC5/I2S_1_PM.c **** *
  70:Generated_Source\PSoC5/I2S_1_PM.c **** * Parameters:
  71:Generated_Source\PSoC5/I2S_1_PM.c **** *  None.
  72:Generated_Source\PSoC5/I2S_1_PM.c **** *
  73:Generated_Source\PSoC5/I2S_1_PM.c **** * Return:
  74:Generated_Source\PSoC5/I2S_1_PM.c **** *  None.
  75:Generated_Source\PSoC5/I2S_1_PM.c **** *
  76:Generated_Source\PSoC5/I2S_1_PM.c **** * Global Variables:
  77:Generated_Source\PSoC5/I2S_1_PM.c **** *  I2S_1_backup - used to store component state prior entering 
  78:Generated_Source\PSoC5/I2S_1_PM.c **** *    sleep mode.
  79:Generated_Source\PSoC5/I2S_1_PM.c **** *
  80:Generated_Source\PSoC5/I2S_1_PM.c **** * Reentrant:
  81:Generated_Source\PSoC5/I2S_1_PM.c **** *  No.
  82:Generated_Source\PSoC5/I2S_1_PM.c **** *
  83:Generated_Source\PSoC5/I2S_1_PM.c **** *******************************************************************************/
ARM GAS  C:\Users\LUKASC~1\AppData\Local\Temp\ccRj2rZF.s 			page 4


  84:Generated_Source\PSoC5/I2S_1_PM.c **** void I2S_1_Sleep(void) 
  85:Generated_Source\PSoC5/I2S_1_PM.c **** {
  89              		.loc 1 85 0
  90              		.cfi_startproc
  91              		@ args = 0, pretend = 0, frame = 0
  92              		@ frame_needed = 1, uses_anonymous_args = 0
  93 0000 80B5     		push	{r7, lr}
  94              		.cfi_def_cfa_offset 8
  95              		.cfi_offset 7, -8
  96              		.cfi_offset 14, -4
  97 0002 00AF     		add	r7, sp, #0
  98              		.cfi_def_cfa_register 7
  86:Generated_Source\PSoC5/I2S_1_PM.c ****     /* Get component state */
  87:Generated_Source\PSoC5/I2S_1_PM.c ****     I2S_1_backup.enableState = I2S_1_CONTROL_REG;
  99              		.loc 1 87 0
 100 0004 034B     		ldr	r3, .L4
 101 0006 1B78     		ldrb	r3, [r3]
 102 0008 DAB2     		uxtb	r2, r3
 103 000a 034B     		ldr	r3, .L4+4
 104 000c 1A70     		strb	r2, [r3]
  88:Generated_Source\PSoC5/I2S_1_PM.c **** 
  89:Generated_Source\PSoC5/I2S_1_PM.c ****     /* Stop component */
  90:Generated_Source\PSoC5/I2S_1_PM.c ****     I2S_1_Stop();
 105              		.loc 1 90 0
 106 000e FFF7FEFF 		bl	I2S_1_Stop
  91:Generated_Source\PSoC5/I2S_1_PM.c **** }
 107              		.loc 1 91 0
 108 0012 80BD     		pop	{r7, pc}
 109              	.L5:
 110              		.align	2
 111              	.L4:
 112 0014 76650040 		.word	1073767798
 113 0018 00000000 		.word	I2S_1_backup
 114              		.cfi_endproc
 115              	.LFE2:
 116              		.size	I2S_1_Sleep, .-I2S_1_Sleep
 117              		.section	.text.I2S_1_Wakeup,"ax",%progbits
 118              		.align	2
 119              		.global	I2S_1_Wakeup
 120              		.thumb
 121              		.thumb_func
 122              		.type	I2S_1_Wakeup, %function
 123              	I2S_1_Wakeup:
 124              	.LFB3:
  92:Generated_Source\PSoC5/I2S_1_PM.c **** 
  93:Generated_Source\PSoC5/I2S_1_PM.c **** 
  94:Generated_Source\PSoC5/I2S_1_PM.c **** /*******************************************************************************
  95:Generated_Source\PSoC5/I2S_1_PM.c **** * Function Name: I2S_1_Wakeup
  96:Generated_Source\PSoC5/I2S_1_PM.c **** ********************************************************************************
  97:Generated_Source\PSoC5/I2S_1_PM.c **** *
  98:Generated_Source\PSoC5/I2S_1_PM.c **** * Summary:
  99:Generated_Source\PSoC5/I2S_1_PM.c **** *  Prepares I2S for exit from sleep mode.
 100:Generated_Source\PSoC5/I2S_1_PM.c **** *
 101:Generated_Source\PSoC5/I2S_1_PM.c **** * Parameters:
 102:Generated_Source\PSoC5/I2S_1_PM.c **** *  None.
 103:Generated_Source\PSoC5/I2S_1_PM.c **** *
 104:Generated_Source\PSoC5/I2S_1_PM.c **** * Return:
ARM GAS  C:\Users\LUKASC~1\AppData\Local\Temp\ccRj2rZF.s 			page 5


 105:Generated_Source\PSoC5/I2S_1_PM.c **** *  None.
 106:Generated_Source\PSoC5/I2S_1_PM.c **** *
 107:Generated_Source\PSoC5/I2S_1_PM.c **** * Global Variables:
 108:Generated_Source\PSoC5/I2S_1_PM.c **** *  I2S_1_backup - used to restore component state after exit from
 109:Generated_Source\PSoC5/I2S_1_PM.c **** *    sleep mode.
 110:Generated_Source\PSoC5/I2S_1_PM.c **** *
 111:Generated_Source\PSoC5/I2S_1_PM.c **** *******************************************************************************/
 112:Generated_Source\PSoC5/I2S_1_PM.c **** void I2S_1_Wakeup(void) 
 113:Generated_Source\PSoC5/I2S_1_PM.c **** {
 125              		.loc 1 113 0
 126              		.cfi_startproc
 127              		@ args = 0, pretend = 0, frame = 0
 128              		@ frame_needed = 1, uses_anonymous_args = 0
 129 0000 80B5     		push	{r7, lr}
 130              		.cfi_def_cfa_offset 8
 131              		.cfi_offset 7, -8
 132              		.cfi_offset 14, -4
 133 0002 00AF     		add	r7, sp, #0
 134              		.cfi_def_cfa_register 7
 114:Generated_Source\PSoC5/I2S_1_PM.c ****     #if (I2S_1_DYNAMIC_BIT_RESOLUTION)
 115:Generated_Source\PSoC5/I2S_1_PM.c ****         I2S_1_CONTROL_REG = I2S_1_backup.enableState & I2S_1_BIT_RESOLUTION_MODE_MASK;
 116:Generated_Source\PSoC5/I2S_1_PM.c ****     #endif /* I2S_1_DYNAMIC_BIT_RESOLUTION */
 117:Generated_Source\PSoC5/I2S_1_PM.c **** 
 118:Generated_Source\PSoC5/I2S_1_PM.c ****     if(0u != (I2S_1_backup.enableState & I2S_1_EN))
 135              		.loc 1 118 0
 136 0004 084B     		ldr	r3, .L8
 137 0006 1B78     		ldrb	r3, [r3]	@ zero_extendqisi2
 138 0008 03F00403 		and	r3, r3, #4
 139 000c 002B     		cmp	r3, #0
 140 000e 09D0     		beq	.L6
 119:Generated_Source\PSoC5/I2S_1_PM.c ****     {
 120:Generated_Source\PSoC5/I2S_1_PM.c ****         /* Enable component's operation */
 121:Generated_Source\PSoC5/I2S_1_PM.c ****         I2S_1_Enable();
 141              		.loc 1 121 0
 142 0010 FFF7FEFF 		bl	I2S_1_Enable
 122:Generated_Source\PSoC5/I2S_1_PM.c **** 
 123:Generated_Source\PSoC5/I2S_1_PM.c ****         /* Enable Tx/Rx direction if they were enabled before sleep */
 124:Generated_Source\PSoC5/I2S_1_PM.c ****         #if(I2S_1_TX_DIRECTION_ENABLE)
 125:Generated_Source\PSoC5/I2S_1_PM.c ****             if(0u != (I2S_1_backup.enableState & I2S_1_TX_EN))
 143              		.loc 1 125 0
 144 0014 044B     		ldr	r3, .L8
 145 0016 1B78     		ldrb	r3, [r3]	@ zero_extendqisi2
 146 0018 03F00103 		and	r3, r3, #1
 147 001c 002B     		cmp	r3, #0
 148 001e 01D0     		beq	.L6
 126:Generated_Source\PSoC5/I2S_1_PM.c ****             {
 127:Generated_Source\PSoC5/I2S_1_PM.c ****                 I2S_1_EnableTx();
 149              		.loc 1 127 0
 150 0020 FFF7FEFF 		bl	I2S_1_EnableTx
 151              	.L6:
 128:Generated_Source\PSoC5/I2S_1_PM.c ****             }
 129:Generated_Source\PSoC5/I2S_1_PM.c ****         #endif /* (I2S_1_TX_DIRECTION_ENABLE) */
 130:Generated_Source\PSoC5/I2S_1_PM.c ****         
 131:Generated_Source\PSoC5/I2S_1_PM.c ****         #if(I2S_1_RX_DIRECTION_ENABLE)
 132:Generated_Source\PSoC5/I2S_1_PM.c ****             if(0u != (I2S_1_backup.enableState & I2S_1_RX_EN))
 133:Generated_Source\PSoC5/I2S_1_PM.c ****             {
 134:Generated_Source\PSoC5/I2S_1_PM.c ****                 I2S_1_EnableRx();
ARM GAS  C:\Users\LUKASC~1\AppData\Local\Temp\ccRj2rZF.s 			page 6


 135:Generated_Source\PSoC5/I2S_1_PM.c ****             }
 136:Generated_Source\PSoC5/I2S_1_PM.c ****         #endif /* (I2S_1_RX_DIRECTION_ENABLE) */
 137:Generated_Source\PSoC5/I2S_1_PM.c ****     }
 138:Generated_Source\PSoC5/I2S_1_PM.c **** }
 152              		.loc 1 138 0
 153 0024 80BD     		pop	{r7, pc}
 154              	.L9:
 155 0026 00BF     		.align	2
 156              	.L8:
 157 0028 00000000 		.word	I2S_1_backup
 158              		.cfi_endproc
 159              	.LFE3:
 160              		.size	I2S_1_Wakeup, .-I2S_1_Wakeup
 161              		.text
 162              	.Letext0:
 163              		.file 2 "Generated_Source\\PSoC5\\cytypes.h"
 164              		.file 3 "Generated_Source\\PSoC5\\I2S_1.h"