ARM GAS  C:\Users\LUKASC~1\AppData\Local\Temp\ccjlIrR3.s 			page 1


   1              		.syntax unified
   2              		.cpu cortex-m3
   3              		.fpu softvfp
   4              		.eabi_attribute 20, 1
   5              		.eabi_attribute 21, 1
   6              		.eabi_attribute 23, 3
   7              		.eabi_attribute 24, 1
   8              		.eabi_attribute 25, 1
   9              		.eabi_attribute 26, 1
  10              		.eabi_attribute 30, 6
  11              		.eabi_attribute 34, 1
  12              		.eabi_attribute 18, 4
  13              		.thumb
  14              		.file	"Cm3Start.c"
  15              		.text
  16              	.Ltext0:
  17              		.cfi_sections	.debug_frame
  18              		.section	.noinit,"aw",%progbits
  19              		.align	2
  20              		.type	cySysNoInitDataValid, %object
  21              		.size	cySysNoInitDataValid, 4
  22              	cySysNoInitDataValid:
  23 0000 00000000 		.space	4
  24              		.global	CyRamVectors
  25              		.section	.ramvectors,"aw",%progbits
  26              		.align	8
  27              		.type	CyRamVectors, %object
  28              		.size	CyRamVectors, 192
  29              	CyRamVectors:
  30 0000 00000000 		.space	192
  30      00000000 
  30      00000000 
  30      00000000 
  30      00000000 
  31 00c0 00000000 		.section	.text.IntDefaultHandler,"ax",%progbits
  31      00000000 
  31      00000000 
  31      00000000 
  31      00000000 
  32              		.align	2
  33              		.global	IntDefaultHandler
  34              		.thumb
  35              		.thumb_func
  36              		.type	IntDefaultHandler, %function
  37              	IntDefaultHandler:
  38              	.LFB0:
  39              		.file 1 ".\\Generated_Source\\PSoC5\\Cm3Start.c"
   1:.\Generated_Source\PSoC5/Cm3Start.c **** /*******************************************************************************
   2:.\Generated_Source\PSoC5/Cm3Start.c **** * File Name: Cm3Start.c
   3:.\Generated_Source\PSoC5/Cm3Start.c **** * Version 5.30
   4:.\Generated_Source\PSoC5/Cm3Start.c **** *
   5:.\Generated_Source\PSoC5/Cm3Start.c **** *  Description:
   6:.\Generated_Source\PSoC5/Cm3Start.c **** *  Startup code for the ARM CM3.
   7:.\Generated_Source\PSoC5/Cm3Start.c **** *
   8:.\Generated_Source\PSoC5/Cm3Start.c **** ********************************************************************************
   9:.\Generated_Source\PSoC5/Cm3Start.c **** * Copyright 2008-2015, Cypress Semiconductor Corporation. All rights reserved.
  10:.\Generated_Source\PSoC5/Cm3Start.c **** * You may use this file only in accordance with the license, terms, conditions,
ARM GAS  C:\Users\LUKASC~1\AppData\Local\Temp\ccjlIrR3.s 			page 2


  11:.\Generated_Source\PSoC5/Cm3Start.c **** * disclaimers, and limitations in the end user license agreement accompanying
  12:.\Generated_Source\PSoC5/Cm3Start.c **** * the software package with which this file was provided.
  13:.\Generated_Source\PSoC5/Cm3Start.c **** *******************************************************************************/
  14:.\Generated_Source\PSoC5/Cm3Start.c **** 
  15:.\Generated_Source\PSoC5/Cm3Start.c **** #include <limits.h>
  16:.\Generated_Source\PSoC5/Cm3Start.c **** #include "cydevice_trm.h"
  17:.\Generated_Source\PSoC5/Cm3Start.c **** #include "cytypes.h"
  18:.\Generated_Source\PSoC5/Cm3Start.c **** #include "cyfitter_cfg.h"
  19:.\Generated_Source\PSoC5/Cm3Start.c **** #include "CyLib.h"
  20:.\Generated_Source\PSoC5/Cm3Start.c **** #include "CyDmac.h"
  21:.\Generated_Source\PSoC5/Cm3Start.c **** #include "cyfitter.h"
  22:.\Generated_Source\PSoC5/Cm3Start.c **** #include "cyapicallbacks.h"
  23:.\Generated_Source\PSoC5/Cm3Start.c **** 
  24:.\Generated_Source\PSoC5/Cm3Start.c **** #define CY_NUM_INTERRUPTS           (32u)
  25:.\Generated_Source\PSoC5/Cm3Start.c **** #define CY_NUM_VECTORS              (CYINT_IRQ_BASE + CY_NUM_INTERRUPTS)
  26:.\Generated_Source\PSoC5/Cm3Start.c **** #define CY_NUM_ROM_VECTORS          (4u)
  27:.\Generated_Source\PSoC5/Cm3Start.c **** #define CY_NVIC_APINT_PTR           ((reg32 *) CYREG_NVIC_APPLN_INTR)
  28:.\Generated_Source\PSoC5/Cm3Start.c **** #define CY_NVIC_CFG_CTRL_PTR        ((reg32 *) CYREG_NVIC_CFG_CONTROL)
  29:.\Generated_Source\PSoC5/Cm3Start.c **** #define CY_NVIC_APINT_PRIGROUP_3_5  (0x00000400u)  /* Priority group 3.5 split */
  30:.\Generated_Source\PSoC5/Cm3Start.c **** #define CY_NVIC_APINT_VECTKEY       (0x05FA0000u)  /* This key is required in order to write the NV
  31:.\Generated_Source\PSoC5/Cm3Start.c **** #define CY_NVIC_CFG_STACKALIGN      (0x00000200u)  /* This specifies that the exception stack must 
  32:.\Generated_Source\PSoC5/Cm3Start.c **** 
  33:.\Generated_Source\PSoC5/Cm3Start.c **** #if defined(__ARMCC_VERSION)
  34:.\Generated_Source\PSoC5/Cm3Start.c ****     #define INITIAL_STACK_POINTER ((cyisraddress)(uint32)&Image$$ARM_LIB_STACK$$ZI$$Limit)
  35:.\Generated_Source\PSoC5/Cm3Start.c **** #elif defined (__GNUC__)
  36:.\Generated_Source\PSoC5/Cm3Start.c ****     #define INITIAL_STACK_POINTER (&__cy_stack)
  37:.\Generated_Source\PSoC5/Cm3Start.c **** #elif defined (__ICCARM__)
  38:.\Generated_Source\PSoC5/Cm3Start.c ****     #pragma language=extended
  39:.\Generated_Source\PSoC5/Cm3Start.c ****     #pragma segment="CSTACK"
  40:.\Generated_Source\PSoC5/Cm3Start.c ****     #define INITIAL_STACK_POINTER  { .__ptr = __sfe( "CSTACK" ) }
  41:.\Generated_Source\PSoC5/Cm3Start.c **** 
  42:.\Generated_Source\PSoC5/Cm3Start.c ****     extern void __iar_program_start( void );
  43:.\Generated_Source\PSoC5/Cm3Start.c ****     extern void __iar_data_init3 (void);
  44:.\Generated_Source\PSoC5/Cm3Start.c **** #endif  /* (__ARMCC_VERSION) */
  45:.\Generated_Source\PSoC5/Cm3Start.c **** 
  46:.\Generated_Source\PSoC5/Cm3Start.c **** #if defined(__GNUC__)
  47:.\Generated_Source\PSoC5/Cm3Start.c ****     #include <errno.h>
  48:.\Generated_Source\PSoC5/Cm3Start.c ****     extern int  errno;
  49:.\Generated_Source\PSoC5/Cm3Start.c ****     extern int  end;
  50:.\Generated_Source\PSoC5/Cm3Start.c **** #endif  /* defined(__GNUC__) */
  51:.\Generated_Source\PSoC5/Cm3Start.c **** 
  52:.\Generated_Source\PSoC5/Cm3Start.c **** /* Extern functions */
  53:.\Generated_Source\PSoC5/Cm3Start.c **** extern void CyBtldr_CheckLaunch(void);
  54:.\Generated_Source\PSoC5/Cm3Start.c **** 
  55:.\Generated_Source\PSoC5/Cm3Start.c **** /* Function prototypes */
  56:.\Generated_Source\PSoC5/Cm3Start.c **** void initialize_psoc(void);
  57:.\Generated_Source\PSoC5/Cm3Start.c **** CY_ISR(IntDefaultHandler);
  58:.\Generated_Source\PSoC5/Cm3Start.c **** void Reset(void);
  59:.\Generated_Source\PSoC5/Cm3Start.c **** 
  60:.\Generated_Source\PSoC5/Cm3Start.c **** /* Global variables */
  61:.\Generated_Source\PSoC5/Cm3Start.c **** #if !defined (__ICCARM__)
  62:.\Generated_Source\PSoC5/Cm3Start.c ****     CY_NOINIT static uint32 cySysNoInitDataValid;
  63:.\Generated_Source\PSoC5/Cm3Start.c **** #endif  /* !defined (__ICCARM__) */
  64:.\Generated_Source\PSoC5/Cm3Start.c **** 
  65:.\Generated_Source\PSoC5/Cm3Start.c **** 
  66:.\Generated_Source\PSoC5/Cm3Start.c **** /*******************************************************************************
  67:.\Generated_Source\PSoC5/Cm3Start.c **** * Default Ram Interrupt Vector table storage area. Must be 256-byte aligned.
ARM GAS  C:\Users\LUKASC~1\AppData\Local\Temp\ccjlIrR3.s 			page 3


  68:.\Generated_Source\PSoC5/Cm3Start.c **** *******************************************************************************/
  69:.\Generated_Source\PSoC5/Cm3Start.c **** #if defined (__ICCARM__)
  70:.\Generated_Source\PSoC5/Cm3Start.c ****     #pragma location=".ramvectors"
  71:.\Generated_Source\PSoC5/Cm3Start.c ****     #pragma data_alignment=256
  72:.\Generated_Source\PSoC5/Cm3Start.c **** #else
  73:.\Generated_Source\PSoC5/Cm3Start.c ****     CY_SECTION(".ramvectors")
  74:.\Generated_Source\PSoC5/Cm3Start.c ****     CY_ALIGN(256)
  75:.\Generated_Source\PSoC5/Cm3Start.c **** #endif  /* defined (__ICCARM__) */
  76:.\Generated_Source\PSoC5/Cm3Start.c **** cyisraddress CyRamVectors[CY_NUM_VECTORS];
  77:.\Generated_Source\PSoC5/Cm3Start.c **** 
  78:.\Generated_Source\PSoC5/Cm3Start.c **** 
  79:.\Generated_Source\PSoC5/Cm3Start.c **** /*******************************************************************************
  80:.\Generated_Source\PSoC5/Cm3Start.c **** * Function Name: IntDefaultHandler
  81:.\Generated_Source\PSoC5/Cm3Start.c **** ********************************************************************************
  82:.\Generated_Source\PSoC5/Cm3Start.c **** *
  83:.\Generated_Source\PSoC5/Cm3Start.c **** * Summary:
  84:.\Generated_Source\PSoC5/Cm3Start.c **** *  This function is called for all interrupts, other than a reset that gets
  85:.\Generated_Source\PSoC5/Cm3Start.c **** *  called before the system is setup.
  86:.\Generated_Source\PSoC5/Cm3Start.c **** *
  87:.\Generated_Source\PSoC5/Cm3Start.c **** * Parameters:
  88:.\Generated_Source\PSoC5/Cm3Start.c **** *  None
  89:.\Generated_Source\PSoC5/Cm3Start.c **** *
  90:.\Generated_Source\PSoC5/Cm3Start.c **** * Return:
  91:.\Generated_Source\PSoC5/Cm3Start.c **** *  None
  92:.\Generated_Source\PSoC5/Cm3Start.c **** *
  93:.\Generated_Source\PSoC5/Cm3Start.c **** * Theory:
  94:.\Generated_Source\PSoC5/Cm3Start.c **** *  Any value other than zero is acceptable.
  95:.\Generated_Source\PSoC5/Cm3Start.c **** *
  96:.\Generated_Source\PSoC5/Cm3Start.c **** *******************************************************************************/
  97:.\Generated_Source\PSoC5/Cm3Start.c **** CY_ISR(IntDefaultHandler)
  98:.\Generated_Source\PSoC5/Cm3Start.c **** {
  40              		.loc 1 98 0
  41              		.cfi_startproc
  42              		@ args = 0, pretend = 0, frame = 0
  43              		@ frame_needed = 1, uses_anonymous_args = 0
  44              		@ link register save eliminated.
  45 0000 80B4     		push	{r7}
  46              		.cfi_def_cfa_offset 4
  47              		.cfi_offset 7, -4
  48 0002 00AF     		add	r7, sp, #0
  49              		.cfi_def_cfa_register 7
  50              	.L2:
  99:.\Generated_Source\PSoC5/Cm3Start.c ****     #ifdef CY_BOOT_INT_DEFAULT_HANDLER_EXCEPTION_ENTRY_CALLBACK
 100:.\Generated_Source\PSoC5/Cm3Start.c ****         CyBoot_IntDefaultHandler_Exception_EntryCallback();
 101:.\Generated_Source\PSoC5/Cm3Start.c ****     #endif /* CY_BOOT_INT_DEFAULT_HANDLER_EXCEPTION_ENTRY_CALLBACK */
 102:.\Generated_Source\PSoC5/Cm3Start.c **** 
 103:.\Generated_Source\PSoC5/Cm3Start.c ****     while(1)
 104:.\Generated_Source\PSoC5/Cm3Start.c ****     {
 105:.\Generated_Source\PSoC5/Cm3Start.c ****         /***********************************************************************
 106:.\Generated_Source\PSoC5/Cm3Start.c ****         * We must not get here. If we do, a serious problem occurs, so go
 107:.\Generated_Source\PSoC5/Cm3Start.c ****         * into an infinite loop.
 108:.\Generated_Source\PSoC5/Cm3Start.c ****         ***********************************************************************/
 109:.\Generated_Source\PSoC5/Cm3Start.c ****     }
  51              		.loc 1 109 0 discriminator 1
  52 0004 FEE7     		b	.L2
  53              		.cfi_endproc
  54              	.LFE0:
ARM GAS  C:\Users\LUKASC~1\AppData\Local\Temp\ccjlIrR3.s 			page 4


  55              		.size	IntDefaultHandler, .-IntDefaultHandler
  56              		.section	.text._exit,"ax",%progbits
  57              		.align	2
  58              		.weak	_exit
  59              		.thumb
  60              		.thumb_func
  61              		.type	_exit, %function
  62              	_exit:
  63              	.LFB1:
 110:.\Generated_Source\PSoC5/Cm3Start.c **** }
 111:.\Generated_Source\PSoC5/Cm3Start.c **** 
 112:.\Generated_Source\PSoC5/Cm3Start.c **** 
 113:.\Generated_Source\PSoC5/Cm3Start.c **** #if defined(__ARMCC_VERSION)
 114:.\Generated_Source\PSoC5/Cm3Start.c **** 
 115:.\Generated_Source\PSoC5/Cm3Start.c **** /* Local function for device reset. */
 116:.\Generated_Source\PSoC5/Cm3Start.c **** extern void Reset(void);
 117:.\Generated_Source\PSoC5/Cm3Start.c **** 
 118:.\Generated_Source\PSoC5/Cm3Start.c **** /* Application entry point. */
 119:.\Generated_Source\PSoC5/Cm3Start.c **** extern void $Super$$main(void);
 120:.\Generated_Source\PSoC5/Cm3Start.c **** 
 121:.\Generated_Source\PSoC5/Cm3Start.c **** /* Linker-generated Stack Base addresses, Two Region and One Region */
 122:.\Generated_Source\PSoC5/Cm3Start.c **** extern uint32 Image$$ARM_LIB_STACK$$ZI$$Limit;
 123:.\Generated_Source\PSoC5/Cm3Start.c **** 
 124:.\Generated_Source\PSoC5/Cm3Start.c **** /* RealView C Library initialization. */
 125:.\Generated_Source\PSoC5/Cm3Start.c **** extern int __main(void);
 126:.\Generated_Source\PSoC5/Cm3Start.c **** 
 127:.\Generated_Source\PSoC5/Cm3Start.c **** 
 128:.\Generated_Source\PSoC5/Cm3Start.c **** /*******************************************************************************
 129:.\Generated_Source\PSoC5/Cm3Start.c **** * Function Name: Reset
 130:.\Generated_Source\PSoC5/Cm3Start.c **** ********************************************************************************
 131:.\Generated_Source\PSoC5/Cm3Start.c **** *
 132:.\Generated_Source\PSoC5/Cm3Start.c **** * Summary:
 133:.\Generated_Source\PSoC5/Cm3Start.c **** *  This function handles the reset interrupt for the RVDS/MDK toolchains.
 134:.\Generated_Source\PSoC5/Cm3Start.c **** *  This is the first bit of code that is executed at startup.
 135:.\Generated_Source\PSoC5/Cm3Start.c **** *
 136:.\Generated_Source\PSoC5/Cm3Start.c **** * Parameters:
 137:.\Generated_Source\PSoC5/Cm3Start.c **** *  None
 138:.\Generated_Source\PSoC5/Cm3Start.c **** *
 139:.\Generated_Source\PSoC5/Cm3Start.c **** * Return:
 140:.\Generated_Source\PSoC5/Cm3Start.c **** *  None
 141:.\Generated_Source\PSoC5/Cm3Start.c **** *
 142:.\Generated_Source\PSoC5/Cm3Start.c **** *******************************************************************************/
 143:.\Generated_Source\PSoC5/Cm3Start.c **** void Reset(void)
 144:.\Generated_Source\PSoC5/Cm3Start.c **** {
 145:.\Generated_Source\PSoC5/Cm3Start.c ****     #if(CYDEV_PROJ_TYPE != CYDEV_PROJ_TYPE_LOADABLE && CYDEV_PROJ_TYPE != CYDEV_PROJ_TYPE_LOADABLEA
 146:.\Generated_Source\PSoC5/Cm3Start.c **** 
 147:.\Generated_Source\PSoC5/Cm3Start.c ****         /* For PSoC 5LP, debugging is enabled by default */
 148:.\Generated_Source\PSoC5/Cm3Start.c ****         #if(CYDEV_DEBUGGING_ENABLE == 0)
 149:.\Generated_Source\PSoC5/Cm3Start.c ****             *(reg32 *)(CYDEV_DEBUG_ENABLE_REGISTER) |= CYDEV_DEBUG_ENABLE_MASK;
 150:.\Generated_Source\PSoC5/Cm3Start.c ****         #endif /* (CYDEV_DEBUGGING_ENABLE) */
 151:.\Generated_Source\PSoC5/Cm3Start.c **** 
 152:.\Generated_Source\PSoC5/Cm3Start.c ****         /* Reset Status Register has Read-to-clear SW access mode.
 153:.\Generated_Source\PSoC5/Cm3Start.c ****         * Preserve current RESET_SR0 state to make it available for next reading.
 154:.\Generated_Source\PSoC5/Cm3Start.c ****         */
 155:.\Generated_Source\PSoC5/Cm3Start.c ****         *(reg32 *)(CYREG_PHUB_CFGMEM23_CFG1) = *(reg32 *)(CYREG_RESET_SR0);
 156:.\Generated_Source\PSoC5/Cm3Start.c **** 
 157:.\Generated_Source\PSoC5/Cm3Start.c ****     #endif  /* (CYDEV_PROJ_TYPE != CYDEV_PROJ_TYPE_LOADABLE && CYDEV_PROJ_TYPE != CYDEV_PROJ_TYPE_L
ARM GAS  C:\Users\LUKASC~1\AppData\Local\Temp\ccjlIrR3.s 			page 5


 158:.\Generated_Source\PSoC5/Cm3Start.c **** 
 159:.\Generated_Source\PSoC5/Cm3Start.c ****     #if ((CYDEV_BOOTLOADER_ENABLE) && (CYDEV_PROJ_TYPE != CYDEV_PROJ_TYPE_LOADABLEANDBOOTLOADER))
 160:.\Generated_Source\PSoC5/Cm3Start.c ****         CyBtldr_CheckLaunch();
 161:.\Generated_Source\PSoC5/Cm3Start.c ****     #endif /* ((CYDEV_BOOTLOADER_ENABLE) && (CYDEV_PROJ_TYPE != CYDEV_PROJ_TYPE_LOADABLEANDBOOTLOAD
 162:.\Generated_Source\PSoC5/Cm3Start.c **** 
 163:.\Generated_Source\PSoC5/Cm3Start.c ****     __main();
 164:.\Generated_Source\PSoC5/Cm3Start.c **** }
 165:.\Generated_Source\PSoC5/Cm3Start.c **** 
 166:.\Generated_Source\PSoC5/Cm3Start.c **** 
 167:.\Generated_Source\PSoC5/Cm3Start.c **** /*******************************************************************************
 168:.\Generated_Source\PSoC5/Cm3Start.c **** * Function Name: $Sub$$main
 169:.\Generated_Source\PSoC5/Cm3Start.c **** ********************************************************************************
 170:.\Generated_Source\PSoC5/Cm3Start.c **** *
 171:.\Generated_Source\PSoC5/Cm3Start.c **** * Summary:
 172:.\Generated_Source\PSoC5/Cm3Start.c **** *  This function is called immediately before the users main
 173:.\Generated_Source\PSoC5/Cm3Start.c **** *
 174:.\Generated_Source\PSoC5/Cm3Start.c **** * Parameters:
 175:.\Generated_Source\PSoC5/Cm3Start.c **** *  None
 176:.\Generated_Source\PSoC5/Cm3Start.c **** *
 177:.\Generated_Source\PSoC5/Cm3Start.c **** * Return:
 178:.\Generated_Source\PSoC5/Cm3Start.c **** *  None
 179:.\Generated_Source\PSoC5/Cm3Start.c **** *
 180:.\Generated_Source\PSoC5/Cm3Start.c **** *******************************************************************************/
 181:.\Generated_Source\PSoC5/Cm3Start.c **** void $Sub$$main(void)
 182:.\Generated_Source\PSoC5/Cm3Start.c **** {
 183:.\Generated_Source\PSoC5/Cm3Start.c ****     initialize_psoc();
 184:.\Generated_Source\PSoC5/Cm3Start.c **** 
 185:.\Generated_Source\PSoC5/Cm3Start.c ****     /* Call original main */
 186:.\Generated_Source\PSoC5/Cm3Start.c ****     $Super$$main();
 187:.\Generated_Source\PSoC5/Cm3Start.c **** 
 188:.\Generated_Source\PSoC5/Cm3Start.c ****     while (1)
 189:.\Generated_Source\PSoC5/Cm3Start.c ****     {
 190:.\Generated_Source\PSoC5/Cm3Start.c ****         /* If main returns, it is undefined what we should do. */
 191:.\Generated_Source\PSoC5/Cm3Start.c ****     }
 192:.\Generated_Source\PSoC5/Cm3Start.c **** }
 193:.\Generated_Source\PSoC5/Cm3Start.c **** 
 194:.\Generated_Source\PSoC5/Cm3Start.c **** #elif defined(__GNUC__)
 195:.\Generated_Source\PSoC5/Cm3Start.c **** 
 196:.\Generated_Source\PSoC5/Cm3Start.c **** void Start_c(void);
 197:.\Generated_Source\PSoC5/Cm3Start.c **** 
 198:.\Generated_Source\PSoC5/Cm3Start.c **** /* Stack Base address */
 199:.\Generated_Source\PSoC5/Cm3Start.c **** extern void __cy_stack(void);
 200:.\Generated_Source\PSoC5/Cm3Start.c **** 
 201:.\Generated_Source\PSoC5/Cm3Start.c **** /* Application entry point. */
 202:.\Generated_Source\PSoC5/Cm3Start.c **** extern int main(void);
 203:.\Generated_Source\PSoC5/Cm3Start.c **** 
 204:.\Generated_Source\PSoC5/Cm3Start.c **** /* Static objects constructors initializer */
 205:.\Generated_Source\PSoC5/Cm3Start.c **** extern void __libc_init_array(void);
 206:.\Generated_Source\PSoC5/Cm3Start.c **** 
 207:.\Generated_Source\PSoC5/Cm3Start.c **** typedef unsigned char __cy_byte_align8 __attribute ((aligned (8)));
 208:.\Generated_Source\PSoC5/Cm3Start.c **** 
 209:.\Generated_Source\PSoC5/Cm3Start.c **** struct __cy_region
 210:.\Generated_Source\PSoC5/Cm3Start.c **** {
 211:.\Generated_Source\PSoC5/Cm3Start.c ****     __cy_byte_align8 *init; /* Initial contents of this region.  */
 212:.\Generated_Source\PSoC5/Cm3Start.c ****     __cy_byte_align8 *data; /* Start address of region.  */
 213:.\Generated_Source\PSoC5/Cm3Start.c ****     size_t init_size;       /* Size of initial data.  */
 214:.\Generated_Source\PSoC5/Cm3Start.c ****     size_t zero_size;       /* Additional size to be zeroed.  */
ARM GAS  C:\Users\LUKASC~1\AppData\Local\Temp\ccjlIrR3.s 			page 6


 215:.\Generated_Source\PSoC5/Cm3Start.c **** };
 216:.\Generated_Source\PSoC5/Cm3Start.c **** 
 217:.\Generated_Source\PSoC5/Cm3Start.c **** extern const struct __cy_region __cy_regions[];
 218:.\Generated_Source\PSoC5/Cm3Start.c **** extern const char __cy_region_num __attribute__((weak));
 219:.\Generated_Source\PSoC5/Cm3Start.c **** #define __cy_region_num ((size_t)&__cy_region_num)
 220:.\Generated_Source\PSoC5/Cm3Start.c **** 
 221:.\Generated_Source\PSoC5/Cm3Start.c **** 
 222:.\Generated_Source\PSoC5/Cm3Start.c **** /*******************************************************************************
 223:.\Generated_Source\PSoC5/Cm3Start.c **** * System Calls of the Red Hat newlib C Library
 224:.\Generated_Source\PSoC5/Cm3Start.c **** *******************************************************************************/
 225:.\Generated_Source\PSoC5/Cm3Start.c **** 
 226:.\Generated_Source\PSoC5/Cm3Start.c **** 
 227:.\Generated_Source\PSoC5/Cm3Start.c **** /*******************************************************************************
 228:.\Generated_Source\PSoC5/Cm3Start.c **** * Function Name: _exit
 229:.\Generated_Source\PSoC5/Cm3Start.c **** ********************************************************************************
 230:.\Generated_Source\PSoC5/Cm3Start.c **** *
 231:.\Generated_Source\PSoC5/Cm3Start.c **** * Summary:
 232:.\Generated_Source\PSoC5/Cm3Start.c **** *  Exit a program without cleaning up files. If your system doesn't provide
 233:.\Generated_Source\PSoC5/Cm3Start.c **** *  this, it is best to avoid linking with subroutines that require it (exit,
 234:.\Generated_Source\PSoC5/Cm3Start.c **** *  system).
 235:.\Generated_Source\PSoC5/Cm3Start.c **** *
 236:.\Generated_Source\PSoC5/Cm3Start.c **** * Parameters:
 237:.\Generated_Source\PSoC5/Cm3Start.c **** *  status: Status caused program exit.
 238:.\Generated_Source\PSoC5/Cm3Start.c **** *
 239:.\Generated_Source\PSoC5/Cm3Start.c **** * Return:
 240:.\Generated_Source\PSoC5/Cm3Start.c **** *  None
 241:.\Generated_Source\PSoC5/Cm3Start.c **** *
 242:.\Generated_Source\PSoC5/Cm3Start.c **** *******************************************************************************/
 243:.\Generated_Source\PSoC5/Cm3Start.c **** __attribute__((weak))
 244:.\Generated_Source\PSoC5/Cm3Start.c **** void _exit(int status)
 245:.\Generated_Source\PSoC5/Cm3Start.c **** {
  64              		.loc 1 245 0
  65              		.cfi_startproc
  66              		@ args = 0, pretend = 0, frame = 8
  67              		@ frame_needed = 1, uses_anonymous_args = 0
  68 0000 80B5     		push	{r7, lr}
  69              		.cfi_def_cfa_offset 8
  70              		.cfi_offset 7, -8
  71              		.cfi_offset 14, -4
  72 0002 82B0     		sub	sp, sp, #8
  73              		.cfi_def_cfa_offset 16
  74 0004 00AF     		add	r7, sp, #0
  75              		.cfi_def_cfa_register 7
  76 0006 7860     		str	r0, [r7, #4]
 246:.\Generated_Source\PSoC5/Cm3Start.c ****     CyHalt((uint8) status);
  77              		.loc 1 246 0
  78 0008 7B68     		ldr	r3, [r7, #4]
  79 000a DBB2     		uxtb	r3, r3
  80 000c 1846     		mov	r0, r3
  81 000e FFF7FEFF 		bl	CyHalt
  82              	.L4:
 247:.\Generated_Source\PSoC5/Cm3Start.c ****     while(1)
 248:.\Generated_Source\PSoC5/Cm3Start.c ****     {
 249:.\Generated_Source\PSoC5/Cm3Start.c **** 
 250:.\Generated_Source\PSoC5/Cm3Start.c ****     }
  83              		.loc 1 250 0 discriminator 1
  84 0012 FEE7     		b	.L4
ARM GAS  C:\Users\LUKASC~1\AppData\Local\Temp\ccjlIrR3.s 			page 7


  85              		.cfi_endproc
  86              	.LFE1:
  87              		.size	_exit, .-_exit
  88              		.section	.text._sbrk,"ax",%progbits
  89              		.align	2
  90              		.weak	_sbrk
  91              		.thumb
  92              		.thumb_func
  93              		.type	_sbrk, %function
  94              	_sbrk:
  95              	.LFB2:
 251:.\Generated_Source\PSoC5/Cm3Start.c **** }
 252:.\Generated_Source\PSoC5/Cm3Start.c **** 
 253:.\Generated_Source\PSoC5/Cm3Start.c **** 
 254:.\Generated_Source\PSoC5/Cm3Start.c **** /*******************************************************************************
 255:.\Generated_Source\PSoC5/Cm3Start.c **** * Function Name: _sbrk
 256:.\Generated_Source\PSoC5/Cm3Start.c **** ********************************************************************************
 257:.\Generated_Source\PSoC5/Cm3Start.c **** *
 258:.\Generated_Source\PSoC5/Cm3Start.c **** * Summary:
 259:.\Generated_Source\PSoC5/Cm3Start.c **** *  Increase program data space. As malloc and related functions depend on this,
 260:.\Generated_Source\PSoC5/Cm3Start.c **** *  it is useful to have a working implementation. The following suffices for a
 261:.\Generated_Source\PSoC5/Cm3Start.c **** *  standalone system; it exploits the symbol end automatically defined by the
 262:.\Generated_Source\PSoC5/Cm3Start.c **** *  GNU linker.
 263:.\Generated_Source\PSoC5/Cm3Start.c **** *
 264:.\Generated_Source\PSoC5/Cm3Start.c **** * Parameters:
 265:.\Generated_Source\PSoC5/Cm3Start.c **** *  nbytes: The number of bytes requested (if the parameter value is positive)
 266:.\Generated_Source\PSoC5/Cm3Start.c **** *  from the heap or returned back to the heap (if the parameter value is
 267:.\Generated_Source\PSoC5/Cm3Start.c **** *  negative).
 268:.\Generated_Source\PSoC5/Cm3Start.c **** *
 269:.\Generated_Source\PSoC5/Cm3Start.c **** * Return:
 270:.\Generated_Source\PSoC5/Cm3Start.c **** *  None
 271:.\Generated_Source\PSoC5/Cm3Start.c **** *
 272:.\Generated_Source\PSoC5/Cm3Start.c **** *******************************************************************************/
 273:.\Generated_Source\PSoC5/Cm3Start.c **** __attribute__((weak))
 274:.\Generated_Source\PSoC5/Cm3Start.c **** void * _sbrk (int nbytes)
 275:.\Generated_Source\PSoC5/Cm3Start.c **** {
  96              		.loc 1 275 0
  97              		.cfi_startproc
  98              		@ args = 0, pretend = 0, frame = 16
  99              		@ frame_needed = 1, uses_anonymous_args = 0
 100 0000 80B5     		push	{r7, lr}
 101              		.cfi_def_cfa_offset 8
 102              		.cfi_offset 7, -8
 103              		.cfi_offset 14, -4
 104 0002 84B0     		sub	sp, sp, #16
 105              		.cfi_def_cfa_offset 24
 106 0004 00AF     		add	r7, sp, #0
 107              		.cfi_def_cfa_register 7
 108 0006 7860     		str	r0, [r7, #4]
 276:.\Generated_Source\PSoC5/Cm3Start.c ****     extern int  end;            /* Symbol defined by linker map. Start of free memory (as symbol). 
 277:.\Generated_Source\PSoC5/Cm3Start.c ****     void *      returnValue;
 278:.\Generated_Source\PSoC5/Cm3Start.c **** 
 279:.\Generated_Source\PSoC5/Cm3Start.c ****     /* The statically held previous end of the heap, with its initialization. */
 280:.\Generated_Source\PSoC5/Cm3Start.c ****     static void *heapPointer = (void *) &end;                 /* Previous end */
 281:.\Generated_Source\PSoC5/Cm3Start.c **** 
 282:.\Generated_Source\PSoC5/Cm3Start.c ****     if (((heapPointer + nbytes) - (void *) &end) <= CYDEV_HEAP_SIZE)
 109              		.loc 1 282 0
ARM GAS  C:\Users\LUKASC~1\AppData\Local\Temp\ccjlIrR3.s 			page 8


 110 0008 0F4B     		ldr	r3, .L9
 111 000a 1A68     		ldr	r2, [r3]
 112 000c 7B68     		ldr	r3, [r7, #4]
 113 000e 1344     		add	r3, r3, r2
 114 0010 1A46     		mov	r2, r3
 115 0012 0E4B     		ldr	r3, .L9+4
 116 0014 D31A     		subs	r3, r2, r3
 117 0016 802B     		cmp	r3, #128
 118 0018 09DC     		bgt	.L6
 283:.\Generated_Source\PSoC5/Cm3Start.c ****     {
 284:.\Generated_Source\PSoC5/Cm3Start.c ****         returnValue  = heapPointer;
 119              		.loc 1 284 0
 120 001a 0B4B     		ldr	r3, .L9
 121 001c 1B68     		ldr	r3, [r3]
 122 001e FB60     		str	r3, [r7, #12]
 285:.\Generated_Source\PSoC5/Cm3Start.c ****         heapPointer += nbytes;
 123              		.loc 1 285 0
 124 0020 094B     		ldr	r3, .L9
 125 0022 1A68     		ldr	r2, [r3]
 126 0024 7B68     		ldr	r3, [r7, #4]
 127 0026 1344     		add	r3, r3, r2
 128 0028 074A     		ldr	r2, .L9
 129 002a 1360     		str	r3, [r2]
 130 002c 07E0     		b	.L7
 131              	.L6:
 286:.\Generated_Source\PSoC5/Cm3Start.c ****     }
 287:.\Generated_Source\PSoC5/Cm3Start.c ****     else
 288:.\Generated_Source\PSoC5/Cm3Start.c ****     {
 289:.\Generated_Source\PSoC5/Cm3Start.c ****         errno = ENOMEM;
 132              		.loc 1 289 0
 133 002e FFF7FEFF 		bl	__errno
 134 0032 0246     		mov	r2, r0
 135 0034 0C23     		movs	r3, #12
 136 0036 1360     		str	r3, [r2]
 290:.\Generated_Source\PSoC5/Cm3Start.c ****         returnValue = (void *) -1;
 137              		.loc 1 290 0
 138 0038 4FF0FF33 		mov	r3, #-1
 139 003c FB60     		str	r3, [r7, #12]
 140              	.L7:
 291:.\Generated_Source\PSoC5/Cm3Start.c ****     }
 292:.\Generated_Source\PSoC5/Cm3Start.c **** 
 293:.\Generated_Source\PSoC5/Cm3Start.c ****     return (returnValue);
 141              		.loc 1 293 0
 142 003e FB68     		ldr	r3, [r7, #12]
 294:.\Generated_Source\PSoC5/Cm3Start.c **** }
 143              		.loc 1 294 0
 144 0040 1846     		mov	r0, r3
 145 0042 1037     		adds	r7, r7, #16
 146              		.cfi_def_cfa_offset 8
 147 0044 BD46     		mov	sp, r7
 148              		.cfi_def_cfa_register 13
 149              		@ sp needed
 150 0046 80BD     		pop	{r7, pc}
 151              	.L10:
 152              		.align	2
 153              	.L9:
 154 0048 00000000 		.word	heapPointer.4944
ARM GAS  C:\Users\LUKASC~1\AppData\Local\Temp\ccjlIrR3.s 			page 9


 155 004c 00000000 		.word	end
 156              		.cfi_endproc
 157              	.LFE2:
 158              		.size	_sbrk, .-_sbrk
 159              		.section	.text.Reset,"ax",%progbits
 160              		.align	2
 161              		.global	Reset
 162              		.thumb
 163              		.thumb_func
 164              		.type	Reset, %function
 165              	Reset:
 166              	.LFB3:
 295:.\Generated_Source\PSoC5/Cm3Start.c **** 
 296:.\Generated_Source\PSoC5/Cm3Start.c **** 
 297:.\Generated_Source\PSoC5/Cm3Start.c **** /*******************************************************************************
 298:.\Generated_Source\PSoC5/Cm3Start.c **** * Function Name: Reset
 299:.\Generated_Source\PSoC5/Cm3Start.c **** ********************************************************************************
 300:.\Generated_Source\PSoC5/Cm3Start.c **** *
 301:.\Generated_Source\PSoC5/Cm3Start.c **** * Summary:
 302:.\Generated_Source\PSoC5/Cm3Start.c **** *  This function handles the reset interrupt for the GCC toolchain. This is the
 303:.\Generated_Source\PSoC5/Cm3Start.c **** *  first bit of code that is executed at startup.
 304:.\Generated_Source\PSoC5/Cm3Start.c **** *
 305:.\Generated_Source\PSoC5/Cm3Start.c **** * Parameters:
 306:.\Generated_Source\PSoC5/Cm3Start.c **** *  None
 307:.\Generated_Source\PSoC5/Cm3Start.c **** *
 308:.\Generated_Source\PSoC5/Cm3Start.c **** * Return:
 309:.\Generated_Source\PSoC5/Cm3Start.c **** *  None
 310:.\Generated_Source\PSoC5/Cm3Start.c **** *
 311:.\Generated_Source\PSoC5/Cm3Start.c **** *******************************************************************************/
 312:.\Generated_Source\PSoC5/Cm3Start.c **** void Reset(void)
 313:.\Generated_Source\PSoC5/Cm3Start.c **** {
 167              		.loc 1 313 0
 168              		.cfi_startproc
 169              		@ args = 0, pretend = 0, frame = 0
 170              		@ frame_needed = 1, uses_anonymous_args = 0
 171 0000 80B5     		push	{r7, lr}
 172              		.cfi_def_cfa_offset 8
 173              		.cfi_offset 7, -8
 174              		.cfi_offset 14, -4
 175 0002 00AF     		add	r7, sp, #0
 176              		.cfi_def_cfa_register 7
 314:.\Generated_Source\PSoC5/Cm3Start.c ****     #if(CYDEV_PROJ_TYPE != CYDEV_PROJ_TYPE_LOADABLE && CYDEV_PROJ_TYPE != CYDEV_PROJ_TYPE_LOADABLEA
 315:.\Generated_Source\PSoC5/Cm3Start.c **** 
 316:.\Generated_Source\PSoC5/Cm3Start.c ****         /* For PSoC 5LP, debugging is enabled by default */
 317:.\Generated_Source\PSoC5/Cm3Start.c ****         #if(CYDEV_DEBUGGING_ENABLE == 0)
 318:.\Generated_Source\PSoC5/Cm3Start.c ****             *(reg32 *)(CYDEV_DEBUG_ENABLE_REGISTER) |= CYDEV_DEBUG_ENABLE_MASK;
 319:.\Generated_Source\PSoC5/Cm3Start.c ****         #endif /* (CYDEV_DEBUGGING_ENABLE) */
 320:.\Generated_Source\PSoC5/Cm3Start.c **** 
 321:.\Generated_Source\PSoC5/Cm3Start.c ****         /* Reset Status Register has Read-to-clear SW access mode.
 322:.\Generated_Source\PSoC5/Cm3Start.c ****         * Preserve current RESET_SR0 state to make it available for next reading.
 323:.\Generated_Source\PSoC5/Cm3Start.c ****         */
 324:.\Generated_Source\PSoC5/Cm3Start.c ****         *(reg32 *)(CYREG_PHUB_CFGMEM23_CFG1) = *(reg32 *)(CYREG_RESET_SR0);
 177              		.loc 1 324 0
 178 0004 024A     		ldr	r2, .L12
 179 0006 034B     		ldr	r3, .L12+4
 180 0008 1B68     		ldr	r3, [r3]
 181 000a 1360     		str	r3, [r2]
ARM GAS  C:\Users\LUKASC~1\AppData\Local\Temp\ccjlIrR3.s 			page 10


 325:.\Generated_Source\PSoC5/Cm3Start.c **** 
 326:.\Generated_Source\PSoC5/Cm3Start.c ****     #endif  /* (CYDEV_PROJ_TYPE != CYDEV_PROJ_TYPE_LOADABLE && CYDEV_PROJ_TYPE != CYDEV_PROJ_TYPE_L
 327:.\Generated_Source\PSoC5/Cm3Start.c **** 
 328:.\Generated_Source\PSoC5/Cm3Start.c ****     #if ((CYDEV_BOOTLOADER_ENABLE) && (CYDEV_PROJ_TYPE != CYDEV_PROJ_TYPE_LOADABLEANDBOOTLOADER))
 329:.\Generated_Source\PSoC5/Cm3Start.c ****         CyBtldr_CheckLaunch();
 330:.\Generated_Source\PSoC5/Cm3Start.c ****     #endif /* ((CYDEV_BOOTLOADER_ENABLE) && (CYDEV_PROJ_TYPE != CYDEV_PROJ_TYPE_LOADABLEANDBOOTLOAD
 331:.\Generated_Source\PSoC5/Cm3Start.c **** 
 332:.\Generated_Source\PSoC5/Cm3Start.c ****     Start_c();
 182              		.loc 1 332 0
 183 000c FFF7FEFF 		bl	Start_c
 184              	.L13:
 185              		.align	2
 186              	.L12:
 187 0010 BC760040 		.word	1073772220
 188 0014 FA460040 		.word	1073759994
 189              		.cfi_endproc
 190              	.LFE3:
 191              		.size	Reset, .-Reset
 192              		.section	.text.Start_c,"ax",%progbits
 193              		.align	2
 194              		.global	Start_c
 195              		.thumb
 196              		.thumb_func
 197              		.type	Start_c, %function
 198              	Start_c:
 199              	.LFB4:
 333:.\Generated_Source\PSoC5/Cm3Start.c **** }
 334:.\Generated_Source\PSoC5/Cm3Start.c **** 
 335:.\Generated_Source\PSoC5/Cm3Start.c **** 
 336:.\Generated_Source\PSoC5/Cm3Start.c **** /*******************************************************************************
 337:.\Generated_Source\PSoC5/Cm3Start.c **** * Function Name: Start_c
 338:.\Generated_Source\PSoC5/Cm3Start.c **** ********************************************************************************
 339:.\Generated_Source\PSoC5/Cm3Start.c **** *
 340:.\Generated_Source\PSoC5/Cm3Start.c **** * Summary:
 341:.\Generated_Source\PSoC5/Cm3Start.c **** *  This function handles initializing the .data and .bss sections in
 342:.\Generated_Source\PSoC5/Cm3Start.c **** *  preparation for running the standard C code.  Once initialization is complete
 343:.\Generated_Source\PSoC5/Cm3Start.c **** *  it will call main(). This function will never return.
 344:.\Generated_Source\PSoC5/Cm3Start.c **** *
 345:.\Generated_Source\PSoC5/Cm3Start.c **** * Parameters:
 346:.\Generated_Source\PSoC5/Cm3Start.c **** *  None
 347:.\Generated_Source\PSoC5/Cm3Start.c **** *
 348:.\Generated_Source\PSoC5/Cm3Start.c **** * Return:
 349:.\Generated_Source\PSoC5/Cm3Start.c **** *  None
 350:.\Generated_Source\PSoC5/Cm3Start.c **** *
 351:.\Generated_Source\PSoC5/Cm3Start.c **** *******************************************************************************/
 352:.\Generated_Source\PSoC5/Cm3Start.c **** void Start_c(void)  __attribute__ ((noreturn));
 353:.\Generated_Source\PSoC5/Cm3Start.c **** void Start_c(void)
 354:.\Generated_Source\PSoC5/Cm3Start.c **** {
 200              		.loc 1 354 0
 201              		.cfi_startproc
 202              		@ args = 0, pretend = 0, frame = 24
 203              		@ frame_needed = 1, uses_anonymous_args = 0
 204 0000 80B5     		push	{r7, lr}
 205              		.cfi_def_cfa_offset 8
 206              		.cfi_offset 7, -8
 207              		.cfi_offset 14, -4
 208 0002 86B0     		sub	sp, sp, #24
ARM GAS  C:\Users\LUKASC~1\AppData\Local\Temp\ccjlIrR3.s 			page 11


 209              		.cfi_def_cfa_offset 32
 210 0004 00AF     		add	r7, sp, #0
 211              		.cfi_def_cfa_register 7
 355:.\Generated_Source\PSoC5/Cm3Start.c ****     unsigned regions = __cy_region_num;
 212              		.loc 1 355 0
 213 0006 224B     		ldr	r3, .L22
 214 0008 7B61     		str	r3, [r7, #20]
 356:.\Generated_Source\PSoC5/Cm3Start.c ****     const struct __cy_region *rptr = __cy_regions;
 215              		.loc 1 356 0
 216 000a 224B     		ldr	r3, .L22+4
 217 000c 3B61     		str	r3, [r7, #16]
 357:.\Generated_Source\PSoC5/Cm3Start.c **** 
 358:.\Generated_Source\PSoC5/Cm3Start.c ****     /* Initialize memory */
 359:.\Generated_Source\PSoC5/Cm3Start.c ****     for (regions = __cy_region_num; regions != 0u; regions--)
 218              		.loc 1 359 0
 219 000e 204B     		ldr	r3, .L22
 220 0010 7B61     		str	r3, [r7, #20]
 221 0012 35E0     		b	.L15
 222              	.L20:
 223              	.LBB2:
 360:.\Generated_Source\PSoC5/Cm3Start.c ****     {
 361:.\Generated_Source\PSoC5/Cm3Start.c ****         uint32 *src = (uint32 *)rptr->init;
 224              		.loc 1 361 0
 225 0014 3B69     		ldr	r3, [r7, #16]
 226 0016 1B68     		ldr	r3, [r3]
 227 0018 FB60     		str	r3, [r7, #12]
 362:.\Generated_Source\PSoC5/Cm3Start.c ****         uint32 *dst = (uint32 *)rptr->data;
 228              		.loc 1 362 0
 229 001a 3B69     		ldr	r3, [r7, #16]
 230 001c 5B68     		ldr	r3, [r3, #4]
 231 001e BB60     		str	r3, [r7, #8]
 363:.\Generated_Source\PSoC5/Cm3Start.c ****         unsigned limit = rptr->init_size;
 232              		.loc 1 363 0
 233 0020 3B69     		ldr	r3, [r7, #16]
 234 0022 9B68     		ldr	r3, [r3, #8]
 235 0024 3B60     		str	r3, [r7]
 364:.\Generated_Source\PSoC5/Cm3Start.c ****         unsigned count;
 365:.\Generated_Source\PSoC5/Cm3Start.c **** 
 366:.\Generated_Source\PSoC5/Cm3Start.c ****         for (count = 0u; count != limit; count += sizeof (uint32))
 236              		.loc 1 366 0
 237 0026 0023     		movs	r3, #0
 238 0028 7B60     		str	r3, [r7, #4]
 239 002a 0CE0     		b	.L16
 240              	.L17:
 367:.\Generated_Source\PSoC5/Cm3Start.c ****         {
 368:.\Generated_Source\PSoC5/Cm3Start.c ****             *dst = *src;
 241              		.loc 1 368 0 discriminator 3
 242 002c FB68     		ldr	r3, [r7, #12]
 243 002e 1A68     		ldr	r2, [r3]
 244 0030 BB68     		ldr	r3, [r7, #8]
 245 0032 1A60     		str	r2, [r3]
 369:.\Generated_Source\PSoC5/Cm3Start.c ****             dst++;
 246              		.loc 1 369 0 discriminator 3
 247 0034 BB68     		ldr	r3, [r7, #8]
 248 0036 0433     		adds	r3, r3, #4
 249 0038 BB60     		str	r3, [r7, #8]
 370:.\Generated_Source\PSoC5/Cm3Start.c ****             src++;
ARM GAS  C:\Users\LUKASC~1\AppData\Local\Temp\ccjlIrR3.s 			page 12


 250              		.loc 1 370 0 discriminator 3
 251 003a FB68     		ldr	r3, [r7, #12]
 252 003c 0433     		adds	r3, r3, #4
 253 003e FB60     		str	r3, [r7, #12]
 366:.\Generated_Source\PSoC5/Cm3Start.c ****         {
 254              		.loc 1 366 0 discriminator 3
 255 0040 7B68     		ldr	r3, [r7, #4]
 256 0042 0433     		adds	r3, r3, #4
 257 0044 7B60     		str	r3, [r7, #4]
 258              	.L16:
 366:.\Generated_Source\PSoC5/Cm3Start.c ****         {
 259              		.loc 1 366 0 is_stmt 0 discriminator 1
 260 0046 7A68     		ldr	r2, [r7, #4]
 261 0048 3B68     		ldr	r3, [r7]
 262 004a 9A42     		cmp	r2, r3
 263 004c EED1     		bne	.L17
 371:.\Generated_Source\PSoC5/Cm3Start.c ****         }
 372:.\Generated_Source\PSoC5/Cm3Start.c ****         limit = rptr->zero_size;
 264              		.loc 1 372 0 is_stmt 1
 265 004e 3B69     		ldr	r3, [r7, #16]
 266 0050 DB68     		ldr	r3, [r3, #12]
 267 0052 3B60     		str	r3, [r7]
 373:.\Generated_Source\PSoC5/Cm3Start.c ****         for (count = 0u; count != limit; count += sizeof (uint32))
 268              		.loc 1 373 0
 269 0054 0023     		movs	r3, #0
 270 0056 7B60     		str	r3, [r7, #4]
 271 0058 08E0     		b	.L18
 272              	.L19:
 374:.\Generated_Source\PSoC5/Cm3Start.c ****         {
 375:.\Generated_Source\PSoC5/Cm3Start.c ****             *dst = 0u;
 273              		.loc 1 375 0 discriminator 3
 274 005a BB68     		ldr	r3, [r7, #8]
 275 005c 0022     		movs	r2, #0
 276 005e 1A60     		str	r2, [r3]
 376:.\Generated_Source\PSoC5/Cm3Start.c ****             dst++;
 277              		.loc 1 376 0 discriminator 3
 278 0060 BB68     		ldr	r3, [r7, #8]
 279 0062 0433     		adds	r3, r3, #4
 280 0064 BB60     		str	r3, [r7, #8]
 373:.\Generated_Source\PSoC5/Cm3Start.c ****         for (count = 0u; count != limit; count += sizeof (uint32))
 281              		.loc 1 373 0 discriminator 3
 282 0066 7B68     		ldr	r3, [r7, #4]
 283 0068 0433     		adds	r3, r3, #4
 284 006a 7B60     		str	r3, [r7, #4]
 285              	.L18:
 373:.\Generated_Source\PSoC5/Cm3Start.c ****         for (count = 0u; count != limit; count += sizeof (uint32))
 286              		.loc 1 373 0 is_stmt 0 discriminator 1
 287 006c 7A68     		ldr	r2, [r7, #4]
 288 006e 3B68     		ldr	r3, [r7]
 289 0070 9A42     		cmp	r2, r3
 290 0072 F2D1     		bne	.L19
 377:.\Generated_Source\PSoC5/Cm3Start.c ****         }
 378:.\Generated_Source\PSoC5/Cm3Start.c **** 
 379:.\Generated_Source\PSoC5/Cm3Start.c ****         rptr++;
 291              		.loc 1 379 0 is_stmt 1 discriminator 2
 292 0074 3B69     		ldr	r3, [r7, #16]
 293 0076 1033     		adds	r3, r3, #16
ARM GAS  C:\Users\LUKASC~1\AppData\Local\Temp\ccjlIrR3.s 			page 13


 294 0078 3B61     		str	r3, [r7, #16]
 295              	.LBE2:
 359:.\Generated_Source\PSoC5/Cm3Start.c ****     {
 296              		.loc 1 359 0 discriminator 2
 297 007a 7B69     		ldr	r3, [r7, #20]
 298 007c 013B     		subs	r3, r3, #1
 299 007e 7B61     		str	r3, [r7, #20]
 300              	.L15:
 359:.\Generated_Source\PSoC5/Cm3Start.c ****     {
 301              		.loc 1 359 0 is_stmt 0 discriminator 1
 302 0080 7B69     		ldr	r3, [r7, #20]
 303 0082 002B     		cmp	r3, #0
 304 0084 C6D1     		bne	.L20
 380:.\Generated_Source\PSoC5/Cm3Start.c ****     }
 381:.\Generated_Source\PSoC5/Cm3Start.c **** 
 382:.\Generated_Source\PSoC5/Cm3Start.c ****     /* Invoke static objects constructors */
 383:.\Generated_Source\PSoC5/Cm3Start.c ****     __libc_init_array();
 305              		.loc 1 383 0 is_stmt 1
 306 0086 FFF7FEFF 		bl	__libc_init_array
 384:.\Generated_Source\PSoC5/Cm3Start.c ****     (void) main();
 307              		.loc 1 384 0
 308 008a FFF7FEFF 		bl	main
 309              	.L21:
 385:.\Generated_Source\PSoC5/Cm3Start.c **** 
 386:.\Generated_Source\PSoC5/Cm3Start.c ****     while (1)
 387:.\Generated_Source\PSoC5/Cm3Start.c ****     {
 388:.\Generated_Source\PSoC5/Cm3Start.c ****         /* If main returns, make sure we don't return. */
 389:.\Generated_Source\PSoC5/Cm3Start.c ****     }
 310              		.loc 1 389 0 discriminator 1
 311 008e FEE7     		b	.L21
 312              	.L23:
 313              		.align	2
 314              	.L22:
 315 0090 00000000 		.word	__cy_region_num
 316 0094 00000000 		.word	__cy_regions
 317              		.cfi_endproc
 318              	.LFE4:
 319              		.size	Start_c, .-Start_c
 320              		.global	RomVectors
 321              		.section	.romvectors,"a",%progbits
 322              		.align	2
 323              		.type	RomVectors, %object
 324              		.size	RomVectors, 16
 325              	RomVectors:
 326 0000 00000000 		.word	__cy_stack
 327 0004 00000000 		.word	Reset
 328 0008 00000000 		.word	IntDefaultHandler
 329 000c 00000000 		.word	IntDefaultHandler
 330              		.section	.text.initialize_psoc,"ax",%progbits
 331              		.align	2
 332              		.global	initialize_psoc
 333              		.thumb
 334              		.thumb_func
 335              		.type	initialize_psoc, %function
 336              	initialize_psoc:
 337              	.LFB5:
 390:.\Generated_Source\PSoC5/Cm3Start.c **** }
ARM GAS  C:\Users\LUKASC~1\AppData\Local\Temp\ccjlIrR3.s 			page 14


 391:.\Generated_Source\PSoC5/Cm3Start.c **** 
 392:.\Generated_Source\PSoC5/Cm3Start.c **** 
 393:.\Generated_Source\PSoC5/Cm3Start.c **** #elif defined (__ICCARM__)
 394:.\Generated_Source\PSoC5/Cm3Start.c **** 
 395:.\Generated_Source\PSoC5/Cm3Start.c **** /*******************************************************************************
 396:.\Generated_Source\PSoC5/Cm3Start.c **** * Function Name: __low_level_init
 397:.\Generated_Source\PSoC5/Cm3Start.c **** ********************************************************************************
 398:.\Generated_Source\PSoC5/Cm3Start.c **** *
 399:.\Generated_Source\PSoC5/Cm3Start.c **** * Summary:
 400:.\Generated_Source\PSoC5/Cm3Start.c **** *  This function performs early initializations for the IAR Embedded
 401:.\Generated_Source\PSoC5/Cm3Start.c **** *  Workbench IDE. It is executed in the context of a reset interrupt handler
 402:.\Generated_Source\PSoC5/Cm3Start.c **** *  before the data sections are initialized.
 403:.\Generated_Source\PSoC5/Cm3Start.c **** *
 404:.\Generated_Source\PSoC5/Cm3Start.c **** * Parameters:
 405:.\Generated_Source\PSoC5/Cm3Start.c **** *  None
 406:.\Generated_Source\PSoC5/Cm3Start.c **** *
 407:.\Generated_Source\PSoC5/Cm3Start.c **** * Return:
 408:.\Generated_Source\PSoC5/Cm3Start.c **** *  The value that determines whether or not data sections should be initialized
 409:.\Generated_Source\PSoC5/Cm3Start.c **** *  by the system startup code:
 410:.\Generated_Source\PSoC5/Cm3Start.c **** *    0 - skip data sections initialization;
 411:.\Generated_Source\PSoC5/Cm3Start.c **** *    1 - initialize data sections;
 412:.\Generated_Source\PSoC5/Cm3Start.c **** *
 413:.\Generated_Source\PSoC5/Cm3Start.c **** *******************************************************************************/
 414:.\Generated_Source\PSoC5/Cm3Start.c **** int __low_level_init(void)
 415:.\Generated_Source\PSoC5/Cm3Start.c **** {
 416:.\Generated_Source\PSoC5/Cm3Start.c ****     #if (CYDEV_PROJ_TYPE != CYDEV_PROJ_TYPE_LOADABLE && CYDEV_PROJ_TYPE != CYDEV_PROJ_TYPE_LOADABLE
 417:.\Generated_Source\PSoC5/Cm3Start.c **** 
 418:.\Generated_Source\PSoC5/Cm3Start.c ****         /* For PSoC 5LP, debugging is enabled by default */
 419:.\Generated_Source\PSoC5/Cm3Start.c ****         #if(CYDEV_DEBUGGING_ENABLE == 0)
 420:.\Generated_Source\PSoC5/Cm3Start.c ****             *(reg32 *)(CYDEV_DEBUG_ENABLE_REGISTER) |= CYDEV_DEBUG_ENABLE_MASK;
 421:.\Generated_Source\PSoC5/Cm3Start.c ****         #endif /* (CYDEV_DEBUGGING_ENABLE) */
 422:.\Generated_Source\PSoC5/Cm3Start.c **** 
 423:.\Generated_Source\PSoC5/Cm3Start.c ****         /* Reset Status Register has Read-to-clear SW access mode.
 424:.\Generated_Source\PSoC5/Cm3Start.c ****         * Preserve current RESET_SR0 state to make it available for next reading.
 425:.\Generated_Source\PSoC5/Cm3Start.c ****         */
 426:.\Generated_Source\PSoC5/Cm3Start.c ****         *(reg32 *)(CYREG_PHUB_CFGMEM23_CFG1) = *(reg32 *)(CYREG_RESET_SR0);
 427:.\Generated_Source\PSoC5/Cm3Start.c **** 
 428:.\Generated_Source\PSoC5/Cm3Start.c ****     #endif  /* (CYDEV_PROJ_TYPE != CYDEV_PROJ_TYPE_LOADABLE && CYDEV_PROJ_TYPE != CYDEV_PROJ_TYPE_L
 429:.\Generated_Source\PSoC5/Cm3Start.c **** 
 430:.\Generated_Source\PSoC5/Cm3Start.c ****     #if ((CYDEV_BOOTLOADER_ENABLE) && (CYDEV_PROJ_TYPE != CYDEV_PROJ_TYPE_LOADABLEANDBOOTLOADER))
 431:.\Generated_Source\PSoC5/Cm3Start.c ****         CyBtldr_CheckLaunch();
 432:.\Generated_Source\PSoC5/Cm3Start.c ****     #endif /* ((CYDEV_BOOTLOADER_ENABLE) && (CYDEV_PROJ_TYPE != CYDEV_PROJ_TYPE_LOADABLEANDBOOTLOAD
 433:.\Generated_Source\PSoC5/Cm3Start.c **** 
 434:.\Generated_Source\PSoC5/Cm3Start.c ****     /* Initialize data sections */
 435:.\Generated_Source\PSoC5/Cm3Start.c ****     __iar_data_init3();
 436:.\Generated_Source\PSoC5/Cm3Start.c **** 
 437:.\Generated_Source\PSoC5/Cm3Start.c ****     initialize_psoc();
 438:.\Generated_Source\PSoC5/Cm3Start.c **** 
 439:.\Generated_Source\PSoC5/Cm3Start.c ****     return 0;
 440:.\Generated_Source\PSoC5/Cm3Start.c **** }
 441:.\Generated_Source\PSoC5/Cm3Start.c **** 
 442:.\Generated_Source\PSoC5/Cm3Start.c **** #endif /* __GNUC__ */
 443:.\Generated_Source\PSoC5/Cm3Start.c **** 
 444:.\Generated_Source\PSoC5/Cm3Start.c **** 
 445:.\Generated_Source\PSoC5/Cm3Start.c **** /*******************************************************************************
 446:.\Generated_Source\PSoC5/Cm3Start.c **** *
 447:.\Generated_Source\PSoC5/Cm3Start.c **** * Default Rom Interrupt Vector table.
ARM GAS  C:\Users\LUKASC~1\AppData\Local\Temp\ccjlIrR3.s 			page 15


 448:.\Generated_Source\PSoC5/Cm3Start.c **** *
 449:.\Generated_Source\PSoC5/Cm3Start.c **** *******************************************************************************/
 450:.\Generated_Source\PSoC5/Cm3Start.c **** #if defined(__ARMCC_VERSION)
 451:.\Generated_Source\PSoC5/Cm3Start.c ****     /* Suppress diagnostic message 1296-D: extended constant initialiser used */
 452:.\Generated_Source\PSoC5/Cm3Start.c ****     #pragma diag_suppress 1296
 453:.\Generated_Source\PSoC5/Cm3Start.c **** #endif  /* defined(__ARMCC_VERSION) */
 454:.\Generated_Source\PSoC5/Cm3Start.c **** 
 455:.\Generated_Source\PSoC5/Cm3Start.c **** #if defined (__ICCARM__)
 456:.\Generated_Source\PSoC5/Cm3Start.c ****     #pragma location=".romvectors"
 457:.\Generated_Source\PSoC5/Cm3Start.c ****     const intvec_elem __vector_table[CY_NUM_ROM_VECTORS] =
 458:.\Generated_Source\PSoC5/Cm3Start.c **** #else
 459:.\Generated_Source\PSoC5/Cm3Start.c ****     CY_SECTION(".romvectors")
 460:.\Generated_Source\PSoC5/Cm3Start.c ****     const cyisraddress RomVectors[CY_NUM_ROM_VECTORS] =
 461:.\Generated_Source\PSoC5/Cm3Start.c **** #endif  /* defined (__ICCARM__) */
 462:.\Generated_Source\PSoC5/Cm3Start.c **** {
 463:.\Generated_Source\PSoC5/Cm3Start.c ****     INITIAL_STACK_POINTER,   /* Initial stack pointer  0 */
 464:.\Generated_Source\PSoC5/Cm3Start.c ****     #if defined (__ICCARM__) /* Reset handler          1 */
 465:.\Generated_Source\PSoC5/Cm3Start.c ****         __iar_program_start,
 466:.\Generated_Source\PSoC5/Cm3Start.c ****     #else
 467:.\Generated_Source\PSoC5/Cm3Start.c ****         (cyisraddress)&Reset,
 468:.\Generated_Source\PSoC5/Cm3Start.c ****     #endif  /* defined (__ICCARM__) */
 469:.\Generated_Source\PSoC5/Cm3Start.c ****     &IntDefaultHandler,      /* NMI handler            2 */
 470:.\Generated_Source\PSoC5/Cm3Start.c ****     &IntDefaultHandler,      /* Hard fault handler     3 */
 471:.\Generated_Source\PSoC5/Cm3Start.c **** };
 472:.\Generated_Source\PSoC5/Cm3Start.c **** 
 473:.\Generated_Source\PSoC5/Cm3Start.c **** #if defined(__ARMCC_VERSION)
 474:.\Generated_Source\PSoC5/Cm3Start.c ****     #pragma diag_default 1296
 475:.\Generated_Source\PSoC5/Cm3Start.c **** #endif  /* defined(__ARMCC_VERSION) */
 476:.\Generated_Source\PSoC5/Cm3Start.c **** 
 477:.\Generated_Source\PSoC5/Cm3Start.c **** 
 478:.\Generated_Source\PSoC5/Cm3Start.c **** /*******************************************************************************
 479:.\Generated_Source\PSoC5/Cm3Start.c **** * Function Name: initialize_psoc
 480:.\Generated_Source\PSoC5/Cm3Start.c **** ********************************************************************************
 481:.\Generated_Source\PSoC5/Cm3Start.c **** *
 482:.\Generated_Source\PSoC5/Cm3Start.c **** * Summary:
 483:.\Generated_Source\PSoC5/Cm3Start.c **** *  This function used to initialize the PSoC chip before calling main.
 484:.\Generated_Source\PSoC5/Cm3Start.c **** *
 485:.\Generated_Source\PSoC5/Cm3Start.c **** * Parameters:
 486:.\Generated_Source\PSoC5/Cm3Start.c **** *  None
 487:.\Generated_Source\PSoC5/Cm3Start.c **** *
 488:.\Generated_Source\PSoC5/Cm3Start.c **** * Return:
 489:.\Generated_Source\PSoC5/Cm3Start.c **** *  None
 490:.\Generated_Source\PSoC5/Cm3Start.c **** *
 491:.\Generated_Source\PSoC5/Cm3Start.c **** *******************************************************************************/
 492:.\Generated_Source\PSoC5/Cm3Start.c **** #if (defined(__GNUC__) && !defined(__ARMCC_VERSION))
 493:.\Generated_Source\PSoC5/Cm3Start.c **** __attribute__ ((constructor(101)))
 494:.\Generated_Source\PSoC5/Cm3Start.c **** #endif
 495:.\Generated_Source\PSoC5/Cm3Start.c **** void initialize_psoc(void)
 496:.\Generated_Source\PSoC5/Cm3Start.c **** {
 338              		.loc 1 496 0
 339              		.cfi_startproc
 340              		@ args = 0, pretend = 0, frame = 8
 341              		@ frame_needed = 1, uses_anonymous_args = 0
 342 0000 80B5     		push	{r7, lr}
 343              		.cfi_def_cfa_offset 8
 344              		.cfi_offset 7, -8
 345              		.cfi_offset 14, -4
ARM GAS  C:\Users\LUKASC~1\AppData\Local\Temp\ccjlIrR3.s 			page 16


 346 0002 82B0     		sub	sp, sp, #8
 347              		.cfi_def_cfa_offset 16
 348 0004 00AF     		add	r7, sp, #0
 349              		.cfi_def_cfa_register 7
 497:.\Generated_Source\PSoC5/Cm3Start.c ****     uint32 i;
 498:.\Generated_Source\PSoC5/Cm3Start.c **** 
 499:.\Generated_Source\PSoC5/Cm3Start.c ****     /* Set Priority group 5. */
 500:.\Generated_Source\PSoC5/Cm3Start.c **** 
 501:.\Generated_Source\PSoC5/Cm3Start.c ****     /* Writes to NVIC_APINT register require the VECTKEY in the upper half */
 502:.\Generated_Source\PSoC5/Cm3Start.c ****     *CY_NVIC_APINT_PTR = CY_NVIC_APINT_VECTKEY | CY_NVIC_APINT_PRIGROUP_3_5;
 350              		.loc 1 502 0
 351 0006 184B     		ldr	r3, .L29
 352 0008 184A     		ldr	r2, .L29+4
 353 000a 1A60     		str	r2, [r3]
 503:.\Generated_Source\PSoC5/Cm3Start.c ****     *CY_NVIC_CFG_CTRL_PTR |= CY_NVIC_CFG_STACKALIGN;
 354              		.loc 1 503 0
 355 000c 184A     		ldr	r2, .L29+8
 356 000e 184B     		ldr	r3, .L29+8
 357 0010 1B68     		ldr	r3, [r3]
 358 0012 43F40073 		orr	r3, r3, #512
 359 0016 1360     		str	r3, [r2]
 504:.\Generated_Source\PSoC5/Cm3Start.c **** 
 505:.\Generated_Source\PSoC5/Cm3Start.c ****     /* Set Ram interrupt vectors to default functions. */
 506:.\Generated_Source\PSoC5/Cm3Start.c ****     for (i = 0u; i < CY_NUM_VECTORS; i++)
 360              		.loc 1 506 0
 361 0018 0023     		movs	r3, #0
 362 001a 7B60     		str	r3, [r7, #4]
 363 001c 0FE0     		b	.L25
 364              	.L28:
 507:.\Generated_Source\PSoC5/Cm3Start.c ****     {
 508:.\Generated_Source\PSoC5/Cm3Start.c ****         #if defined (__ICCARM__)
 509:.\Generated_Source\PSoC5/Cm3Start.c ****             CyRamVectors[i] = (i < CY_NUM_ROM_VECTORS) ? __vector_table[i].__fun : &IntDefaultHandl
 510:.\Generated_Source\PSoC5/Cm3Start.c ****         #else
 511:.\Generated_Source\PSoC5/Cm3Start.c ****             CyRamVectors[i] = (i < CY_NUM_ROM_VECTORS) ? RomVectors[i] : &IntDefaultHandler;
 365              		.loc 1 511 0
 366 001e 7B68     		ldr	r3, [r7, #4]
 367 0020 032B     		cmp	r3, #3
 368 0022 04D8     		bhi	.L26
 369              		.loc 1 511 0 is_stmt 0 discriminator 1
 370 0024 134A     		ldr	r2, .L29+12
 371 0026 7B68     		ldr	r3, [r7, #4]
 372 0028 52F82330 		ldr	r3, [r2, r3, lsl #2]
 373 002c 00E0     		b	.L27
 374              	.L26:
 375              		.loc 1 511 0 discriminator 2
 376 002e 124B     		ldr	r3, .L29+16
 377              	.L27:
 378              		.loc 1 511 0 discriminator 4
 379 0030 1249     		ldr	r1, .L29+20
 380 0032 7A68     		ldr	r2, [r7, #4]
 381 0034 41F82230 		str	r3, [r1, r2, lsl #2]
 506:.\Generated_Source\PSoC5/Cm3Start.c ****     {
 382              		.loc 1 506 0 is_stmt 1 discriminator 4
 383 0038 7B68     		ldr	r3, [r7, #4]
 384 003a 0133     		adds	r3, r3, #1
 385 003c 7B60     		str	r3, [r7, #4]
 386              	.L25:
ARM GAS  C:\Users\LUKASC~1\AppData\Local\Temp\ccjlIrR3.s 			page 17


 506:.\Generated_Source\PSoC5/Cm3Start.c ****     {
 387              		.loc 1 506 0 is_stmt 0 discriminator 2
 388 003e 7B68     		ldr	r3, [r7, #4]
 389 0040 2F2B     		cmp	r3, #47
 390 0042 ECD9     		bls	.L28
 512:.\Generated_Source\PSoC5/Cm3Start.c ****         #endif  /* defined (__ICCARM__) */
 513:.\Generated_Source\PSoC5/Cm3Start.c ****     }
 514:.\Generated_Source\PSoC5/Cm3Start.c **** 
 515:.\Generated_Source\PSoC5/Cm3Start.c ****     /* Was stored in CFGMEM to avoid being cleared while SRAM gets cleared */
 516:.\Generated_Source\PSoC5/Cm3Start.c ****     CyResetStatus = CY_GET_REG8(CYREG_PHUB_CFGMEM23_CFG1);
 391              		.loc 1 516 0 is_stmt 1
 392 0044 0E4B     		ldr	r3, .L29+24
 393 0046 1B78     		ldrb	r3, [r3]
 394 0048 DAB2     		uxtb	r2, r3
 395 004a 0E4B     		ldr	r3, .L29+28
 396 004c 1A70     		strb	r2, [r3]
 517:.\Generated_Source\PSoC5/Cm3Start.c **** 
 518:.\Generated_Source\PSoC5/Cm3Start.c ****     /* Point NVIC at RAM vector table. */
 519:.\Generated_Source\PSoC5/Cm3Start.c ****     *CYINT_VECT_TABLE = CyRamVectors;
 397              		.loc 1 519 0
 398 004e 0E4B     		ldr	r3, .L29+32
 399 0050 0A4A     		ldr	r2, .L29+20
 400 0052 1A60     		str	r2, [r3]
 520:.\Generated_Source\PSoC5/Cm3Start.c **** 
 521:.\Generated_Source\PSoC5/Cm3Start.c ****     /* Initialize the configuration registers. */
 522:.\Generated_Source\PSoC5/Cm3Start.c ****     cyfitter_cfg();
 401              		.loc 1 522 0
 402 0054 FFF7FEFF 		bl	cyfitter_cfg
 523:.\Generated_Source\PSoC5/Cm3Start.c **** 
 524:.\Generated_Source\PSoC5/Cm3Start.c ****     #if(0u != DMA_CHANNELS_USED__MASK0)
 525:.\Generated_Source\PSoC5/Cm3Start.c **** 
 526:.\Generated_Source\PSoC5/Cm3Start.c ****         /* Setup DMA - only necessary if design contains DMA component. */
 527:.\Generated_Source\PSoC5/Cm3Start.c ****         CyDmacConfigure();
 403              		.loc 1 527 0
 404 0058 FFF7FEFF 		bl	CyDmacConfigure
 528:.\Generated_Source\PSoC5/Cm3Start.c **** 
 529:.\Generated_Source\PSoC5/Cm3Start.c ****     #endif  /* (0u != DMA_CHANNELS_USED__MASK0) */
 530:.\Generated_Source\PSoC5/Cm3Start.c **** 
 531:.\Generated_Source\PSoC5/Cm3Start.c ****     #if !defined (__ICCARM__)
 532:.\Generated_Source\PSoC5/Cm3Start.c ****         /* Actually, no need to clean this variable, just to make compiler happy. */
 533:.\Generated_Source\PSoC5/Cm3Start.c ****         cySysNoInitDataValid = 0u;
 405              		.loc 1 533 0
 406 005c 0B4B     		ldr	r3, .L29+36
 407 005e 0022     		movs	r2, #0
 408 0060 1A60     		str	r2, [r3]
 534:.\Generated_Source\PSoC5/Cm3Start.c ****     #endif  /* !defined (__ICCARM__) */
 535:.\Generated_Source\PSoC5/Cm3Start.c **** }
 409              		.loc 1 535 0
 410 0062 0837     		adds	r7, r7, #8
 411              		.cfi_def_cfa_offset 8
 412 0064 BD46     		mov	sp, r7
 413              		.cfi_def_cfa_register 13
 414              		@ sp needed
 415 0066 80BD     		pop	{r7, pc}
 416              	.L30:
 417              		.align	2
 418              	.L29:
ARM GAS  C:\Users\LUKASC~1\AppData\Local\Temp\ccjlIrR3.s 			page 18


 419 0068 0CED00E0 		.word	-536810228
 420 006c 0004FA05 		.word	100271104
 421 0070 14ED00E0 		.word	-536810220
 422 0074 00000000 		.word	RomVectors
 423 0078 00000000 		.word	IntDefaultHandler
 424 007c 00000000 		.word	CyRamVectors
 425 0080 BC760040 		.word	1073772220
 426 0084 00000000 		.word	CyResetStatus
 427 0088 08ED00E0 		.word	-536810232
 428 008c 00000000 		.word	cySysNoInitDataValid
 429              		.cfi_endproc
 430              	.LFE5:
 431              		.size	initialize_psoc, .-initialize_psoc
 432              		.section	.init_array,"aw",%init_array
 433              		.align	2
 434 0000 00000000 		.word	initialize_psoc(target1)
 435              		.data
 436              		.align	2
 437              		.type	heapPointer.4944, %object
 438              		.size	heapPointer.4944, 4
 439              	heapPointer.4944:
 440 0000 00000000 		.word	end
 441              		.weak	__cy_region_num
 442              		.text
 443              	.Letext0:
 444              		.file 2 ".\\Generated_Source\\PSoC5\\cytypes.h"
 445              		.file 3 "c:\\program files (x86)\\cypress\\psoc creator\\3.3\\psoc creator\\import\\gnu\\arm\\4.9.
 446              		.file 4 ".\\Generated_Source\\PSoC5\\CyLib.h"