ARM GAS  C:\Users\LUKASC~1\AppData\Local\Temp\cc429IQI.s 			page 1


   1              		.syntax unified
   2              		.cpu cortex-m3
   3              		.fpu softvfp
   4              		.eabi_attribute 20, 1
   5              		.eabi_attribute 21, 1
   6              		.eabi_attribute 23, 3
   7              		.eabi_attribute 24, 1
   8              		.eabi_attribute 25, 1
   9              		.eabi_attribute 26, 1
  10              		.eabi_attribute 30, 6
  11              		.eabi_attribute 34, 1
  12              		.eabi_attribute 18, 4
  13              		.thumb
  14              		.file	"cyfitter_cfg.c"
  15              		.text
  16              	.Ltext0:
  17              		.cfi_sections	.debug_frame
  18              		.section	.text.CYMEMZERO,"ax",%progbits
  19              		.align	2
  20              		.thumb
  21              		.thumb_func
  22              		.type	CYMEMZERO, %function
  23              	CYMEMZERO:
  24              	.LFB0:
  25              		.file 1 ".\\Generated_Source\\PSoC5\\cyfitter_cfg.c"
   1:.\Generated_Source\PSoC5/cyfitter_cfg.c **** /*******************************************************************************
   2:.\Generated_Source\PSoC5/cyfitter_cfg.c **** * File Name: cyfitter_cfg.c
   3:.\Generated_Source\PSoC5/cyfitter_cfg.c **** * 
   4:.\Generated_Source\PSoC5/cyfitter_cfg.c **** * PSoC Creator  3.3 SP1
   5:.\Generated_Source\PSoC5/cyfitter_cfg.c **** *
   6:.\Generated_Source\PSoC5/cyfitter_cfg.c **** * Description:
   7:.\Generated_Source\PSoC5/cyfitter_cfg.c **** * This file contains device initialization code.
   8:.\Generated_Source\PSoC5/cyfitter_cfg.c **** * Except for the user defined sections in CyClockStartupError(), this file should not be modified.
   9:.\Generated_Source\PSoC5/cyfitter_cfg.c **** * This file is automatically generated by PSoC Creator.
  10:.\Generated_Source\PSoC5/cyfitter_cfg.c **** *
  11:.\Generated_Source\PSoC5/cyfitter_cfg.c **** ********************************************************************************
  12:.\Generated_Source\PSoC5/cyfitter_cfg.c **** * Copyright (c) 2007-2015 Cypress Semiconductor.  All rights reserved.
  13:.\Generated_Source\PSoC5/cyfitter_cfg.c **** * You may use this file only in accordance with the license, terms, conditions, 
  14:.\Generated_Source\PSoC5/cyfitter_cfg.c **** * disclaimers, and limitations in the end user license agreement accompanying 
  15:.\Generated_Source\PSoC5/cyfitter_cfg.c **** * the software package with which this file was provided.
  16:.\Generated_Source\PSoC5/cyfitter_cfg.c **** ********************************************************************************/
  17:.\Generated_Source\PSoC5/cyfitter_cfg.c **** 
  18:.\Generated_Source\PSoC5/cyfitter_cfg.c **** #include <string.h>
  19:.\Generated_Source\PSoC5/cyfitter_cfg.c **** #include "cytypes.h"
  20:.\Generated_Source\PSoC5/cyfitter_cfg.c **** #include "cydevice_trm.h"
  21:.\Generated_Source\PSoC5/cyfitter_cfg.c **** #include "cyfitter.h"
  22:.\Generated_Source\PSoC5/cyfitter_cfg.c **** #include "CyLib.h"
  23:.\Generated_Source\PSoC5/cyfitter_cfg.c **** #include "cyfitter_cfg.h"
  24:.\Generated_Source\PSoC5/cyfitter_cfg.c **** 
  25:.\Generated_Source\PSoC5/cyfitter_cfg.c **** #define CY_NEED_CYCLOCKSTARTUPERROR 1
  26:.\Generated_Source\PSoC5/cyfitter_cfg.c **** 
  27:.\Generated_Source\PSoC5/cyfitter_cfg.c **** 
  28:.\Generated_Source\PSoC5/cyfitter_cfg.c **** #if defined(__GNUC__) || defined(__ARMCC_VERSION)
  29:.\Generated_Source\PSoC5/cyfitter_cfg.c ****     #define CYPACKED 
  30:.\Generated_Source\PSoC5/cyfitter_cfg.c ****     #define CYPACKED_ATTR __attribute__ ((packed))
  31:.\Generated_Source\PSoC5/cyfitter_cfg.c ****     #define CYALIGNED __attribute__ ((aligned))
  32:.\Generated_Source\PSoC5/cyfitter_cfg.c ****     #define CY_CFG_UNUSED __attribute__ ((unused))
ARM GAS  C:\Users\LUKASC~1\AppData\Local\Temp\cc429IQI.s 			page 2


  33:.\Generated_Source\PSoC5/cyfitter_cfg.c ****     #ifndef CY_CFG_SECTION
  34:.\Generated_Source\PSoC5/cyfitter_cfg.c ****         #define CY_CFG_SECTION __attribute__ ((section(".psocinit")))
  35:.\Generated_Source\PSoC5/cyfitter_cfg.c ****     #endif
  36:.\Generated_Source\PSoC5/cyfitter_cfg.c ****     
  37:.\Generated_Source\PSoC5/cyfitter_cfg.c ****     #if defined(__ARMCC_VERSION)
  38:.\Generated_Source\PSoC5/cyfitter_cfg.c ****         #define CY_CFG_MEMORY_BARRIER() __memory_changed()
  39:.\Generated_Source\PSoC5/cyfitter_cfg.c ****     #else
  40:.\Generated_Source\PSoC5/cyfitter_cfg.c ****         #define CY_CFG_MEMORY_BARRIER() __sync_synchronize()
  41:.\Generated_Source\PSoC5/cyfitter_cfg.c ****     #endif
  42:.\Generated_Source\PSoC5/cyfitter_cfg.c ****     
  43:.\Generated_Source\PSoC5/cyfitter_cfg.c **** #elif defined(__ICCARM__)
  44:.\Generated_Source\PSoC5/cyfitter_cfg.c ****     #include <intrinsics.h>
  45:.\Generated_Source\PSoC5/cyfitter_cfg.c **** 
  46:.\Generated_Source\PSoC5/cyfitter_cfg.c ****     #define CYPACKED __packed
  47:.\Generated_Source\PSoC5/cyfitter_cfg.c ****     #define CYPACKED_ATTR 
  48:.\Generated_Source\PSoC5/cyfitter_cfg.c ****     #define CYALIGNED _Pragma("data_alignment=4")
  49:.\Generated_Source\PSoC5/cyfitter_cfg.c ****     #define CY_CFG_UNUSED _Pragma("diag_suppress=Pe177")
  50:.\Generated_Source\PSoC5/cyfitter_cfg.c ****     #define CY_CFG_SECTION _Pragma("location=\".psocinit\"")
  51:.\Generated_Source\PSoC5/cyfitter_cfg.c ****     
  52:.\Generated_Source\PSoC5/cyfitter_cfg.c ****     #define CY_CFG_MEMORY_BARRIER() __DMB()
  53:.\Generated_Source\PSoC5/cyfitter_cfg.c ****     
  54:.\Generated_Source\PSoC5/cyfitter_cfg.c **** #else
  55:.\Generated_Source\PSoC5/cyfitter_cfg.c ****     #error Unsupported toolchain
  56:.\Generated_Source\PSoC5/cyfitter_cfg.c **** #endif
  57:.\Generated_Source\PSoC5/cyfitter_cfg.c **** 
  58:.\Generated_Source\PSoC5/cyfitter_cfg.c **** 
  59:.\Generated_Source\PSoC5/cyfitter_cfg.c **** CY_CFG_UNUSED
  60:.\Generated_Source\PSoC5/cyfitter_cfg.c **** static void CYMEMZERO(void *s, size_t n);
  61:.\Generated_Source\PSoC5/cyfitter_cfg.c **** CY_CFG_UNUSED
  62:.\Generated_Source\PSoC5/cyfitter_cfg.c **** static void CYMEMZERO(void *s, size_t n)
  63:.\Generated_Source\PSoC5/cyfitter_cfg.c **** {
  26              		.loc 1 63 0
  27              		.cfi_startproc
  28              		@ args = 0, pretend = 0, frame = 8
  29              		@ frame_needed = 1, uses_anonymous_args = 0
  30 0000 80B5     		push	{r7, lr}
  31              		.cfi_def_cfa_offset 8
  32              		.cfi_offset 7, -8
  33              		.cfi_offset 14, -4
  34 0002 82B0     		sub	sp, sp, #8
  35              		.cfi_def_cfa_offset 16
  36 0004 00AF     		add	r7, sp, #0
  37              		.cfi_def_cfa_register 7
  38 0006 7860     		str	r0, [r7, #4]
  39 0008 3960     		str	r1, [r7]
  64:.\Generated_Source\PSoC5/cyfitter_cfg.c **** 	(void)memset(s, 0, n);
  40              		.loc 1 64 0
  41 000a 7868     		ldr	r0, [r7, #4]
  42 000c 0021     		movs	r1, #0
  43 000e 3A68     		ldr	r2, [r7]
  44 0010 FFF7FEFF 		bl	memset
  65:.\Generated_Source\PSoC5/cyfitter_cfg.c **** }
  45              		.loc 1 65 0
  46 0014 0837     		adds	r7, r7, #8
  47              		.cfi_def_cfa_offset 8
  48 0016 BD46     		mov	sp, r7
  49              		.cfi_def_cfa_register 13
ARM GAS  C:\Users\LUKASC~1\AppData\Local\Temp\cc429IQI.s 			page 3


  50              		@ sp needed
  51 0018 80BD     		pop	{r7, pc}
  52              		.cfi_endproc
  53              	.LFE0:
  54              		.size	CYMEMZERO, .-CYMEMZERO
  55 001a 00BF     		.section	.text.CYCONFIGCPY,"ax",%progbits
  56              		.align	2
  57              		.thumb
  58              		.thumb_func
  59              		.type	CYCONFIGCPY, %function
  60              	CYCONFIGCPY:
  61              	.LFB1:
  66:.\Generated_Source\PSoC5/cyfitter_cfg.c **** CY_CFG_UNUSED
  67:.\Generated_Source\PSoC5/cyfitter_cfg.c **** static void CYCONFIGCPY(void *dest, const void *src, size_t n);
  68:.\Generated_Source\PSoC5/cyfitter_cfg.c **** CY_CFG_UNUSED
  69:.\Generated_Source\PSoC5/cyfitter_cfg.c **** static void CYCONFIGCPY(void *dest, const void *src, size_t n)
  70:.\Generated_Source\PSoC5/cyfitter_cfg.c **** {
  62              		.loc 1 70 0
  63              		.cfi_startproc
  64              		@ args = 0, pretend = 0, frame = 16
  65              		@ frame_needed = 1, uses_anonymous_args = 0
  66 0000 80B5     		push	{r7, lr}
  67              		.cfi_def_cfa_offset 8
  68              		.cfi_offset 7, -8
  69              		.cfi_offset 14, -4
  70 0002 84B0     		sub	sp, sp, #16
  71              		.cfi_def_cfa_offset 24
  72 0004 00AF     		add	r7, sp, #0
  73              		.cfi_def_cfa_register 7
  74 0006 F860     		str	r0, [r7, #12]
  75 0008 B960     		str	r1, [r7, #8]
  76 000a 7A60     		str	r2, [r7, #4]
  71:.\Generated_Source\PSoC5/cyfitter_cfg.c **** 	(void)memcpy(dest, src, n);
  77              		.loc 1 71 0
  78 000c F868     		ldr	r0, [r7, #12]
  79 000e B968     		ldr	r1, [r7, #8]
  80 0010 7A68     		ldr	r2, [r7, #4]
  81 0012 FFF7FEFF 		bl	memcpy
  72:.\Generated_Source\PSoC5/cyfitter_cfg.c **** }
  82              		.loc 1 72 0
  83 0016 1037     		adds	r7, r7, #16
  84              		.cfi_def_cfa_offset 8
  85 0018 BD46     		mov	sp, r7
  86              		.cfi_def_cfa_register 13
  87              		@ sp needed
  88 001a 80BD     		pop	{r7, pc}
  89              		.cfi_endproc
  90              	.LFE1:
  91              		.size	CYCONFIGCPY, .-CYCONFIGCPY
  92              		.section	.text.CYCONFIGCPYCODE,"ax",%progbits
  93              		.align	2
  94              		.thumb
  95              		.thumb_func
  96              		.type	CYCONFIGCPYCODE, %function
  97              	CYCONFIGCPYCODE:
  98              	.LFB2:
  73:.\Generated_Source\PSoC5/cyfitter_cfg.c **** CY_CFG_UNUSED
ARM GAS  C:\Users\LUKASC~1\AppData\Local\Temp\cc429IQI.s 			page 4


  74:.\Generated_Source\PSoC5/cyfitter_cfg.c **** static void CYCONFIGCPYCODE(void *dest, const void *src, size_t n);
  75:.\Generated_Source\PSoC5/cyfitter_cfg.c **** CY_CFG_UNUSED
  76:.\Generated_Source\PSoC5/cyfitter_cfg.c **** static void CYCONFIGCPYCODE(void *dest, const void *src, size_t n)
  77:.\Generated_Source\PSoC5/cyfitter_cfg.c **** {
  99              		.loc 1 77 0
 100              		.cfi_startproc
 101              		@ args = 0, pretend = 0, frame = 16
 102              		@ frame_needed = 1, uses_anonymous_args = 0
 103 0000 80B5     		push	{r7, lr}
 104              		.cfi_def_cfa_offset 8
 105              		.cfi_offset 7, -8
 106              		.cfi_offset 14, -4
 107 0002 84B0     		sub	sp, sp, #16
 108              		.cfi_def_cfa_offset 24
 109 0004 00AF     		add	r7, sp, #0
 110              		.cfi_def_cfa_register 7
 111 0006 F860     		str	r0, [r7, #12]
 112 0008 B960     		str	r1, [r7, #8]
 113 000a 7A60     		str	r2, [r7, #4]
  78:.\Generated_Source\PSoC5/cyfitter_cfg.c **** 	(void)memcpy(dest, src, n);
 114              		.loc 1 78 0
 115 000c F868     		ldr	r0, [r7, #12]
 116 000e B968     		ldr	r1, [r7, #8]
 117 0010 7A68     		ldr	r2, [r7, #4]
 118 0012 FFF7FEFF 		bl	memcpy
  79:.\Generated_Source\PSoC5/cyfitter_cfg.c **** }
 119              		.loc 1 79 0
 120 0016 1037     		adds	r7, r7, #16
 121              		.cfi_def_cfa_offset 8
 122 0018 BD46     		mov	sp, r7
 123              		.cfi_def_cfa_register 13
 124              		@ sp needed
 125 001a 80BD     		pop	{r7, pc}
 126              		.cfi_endproc
 127              	.LFE2:
 128              		.size	CYCONFIGCPYCODE, .-CYCONFIGCPYCODE
 129              		.section	.text.CyClockStartupError,"ax",%progbits
 130              		.align	2
 131              		.thumb
 132              		.thumb_func
 133              		.type	CyClockStartupError, %function
 134              	CyClockStartupError:
 135              	.LFB3:
  80:.\Generated_Source\PSoC5/cyfitter_cfg.c **** 
  81:.\Generated_Source\PSoC5/cyfitter_cfg.c **** 
  82:.\Generated_Source\PSoC5/cyfitter_cfg.c **** 
  83:.\Generated_Source\PSoC5/cyfitter_cfg.c **** /* Clock startup error codes                                                   */
  84:.\Generated_Source\PSoC5/cyfitter_cfg.c **** #define CYCLOCKSTART_NO_ERROR    0u
  85:.\Generated_Source\PSoC5/cyfitter_cfg.c **** #define CYCLOCKSTART_XTAL_ERROR  1u
  86:.\Generated_Source\PSoC5/cyfitter_cfg.c **** #define CYCLOCKSTART_32KHZ_ERROR 2u
  87:.\Generated_Source\PSoC5/cyfitter_cfg.c **** #define CYCLOCKSTART_PLL_ERROR   3u
  88:.\Generated_Source\PSoC5/cyfitter_cfg.c **** 
  89:.\Generated_Source\PSoC5/cyfitter_cfg.c **** #ifdef CY_NEED_CYCLOCKSTARTUPERROR
  90:.\Generated_Source\PSoC5/cyfitter_cfg.c **** /*******************************************************************************
  91:.\Generated_Source\PSoC5/cyfitter_cfg.c **** * Function Name: CyClockStartupError
  92:.\Generated_Source\PSoC5/cyfitter_cfg.c **** ********************************************************************************
  93:.\Generated_Source\PSoC5/cyfitter_cfg.c **** * Summary:
ARM GAS  C:\Users\LUKASC~1\AppData\Local\Temp\cc429IQI.s 			page 5


  94:.\Generated_Source\PSoC5/cyfitter_cfg.c **** *  If an error is encountered during clock configuration (crystal startup error,
  95:.\Generated_Source\PSoC5/cyfitter_cfg.c **** *  PLL lock error, etc.), the system will end up here.  Unless reimplemented by
  96:.\Generated_Source\PSoC5/cyfitter_cfg.c **** *  the customer, this function will stop in an infinite loop.
  97:.\Generated_Source\PSoC5/cyfitter_cfg.c **** *
  98:.\Generated_Source\PSoC5/cyfitter_cfg.c **** * Parameters:
  99:.\Generated_Source\PSoC5/cyfitter_cfg.c **** *   void
 100:.\Generated_Source\PSoC5/cyfitter_cfg.c **** *
 101:.\Generated_Source\PSoC5/cyfitter_cfg.c **** * Return:
 102:.\Generated_Source\PSoC5/cyfitter_cfg.c **** *   void
 103:.\Generated_Source\PSoC5/cyfitter_cfg.c **** *
 104:.\Generated_Source\PSoC5/cyfitter_cfg.c **** *******************************************************************************/
 105:.\Generated_Source\PSoC5/cyfitter_cfg.c **** CY_CFG_UNUSED
 106:.\Generated_Source\PSoC5/cyfitter_cfg.c **** static void CyClockStartupError(uint8 errorCode);
 107:.\Generated_Source\PSoC5/cyfitter_cfg.c **** CY_CFG_UNUSED
 108:.\Generated_Source\PSoC5/cyfitter_cfg.c **** static void CyClockStartupError(uint8 errorCode)
 109:.\Generated_Source\PSoC5/cyfitter_cfg.c **** {
 136              		.loc 1 109 0
 137              		.cfi_startproc
 138              		@ args = 0, pretend = 0, frame = 8
 139              		@ frame_needed = 1, uses_anonymous_args = 0
 140              		@ link register save eliminated.
 141 0000 80B4     		push	{r7}
 142              		.cfi_def_cfa_offset 4
 143              		.cfi_offset 7, -4
 144 0002 83B0     		sub	sp, sp, #12
 145              		.cfi_def_cfa_offset 16
 146 0004 00AF     		add	r7, sp, #0
 147              		.cfi_def_cfa_register 7
 148 0006 0346     		mov	r3, r0
 149 0008 FB71     		strb	r3, [r7, #7]
 150              	.L5:
 110:.\Generated_Source\PSoC5/cyfitter_cfg.c ****     /* To remove the compiler warning if errorCode not used.                */
 111:.\Generated_Source\PSoC5/cyfitter_cfg.c ****     errorCode = errorCode;
 112:.\Generated_Source\PSoC5/cyfitter_cfg.c **** 
 113:.\Generated_Source\PSoC5/cyfitter_cfg.c ****     /* `#START CyClockStartupError` */
 114:.\Generated_Source\PSoC5/cyfitter_cfg.c **** 
 115:.\Generated_Source\PSoC5/cyfitter_cfg.c ****     /* If we have a clock startup error (bad MHz crystal, PLL lock, etc.),  */
 116:.\Generated_Source\PSoC5/cyfitter_cfg.c ****     /* we will end up here to allow the customer to implement something to  */
 117:.\Generated_Source\PSoC5/cyfitter_cfg.c ****     /* deal with the clock condition.                                       */
 118:.\Generated_Source\PSoC5/cyfitter_cfg.c **** 
 119:.\Generated_Source\PSoC5/cyfitter_cfg.c ****     /* `#END` */
 120:.\Generated_Source\PSoC5/cyfitter_cfg.c **** 
 121:.\Generated_Source\PSoC5/cyfitter_cfg.c ****     /* If nothing else, stop here since the clocks have not started         */
 122:.\Generated_Source\PSoC5/cyfitter_cfg.c ****     /* correctly.                                                           */
 123:.\Generated_Source\PSoC5/cyfitter_cfg.c ****     while(1) {}
 151              		.loc 1 123 0 discriminator 1
 152 000a FEE7     		b	.L5
 153              		.cfi_endproc
 154              	.LFE3:
 155              		.size	CyClockStartupError, .-CyClockStartupError
 156              		.section	.text.cfg_write_bytes32,"ax",%progbits
 157              		.align	2
 158              		.thumb
 159              		.thumb_func
 160              		.type	cfg_write_bytes32, %function
 161              	cfg_write_bytes32:
 162              	.LFB4:
ARM GAS  C:\Users\LUKASC~1\AppData\Local\Temp\cc429IQI.s 			page 6


 124:.\Generated_Source\PSoC5/cyfitter_cfg.c **** }
 125:.\Generated_Source\PSoC5/cyfitter_cfg.c **** #endif
 126:.\Generated_Source\PSoC5/cyfitter_cfg.c **** 
 127:.\Generated_Source\PSoC5/cyfitter_cfg.c **** #define CY_CFG_BASE_ADDR_COUNT 12u
 128:.\Generated_Source\PSoC5/cyfitter_cfg.c **** CYPACKED typedef struct
 129:.\Generated_Source\PSoC5/cyfitter_cfg.c **** {
 130:.\Generated_Source\PSoC5/cyfitter_cfg.c **** 	uint8 offset;
 131:.\Generated_Source\PSoC5/cyfitter_cfg.c **** 	uint8 value;
 132:.\Generated_Source\PSoC5/cyfitter_cfg.c **** } CYPACKED_ATTR cy_cfg_addrvalue_t;
 133:.\Generated_Source\PSoC5/cyfitter_cfg.c **** 
 134:.\Generated_Source\PSoC5/cyfitter_cfg.c **** 
 135:.\Generated_Source\PSoC5/cyfitter_cfg.c **** 
 136:.\Generated_Source\PSoC5/cyfitter_cfg.c **** /*******************************************************************************
 137:.\Generated_Source\PSoC5/cyfitter_cfg.c **** * Function Name: cfg_write_bytes32
 138:.\Generated_Source\PSoC5/cyfitter_cfg.c **** ********************************************************************************
 139:.\Generated_Source\PSoC5/cyfitter_cfg.c **** * Summary:
 140:.\Generated_Source\PSoC5/cyfitter_cfg.c **** *  This function is used for setting up the chip configuration areas that
 141:.\Generated_Source\PSoC5/cyfitter_cfg.c **** *  contain relatively sparse data.
 142:.\Generated_Source\PSoC5/cyfitter_cfg.c **** *
 143:.\Generated_Source\PSoC5/cyfitter_cfg.c **** * Parameters:
 144:.\Generated_Source\PSoC5/cyfitter_cfg.c **** *   void
 145:.\Generated_Source\PSoC5/cyfitter_cfg.c **** *
 146:.\Generated_Source\PSoC5/cyfitter_cfg.c **** * Return:
 147:.\Generated_Source\PSoC5/cyfitter_cfg.c **** *   void
 148:.\Generated_Source\PSoC5/cyfitter_cfg.c **** *
 149:.\Generated_Source\PSoC5/cyfitter_cfg.c **** *******************************************************************************/
 150:.\Generated_Source\PSoC5/cyfitter_cfg.c **** static void cfg_write_bytes32(const uint32 addr_table[], const cy_cfg_addrvalue_t data_table[]);
 151:.\Generated_Source\PSoC5/cyfitter_cfg.c **** static void cfg_write_bytes32(const uint32 addr_table[], const cy_cfg_addrvalue_t data_table[])
 152:.\Generated_Source\PSoC5/cyfitter_cfg.c **** {
 163              		.loc 1 152 0
 164              		.cfi_startproc
 165              		@ args = 0, pretend = 0, frame = 24
 166              		@ frame_needed = 1, uses_anonymous_args = 0
 167              		@ link register save eliminated.
 168 0000 80B4     		push	{r7}
 169              		.cfi_def_cfa_offset 4
 170              		.cfi_offset 7, -4
 171 0002 87B0     		sub	sp, sp, #28
 172              		.cfi_def_cfa_offset 32
 173 0004 00AF     		add	r7, sp, #0
 174              		.cfi_def_cfa_register 7
 175 0006 7860     		str	r0, [r7, #4]
 176 0008 3960     		str	r1, [r7]
 153:.\Generated_Source\PSoC5/cyfitter_cfg.c **** 	/* For 32-bit little-endian architectures */
 154:.\Generated_Source\PSoC5/cyfitter_cfg.c **** 	uint32 i, j = 0u;
 177              		.loc 1 154 0
 178 000a 0023     		movs	r3, #0
 179 000c 3B61     		str	r3, [r7, #16]
 155:.\Generated_Source\PSoC5/cyfitter_cfg.c **** 	for (i = 0u; i < CY_CFG_BASE_ADDR_COUNT; i++)
 180              		.loc 1 155 0
 181 000e 0023     		movs	r3, #0
 182 0010 7B61     		str	r3, [r7, #20]
 183 0012 27E0     		b	.L7
 184              	.L10:
 185              	.LBB2:
 156:.\Generated_Source\PSoC5/cyfitter_cfg.c **** 	{
 157:.\Generated_Source\PSoC5/cyfitter_cfg.c **** 		uint32 baseAddr = addr_table[i];
ARM GAS  C:\Users\LUKASC~1\AppData\Local\Temp\cc429IQI.s 			page 7


 186              		.loc 1 157 0
 187 0014 7B69     		ldr	r3, [r7, #20]
 188 0016 9B00     		lsls	r3, r3, #2
 189 0018 7A68     		ldr	r2, [r7, #4]
 190 001a 1344     		add	r3, r3, r2
 191 001c 1B68     		ldr	r3, [r3]
 192 001e BB60     		str	r3, [r7, #8]
 158:.\Generated_Source\PSoC5/cyfitter_cfg.c **** 		uint8 count = (uint8)baseAddr;
 193              		.loc 1 158 0
 194 0020 BB68     		ldr	r3, [r7, #8]
 195 0022 FB73     		strb	r3, [r7, #15]
 159:.\Generated_Source\PSoC5/cyfitter_cfg.c **** 		baseAddr &= 0xFFFFFF00u;
 196              		.loc 1 159 0
 197 0024 BB68     		ldr	r3, [r7, #8]
 198 0026 23F0FF03 		bic	r3, r3, #255
 199 002a BB60     		str	r3, [r7, #8]
 160:.\Generated_Source\PSoC5/cyfitter_cfg.c **** 		while (count != 0u)
 200              		.loc 1 160 0
 201 002c 14E0     		b	.L8
 202              	.L9:
 161:.\Generated_Source\PSoC5/cyfitter_cfg.c **** 		{
 162:.\Generated_Source\PSoC5/cyfitter_cfg.c **** 			CY_SET_XTND_REG8((void CYFAR *)(baseAddr + data_table[j].offset), data_table[j].value);
 203              		.loc 1 162 0
 204 002e 3B69     		ldr	r3, [r7, #16]
 205 0030 5B00     		lsls	r3, r3, #1
 206 0032 3A68     		ldr	r2, [r7]
 207 0034 1344     		add	r3, r3, r2
 208 0036 1B78     		ldrb	r3, [r3]	@ zero_extendqisi2
 209 0038 1A46     		mov	r2, r3
 210 003a BB68     		ldr	r3, [r7, #8]
 211 003c 1344     		add	r3, r3, r2
 212 003e 1946     		mov	r1, r3
 213 0040 3B69     		ldr	r3, [r7, #16]
 214 0042 5B00     		lsls	r3, r3, #1
 215 0044 3A68     		ldr	r2, [r7]
 216 0046 1344     		add	r3, r3, r2
 217 0048 5B78     		ldrb	r3, [r3, #1]	@ zero_extendqisi2
 218 004a 0B70     		strb	r3, [r1]
 163:.\Generated_Source\PSoC5/cyfitter_cfg.c **** 			j++;
 219              		.loc 1 163 0
 220 004c 3B69     		ldr	r3, [r7, #16]
 221 004e 0133     		adds	r3, r3, #1
 222 0050 3B61     		str	r3, [r7, #16]
 164:.\Generated_Source\PSoC5/cyfitter_cfg.c **** 			count--;
 223              		.loc 1 164 0
 224 0052 FB7B     		ldrb	r3, [r7, #15]	@ zero_extendqisi2
 225 0054 013B     		subs	r3, r3, #1
 226 0056 FB73     		strb	r3, [r7, #15]
 227              	.L8:
 160:.\Generated_Source\PSoC5/cyfitter_cfg.c **** 		{
 228              		.loc 1 160 0
 229 0058 FB7B     		ldrb	r3, [r7, #15]	@ zero_extendqisi2
 230 005a 002B     		cmp	r3, #0
 231 005c E7D1     		bne	.L9
 232              	.LBE2:
 155:.\Generated_Source\PSoC5/cyfitter_cfg.c **** 	{
 233              		.loc 1 155 0 discriminator 2
ARM GAS  C:\Users\LUKASC~1\AppData\Local\Temp\cc429IQI.s 			page 8


 234 005e 7B69     		ldr	r3, [r7, #20]
 235 0060 0133     		adds	r3, r3, #1
 236 0062 7B61     		str	r3, [r7, #20]
 237              	.L7:
 155:.\Generated_Source\PSoC5/cyfitter_cfg.c **** 	{
 238              		.loc 1 155 0 is_stmt 0 discriminator 1
 239 0064 7B69     		ldr	r3, [r7, #20]
 240 0066 0B2B     		cmp	r3, #11
 241 0068 D4D9     		bls	.L10
 165:.\Generated_Source\PSoC5/cyfitter_cfg.c **** 		}
 166:.\Generated_Source\PSoC5/cyfitter_cfg.c **** 	}
 167:.\Generated_Source\PSoC5/cyfitter_cfg.c **** }
 242              		.loc 1 167 0 is_stmt 1
 243 006a 1C37     		adds	r7, r7, #28
 244              		.cfi_def_cfa_offset 4
 245 006c BD46     		mov	sp, r7
 246              		.cfi_def_cfa_register 13
 247              		@ sp needed
 248 006e 5DF8047B 		ldr	r7, [sp], #4
 249              		.cfi_restore 7
 250              		.cfi_def_cfa_offset 0
 251 0072 7047     		bx	lr
 252              		.cfi_endproc
 253              	.LFE4:
 254              		.size	cfg_write_bytes32, .-cfg_write_bytes32
 255              		.section	.text.ClockSetup,"ax",%progbits
 256              		.align	2
 257              		.thumb
 258              		.thumb_func
 259              		.type	ClockSetup, %function
 260              	ClockSetup:
 261              	.LFB5:
 168:.\Generated_Source\PSoC5/cyfitter_cfg.c **** 
 169:.\Generated_Source\PSoC5/cyfitter_cfg.c **** /*******************************************************************************
 170:.\Generated_Source\PSoC5/cyfitter_cfg.c **** * Function Name: ClockSetup
 171:.\Generated_Source\PSoC5/cyfitter_cfg.c **** ********************************************************************************
 172:.\Generated_Source\PSoC5/cyfitter_cfg.c **** *
 173:.\Generated_Source\PSoC5/cyfitter_cfg.c **** * Summary:
 174:.\Generated_Source\PSoC5/cyfitter_cfg.c **** *  Performs the initialization of all of the clocks in the device based on the
 175:.\Generated_Source\PSoC5/cyfitter_cfg.c **** *  settings in the Clock tab of the DWR.  This includes enabling the requested
 176:.\Generated_Source\PSoC5/cyfitter_cfg.c **** *  clocks and setting the necessary dividers to produce the desired frequency. 
 177:.\Generated_Source\PSoC5/cyfitter_cfg.c **** *
 178:.\Generated_Source\PSoC5/cyfitter_cfg.c **** * Parameters:
 179:.\Generated_Source\PSoC5/cyfitter_cfg.c **** *  void
 180:.\Generated_Source\PSoC5/cyfitter_cfg.c **** *
 181:.\Generated_Source\PSoC5/cyfitter_cfg.c **** * Return:
 182:.\Generated_Source\PSoC5/cyfitter_cfg.c **** *  void
 183:.\Generated_Source\PSoC5/cyfitter_cfg.c **** *
 184:.\Generated_Source\PSoC5/cyfitter_cfg.c **** *******************************************************************************/
 185:.\Generated_Source\PSoC5/cyfitter_cfg.c **** static void ClockSetup(void);
 186:.\Generated_Source\PSoC5/cyfitter_cfg.c **** static void ClockSetup(void)
 187:.\Generated_Source\PSoC5/cyfitter_cfg.c **** {
 262              		.loc 1 187 0
 263              		.cfi_startproc
 264              		@ args = 0, pretend = 0, frame = 8
 265              		@ frame_needed = 1, uses_anonymous_args = 0
 266 0000 80B5     		push	{r7, lr}
ARM GAS  C:\Users\LUKASC~1\AppData\Local\Temp\cc429IQI.s 			page 9


 267              		.cfi_def_cfa_offset 8
 268              		.cfi_offset 7, -8
 269              		.cfi_offset 14, -4
 270 0002 82B0     		sub	sp, sp, #8
 271              		.cfi_def_cfa_offset 16
 272 0004 00AF     		add	r7, sp, #0
 273              		.cfi_def_cfa_register 7
 188:.\Generated_Source\PSoC5/cyfitter_cfg.c **** 	uint32 timeout;
 189:.\Generated_Source\PSoC5/cyfitter_cfg.c **** 	uint8 pllLock;
 190:.\Generated_Source\PSoC5/cyfitter_cfg.c **** 
 191:.\Generated_Source\PSoC5/cyfitter_cfg.c **** 
 192:.\Generated_Source\PSoC5/cyfitter_cfg.c **** 	/* Configure Digital Clocks based on settings from Clock DWR */
 193:.\Generated_Source\PSoC5/cyfitter_cfg.c **** 	CY_SET_XTND_REG16((void CYFAR *)(CYREG_CLKDIST_DCFG0_CFG0), 0x02EDu);
 274              		.loc 1 193 0
 275 0006 304B     		ldr	r3, .L16
 276 0008 40F2ED22 		movw	r2, #749
 277 000c 1A80     		strh	r2, [r3]	@ movhi
 194:.\Generated_Source\PSoC5/cyfitter_cfg.c **** 	CY_SET_XTND_REG8((void CYFAR *)(CYREG_CLKDIST_DCFG0_CFG0 + 0x2u), 0x19u);
 278              		.loc 1 194 0
 279 000e 2F4B     		ldr	r3, .L16+4
 280 0010 1922     		movs	r2, #25
 281 0012 1A70     		strb	r2, [r3]
 195:.\Generated_Source\PSoC5/cyfitter_cfg.c **** 
 196:.\Generated_Source\PSoC5/cyfitter_cfg.c **** 	/* Configure ILO based on settings from Clock DWR */
 197:.\Generated_Source\PSoC5/cyfitter_cfg.c **** 	CY_SET_XTND_REG8((void CYFAR *)(CYREG_SLOWCLK_ILO_CR0), 0x06u);
 282              		.loc 1 197 0
 283 0014 2E4B     		ldr	r3, .L16+8
 284 0016 0622     		movs	r2, #6
 285 0018 1A70     		strb	r2, [r3]
 198:.\Generated_Source\PSoC5/cyfitter_cfg.c **** 
 199:.\Generated_Source\PSoC5/cyfitter_cfg.c **** 	/* Configure IMO based on settings from Clock DWR */
 200:.\Generated_Source\PSoC5/cyfitter_cfg.c **** 	CY_SET_XTND_REG8((void CYFAR *)(CYREG_FASTCLK_IMO_CR), 0x52u);
 286              		.loc 1 200 0
 287 001a 2E4B     		ldr	r3, .L16+12
 288 001c 5222     		movs	r2, #82
 289 001e 1A70     		strb	r2, [r3]
 201:.\Generated_Source\PSoC5/cyfitter_cfg.c **** 	CY_SET_XTND_REG8((void CYFAR *)(CYREG_IMO_TR1), (CY_GET_XTND_REG8((void CYFAR *)CYREG_FLSHID_CUST_
 290              		.loc 1 201 0
 291 0020 2D4B     		ldr	r3, .L16+16
 292 0022 2E4A     		ldr	r2, .L16+20
 293 0024 1278     		ldrb	r2, [r2]
 294 0026 D2B2     		uxtb	r2, r2
 295 0028 1A70     		strb	r2, [r3]
 202:.\Generated_Source\PSoC5/cyfitter_cfg.c **** 
 203:.\Generated_Source\PSoC5/cyfitter_cfg.c **** 	/* Configure PLL based on settings from Clock DWR */
 204:.\Generated_Source\PSoC5/cyfitter_cfg.c **** 	CY_SET_XTND_REG16((void CYFAR *)(CYREG_FASTCLK_PLL_P), 0x0818u);
 296              		.loc 1 204 0
 297 002a 2D4B     		ldr	r3, .L16+24
 298 002c 40F61802 		movw	r2, #2072
 299 0030 1A80     		strh	r2, [r3]	@ movhi
 205:.\Generated_Source\PSoC5/cyfitter_cfg.c **** 	CY_SET_XTND_REG16((void CYFAR *)(CYREG_FASTCLK_PLL_CFG0), 0x1251u);
 300              		.loc 1 205 0
 301 0032 2C4B     		ldr	r3, .L16+28
 302 0034 41F25122 		movw	r2, #4689
 303 0038 1A80     		strh	r2, [r3]	@ movhi
 206:.\Generated_Source\PSoC5/cyfitter_cfg.c **** 	/* Wait up to 250us for the PLL to lock */
 207:.\Generated_Source\PSoC5/cyfitter_cfg.c **** 	pllLock = 0u;
ARM GAS  C:\Users\LUKASC~1\AppData\Local\Temp\cc429IQI.s 			page 10


 304              		.loc 1 207 0
 305 003a 0023     		movs	r3, #0
 306 003c FB70     		strb	r3, [r7, #3]
 208:.\Generated_Source\PSoC5/cyfitter_cfg.c **** 	for (timeout = 250u / 10u; (timeout > 0u) && (pllLock != 0x03u); timeout--)
 307              		.loc 1 208 0
 308 003e 1923     		movs	r3, #25
 309 0040 7B60     		str	r3, [r7, #4]
 310 0042 14E0     		b	.L12
 311              	.L14:
 209:.\Generated_Source\PSoC5/cyfitter_cfg.c **** 	{ 
 210:.\Generated_Source\PSoC5/cyfitter_cfg.c **** 		pllLock = 0x03u & ((uint8)((uint8)pllLock << 1) | ((CY_GET_XTND_REG8((void CYFAR *)CYREG_FASTCLK_
 312              		.loc 1 210 0 discriminator 4
 313 0044 FB78     		ldrb	r3, [r7, #3]
 314 0046 5B00     		lsls	r3, r3, #1
 315 0048 DAB2     		uxtb	r2, r3
 316 004a 274B     		ldr	r3, .L16+32
 317 004c 1B78     		ldrb	r3, [r3]
 318 004e DBB2     		uxtb	r3, r3
 319 0050 03F00103 		and	r3, r3, #1
 320 0054 DBB2     		uxtb	r3, r3
 321 0056 1343     		orrs	r3, r3, r2
 322 0058 DBB2     		uxtb	r3, r3
 323 005a 03F00303 		and	r3, r3, #3
 324 005e FB70     		strb	r3, [r7, #3]
 211:.\Generated_Source\PSoC5/cyfitter_cfg.c **** 		CyDelayCycles(10u * 48u); /* Delay 10us based on 48MHz clock */
 325              		.loc 1 211 0 discriminator 4
 326 0060 4FF4F070 		mov	r0, #480
 327 0064 FFF7FEFF 		bl	CyDelayCycles
 208:.\Generated_Source\PSoC5/cyfitter_cfg.c **** 	for (timeout = 250u / 10u; (timeout > 0u) && (pllLock != 0x03u); timeout--)
 328              		.loc 1 208 0 discriminator 4
 329 0068 7B68     		ldr	r3, [r7, #4]
 330 006a 013B     		subs	r3, r3, #1
 331 006c 7B60     		str	r3, [r7, #4]
 332              	.L12:
 208:.\Generated_Source\PSoC5/cyfitter_cfg.c **** 	for (timeout = 250u / 10u; (timeout > 0u) && (pllLock != 0x03u); timeout--)
 333              		.loc 1 208 0 is_stmt 0 discriminator 1
 334 006e 7B68     		ldr	r3, [r7, #4]
 335 0070 002B     		cmp	r3, #0
 336 0072 02D0     		beq	.L13
 208:.\Generated_Source\PSoC5/cyfitter_cfg.c **** 	for (timeout = 250u / 10u; (timeout > 0u) && (pllLock != 0x03u); timeout--)
 337              		.loc 1 208 0 discriminator 3
 338 0074 FB78     		ldrb	r3, [r7, #3]	@ zero_extendqisi2
 339 0076 032B     		cmp	r3, #3
 340 0078 E4D1     		bne	.L14
 341              	.L13:
 212:.\Generated_Source\PSoC5/cyfitter_cfg.c **** 	}
 213:.\Generated_Source\PSoC5/cyfitter_cfg.c **** 	/* If we ran out of time the PLL didn't lock so go to the error function */
 214:.\Generated_Source\PSoC5/cyfitter_cfg.c **** 	if (timeout == 0u)
 342              		.loc 1 214 0 is_stmt 1
 343 007a 7B68     		ldr	r3, [r7, #4]
 344 007c 002B     		cmp	r3, #0
 345 007e 02D1     		bne	.L15
 215:.\Generated_Source\PSoC5/cyfitter_cfg.c **** 	{
 216:.\Generated_Source\PSoC5/cyfitter_cfg.c **** 		CyClockStartupError(CYCLOCKSTART_PLL_ERROR);
 346              		.loc 1 216 0
 347 0080 0320     		movs	r0, #3
 348 0082 FFF7FEFF 		bl	CyClockStartupError
ARM GAS  C:\Users\LUKASC~1\AppData\Local\Temp\cc429IQI.s 			page 11


 349              	.L15:
 217:.\Generated_Source\PSoC5/cyfitter_cfg.c **** 	}
 218:.\Generated_Source\PSoC5/cyfitter_cfg.c **** 
 219:.\Generated_Source\PSoC5/cyfitter_cfg.c **** 	/* Configure Bus/Master Clock based on settings from Clock DWR */
 220:.\Generated_Source\PSoC5/cyfitter_cfg.c **** 	CY_SET_XTND_REG16((void CYFAR *)(CYREG_CLKDIST_MSTR0), 0x0100u);
 350              		.loc 1 220 0
 351 0086 194B     		ldr	r3, .L16+36
 352 0088 4FF48072 		mov	r2, #256
 353 008c 1A80     		strh	r2, [r3]	@ movhi
 221:.\Generated_Source\PSoC5/cyfitter_cfg.c **** 	CY_SET_XTND_REG8((void CYFAR *)(CYREG_CLKDIST_MSTR0), 0x07u);
 354              		.loc 1 221 0
 355 008e 174B     		ldr	r3, .L16+36
 356 0090 0722     		movs	r2, #7
 357 0092 1A70     		strb	r2, [r3]
 222:.\Generated_Source\PSoC5/cyfitter_cfg.c **** 	CY_SET_XTND_REG8((void CYFAR *)(CYREG_CLKDIST_BCFG0), 0x00u);
 358              		.loc 1 222 0
 359 0094 164B     		ldr	r3, .L16+40
 360 0096 0022     		movs	r2, #0
 361 0098 1A70     		strb	r2, [r3]
 223:.\Generated_Source\PSoC5/cyfitter_cfg.c **** 	CY_SET_XTND_REG8((void CYFAR *)(CYREG_CLKDIST_BCFG2), 0x48u);
 362              		.loc 1 223 0
 363 009a 164B     		ldr	r3, .L16+44
 364 009c 4822     		movs	r2, #72
 365 009e 1A70     		strb	r2, [r3]
 224:.\Generated_Source\PSoC5/cyfitter_cfg.c **** 	CY_SET_XTND_REG8((void CYFAR *)(CYREG_CLKDIST_MSTR0), 0x00u);
 366              		.loc 1 224 0
 367 00a0 124B     		ldr	r3, .L16+36
 368 00a2 0022     		movs	r2, #0
 369 00a4 1A70     		strb	r2, [r3]
 225:.\Generated_Source\PSoC5/cyfitter_cfg.c **** 
 226:.\Generated_Source\PSoC5/cyfitter_cfg.c **** 	/* Configure USB Clock based on settings from Clock DWR */
 227:.\Generated_Source\PSoC5/cyfitter_cfg.c **** 	CY_SET_XTND_REG8((void CYFAR *)(CYREG_CLKDIST_UCFG), 0x00u);
 370              		.loc 1 227 0
 371 00a6 144B     		ldr	r3, .L16+48
 372 00a8 0022     		movs	r2, #0
 373 00aa 1A70     		strb	r2, [r3]
 228:.\Generated_Source\PSoC5/cyfitter_cfg.c **** 	CY_SET_XTND_REG8((void CYFAR *)(CYREG_CLKDIST_LD), 0x02u);
 374              		.loc 1 228 0
 375 00ac 134B     		ldr	r3, .L16+52
 376 00ae 0222     		movs	r2, #2
 377 00b0 1A70     		strb	r2, [r3]
 229:.\Generated_Source\PSoC5/cyfitter_cfg.c **** 
 230:.\Generated_Source\PSoC5/cyfitter_cfg.c **** 	CY_SET_XTND_REG8((void CYFAR *)(CYREG_PM_ACT_CFG2), ((CY_GET_XTND_REG8((void CYFAR *)CYREG_PM_ACT_
 378              		.loc 1 230 0
 379 00b2 134A     		ldr	r2, .L16+56
 380 00b4 124B     		ldr	r3, .L16+56
 381 00b6 1B78     		ldrb	r3, [r3]
 382 00b8 DBB2     		uxtb	r3, r3
 383 00ba 43F00103 		orr	r3, r3, #1
 384 00be DBB2     		uxtb	r3, r3
 385 00c0 1370     		strb	r3, [r2]
 231:.\Generated_Source\PSoC5/cyfitter_cfg.c **** }
 386              		.loc 1 231 0
 387 00c2 0837     		adds	r7, r7, #8
 388              		.cfi_def_cfa_offset 8
 389 00c4 BD46     		mov	sp, r7
 390              		.cfi_def_cfa_register 13
ARM GAS  C:\Users\LUKASC~1\AppData\Local\Temp\cc429IQI.s 			page 12


 391              		@ sp needed
 392 00c6 80BD     		pop	{r7, pc}
 393              	.L17:
 394              		.align	2
 395              	.L16:
 396 00c8 80400040 		.word	1073758336
 397 00cc 82400040 		.word	1073758338
 398 00d0 00430040 		.word	1073758976
 399 00d4 00420040 		.word	1073758720
 400 00d8 A1460040 		.word	1073759905
 401 00dc 0F010049 		.word	1224737039
 402 00e0 22420040 		.word	1073758754
 403 00e4 20420040 		.word	1073758752
 404 00e8 25420040 		.word	1073758757
 405 00ec 04400040 		.word	1073758212
 406 00f0 06400040 		.word	1073758214
 407 00f4 08400040 		.word	1073758216
 408 00f8 09400040 		.word	1073758217
 409 00fc 01400040 		.word	1073758209
 410 0100 A2430040 		.word	1073759138
 411              		.cfi_endproc
 412              	.LFE5:
 413              		.size	ClockSetup, .-ClockSetup
 414              		.section	.text.AnalogSetDefault,"ax",%progbits
 415              		.align	2
 416              		.thumb
 417              		.thumb_func
 418              		.type	AnalogSetDefault, %function
 419              	AnalogSetDefault:
 420              	.LFB6:
 232:.\Generated_Source\PSoC5/cyfitter_cfg.c **** 
 233:.\Generated_Source\PSoC5/cyfitter_cfg.c **** 
 234:.\Generated_Source\PSoC5/cyfitter_cfg.c **** /* Analog API Functions */
 235:.\Generated_Source\PSoC5/cyfitter_cfg.c **** 
 236:.\Generated_Source\PSoC5/cyfitter_cfg.c **** 
 237:.\Generated_Source\PSoC5/cyfitter_cfg.c **** /*******************************************************************************
 238:.\Generated_Source\PSoC5/cyfitter_cfg.c **** * Function Name: AnalogSetDefault
 239:.\Generated_Source\PSoC5/cyfitter_cfg.c **** ********************************************************************************
 240:.\Generated_Source\PSoC5/cyfitter_cfg.c **** *
 241:.\Generated_Source\PSoC5/cyfitter_cfg.c **** * Summary:
 242:.\Generated_Source\PSoC5/cyfitter_cfg.c **** *  Sets up the analog portions of the chip to default values based on chip
 243:.\Generated_Source\PSoC5/cyfitter_cfg.c **** *  configuration options from the project.
 244:.\Generated_Source\PSoC5/cyfitter_cfg.c **** *
 245:.\Generated_Source\PSoC5/cyfitter_cfg.c **** * Parameters:
 246:.\Generated_Source\PSoC5/cyfitter_cfg.c **** *  void
 247:.\Generated_Source\PSoC5/cyfitter_cfg.c **** *
 248:.\Generated_Source\PSoC5/cyfitter_cfg.c **** * Return:
 249:.\Generated_Source\PSoC5/cyfitter_cfg.c **** *  void
 250:.\Generated_Source\PSoC5/cyfitter_cfg.c **** *
 251:.\Generated_Source\PSoC5/cyfitter_cfg.c **** *******************************************************************************/
 252:.\Generated_Source\PSoC5/cyfitter_cfg.c **** static void AnalogSetDefault(void);
 253:.\Generated_Source\PSoC5/cyfitter_cfg.c **** static void AnalogSetDefault(void)
 254:.\Generated_Source\PSoC5/cyfitter_cfg.c **** {
 421              		.loc 1 254 0
 422              		.cfi_startproc
 423              		@ args = 0, pretend = 0, frame = 8
 424              		@ frame_needed = 1, uses_anonymous_args = 0
ARM GAS  C:\Users\LUKASC~1\AppData\Local\Temp\cc429IQI.s 			page 13


 425              		@ link register save eliminated.
 426 0000 80B4     		push	{r7}
 427              		.cfi_def_cfa_offset 4
 428              		.cfi_offset 7, -4
 429 0002 83B0     		sub	sp, sp, #12
 430              		.cfi_def_cfa_offset 16
 431 0004 00AF     		add	r7, sp, #0
 432              		.cfi_def_cfa_register 7
 255:.\Generated_Source\PSoC5/cyfitter_cfg.c **** 	uint8 bg_xover_inl_trim = CY_GET_XTND_REG8((void CYFAR *)(CYREG_FLSHID_MFG_CFG_BG_XOVER_INL_TRIM +
 433              		.loc 1 255 0
 434 0006 0E4B     		ldr	r3, .L19
 435 0008 1B78     		ldrb	r3, [r3]
 436 000a FB71     		strb	r3, [r7, #7]
 256:.\Generated_Source\PSoC5/cyfitter_cfg.c **** 	CY_SET_XTND_REG8((void CYFAR *)(CYREG_BG_DFT0), (bg_xover_inl_trim & 0x07u));
 437              		.loc 1 256 0
 438 000c 0D4A     		ldr	r2, .L19+4
 439 000e FB79     		ldrb	r3, [r7, #7]
 440 0010 03F00703 		and	r3, r3, #7
 441 0014 DBB2     		uxtb	r3, r3
 442 0016 1370     		strb	r3, [r2]
 257:.\Generated_Source\PSoC5/cyfitter_cfg.c **** 	CY_SET_XTND_REG8((void CYFAR *)(CYREG_BG_DFT1), ((bg_xover_inl_trim >> 4) & 0x0Fu));
 443              		.loc 1 257 0
 444 0018 0B4A     		ldr	r2, .L19+8
 445 001a FB79     		ldrb	r3, [r7, #7]	@ zero_extendqisi2
 446 001c 1B09     		lsrs	r3, r3, #4
 447 001e DBB2     		uxtb	r3, r3
 448 0020 1370     		strb	r3, [r2]
 258:.\Generated_Source\PSoC5/cyfitter_cfg.c **** 	CY_SET_XTND_REG8((void CYFAR *)CYREG_PRT0_AG, 0x01u);
 449              		.loc 1 258 0
 450 0022 0A4B     		ldr	r3, .L19+12
 451 0024 0122     		movs	r2, #1
 452 0026 1A70     		strb	r2, [r3]
 259:.\Generated_Source\PSoC5/cyfitter_cfg.c **** 	CY_SET_XTND_REG8((void CYFAR *)CYREG_DAC2_SW0, 0x10u);
 453              		.loc 1 259 0
 454 0028 094B     		ldr	r3, .L19+16
 455 002a 1022     		movs	r2, #16
 456 002c 1A70     		strb	r2, [r3]
 260:.\Generated_Source\PSoC5/cyfitter_cfg.c **** 	CY_SET_XTND_REG8((void CYFAR *)CYREG_PUMP_CR0, 0x44u);
 457              		.loc 1 260 0
 458 002e 094B     		ldr	r3, .L19+20
 459 0030 4422     		movs	r2, #68
 460 0032 1A70     		strb	r2, [r3]
 261:.\Generated_Source\PSoC5/cyfitter_cfg.c **** }
 461              		.loc 1 261 0
 462 0034 0C37     		adds	r7, r7, #12
 463              		.cfi_def_cfa_offset 4
 464 0036 BD46     		mov	sp, r7
 465              		.cfi_def_cfa_register 13
 466              		@ sp needed
 467 0038 5DF8047B 		ldr	r7, [sp], #4
 468              		.cfi_restore 7
 469              		.cfi_def_cfa_offset 0
 470 003c 7047     		bx	lr
 471              	.L20:
 472 003e 00BF     		.align	2
 473              	.L19:
 474 0040 CF010049 		.word	1224737231
ARM GAS  C:\Users\LUKASC~1\AppData\Local\Temp\cc429IQI.s 			page 14


 475 0044 6E580040 		.word	1073764462
 476 0048 6F580040 		.word	1073764463
 477 004c 0D510040 		.word	1073762573
 478 0050 905A0040 		.word	1073765008
 479 0054 76580040 		.word	1073764470
 480              		.cfi_endproc
 481              	.LFE6:
 482              		.size	AnalogSetDefault, .-AnalogSetDefault
 483              		.section	.text.SetAnalogRoutingPumps,"ax",%progbits
 484              		.align	2
 485              		.global	SetAnalogRoutingPumps
 486              		.thumb
 487              		.thumb_func
 488              		.type	SetAnalogRoutingPumps, %function
 489              	SetAnalogRoutingPumps:
 490              	.LFB7:
 262:.\Generated_Source\PSoC5/cyfitter_cfg.c **** 
 263:.\Generated_Source\PSoC5/cyfitter_cfg.c **** 
 264:.\Generated_Source\PSoC5/cyfitter_cfg.c **** /*******************************************************************************
 265:.\Generated_Source\PSoC5/cyfitter_cfg.c **** * Function Name: SetAnalogRoutingPumps
 266:.\Generated_Source\PSoC5/cyfitter_cfg.c **** ********************************************************************************
 267:.\Generated_Source\PSoC5/cyfitter_cfg.c **** *
 268:.\Generated_Source\PSoC5/cyfitter_cfg.c **** * Summary:
 269:.\Generated_Source\PSoC5/cyfitter_cfg.c **** * Enables or disables the analog pumps feeding analog routing switches.
 270:.\Generated_Source\PSoC5/cyfitter_cfg.c **** * Intended to be called at startup, based on the Vdda system configuration;
 271:.\Generated_Source\PSoC5/cyfitter_cfg.c **** * may be called during operation when the user informs us that the Vdda voltage
 272:.\Generated_Source\PSoC5/cyfitter_cfg.c **** * crossed the pump threshold.
 273:.\Generated_Source\PSoC5/cyfitter_cfg.c **** *
 274:.\Generated_Source\PSoC5/cyfitter_cfg.c **** * Parameters:
 275:.\Generated_Source\PSoC5/cyfitter_cfg.c **** *  enabled - 1 to enable the pumps, 0 to disable the pumps
 276:.\Generated_Source\PSoC5/cyfitter_cfg.c **** *
 277:.\Generated_Source\PSoC5/cyfitter_cfg.c **** * Return:
 278:.\Generated_Source\PSoC5/cyfitter_cfg.c **** *  void
 279:.\Generated_Source\PSoC5/cyfitter_cfg.c **** *
 280:.\Generated_Source\PSoC5/cyfitter_cfg.c **** *******************************************************************************/
 281:.\Generated_Source\PSoC5/cyfitter_cfg.c **** void SetAnalogRoutingPumps(uint8 enabled)
 282:.\Generated_Source\PSoC5/cyfitter_cfg.c **** {
 491              		.loc 1 282 0
 492              		.cfi_startproc
 493              		@ args = 0, pretend = 0, frame = 16
 494              		@ frame_needed = 1, uses_anonymous_args = 0
 495              		@ link register save eliminated.
 496 0000 80B4     		push	{r7}
 497              		.cfi_def_cfa_offset 4
 498              		.cfi_offset 7, -4
 499 0002 85B0     		sub	sp, sp, #20
 500              		.cfi_def_cfa_offset 24
 501 0004 00AF     		add	r7, sp, #0
 502              		.cfi_def_cfa_register 7
 503 0006 0346     		mov	r3, r0
 504 0008 FB71     		strb	r3, [r7, #7]
 283:.\Generated_Source\PSoC5/cyfitter_cfg.c **** 	uint8 regValue = CY_GET_XTND_REG8((void CYFAR *)CYREG_PUMP_CR0);
 505              		.loc 1 283 0
 506 000a 0B4B     		ldr	r3, .L24
 507 000c 1B78     		ldrb	r3, [r3]
 508 000e FB73     		strb	r3, [r7, #15]
 284:.\Generated_Source\PSoC5/cyfitter_cfg.c **** 	if (enabled != 0u)
ARM GAS  C:\Users\LUKASC~1\AppData\Local\Temp\cc429IQI.s 			page 15


 509              		.loc 1 284 0
 510 0010 FB79     		ldrb	r3, [r7, #7]	@ zero_extendqisi2
 511 0012 002B     		cmp	r3, #0
 512 0014 04D0     		beq	.L22
 285:.\Generated_Source\PSoC5/cyfitter_cfg.c **** 	{
 286:.\Generated_Source\PSoC5/cyfitter_cfg.c **** 		regValue |= 0x22u;
 513              		.loc 1 286 0
 514 0016 FB7B     		ldrb	r3, [r7, #15]
 515 0018 43F02203 		orr	r3, r3, #34
 516 001c FB73     		strb	r3, [r7, #15]
 517 001e 03E0     		b	.L23
 518              	.L22:
 287:.\Generated_Source\PSoC5/cyfitter_cfg.c **** 	}
 288:.\Generated_Source\PSoC5/cyfitter_cfg.c **** 	else
 289:.\Generated_Source\PSoC5/cyfitter_cfg.c **** 	{
 290:.\Generated_Source\PSoC5/cyfitter_cfg.c **** 		regValue &= (uint8)~0x22u;
 519              		.loc 1 290 0
 520 0020 FB7B     		ldrb	r3, [r7, #15]
 521 0022 23F02203 		bic	r3, r3, #34
 522 0026 FB73     		strb	r3, [r7, #15]
 523              	.L23:
 291:.\Generated_Source\PSoC5/cyfitter_cfg.c **** 	}
 292:.\Generated_Source\PSoC5/cyfitter_cfg.c **** 	CY_SET_XTND_REG8((void CYFAR *)CYREG_PUMP_CR0, regValue);
 524              		.loc 1 292 0
 525 0028 034A     		ldr	r2, .L24
 526 002a FB7B     		ldrb	r3, [r7, #15]
 527 002c 1370     		strb	r3, [r2]
 293:.\Generated_Source\PSoC5/cyfitter_cfg.c **** }
 528              		.loc 1 293 0
 529 002e 1437     		adds	r7, r7, #20
 530              		.cfi_def_cfa_offset 4
 531 0030 BD46     		mov	sp, r7
 532              		.cfi_def_cfa_register 13
 533              		@ sp needed
 534 0032 5DF8047B 		ldr	r7, [sp], #4
 535              		.cfi_restore 7
 536              		.cfi_def_cfa_offset 0
 537 0036 7047     		bx	lr
 538              	.L25:
 539              		.align	2
 540              	.L24:
 541 0038 76580040 		.word	1073764470
 542              		.cfi_endproc
 543              	.LFE7:
 544              		.size	SetAnalogRoutingPumps, .-SetAnalogRoutingPumps
 545              		.section	.text.cyfitter_cfg,"ax",%progbits
 546              		.align	2
 547              		.global	cyfitter_cfg
 548              		.thumb
 549              		.thumb_func
 550              		.type	cyfitter_cfg, %function
 551              	cyfitter_cfg:
 552              	.LFB8:
 294:.\Generated_Source\PSoC5/cyfitter_cfg.c **** 
 295:.\Generated_Source\PSoC5/cyfitter_cfg.c **** #define CY_AMUX_UNUSED CYREG_BOOST_SR
 296:.\Generated_Source\PSoC5/cyfitter_cfg.c **** 
 297:.\Generated_Source\PSoC5/cyfitter_cfg.c **** 
ARM GAS  C:\Users\LUKASC~1\AppData\Local\Temp\cc429IQI.s 			page 16


 298:.\Generated_Source\PSoC5/cyfitter_cfg.c **** /*******************************************************************************
 299:.\Generated_Source\PSoC5/cyfitter_cfg.c **** * Function Name: cyfitter_cfg
 300:.\Generated_Source\PSoC5/cyfitter_cfg.c **** ********************************************************************************
 301:.\Generated_Source\PSoC5/cyfitter_cfg.c **** * Summary:
 302:.\Generated_Source\PSoC5/cyfitter_cfg.c **** *  This function is called by the start-up code for the selected device. It
 303:.\Generated_Source\PSoC5/cyfitter_cfg.c **** *  performs all of the necessary device configuration based on the design
 304:.\Generated_Source\PSoC5/cyfitter_cfg.c **** *  settings.  This includes settings from the Design Wide Resources (DWR) such
 305:.\Generated_Source\PSoC5/cyfitter_cfg.c **** *  as Clocks and Pins as well as any component configuration that is necessary.
 306:.\Generated_Source\PSoC5/cyfitter_cfg.c **** *
 307:.\Generated_Source\PSoC5/cyfitter_cfg.c **** * Parameters:  
 308:.\Generated_Source\PSoC5/cyfitter_cfg.c **** *   void
 309:.\Generated_Source\PSoC5/cyfitter_cfg.c **** *
 310:.\Generated_Source\PSoC5/cyfitter_cfg.c **** * Return:
 311:.\Generated_Source\PSoC5/cyfitter_cfg.c **** *   void
 312:.\Generated_Source\PSoC5/cyfitter_cfg.c **** *
 313:.\Generated_Source\PSoC5/cyfitter_cfg.c **** *******************************************************************************/
 314:.\Generated_Source\PSoC5/cyfitter_cfg.c **** 
 315:.\Generated_Source\PSoC5/cyfitter_cfg.c **** void cyfitter_cfg(void)
 316:.\Generated_Source\PSoC5/cyfitter_cfg.c **** {
 553              		.loc 1 316 0
 554              		.cfi_startproc
 555              		@ args = 0, pretend = 0, frame = 8
 556              		@ frame_needed = 1, uses_anonymous_args = 0
 557 0000 80B5     		push	{r7, lr}
 558              		.cfi_def_cfa_offset 8
 559              		.cfi_offset 7, -8
 560              		.cfi_offset 14, -4
 561 0002 82B0     		sub	sp, sp, #8
 562              		.cfi_def_cfa_offset 16
 563 0004 00AF     		add	r7, sp, #0
 564              		.cfi_def_cfa_register 7
 317:.\Generated_Source\PSoC5/cyfitter_cfg.c **** 	/* IOPINS0_0 Address: CYREG_PRT0_DM0 Size (bytes): 8 */
 318:.\Generated_Source\PSoC5/cyfitter_cfg.c **** 	static const uint8 CYCODE BS_IOPINS0_0_VAL[] = {
 319:.\Generated_Source\PSoC5/cyfitter_cfg.c **** 		0x00u, 0x00u, 0x00u, 0x00u, 0x00u, 0x00u, 0x01u, 0x00u};
 320:.\Generated_Source\PSoC5/cyfitter_cfg.c **** 
 321:.\Generated_Source\PSoC5/cyfitter_cfg.c **** 	/* IOPINS0_8 Address: CYREG_PRT15_DR Size (bytes): 10 */
 322:.\Generated_Source\PSoC5/cyfitter_cfg.c **** 	static const uint8 CYCODE BS_IOPINS0_8_VAL[] = {
 323:.\Generated_Source\PSoC5/cyfitter_cfg.c **** 		0x40u, 0x00u, 0x00u, 0x00u, 0x00u, 0x00u, 0x00u, 0x00u, 0xC0u, 0x00u};
 324:.\Generated_Source\PSoC5/cyfitter_cfg.c **** 
 325:.\Generated_Source\PSoC5/cyfitter_cfg.c **** 	/* IOPINS0_2 Address: CYREG_PRT2_DM0 Size (bytes): 8 */
 326:.\Generated_Source\PSoC5/cyfitter_cfg.c **** 	static const uint8 CYCODE BS_IOPINS0_2_VAL[] = {
 327:.\Generated_Source\PSoC5/cyfitter_cfg.c **** 		0x00u, 0x7Fu, 0x7Fu, 0x00u, 0x00u, 0x00u, 0x00u, 0x00u};
 328:.\Generated_Source\PSoC5/cyfitter_cfg.c **** 
 329:.\Generated_Source\PSoC5/cyfitter_cfg.c **** 	/* PHUB_CFGMEM1 Address: CYREG_PHUB_CFGMEM1_CFG0 Size (bytes): 4 */
 330:.\Generated_Source\PSoC5/cyfitter_cfg.c **** 	static const uint8 CYCODE BS_PHUB_CFGMEM1_VAL[] = {
 331:.\Generated_Source\PSoC5/cyfitter_cfg.c **** 		0x00u, 0x01u, 0x00u, 0x00u};
 332:.\Generated_Source\PSoC5/cyfitter_cfg.c **** 
 333:.\Generated_Source\PSoC5/cyfitter_cfg.c **** #ifdef CYGlobalIntDisable
 334:.\Generated_Source\PSoC5/cyfitter_cfg.c **** 	/* Disable interrupts by default. Let user enable if/when they want. */
 335:.\Generated_Source\PSoC5/cyfitter_cfg.c **** 	CYGlobalIntDisable
 565              		.loc 1 335 0
 566              	@ 335 ".\Generated_Source\PSoC5\cyfitter_cfg.c" 1
 567 0006 72B6     		CPSID   i
 568              	@ 0 "" 2
 336:.\Generated_Source\PSoC5/cyfitter_cfg.c **** #endif
 337:.\Generated_Source\PSoC5/cyfitter_cfg.c **** 
 338:.\Generated_Source\PSoC5/cyfitter_cfg.c **** 
ARM GAS  C:\Users\LUKASC~1\AppData\Local\Temp\cc429IQI.s 			page 17


 339:.\Generated_Source\PSoC5/cyfitter_cfg.c **** 	/* Set Flash Cycles based on max possible frequency in case a glitch occurs during ClockSetup(). *
 340:.\Generated_Source\PSoC5/cyfitter_cfg.c **** 	CY_SET_XTND_REG8((void CYFAR *)(CYREG_CACHE_CC_CTL), (((CYDEV_INSTRUCT_CACHE_ENABLED) != 0) ? 0x61
 569              		.loc 1 340 0
 570              		.thumb
 571 0008 3D4B     		ldr	r3, .L29
 572 000a 6122     		movs	r2, #97
 573 000c 1A70     		strb	r2, [r3]
 341:.\Generated_Source\PSoC5/cyfitter_cfg.c **** 	/* Setup clocks based on selections from Clock DWR */
 342:.\Generated_Source\PSoC5/cyfitter_cfg.c **** 	ClockSetup();
 574              		.loc 1 342 0
 575 000e FFF7FEFF 		bl	ClockSetup
 343:.\Generated_Source\PSoC5/cyfitter_cfg.c **** 	/* Set Flash Cycles based on newly configured 64.00MHz Bus Clock. */
 344:.\Generated_Source\PSoC5/cyfitter_cfg.c **** 	CY_SET_XTND_REG8((void CYFAR *)(CYREG_CACHE_CC_CTL), (((CYDEV_INSTRUCT_CACHE_ENABLED) != 0) ? 0x01
 576              		.loc 1 344 0
 577 0012 3B4B     		ldr	r3, .L29
 578 0014 0122     		movs	r2, #1
 579 0016 1A70     		strb	r2, [r3]
 345:.\Generated_Source\PSoC5/cyfitter_cfg.c **** 	/* Enable/Disable Debug functionality based on settings from System DWR */
 346:.\Generated_Source\PSoC5/cyfitter_cfg.c **** 	CY_SET_XTND_REG8((void CYFAR *)CYREG_MLOGIC_DEBUG, (CY_GET_XTND_REG8((void CYFAR *)CYREG_MLOGIC_DE
 580              		.loc 1 346 0
 581 0018 3A4A     		ldr	r2, .L29+4
 582 001a 3A4B     		ldr	r3, .L29+4
 583 001c 1B78     		ldrb	r3, [r3]
 584 001e DBB2     		uxtb	r3, r3
 585 0020 43F00403 		orr	r3, r3, #4
 586 0024 DBB2     		uxtb	r3, r3
 587 0026 1370     		strb	r3, [r2]
 588              	.LBB3:
 347:.\Generated_Source\PSoC5/cyfitter_cfg.c **** 
 348:.\Generated_Source\PSoC5/cyfitter_cfg.c **** 	{
 349:.\Generated_Source\PSoC5/cyfitter_cfg.c **** 		static const uint32 CYCODE cy_cfg_addr_table[] = {
 350:.\Generated_Source\PSoC5/cyfitter_cfg.c **** 			0x40004501u, /* Base address: 0x40004500 Count: 1 */
 351:.\Generated_Source\PSoC5/cyfitter_cfg.c **** 			0x40005201u, /* Base address: 0x40005200 Count: 1 */
 352:.\Generated_Source\PSoC5/cyfitter_cfg.c **** 			0x40011702u, /* Base address: 0x40011700 Count: 2 */
 353:.\Generated_Source\PSoC5/cyfitter_cfg.c **** 			0x40011902u, /* Base address: 0x40011900 Count: 2 */
 354:.\Generated_Source\PSoC5/cyfitter_cfg.c **** 			0x40014008u, /* Base address: 0x40014000 Count: 8 */
 355:.\Generated_Source\PSoC5/cyfitter_cfg.c **** 			0x40014103u, /* Base address: 0x40014100 Count: 3 */
 356:.\Generated_Source\PSoC5/cyfitter_cfg.c **** 			0x40014203u, /* Base address: 0x40014200 Count: 3 */
 357:.\Generated_Source\PSoC5/cyfitter_cfg.c **** 			0x40014303u, /* Base address: 0x40014300 Count: 3 */
 358:.\Generated_Source\PSoC5/cyfitter_cfg.c **** 			0x40014704u, /* Base address: 0x40014700 Count: 4 */
 359:.\Generated_Source\PSoC5/cyfitter_cfg.c **** 			0x40014807u, /* Base address: 0x40014800 Count: 7 */
 360:.\Generated_Source\PSoC5/cyfitter_cfg.c **** 			0x40014C02u, /* Base address: 0x40014C00 Count: 2 */
 361:.\Generated_Source\PSoC5/cyfitter_cfg.c **** 			0x40015102u, /* Base address: 0x40015100 Count: 2 */
 362:.\Generated_Source\PSoC5/cyfitter_cfg.c **** 		};
 363:.\Generated_Source\PSoC5/cyfitter_cfg.c **** 
 364:.\Generated_Source\PSoC5/cyfitter_cfg.c **** 		static const cy_cfg_addrvalue_t CYCODE cy_cfg_data_table[] = {
 365:.\Generated_Source\PSoC5/cyfitter_cfg.c **** 			{0x7Eu, 0x02u},
 366:.\Generated_Source\PSoC5/cyfitter_cfg.c **** 			{0x7Cu, 0x40u},
 367:.\Generated_Source\PSoC5/cyfitter_cfg.c **** 			{0xEAu, 0x02u},
 368:.\Generated_Source\PSoC5/cyfitter_cfg.c **** 			{0xEEu, 0x02u},
 369:.\Generated_Source\PSoC5/cyfitter_cfg.c **** 			{0xEAu, 0x02u},
 370:.\Generated_Source\PSoC5/cyfitter_cfg.c **** 			{0xEEu, 0x02u},
 371:.\Generated_Source\PSoC5/cyfitter_cfg.c **** 			{0x14u, 0x40u},
 372:.\Generated_Source\PSoC5/cyfitter_cfg.c **** 			{0x30u, 0x40u},
 373:.\Generated_Source\PSoC5/cyfitter_cfg.c **** 			{0x33u, 0x01u},
 374:.\Generated_Source\PSoC5/cyfitter_cfg.c **** 			{0x36u, 0x40u},
 375:.\Generated_Source\PSoC5/cyfitter_cfg.c **** 			{0x38u, 0x08u},
ARM GAS  C:\Users\LUKASC~1\AppData\Local\Temp\cc429IQI.s 			page 18


 376:.\Generated_Source\PSoC5/cyfitter_cfg.c **** 			{0xC4u, 0x20u},
 377:.\Generated_Source\PSoC5/cyfitter_cfg.c **** 			{0xCCu, 0x70u},
 378:.\Generated_Source\PSoC5/cyfitter_cfg.c **** 			{0xCEu, 0x40u},
 379:.\Generated_Source\PSoC5/cyfitter_cfg.c **** 			{0x94u, 0x08u},
 380:.\Generated_Source\PSoC5/cyfitter_cfg.c **** 			{0x9Fu, 0x01u},
 381:.\Generated_Source\PSoC5/cyfitter_cfg.c **** 			{0xA6u, 0x40u},
 382:.\Generated_Source\PSoC5/cyfitter_cfg.c **** 			{0x94u, 0x08u},
 383:.\Generated_Source\PSoC5/cyfitter_cfg.c **** 			{0x9Fu, 0x01u},
 384:.\Generated_Source\PSoC5/cyfitter_cfg.c **** 			{0xA6u, 0x40u},
 385:.\Generated_Source\PSoC5/cyfitter_cfg.c **** 			{0x94u, 0x08u},
 386:.\Generated_Source\PSoC5/cyfitter_cfg.c **** 			{0x9Fu, 0x01u},
 387:.\Generated_Source\PSoC5/cyfitter_cfg.c **** 			{0xA6u, 0x40u},
 388:.\Generated_Source\PSoC5/cyfitter_cfg.c **** 			{0x0Bu, 0x40u},
 389:.\Generated_Source\PSoC5/cyfitter_cfg.c **** 			{0x16u, 0x10u},
 390:.\Generated_Source\PSoC5/cyfitter_cfg.c **** 			{0xC2u, 0x08u},
 391:.\Generated_Source\PSoC5/cyfitter_cfg.c **** 			{0xC4u, 0x04u},
 392:.\Generated_Source\PSoC5/cyfitter_cfg.c **** 			{0x24u, 0x08u},
 393:.\Generated_Source\PSoC5/cyfitter_cfg.c **** 			{0x94u, 0x08u},
 394:.\Generated_Source\PSoC5/cyfitter_cfg.c **** 			{0xAEu, 0x40u},
 395:.\Generated_Source\PSoC5/cyfitter_cfg.c **** 			{0xAFu, 0x01u},
 396:.\Generated_Source\PSoC5/cyfitter_cfg.c **** 			{0xC8u, 0x20u},
 397:.\Generated_Source\PSoC5/cyfitter_cfg.c **** 			{0xEAu, 0x40u},
 398:.\Generated_Source\PSoC5/cyfitter_cfg.c **** 			{0xEEu, 0x40u},
 399:.\Generated_Source\PSoC5/cyfitter_cfg.c **** 			{0xAEu, 0x10u},
 400:.\Generated_Source\PSoC5/cyfitter_cfg.c **** 			{0xAFu, 0x40u},
 401:.\Generated_Source\PSoC5/cyfitter_cfg.c **** 			{0x00u, 0x2Bu},
 402:.\Generated_Source\PSoC5/cyfitter_cfg.c **** 			{0x10u, 0x08u},
 403:.\Generated_Source\PSoC5/cyfitter_cfg.c **** 		};
 404:.\Generated_Source\PSoC5/cyfitter_cfg.c **** 
 405:.\Generated_Source\PSoC5/cyfitter_cfg.c **** 
 406:.\Generated_Source\PSoC5/cyfitter_cfg.c **** 
 407:.\Generated_Source\PSoC5/cyfitter_cfg.c **** 		CYPACKED typedef struct {
 408:.\Generated_Source\PSoC5/cyfitter_cfg.c **** 			void CYFAR *address;
 409:.\Generated_Source\PSoC5/cyfitter_cfg.c **** 			uint16 size;
 410:.\Generated_Source\PSoC5/cyfitter_cfg.c **** 		} CYPACKED_ATTR cfg_memset_t;
 411:.\Generated_Source\PSoC5/cyfitter_cfg.c **** 
 412:.\Generated_Source\PSoC5/cyfitter_cfg.c **** 		static const cfg_memset_t CYCODE cfg_memset_list [] = {
 413:.\Generated_Source\PSoC5/cyfitter_cfg.c **** 			/* address, size */
 414:.\Generated_Source\PSoC5/cyfitter_cfg.c **** 			{(void CYFAR *)(CYREG_PRT1_DR), 16u},
 415:.\Generated_Source\PSoC5/cyfitter_cfg.c **** 			{(void CYFAR *)(CYREG_PRT3_DR), 64u},
 416:.\Generated_Source\PSoC5/cyfitter_cfg.c **** 			{(void CYFAR *)(CYREG_PRT12_DR), 16u},
 417:.\Generated_Source\PSoC5/cyfitter_cfg.c **** 			{(void CYFAR *)(CYDEV_UCFG_B0_P0_U0_BASE), 4096u},
 418:.\Generated_Source\PSoC5/cyfitter_cfg.c **** 			{(void CYFAR *)(CYDEV_UCFG_B1_P2_U0_BASE), 2048u},
 419:.\Generated_Source\PSoC5/cyfitter_cfg.c **** 			{(void CYFAR *)(CYDEV_UCFG_DSI0_BASE), 2560u},
 420:.\Generated_Source\PSoC5/cyfitter_cfg.c **** 			{(void CYFAR *)(CYDEV_UCFG_DSI12_BASE), 512u},
 421:.\Generated_Source\PSoC5/cyfitter_cfg.c **** 			{(void CYFAR *)(CYREG_BCTL0_MDCLK_EN), 32u},
 422:.\Generated_Source\PSoC5/cyfitter_cfg.c **** 		};
 423:.\Generated_Source\PSoC5/cyfitter_cfg.c **** 
 424:.\Generated_Source\PSoC5/cyfitter_cfg.c **** 		uint8 CYDATA i;
 425:.\Generated_Source\PSoC5/cyfitter_cfg.c **** 
 426:.\Generated_Source\PSoC5/cyfitter_cfg.c **** 		/* Zero out critical memory blocks before beginning configuration */
 427:.\Generated_Source\PSoC5/cyfitter_cfg.c **** 		for (i = 0u; i < (sizeof(cfg_memset_list)/sizeof(cfg_memset_list[0])); i++)
 589              		.loc 1 427 0
 590 0028 0023     		movs	r3, #0
 591 002a FB71     		strb	r3, [r7, #7]
 592 002c 13E0     		b	.L27
 593              	.L28:
ARM GAS  C:\Users\LUKASC~1\AppData\Local\Temp\cc429IQI.s 			page 19


 594              	.LBB4:
 428:.\Generated_Source\PSoC5/cyfitter_cfg.c **** 		{
 429:.\Generated_Source\PSoC5/cyfitter_cfg.c **** 			const cfg_memset_t CYCODE * CYDATA ms = &cfg_memset_list[i];
 595              		.loc 1 429 0 discriminator 3
 596 002e FA79     		ldrb	r2, [r7, #7]	@ zero_extendqisi2
 597 0030 1346     		mov	r3, r2
 598 0032 5B00     		lsls	r3, r3, #1
 599 0034 1344     		add	r3, r3, r2
 600 0036 5B00     		lsls	r3, r3, #1
 601 0038 334A     		ldr	r2, .L29+8
 602 003a 1344     		add	r3, r3, r2
 603 003c 3B60     		str	r3, [r7]
 430:.\Generated_Source\PSoC5/cyfitter_cfg.c **** 			CYMEMZERO(ms->address, (size_t)(uint32)(ms->size));
 604              		.loc 1 430 0 discriminator 3
 605 003e 3B68     		ldr	r3, [r7]
 606 0040 1A68     		ldr	r2, [r3]	@ unaligned
 607 0042 3B68     		ldr	r3, [r7]
 608 0044 9B88     		ldrh	r3, [r3, #4]	@ unaligned
 609 0046 9BB2     		uxth	r3, r3
 610 0048 1046     		mov	r0, r2
 611 004a 1946     		mov	r1, r3
 612 004c FFF7FEFF 		bl	CYMEMZERO
 613              	.LBE4:
 427:.\Generated_Source\PSoC5/cyfitter_cfg.c **** 		{
 614              		.loc 1 427 0 discriminator 3
 615 0050 FB79     		ldrb	r3, [r7, #7]	@ zero_extendqisi2
 616 0052 0133     		adds	r3, r3, #1
 617 0054 FB71     		strb	r3, [r7, #7]
 618              	.L27:
 427:.\Generated_Source\PSoC5/cyfitter_cfg.c **** 		{
 619              		.loc 1 427 0 is_stmt 0 discriminator 1
 620 0056 FB79     		ldrb	r3, [r7, #7]	@ zero_extendqisi2
 621 0058 072B     		cmp	r3, #7
 622 005a E8D9     		bls	.L28
 431:.\Generated_Source\PSoC5/cyfitter_cfg.c **** 		}
 432:.\Generated_Source\PSoC5/cyfitter_cfg.c **** 
 433:.\Generated_Source\PSoC5/cyfitter_cfg.c **** 		cfg_write_bytes32(cy_cfg_addr_table, cy_cfg_data_table);
 623              		.loc 1 433 0 is_stmt 1
 624 005c 2B48     		ldr	r0, .L29+12
 625 005e 2C49     		ldr	r1, .L29+16
 626 0060 FFF7FEFF 		bl	cfg_write_bytes32
 434:.\Generated_Source\PSoC5/cyfitter_cfg.c **** 
 435:.\Generated_Source\PSoC5/cyfitter_cfg.c **** 		/* Perform normal device configuration. Order is not critical for these items. */
 436:.\Generated_Source\PSoC5/cyfitter_cfg.c **** 		CYMEMZERO((void CYFAR *)(CYREG_PHUB_CFGMEM0_CFG0), 4u);
 627              		.loc 1 436 0
 628 0064 2B48     		ldr	r0, .L29+20
 629 0066 0421     		movs	r1, #4
 630 0068 FFF7FEFF 		bl	CYMEMZERO
 437:.\Generated_Source\PSoC5/cyfitter_cfg.c **** 		CYCONFIGCPYCODE((void CYFAR *)(CYREG_PHUB_CFGMEM1_CFG0), (const void CYCODE *)(BS_PHUB_CFGMEM1_VA
 631              		.loc 1 437 0
 632 006c 2A48     		ldr	r0, .L29+24
 633 006e 2B49     		ldr	r1, .L29+28
 634 0070 0422     		movs	r2, #4
 635 0072 FFF7FEFF 		bl	CYCONFIGCPYCODE
 438:.\Generated_Source\PSoC5/cyfitter_cfg.c **** 		CYMEMZERO((void CYFAR *)(CYREG_PHUB_CFGMEM5_CFG0), 4u);
 636              		.loc 1 438 0
 637 0076 2A48     		ldr	r0, .L29+32
ARM GAS  C:\Users\LUKASC~1\AppData\Local\Temp\cc429IQI.s 			page 20


 638 0078 0421     		movs	r1, #4
 639 007a FFF7FEFF 		bl	CYMEMZERO
 439:.\Generated_Source\PSoC5/cyfitter_cfg.c **** 
 440:.\Generated_Source\PSoC5/cyfitter_cfg.c **** 		/* Enable digital routing */
 441:.\Generated_Source\PSoC5/cyfitter_cfg.c **** 		CY_SET_XTND_REG8((void CYFAR *)CYREG_BCTL0_BANK_CTL, CY_GET_XTND_REG8((void CYFAR *)CYREG_BCTL0_B
 640              		.loc 1 441 0
 641 007e 294A     		ldr	r2, .L29+36
 642 0080 284B     		ldr	r3, .L29+36
 643 0082 1B78     		ldrb	r3, [r3]
 644 0084 DBB2     		uxtb	r3, r3
 645 0086 43F00203 		orr	r3, r3, #2
 646 008a DBB2     		uxtb	r3, r3
 647 008c 1370     		strb	r3, [r2]
 442:.\Generated_Source\PSoC5/cyfitter_cfg.c **** 		CY_SET_XTND_REG8((void CYFAR *)CYREG_BCTL1_BANK_CTL, CY_GET_XTND_REG8((void CYFAR *)CYREG_BCTL1_B
 648              		.loc 1 442 0
 649 008e 264A     		ldr	r2, .L29+40
 650 0090 254B     		ldr	r3, .L29+40
 651 0092 1B78     		ldrb	r3, [r3]
 652 0094 DBB2     		uxtb	r3, r3
 653 0096 43F00203 		orr	r3, r3, #2
 654 009a DBB2     		uxtb	r3, r3
 655 009c 1370     		strb	r3, [r2]
 443:.\Generated_Source\PSoC5/cyfitter_cfg.c **** 
 444:.\Generated_Source\PSoC5/cyfitter_cfg.c **** 		/* Enable UDB array */
 445:.\Generated_Source\PSoC5/cyfitter_cfg.c **** 		CY_SET_XTND_REG8((void CYFAR *)CYREG_PM_ACT_CFG0, CY_GET_XTND_REG8((void CYFAR *)CYREG_PM_ACT_CFG
 656              		.loc 1 445 0
 657 009e 234A     		ldr	r2, .L29+44
 658 00a0 224B     		ldr	r3, .L29+44
 659 00a2 1B78     		ldrb	r3, [r3]
 660 00a4 DBB2     		uxtb	r3, r3
 661 00a6 43F04003 		orr	r3, r3, #64
 662 00aa DBB2     		uxtb	r3, r3
 663 00ac 1370     		strb	r3, [r2]
 446:.\Generated_Source\PSoC5/cyfitter_cfg.c **** 		CY_SET_XTND_REG8((void CYFAR *)CYREG_PM_AVAIL_CR2, CY_GET_XTND_REG8((void CYFAR *)CYREG_PM_AVAIL_
 664              		.loc 1 446 0
 665 00ae 204A     		ldr	r2, .L29+48
 666 00b0 1F4B     		ldr	r3, .L29+48
 667 00b2 1B78     		ldrb	r3, [r3]
 668 00b4 DBB2     		uxtb	r3, r3
 669 00b6 43F01003 		orr	r3, r3, #16
 670 00ba DBB2     		uxtb	r3, r3
 671 00bc 1370     		strb	r3, [r2]
 672              	.LBE3:
 447:.\Generated_Source\PSoC5/cyfitter_cfg.c **** 	}
 448:.\Generated_Source\PSoC5/cyfitter_cfg.c **** 
 449:.\Generated_Source\PSoC5/cyfitter_cfg.c **** 
 450:.\Generated_Source\PSoC5/cyfitter_cfg.c **** 	/* Perform second pass device configuration. These items must be configured in specific order afte
 451:.\Generated_Source\PSoC5/cyfitter_cfg.c **** 	CYCONFIGCPYCODE((void CYFAR *)(CYREG_PRT0_DM0), (const void CYCODE *)(BS_IOPINS0_0_VAL), 8u);
 673              		.loc 1 451 0
 674 00be 1D48     		ldr	r0, .L29+52
 675 00c0 1D49     		ldr	r1, .L29+56
 676 00c2 0822     		movs	r2, #8
 677 00c4 FFF7FEFF 		bl	CYCONFIGCPYCODE
 452:.\Generated_Source\PSoC5/cyfitter_cfg.c **** 	CYCONFIGCPYCODE((void CYFAR *)(CYREG_PRT15_DR), (const void CYCODE *)(BS_IOPINS0_8_VAL), 10u);
 678              		.loc 1 452 0
 679 00c8 1C48     		ldr	r0, .L29+60
 680 00ca 1D49     		ldr	r1, .L29+64
ARM GAS  C:\Users\LUKASC~1\AppData\Local\Temp\cc429IQI.s 			page 21


 681 00cc 0A22     		movs	r2, #10
 682 00ce FFF7FEFF 		bl	CYCONFIGCPYCODE
 453:.\Generated_Source\PSoC5/cyfitter_cfg.c **** 	CYCONFIGCPYCODE((void CYFAR *)(CYREG_PRT2_DM0), (const void CYCODE *)(BS_IOPINS0_2_VAL), 8u);
 683              		.loc 1 453 0
 684 00d2 1C48     		ldr	r0, .L29+68
 685 00d4 1C49     		ldr	r1, .L29+72
 686 00d6 0822     		movs	r2, #8
 687 00d8 FFF7FEFF 		bl	CYCONFIGCPYCODE
 454:.\Generated_Source\PSoC5/cyfitter_cfg.c **** 	/* Switch Boost to the precision bandgap reference from its internal reference */
 455:.\Generated_Source\PSoC5/cyfitter_cfg.c **** 	CY_SET_REG8((void CYXDATA *)CYREG_BOOST_CR2, (CY_GET_REG8((void CYXDATA *)CYREG_BOOST_CR2) | 0x08u
 688              		.loc 1 455 0
 689 00dc 1B4A     		ldr	r2, .L29+76
 690 00de 1B4B     		ldr	r3, .L29+76
 691 00e0 1B78     		ldrb	r3, [r3]
 692 00e2 DBB2     		uxtb	r3, r3
 693 00e4 43F00803 		orr	r3, r3, #8
 694 00e8 DBB2     		uxtb	r3, r3
 695 00ea 1370     		strb	r3, [r2]
 456:.\Generated_Source\PSoC5/cyfitter_cfg.c **** 
 457:.\Generated_Source\PSoC5/cyfitter_cfg.c **** 	/* Perform basic analog initialization to defaults */
 458:.\Generated_Source\PSoC5/cyfitter_cfg.c **** 	AnalogSetDefault();
 696              		.loc 1 458 0
 697 00ec FFF7FEFF 		bl	AnalogSetDefault
 459:.\Generated_Source\PSoC5/cyfitter_cfg.c **** 
 460:.\Generated_Source\PSoC5/cyfitter_cfg.c **** 	/* Configure alternate active mode */
 461:.\Generated_Source\PSoC5/cyfitter_cfg.c **** 	CYCONFIGCPY((void CYFAR *)CYDEV_PM_STBY_BASE, (const void CYFAR *)CYDEV_PM_ACT_BASE, 14u);
 698              		.loc 1 461 0
 699 00f0 1748     		ldr	r0, .L29+80
 700 00f2 0E49     		ldr	r1, .L29+44
 701 00f4 0E22     		movs	r2, #14
 702 00f6 FFF7FEFF 		bl	CYCONFIGCPY
 462:.\Generated_Source\PSoC5/cyfitter_cfg.c **** }
 703              		.loc 1 462 0
 704 00fa 0837     		adds	r7, r7, #8
 705              		.cfi_def_cfa_offset 8
 706 00fc BD46     		mov	sp, r7
 707              		.cfi_def_cfa_register 13
 708              		@ sp needed
 709 00fe 80BD     		pop	{r7, pc}
 710              	.L30:
 711              		.align	2
 712              	.L29:
 713 0100 00480040 		.word	1073760256
 714 0104 E8460040 		.word	1073759976
 715 0108 00000000 		.word	cfg_memset_list.4890
 716 010c 30000000 		.word	cy_cfg_addr_table.4884
 717 0110 60000000 		.word	cy_cfg_data_table.4885
 718 0114 00760040 		.word	1073772032
 719 0118 08760040 		.word	1073772040
 720 011c AC000000 		.word	BS_PHUB_CFGMEM1_VAL.4883
 721 0120 28760040 		.word	1073772072
 722 0124 03500140 		.word	1073827843
 723 0128 13500140 		.word	1073827859
 724 012c A0430040 		.word	1073759136
 725 0130 C2430040 		.word	1073759170
 726 0134 02510040 		.word	1073762562
 727 0138 B0000000 		.word	BS_IOPINS0_0_VAL.4880
ARM GAS  C:\Users\LUKASC~1\AppData\Local\Temp\cc429IQI.s 			page 22


 728 013c F0510040 		.word	1073762800
 729 0140 B8000000 		.word	BS_IOPINS0_8_VAL.4881
 730 0144 22510040 		.word	1073762594
 731 0148 C4000000 		.word	BS_IOPINS0_2_VAL.4882
 732 014c 22430040 		.word	1073759010
 733 0150 B0430040 		.word	1073759152
 734              		.cfi_endproc
 735              	.LFE8:
 736              		.size	cyfitter_cfg, .-cyfitter_cfg
 737              		.section	.rodata
 738              		.align	2
 739              		.type	cfg_memset_list.4890, %object
 740              		.size	cfg_memset_list.4890, 48
 741              	cfg_memset_list.4890:
 742 0000 10510040 		.word	1073762576
 743 0004 1000     		.short	16
 744 0006 30510040 		.4byte	1073762608
 745 000a 4000     		.short	64
 746 000c C0510040 		.word	1073762752
 747 0010 1000     		.short	16
 748 0012 00000140 		.4byte	1073807360
 749 0016 0010     		.short	4096
 750 0018 00140140 		.word	1073812480
 751 001c 0008     		.short	2048
 752 001e 00400140 		.4byte	1073823744
 753 0022 000A     		.short	2560
 754 0024 004C0140 		.word	1073826816
 755 0028 0002     		.short	512
 756 002a 00500140 		.4byte	1073827840
 757 002e 2000     		.short	32
 758              		.align	2
 759              		.type	cy_cfg_addr_table.4884, %object
 760              		.size	cy_cfg_addr_table.4884, 48
 761              	cy_cfg_addr_table.4884:
 762 0030 01450040 		.word	1073759489
 763 0034 01520040 		.word	1073762817
 764 0038 02170140 		.word	1073813250
 765 003c 02190140 		.word	1073813762
 766 0040 08400140 		.word	1073823752
 767 0044 03410140 		.word	1073824003
 768 0048 03420140 		.word	1073824259
 769 004c 03430140 		.word	1073824515
 770 0050 04470140 		.word	1073825540
 771 0054 07480140 		.word	1073825799
 772 0058 024C0140 		.word	1073826818
 773 005c 02510140 		.word	1073828098
 774              		.align	2
 775              		.type	cy_cfg_data_table.4885, %object
 776              		.size	cy_cfg_data_table.4885, 76
 777              	cy_cfg_data_table.4885:
 778 0060 7E       		.byte	126
 779 0061 02       		.byte	2
 780 0062 7C       		.byte	124
 781 0063 40       		.byte	64
 782 0064 EA       		.byte	-22
 783 0065 02       		.byte	2
 784 0066 EE       		.byte	-18
ARM GAS  C:\Users\LUKASC~1\AppData\Local\Temp\cc429IQI.s 			page 23


 785 0067 02       		.byte	2
 786 0068 EA       		.byte	-22
 787 0069 02       		.byte	2
 788 006a EE       		.byte	-18
 789 006b 02       		.byte	2
 790 006c 14       		.byte	20
 791 006d 40       		.byte	64
 792 006e 30       		.byte	48
 793 006f 40       		.byte	64
 794 0070 33       		.byte	51
 795 0071 01       		.byte	1
 796 0072 36       		.byte	54
 797 0073 40       		.byte	64
 798 0074 38       		.byte	56
 799 0075 08       		.byte	8
 800 0076 C4       		.byte	-60
 801 0077 20       		.byte	32
 802 0078 CC       		.byte	-52
 803 0079 70       		.byte	112
 804 007a CE       		.byte	-50
 805 007b 40       		.byte	64
 806 007c 94       		.byte	-108
 807 007d 08       		.byte	8
 808 007e 9F       		.byte	-97
 809 007f 01       		.byte	1
 810 0080 A6       		.byte	-90
 811 0081 40       		.byte	64
 812 0082 94       		.byte	-108
 813 0083 08       		.byte	8
 814 0084 9F       		.byte	-97
 815 0085 01       		.byte	1
 816 0086 A6       		.byte	-90
 817 0087 40       		.byte	64
 818 0088 94       		.byte	-108
 819 0089 08       		.byte	8
 820 008a 9F       		.byte	-97
 821 008b 01       		.byte	1
 822 008c A6       		.byte	-90
 823 008d 40       		.byte	64
 824 008e 0B       		.byte	11
 825 008f 40       		.byte	64
 826 0090 16       		.byte	22
 827 0091 10       		.byte	16
 828 0092 C2       		.byte	-62
 829 0093 08       		.byte	8
 830 0094 C4       		.byte	-60
 831 0095 04       		.byte	4
 832 0096 24       		.byte	36
 833 0097 08       		.byte	8
 834 0098 94       		.byte	-108
 835 0099 08       		.byte	8
 836 009a AE       		.byte	-82
 837 009b 40       		.byte	64
 838 009c AF       		.byte	-81
 839 009d 01       		.byte	1
 840 009e C8       		.byte	-56
 841 009f 20       		.byte	32
ARM GAS  C:\Users\LUKASC~1\AppData\Local\Temp\cc429IQI.s 			page 24


 842 00a0 EA       		.byte	-22
 843 00a1 40       		.byte	64
 844 00a2 EE       		.byte	-18
 845 00a3 40       		.byte	64
 846 00a4 AE       		.byte	-82
 847 00a5 10       		.byte	16
 848 00a6 AF       		.byte	-81
 849 00a7 40       		.byte	64
 850 00a8 00       		.byte	0
 851 00a9 2B       		.byte	43
 852 00aa 10       		.byte	16
 853 00ab 08       		.byte	8
 854              		.align	2
 855              		.type	BS_PHUB_CFGMEM1_VAL.4883, %object
 856              		.size	BS_PHUB_CFGMEM1_VAL.4883, 4
 857              	BS_PHUB_CFGMEM1_VAL.4883:
 858 00ac 00       		.byte	0
 859 00ad 01       		.byte	1
 860 00ae 00       		.byte	0
 861 00af 00       		.byte	0
 862              		.align	2
 863              		.type	BS_IOPINS0_0_VAL.4880, %object
 864              		.size	BS_IOPINS0_0_VAL.4880, 8
 865              	BS_IOPINS0_0_VAL.4880:
 866 00b0 00       		.byte	0
 867 00b1 00       		.byte	0
 868 00b2 00       		.byte	0
 869 00b3 00       		.byte	0
 870 00b4 00       		.byte	0
 871 00b5 00       		.byte	0
 872 00b6 01       		.byte	1
 873 00b7 00       		.byte	0
 874              		.align	2
 875              		.type	BS_IOPINS0_8_VAL.4881, %object
 876              		.size	BS_IOPINS0_8_VAL.4881, 10
 877              	BS_IOPINS0_8_VAL.4881:
 878 00b8 40       		.byte	64
 879 00b9 00       		.byte	0
 880 00ba 00       		.byte	0
 881 00bb 00       		.byte	0
 882 00bc 00       		.byte	0
 883 00bd 00       		.byte	0
 884 00be 00       		.byte	0
 885 00bf 00       		.byte	0
 886 00c0 C0       		.byte	-64
 887 00c1 00       		.byte	0
 888 00c2 0000     		.align	2
 889              		.type	BS_IOPINS0_2_VAL.4882, %object
 890              		.size	BS_IOPINS0_2_VAL.4882, 8
 891              	BS_IOPINS0_2_VAL.4882:
 892 00c4 00       		.byte	0
 893 00c5 7F       		.byte	127
 894 00c6 7F       		.byte	127
 895 00c7 00       		.byte	0
 896 00c8 00       		.byte	0
 897 00c9 00       		.byte	0
 898 00ca 00       		.byte	0
ARM GAS  C:\Users\LUKASC~1\AppData\Local\Temp\cc429IQI.s 			page 25


 899 00cb 00       		.byte	0
 900              		.text
 901              	.Letext0:
 902              		.file 2 "c:\\program files (x86)\\cypress\\psoc creator\\3.3\\psoc creator\\import\\gnu\\arm\\4.9.
 903              		.file 3 ".\\Generated_Source\\PSoC5\\cytypes.h"