ARM GAS  C:\Users\LUKASC~1\AppData\Local\Temp\ccPT6cHE.s 			page 1


   1              		.syntax unified
   2              		.cpu cortex-m3
   3              		.fpu softvfp
   4              		.eabi_attribute 20, 1
   5              		.eabi_attribute 21, 1
   6              		.eabi_attribute 23, 3
   7              		.eabi_attribute 24, 1
   8              		.eabi_attribute 25, 1
   9              		.eabi_attribute 26, 1
  10              		.eabi_attribute 30, 6
  11              		.eabi_attribute 34, 1
  12              		.eabi_attribute 18, 4
  13              		.thumb
  14              		.file	"main.c"
  15              		.text
  16              	.Ltext0:
  17              		.cfi_sections	.debug_frame
  18              		.comm	soundBuffer,320,4
  19              		.global	outIndex
  20              		.bss
  21              		.align	1
  22              		.type	outIndex, %object
  23              		.size	outIndex, 2
  24              	outIndex:
  25 0000 0000     		.space	2
  26              		.global	inIndex
  27              		.align	1
  28              		.type	inIndex, %object
  29              		.size	inIndex, 2
  30              	inIndex:
  31 0002 0000     		.space	2
  32              		.global	syncDma
  33              		.type	syncDma, %object
  34              		.size	syncDma, 1
  35              	syncDma:
  36 0004 00       		.space	1
  37              		.global	syncDmaCounter
  38              		.type	syncDmaCounter, %object
  39              		.size	syncDmaCounter, 1
  40              	syncDmaCounter:
  41 0005 00       		.space	1
  42              		.comm	VdacOutDmaCh,1,1
  43              		.comm	VdacOutDmaTd,10,4
  44              		.section	.rodata
  45              		.align	2
  46              	.LC0:
  47 0000 5553422D 		.ascii	"USB->DMA->DAC\000"
  47      3E444D41 
  47      2D3E4441 
  47      4300
  48 000e 0000     		.align	2
  49              	.LC1:
  50 0010 41756469 		.ascii	"Audio ON \000"
  50      6F204F4E 
  50      2000
  51 001a 0000     		.align	2
  52              	.LC2:
ARM GAS  C:\Users\LUKASC~1\AppData\Local\Temp\ccPT6cHE.s 			page 2


  53 001c 41756469 		.ascii	"Audio OFF\000"
  53      6F204F46 
  53      4600
  54 0026 0000     		.section	.text.main,"ax",%progbits
  55              		.align	2
  56              		.global	main
  57              		.thumb
  58              		.thumb_func
  59              		.type	main, %function
  60              	main:
  61              	.LFB63:
  62              		.file 1 ".\\main.c"
   1:.\main.c      **** /*******************************************************************************
   2:.\main.c      **** * File Name: main.c
   3:.\main.c      **** *
   4:.\main.c      **** * Version: 2.0
   5:.\main.c      **** *
   6:.\main.c      **** * Description:
   7:.\main.c      **** *  This USB example project implements a USB Audio Device that connects to the
   8:.\main.c      **** *  PC via the USB interface. The USB Audio Device does not require a special
   9:.\main.c      **** *  USB driver, because the USB Audio support is already built into Windows.
  10:.\main.c      **** *  The device appears in the system as a mono speaker with 8-bit resolution and
  11:.\main.c      **** *  a sample rate of 32 kHz.
  12:.\main.c      **** *
  13:.\main.c      **** ********************************************************************************
  14:.\main.c      **** * Copyright 2012-2015, Cypress Semiconductor Corporation. All rights reserved.
  15:.\main.c      **** * This software is owned by Cypress Semiconductor Corporation and is protected
  16:.\main.c      **** * by and subject to worldwide patent and copyright laws and treaties.
  17:.\main.c      **** * Therefore, you may use this software only as provided in the license agreement
  18:.\main.c      **** * accompanying the software package from which you obtained this software.
  19:.\main.c      **** * CYPRESS AND ITS SUPPLIERS MAKE NO WARRANTY OF ANY KIND, EXPRESS OR IMPLIED,
  20:.\main.c      **** * WITH REGARD TO THIS SOFTWARE, INCLUDING, BUT NOT LIMITED TO, NONINFRINGEMENT,
  21:.\main.c      **** * IMPLIED WARRANTIES OF MERCHANTABILITY AND FITNESS FOR A PARTICULAR PURPOSE.
  22:.\main.c      **** *******************************************************************************/
  23:.\main.c      **** 
  24:.\main.c      **** #include <project.h>
  25:.\main.c      **** 
  26:.\main.c      **** /* UBSFS device constants. */
  27:.\main.c      **** #define USBFS_AUDIO_DEVICE  (0u)
  28:.\main.c      **** #define AUDIO_INTERFACE     (1u)
  29:.\main.c      **** #define OUT_EP_NUM          (2u)
  30:.\main.c      **** 
  31:.\main.c      **** /* Audio buffer constants. */
  32:.\main.c      **** #define TRANSFER_SIZE   (32u)
  33:.\main.c      **** #define NUM_OF_BUFFERS  (10u)
  34:.\main.c      **** #define BUFFER_SIZE     (TRANSFER_SIZE * NUM_OF_BUFFERS)
  35:.\main.c      **** 
  36:.\main.c      **** /* Circular buffer for audio stream. */
  37:.\main.c      **** uint8 soundBuffer[BUFFER_SIZE];
  38:.\main.c      **** volatile uint16 outIndex = 0u;
  39:.\main.c      **** volatile uint16 inIndex  = 0u;
  40:.\main.c      **** 
  41:.\main.c      **** /* Variables used to manage DMA. */
  42:.\main.c      **** volatile uint8 syncDma = 0u;
  43:.\main.c      **** volatile uint8 syncDmaCounter = 0u;
  44:.\main.c      **** 
  45:.\main.c      **** /* Variable declarations for VDACoutDMA. */
ARM GAS  C:\Users\LUKASC~1\AppData\Local\Temp\ccPT6cHE.s 			page 3


  46:.\main.c      **** uint8 VdacOutDmaCh;
  47:.\main.c      **** uint8 VdacOutDmaTd[NUM_OF_BUFFERS];
  48:.\main.c      **** 
  49:.\main.c      **** /* DMA Configuration for VDACoutDMA (Memory to VDAC) */
  50:.\main.c      **** #define VDAC_DMA_BYTES_PER_BURST    (1u)
  51:.\main.c      **** #define VDAC_DMA_REQUEST_PER_BURST  (1u)
  52:.\main.c      **** #define VDAC_DMA_TD_TERMOUT_EN      (VdacDma__TD_TERMOUT_EN)
  53:.\main.c      **** #define VDAC_DMA_DST_BASE           (CYDEV_PERIPH_BASE)
  54:.\main.c      **** #define VDAC_DMA_SRC_BASE           (CY_PSOC5LP) ? ((uint32) soundBuffer) : (CYDEV_SRAM_BASE)
  55:.\main.c      **** #define VDAC_DMA_ENABLE_PRESERVE_TD (1u)
  56:.\main.c      **** 
  57:.\main.c      **** CY_ISR_PROTO(VdacDmaDone);
  58:.\main.c      **** 
  59:.\main.c      **** /*******************************************************************************
  60:.\main.c      **** * Function Name: main
  61:.\main.c      **** ********************************************************************************
  62:.\main.c      **** *
  63:.\main.c      **** * Summary:
  64:.\main.c      **** *
  65:.\main.c      **** *  The main function performs the following actions:
  66:.\main.c      **** *   1. Initializes LCD and VDAC components.
  67:.\main.c      **** *   2. Configures the DMA channel and transfers the descriptors.
  68:.\main.c      **** *      The source is souundBuffer (SRAM) and the destination is the VDAC data register.
  69:.\main.c      **** *   3. Starts the USBFS component and waits until the device is got enumerated
  70:.\main.c      **** *      by the host.
  71:.\main.c      **** *   4. When the PC starts streaming, the DMA starts copying data into the VDAC with
  72:.\main.c      **** *      the 32-kHz frequency. None of the synchronization methods is implemented:
  73:.\main.c      **** *      If the PC (source) transfers data faster than the device (sink), transfers it  ????
  74:.\main.c      **** *      to VDAC the extra samples are dropped.
  75:.\main.c      **** *      If the PC (source) transfers data slower than the device (sink), transfers it  ????
  76:.\main.c      **** *      to VDAC the transfer is stopped and starts after the buffer is half-full.
  77:.\main.c      **** *
  78:.\main.c      **** * Parameters:
  79:.\main.c      **** *  None.
  80:.\main.c      **** *
  81:.\main.c      **** * Return:
  82:.\main.c      **** *  None.
  83:.\main.c      **** *
  84:.\main.c      **** *******************************************************************************/
  85:.\main.c      **** int main()
  86:.\main.c      **** {
  63              		.loc 1 86 0
  64              		.cfi_startproc
  65              		@ args = 0, pretend = 0, frame = 8
  66              		@ frame_needed = 1, uses_anonymous_args = 0
  67 0000 90B5     		push	{r4, r7, lr}
  68              		.cfi_def_cfa_offset 12
  69              		.cfi_offset 4, -12
  70              		.cfi_offset 7, -8
  71              		.cfi_offset 14, -4
  72 0002 83B0     		sub	sp, sp, #12
  73              		.cfi_def_cfa_offset 24
  74 0004 00AF     		add	r7, sp, #0
  75              		.cfi_def_cfa_register 7
  87:.\main.c      ****     uint8 i;
  88:.\main.c      ****     uint8 skipNextOut = 0u;
  76              		.loc 1 88 0
ARM GAS  C:\Users\LUKASC~1\AppData\Local\Temp\ccPT6cHE.s 			page 4


  77 0006 0023     		movs	r3, #0
  78 0008 BB71     		strb	r3, [r7, #6]
  89:.\main.c      **** 
  90:.\main.c      ****     /* Start LCD display for indication. */
  91:.\main.c      ****     LCD_Start();
  79              		.loc 1 91 0
  80 000a FFF7FEFF 		bl	LCD_Start
  92:.\main.c      ****     LCD_PrintString("USB->DMA->DAC");
  81              		.loc 1 92 0
  82 000e 8048     		ldr	r0, .L19
  83 0010 FFF7FEFF 		bl	LCD_PrintString
  93:.\main.c      **** 
  94:.\main.c      ****     /* Start VDAC8 to generate output wave. */
  95:.\main.c      ****     VDAC8_Start();
  84              		.loc 1 95 0
  85 0014 FFF7FEFF 		bl	VDAC8_Start
  96:.\main.c      **** 
  97:.\main.c      ****     /* Initialize DMA channel. */
  98:.\main.c      ****     VdacOutDmaCh = VdacDma_DmaInitialize(VDAC_DMA_BYTES_PER_BURST, VDAC_DMA_REQUEST_PER_BURST,
  99:.\main.c      ****                                             HI16(VDAC_DMA_SRC_BASE), HI16(VDAC_DMA_DST_BASE));
  86              		.loc 1 99 0
  87 0018 7E4B     		ldr	r3, .L19+4
  88 001a 1B0C     		lsrs	r3, r3, #16
  98:.\main.c      ****                                             HI16(VDAC_DMA_SRC_BASE), HI16(VDAC_DMA_DST_BASE));
  89              		.loc 1 98 0
  90 001c 9BB2     		uxth	r3, r3
  91 001e 0120     		movs	r0, #1
  92 0020 0121     		movs	r1, #1
  93 0022 1A46     		mov	r2, r3
  94 0024 4FF48043 		mov	r3, #16384
  95 0028 FFF7FEFF 		bl	VdacDma_DmaInitialize
  96 002c 0346     		mov	r3, r0
  97 002e 1A46     		mov	r2, r3
  98 0030 794B     		ldr	r3, .L19+8
  99 0032 1A70     		strb	r2, [r3]
 100:.\main.c      **** 
 101:.\main.c      ****     /* Allocate transfer descriptors for each buffer chunk. */
 102:.\main.c      ****     for (i = 0u; i < NUM_OF_BUFFERS; ++i)
 100              		.loc 1 102 0
 101 0034 0023     		movs	r3, #0
 102 0036 FB71     		strb	r3, [r7, #7]
 103 0038 09E0     		b	.L2
 104              	.L3:
 103:.\main.c      ****     {
 104:.\main.c      ****         VdacOutDmaTd[i] = CyDmaTdAllocate();
 105              		.loc 1 104 0 discriminator 3
 106 003a FC79     		ldrb	r4, [r7, #7]	@ zero_extendqisi2
 107 003c FFF7FEFF 		bl	CyDmaTdAllocate
 108 0040 0346     		mov	r3, r0
 109 0042 1A46     		mov	r2, r3
 110 0044 754B     		ldr	r3, .L19+12
 111 0046 1A55     		strb	r2, [r3, r4]
 102:.\main.c      ****     {
 112              		.loc 1 102 0 discriminator 3
 113 0048 FB79     		ldrb	r3, [r7, #7]
 114 004a 0133     		adds	r3, r3, #1
 115 004c FB71     		strb	r3, [r7, #7]
ARM GAS  C:\Users\LUKASC~1\AppData\Local\Temp\ccPT6cHE.s 			page 5


 116              	.L2:
 102:.\main.c      ****     {
 117              		.loc 1 102 0 is_stmt 0 discriminator 1
 118 004e FB79     		ldrb	r3, [r7, #7]	@ zero_extendqisi2
 119 0050 092B     		cmp	r3, #9
 120 0052 F2D9     		bls	.L3
 105:.\main.c      ****     }
 106:.\main.c      **** 
 107:.\main.c      ****     /* Configure DMA transfer descriptors. */
 108:.\main.c      ****     for (i = 0u; i < (NUM_OF_BUFFERS - 1u); ++i)
 121              		.loc 1 108 0 is_stmt 1
 122 0054 0023     		movs	r3, #0
 123 0056 FB71     		strb	r3, [r7, #7]
 124 0058 0FE0     		b	.L4
 125              	.L5:
 109:.\main.c      ****     {
 110:.\main.c      ****         /* Chain current and next DMA transfer descriptors to be in row. */
 111:.\main.c      ****         CyDmaTdSetConfiguration(VdacOutDmaTd[i], TRANSFER_SIZE, VdacOutDmaTd[i + 1u],
 126              		.loc 1 111 0 discriminator 3
 127 005a FB79     		ldrb	r3, [r7, #7]	@ zero_extendqisi2
 128 005c 6F4A     		ldr	r2, .L19+12
 129 005e D15C     		ldrb	r1, [r2, r3]	@ zero_extendqisi2
 130 0060 FB79     		ldrb	r3, [r7, #7]	@ zero_extendqisi2
 131 0062 0133     		adds	r3, r3, #1
 132 0064 6D4A     		ldr	r2, .L19+12
 133 0066 D35C     		ldrb	r3, [r2, r3]	@ zero_extendqisi2
 134 0068 0846     		mov	r0, r1
 135 006a 2021     		movs	r1, #32
 136 006c 1A46     		mov	r2, r3
 137 006e 0523     		movs	r3, #5
 138 0070 FFF7FEFF 		bl	CyDmaTdSetConfiguration
 108:.\main.c      ****     {
 139              		.loc 1 108 0 discriminator 3
 140 0074 FB79     		ldrb	r3, [r7, #7]
 141 0076 0133     		adds	r3, r3, #1
 142 0078 FB71     		strb	r3, [r7, #7]
 143              	.L4:
 108:.\main.c      ****     {
 144              		.loc 1 108 0 is_stmt 0 discriminator 1
 145 007a FB79     		ldrb	r3, [r7, #7]	@ zero_extendqisi2
 146 007c 082B     		cmp	r3, #8
 147 007e ECD9     		bls	.L5
 112:.\main.c      ****                                 (TD_INC_SRC_ADR | VDAC_DMA_TD_TERMOUT_EN));
 113:.\main.c      ****     }
 114:.\main.c      ****     /* Chain last and 1st DMA transfer descriptors to make cyclic buffer. */
 115:.\main.c      ****     CyDmaTdSetConfiguration(VdacOutDmaTd[NUM_OF_BUFFERS - 1u], TRANSFER_SIZE, VdacOutDmaTd[0u],
 148              		.loc 1 115 0 is_stmt 1
 149 0080 664B     		ldr	r3, .L19+12
 150 0082 5A7A     		ldrb	r2, [r3, #9]	@ zero_extendqisi2
 151 0084 654B     		ldr	r3, .L19+12
 152 0086 1B78     		ldrb	r3, [r3]	@ zero_extendqisi2
 153 0088 1046     		mov	r0, r2
 154 008a 2021     		movs	r1, #32
 155 008c 1A46     		mov	r2, r3
 156 008e 0523     		movs	r3, #5
 157 0090 FFF7FEFF 		bl	CyDmaTdSetConfiguration
 116:.\main.c      ****                                 (TD_INC_SRC_ADR | VDAC_DMA_TD_TERMOUT_EN));
ARM GAS  C:\Users\LUKASC~1\AppData\Local\Temp\ccPT6cHE.s 			page 6


 117:.\main.c      **** 
 118:.\main.c      **** 
 119:.\main.c      ****     for (i = 0u; i < NUM_OF_BUFFERS; i++)
 158              		.loc 1 119 0
 159 0094 0023     		movs	r3, #0
 160 0096 FB71     		strb	r3, [r7, #7]
 161 0098 10E0     		b	.L6
 162              	.L7:
 120:.\main.c      ****     {
 121:.\main.c      ****         /* Set source and destination addresses. */
 122:.\main.c      ****         CyDmaTdSetAddress(VdacOutDmaTd[i], LO16((uint32) &soundBuffer[i * TRANSFER_SIZE]),
 163              		.loc 1 122 0 discriminator 3
 164 009a FB79     		ldrb	r3, [r7, #7]	@ zero_extendqisi2
 165 009c 5F4A     		ldr	r2, .L19+12
 166 009e D15C     		ldrb	r1, [r2, r3]	@ zero_extendqisi2
 167 00a0 FB79     		ldrb	r3, [r7, #7]	@ zero_extendqisi2
 168 00a2 5B01     		lsls	r3, r3, #5
 169 00a4 5B4A     		ldr	r2, .L19+4
 170 00a6 1344     		add	r3, r3, r2
 171 00a8 9BB2     		uxth	r3, r3
 172 00aa 0846     		mov	r0, r1
 173 00ac 1946     		mov	r1, r3
 174 00ae 45F68232 		movw	r2, #23426
 175 00b2 FFF7FEFF 		bl	CyDmaTdSetAddress
 119:.\main.c      ****     {
 176              		.loc 1 119 0 discriminator 3
 177 00b6 FB79     		ldrb	r3, [r7, #7]	@ zero_extendqisi2
 178 00b8 0133     		adds	r3, r3, #1
 179 00ba FB71     		strb	r3, [r7, #7]
 180              	.L6:
 119:.\main.c      ****     {
 181              		.loc 1 119 0 is_stmt 0 discriminator 1
 182 00bc FB79     		ldrb	r3, [r7, #7]	@ zero_extendqisi2
 183 00be 092B     		cmp	r3, #9
 184 00c0 EBD9     		bls	.L7
 123:.\main.c      ****                                            LO16((uint32) VDAC8_Data_PTR));
 124:.\main.c      ****     }
 125:.\main.c      **** 
 126:.\main.c      ****     /* Set 1st transfer descriptor to execute. */
 127:.\main.c      ****     CyDmaChSetInitialTd(VdacOutDmaCh, VdacOutDmaTd[0u]);
 185              		.loc 1 127 0 is_stmt 1
 186 00c2 554B     		ldr	r3, .L19+8
 187 00c4 1A78     		ldrb	r2, [r3]	@ zero_extendqisi2
 188 00c6 554B     		ldr	r3, .L19+12
 189 00c8 1B78     		ldrb	r3, [r3]	@ zero_extendqisi2
 190 00ca 1046     		mov	r0, r2
 191 00cc 1946     		mov	r1, r3
 192 00ce FFF7FEFF 		bl	CyDmaChSetInitialTd
 128:.\main.c      **** 
 129:.\main.c      ****     /* Start DMA completion interrupt. */
 130:.\main.c      ****     DmaDone_StartEx(&VdacDmaDone);
 193              		.loc 1 130 0
 194 00d2 5348     		ldr	r0, .L19+16
 195 00d4 FFF7FEFF 		bl	DmaDone_StartEx
 131:.\main.c      **** 
 132:.\main.c      ****     CyGlobalIntEnable;
 196              		.loc 1 132 0
ARM GAS  C:\Users\LUKASC~1\AppData\Local\Temp\ccPT6cHE.s 			page 7


 197              	@ 132 ".\main.c" 1
 198 00d8 62B6     		CPSIE   i
 199              	@ 0 "" 2
 133:.\main.c      **** 
 134:.\main.c      ****     /* Start USBFS Operation with 5V operation. */
 135:.\main.c      ****     USBFS_Start(USBFS_AUDIO_DEVICE, USBFS_5V_OPERATION);
 200              		.loc 1 135 0
 201              		.thumb
 202 00da 0020     		movs	r0, #0
 203 00dc 0121     		movs	r1, #1
 204 00de FFF7FEFF 		bl	USBFS_Start
 136:.\main.c      **** 
 137:.\main.c      ****     /* Wait for device enumeration. */
 138:.\main.c      ****     while (0u == USBFS_GetConfiguration())
 205              		.loc 1 138 0
 206 00e2 00BF     		nop
 207              	.L8:
 208              		.loc 1 138 0 is_stmt 0 discriminator 1
 209 00e4 FFF7FEFF 		bl	USBFS_GetConfiguration
 210 00e8 0346     		mov	r3, r0
 211 00ea 002B     		cmp	r3, #0
 212 00ec FAD0     		beq	.L8
 213              	.L18:
 139:.\main.c      ****     {
 140:.\main.c      ****     }
 141:.\main.c      **** 
 142:.\main.c      ****     for(;;)
 143:.\main.c      ****     {
 144:.\main.c      ****         /* Check if configuration or interface settings are changed. */
 145:.\main.c      ****         if (0u != USBFS_IsConfigurationChanged())
 214              		.loc 1 145 0 is_stmt 1
 215 00ee FFF7FEFF 		bl	USBFS_IsConfigurationChanged
 216 00f2 0346     		mov	r3, r0
 217 00f4 002B     		cmp	r3, #0
 218 00f6 2AD0     		beq	.L9
 146:.\main.c      ****         {
 147:.\main.c      ****             /* Check active alternate setting. */
 148:.\main.c      ****             if ((0u != USBFS_GetConfiguration()) &&
 219              		.loc 1 148 0
 220 00f8 FFF7FEFF 		bl	USBFS_GetConfiguration
 221 00fc 0346     		mov	r3, r0
 222 00fe 002B     		cmp	r3, #0
 223 0100 1ED0     		beq	.L10
 149:.\main.c      ****                 (0u != USBFS_GetInterfaceSetting(AUDIO_INTERFACE)))
 224              		.loc 1 149 0 discriminator 1
 225 0102 0120     		movs	r0, #1
 226 0104 FFF7FEFF 		bl	USBFS_GetInterfaceSetting
 227 0108 0346     		mov	r3, r0
 148:.\main.c      ****                 (0u != USBFS_GetInterfaceSetting(AUDIO_INTERFACE)))
 228              		.loc 1 148 0 discriminator 1
 229 010a 002B     		cmp	r3, #0
 230 010c 18D0     		beq	.L10
 150:.\main.c      ****             {
 151:.\main.c      ****                 /* Alternate settings 1: Audio is streaming. */
 152:.\main.c      **** 
 153:.\main.c      ****                 /* Reset variables. */
 154:.\main.c      ****                 inIndex  = 0u;
ARM GAS  C:\Users\LUKASC~1\AppData\Local\Temp\ccPT6cHE.s 			page 8


 231              		.loc 1 154 0
 232 010e 454B     		ldr	r3, .L19+20
 233 0110 0022     		movs	r2, #0
 234 0112 1A80     		strh	r2, [r3]	@ movhi
 155:.\main.c      ****                 outIndex = 0u;
 235              		.loc 1 155 0
 236 0114 444B     		ldr	r3, .L19+24
 237 0116 0022     		movs	r2, #0
 238 0118 1A80     		strh	r2, [r3]	@ movhi
 156:.\main.c      ****                 syncDma  = 0u;
 239              		.loc 1 156 0
 240 011a 444B     		ldr	r3, .L19+28
 241 011c 0022     		movs	r2, #0
 242 011e 1A70     		strb	r2, [r3]
 157:.\main.c      ****                 skipNextOut = 0u;
 243              		.loc 1 157 0
 244 0120 0023     		movs	r3, #0
 245 0122 BB71     		strb	r3, [r7, #6]
 158:.\main.c      ****                 syncDmaCounter = 0u;
 246              		.loc 1 158 0
 247 0124 424B     		ldr	r3, .L19+32
 248 0126 0022     		movs	r2, #0
 249 0128 1A70     		strb	r2, [r3]
 159:.\main.c      **** 
 160:.\main.c      ****                 /* Enable OUT endpoint to receive audio stream. */
 161:.\main.c      ****                 USBFS_EnableOutEP(OUT_EP_NUM);
 250              		.loc 1 161 0
 251 012a 0220     		movs	r0, #2
 252 012c FFF7FEFF 		bl	USBFS_EnableOutEP
 162:.\main.c      **** 
 163:.\main.c      ****                 LCD_Position(1u, 0u);
 253              		.loc 1 163 0
 254 0130 0120     		movs	r0, #1
 255 0132 0021     		movs	r1, #0
 256 0134 FFF7FEFF 		bl	LCD_Position
 164:.\main.c      ****                 LCD_PrintString("Audio ON ");
 257              		.loc 1 164 0
 258 0138 3E48     		ldr	r0, .L19+36
 259 013a FFF7FEFF 		bl	LCD_PrintString
 260 013e 06E0     		b	.L9
 261              	.L10:
 165:.\main.c      ****             }
 166:.\main.c      ****             else
 167:.\main.c      ****             {
 168:.\main.c      ****                 /* Alternate settings 0: Audio is not streaming (mute). */
 169:.\main.c      **** 
 170:.\main.c      ****                 LCD_Position(1u, 0u);
 262              		.loc 1 170 0
 263 0140 0120     		movs	r0, #1
 264 0142 0021     		movs	r1, #0
 265 0144 FFF7FEFF 		bl	LCD_Position
 171:.\main.c      ****                 LCD_PrintString("Audio OFF");
 266              		.loc 1 171 0
 267 0148 3B48     		ldr	r0, .L19+40
 268 014a FFF7FEFF 		bl	LCD_PrintString
 269              	.L9:
 172:.\main.c      ****             }
ARM GAS  C:\Users\LUKASC~1\AppData\Local\Temp\ccPT6cHE.s 			page 9


 173:.\main.c      ****         }
 174:.\main.c      **** 
 175:.\main.c      ****         if (USBFS_OUT_BUFFER_FULL == USBFS_GetEPState(OUT_EP_NUM))
 270              		.loc 1 175 0
 271 014e 0220     		movs	r0, #2
 272 0150 FFF7FEFF 		bl	USBFS_GetEPState
 273 0154 0346     		mov	r3, r0
 274 0156 012B     		cmp	r3, #1
 275 0158 45D1     		bne	.L11
 176:.\main.c      ****         {
 177:.\main.c      ****             if (0u == skipNextOut)
 276              		.loc 1 177 0
 277 015a BB79     		ldrb	r3, [r7, #6]	@ zero_extendqisi2
 278 015c 002B     		cmp	r3, #0
 279 015e 33D1     		bne	.L12
 178:.\main.c      ****             {
 179:.\main.c      ****                 /* Trigger DMA to copy data from OUT endpoint buffer. */
 180:.\main.c      ****                 USBFS_ReadOutEP(OUT_EP_NUM, &soundBuffer[inIndex * TRANSFER_SIZE],
 280              		.loc 1 180 0
 281 0160 304B     		ldr	r3, .L19+20
 282 0162 1B88     		ldrh	r3, [r3]	@ movhi
 283 0164 9BB2     		uxth	r3, r3
 284 0166 5B01     		lsls	r3, r3, #5
 285 0168 2A4A     		ldr	r2, .L19+4
 286 016a 1344     		add	r3, r3, r2
 287 016c 0220     		movs	r0, #2
 288 016e 1946     		mov	r1, r3
 289 0170 2022     		movs	r2, #32
 290 0172 FFF7FEFF 		bl	USBFS_ReadOutEP
 181:.\main.c      ****                                             TRANSFER_SIZE);
 182:.\main.c      **** 
 183:.\main.c      ****                 /* Wait until DMA completes copying data from OUT endpoint buffer. */
 184:.\main.c      ****                 while (USBFS_OUT_BUFFER_FULL == USBFS_GetEPState(OUT_EP_NUM))
 291              		.loc 1 184 0
 292 0176 00BF     		nop
 293              	.L13:
 294              		.loc 1 184 0 is_stmt 0 discriminator 1
 295 0178 0220     		movs	r0, #2
 296 017a FFF7FEFF 		bl	USBFS_GetEPState
 297 017e 0346     		mov	r3, r0
 298 0180 012B     		cmp	r3, #1
 299 0182 F9D0     		beq	.L13
 185:.\main.c      ****                 {
 186:.\main.c      ****                 }
 187:.\main.c      **** 
 188:.\main.c      ****                 /* Move to the next buffer location and adjust to be within
 189:.\main.c      ****                 * buffer size. Lock from DmaDone interruption.
 190:.\main.c      ****                 */
 191:.\main.c      ****                 DmaDone_Disable();
 300              		.loc 1 191 0 is_stmt 1
 301 0184 FFF7FEFF 		bl	DmaDone_Disable
 192:.\main.c      ****                 ++inIndex;
 302              		.loc 1 192 0
 303 0188 264B     		ldr	r3, .L19+20
 304 018a 1B88     		ldrh	r3, [r3]	@ movhi
 305 018c 9BB2     		uxth	r3, r3
 306 018e 0133     		adds	r3, r3, #1
ARM GAS  C:\Users\LUKASC~1\AppData\Local\Temp\ccPT6cHE.s 			page 10


 307 0190 9AB2     		uxth	r2, r3
 308 0192 244B     		ldr	r3, .L19+20
 309 0194 1A80     		strh	r2, [r3]	@ movhi
 193:.\main.c      ****                 inIndex = (inIndex >= NUM_OF_BUFFERS) ? 0u : inIndex;
 310              		.loc 1 193 0
 311 0196 234B     		ldr	r3, .L19+20
 312 0198 1B88     		ldrh	r3, [r3]	@ movhi
 313 019a 9BB2     		uxth	r3, r3
 314 019c 092B     		cmp	r3, #9
 315 019e 03D8     		bhi	.L14
 316              		.loc 1 193 0 is_stmt 0 discriminator 1
 317 01a0 204B     		ldr	r3, .L19+20
 318 01a2 1B88     		ldrh	r3, [r3]	@ movhi
 319 01a4 9BB2     		uxth	r3, r3
 320 01a6 00E0     		b	.L15
 321              	.L14:
 322              		.loc 1 193 0 discriminator 2
 323 01a8 0023     		movs	r3, #0
 324              	.L15:
 325              		.loc 1 193 0 discriminator 4
 326 01aa 1E4A     		ldr	r2, .L19+20
 327 01ac 1380     		strh	r3, [r2]	@ movhi
 194:.\main.c      ****                 DmaDone_Enable();
 328              		.loc 1 194 0 is_stmt 1 discriminator 4
 329 01ae FFF7FEFF 		bl	DmaDone_Enable
 195:.\main.c      ****                 ++syncDmaCounter;
 330              		.loc 1 195 0 discriminator 4
 331 01b2 1F4B     		ldr	r3, .L19+32
 332 01b4 1B78     		ldrb	r3, [r3]
 333 01b6 DBB2     		uxtb	r3, r3
 334 01b8 0133     		adds	r3, r3, #1
 335 01ba DAB2     		uxtb	r2, r3
 336 01bc 1C4B     		ldr	r3, .L19+32
 337 01be 1A70     		strb	r2, [r3]
 196:.\main.c      **** 
 197:.\main.c      ****                 /* Enable OUT endpoint to receive data from host. */
 198:.\main.c      ****                 USBFS_EnableOutEP(OUT_EP_NUM);
 338              		.loc 1 198 0 discriminator 4
 339 01c0 0220     		movs	r0, #2
 340 01c2 FFF7FEFF 		bl	USBFS_EnableOutEP
 341 01c6 04E0     		b	.L16
 342              	.L12:
 199:.\main.c      ****             }
 200:.\main.c      ****             else
 201:.\main.c      ****             {
 202:.\main.c      ****                 /* Ignore received data from host and arm OUT endpoint
 203:.\main.c      ****                 * without reading if overflow is detected.
 204:.\main.c      ****                 */
 205:.\main.c      ****                 USBFS_EnableOutEP(OUT_EP_NUM);
 343              		.loc 1 205 0
 344 01c8 0220     		movs	r0, #2
 345 01ca FFF7FEFF 		bl	USBFS_EnableOutEP
 206:.\main.c      ****                 skipNextOut = 0u;
 346              		.loc 1 206 0
 347 01ce 0023     		movs	r3, #0
 348 01d0 BB71     		strb	r3, [r7, #6]
 349              	.L16:
ARM GAS  C:\Users\LUKASC~1\AppData\Local\Temp\ccPT6cHE.s 			page 11


 207:.\main.c      ****             }
 208:.\main.c      **** 
 209:.\main.c      ****             /* When internal 32-kHz clock is slower, compare to PC traffic
 210:.\main.c      ****             * then skip next transfer from PC.
 211:.\main.c      ****             */
 212:.\main.c      ****             if (outIndex == inIndex)
 350              		.loc 1 212 0
 351 01d2 154B     		ldr	r3, .L19+24
 352 01d4 1B88     		ldrh	r3, [r3]	@ movhi
 353 01d6 9AB2     		uxth	r2, r3
 354 01d8 124B     		ldr	r3, .L19+20
 355 01da 1B88     		ldrh	r3, [r3]	@ movhi
 356 01dc 9BB2     		uxth	r3, r3
 357 01de 9A42     		cmp	r2, r3
 358 01e0 01D1     		bne	.L11
 213:.\main.c      ****             {
 214:.\main.c      ****                 skipNextOut = 1u;
 359              		.loc 1 214 0
 360 01e2 0123     		movs	r3, #1
 361 01e4 BB71     		strb	r3, [r7, #6]
 362              	.L11:
 215:.\main.c      ****             }
 216:.\main.c      ****         }
 217:.\main.c      **** 
 218:.\main.c      ****         /* Enable DMA transfers when sound buffer is half-full. */
 219:.\main.c      ****         if ((0u == syncDma) && (syncDmaCounter == (NUM_OF_BUFFERS / 2u)))
 363              		.loc 1 219 0
 364 01e6 114B     		ldr	r3, .L19+28
 365 01e8 1B78     		ldrb	r3, [r3]
 366 01ea DBB2     		uxtb	r3, r3
 367 01ec 002B     		cmp	r3, #0
 368 01ee 0DD1     		bne	.L17
 369              		.loc 1 219 0 is_stmt 0 discriminator 1
 370 01f0 0F4B     		ldr	r3, .L19+32
 371 01f2 1B78     		ldrb	r3, [r3]
 372 01f4 DBB2     		uxtb	r3, r3
 373 01f6 052B     		cmp	r3, #5
 374 01f8 08D1     		bne	.L17
 220:.\main.c      ****         {
 221:.\main.c      ****             /* Start DMA operation. */
 222:.\main.c      ****             CyDmaChEnable(VdacOutDmaCh, VDAC_DMA_ENABLE_PRESERVE_TD);
 375              		.loc 1 222 0 is_stmt 1
 376 01fa 074B     		ldr	r3, .L19+8
 377 01fc 1B78     		ldrb	r3, [r3]	@ zero_extendqisi2
 378 01fe 1846     		mov	r0, r3
 379 0200 0121     		movs	r1, #1
 380 0202 FFF7FEFF 		bl	CyDmaChEnable
 223:.\main.c      **** 
 224:.\main.c      ****             /* Disable underflow delayed start. */
 225:.\main.c      ****             syncDma = 1u;
 381              		.loc 1 225 0
 382 0206 094B     		ldr	r3, .L19+28
 383 0208 0122     		movs	r2, #1
 384 020a 1A70     		strb	r2, [r3]
 385              	.L17:
 226:.\main.c      ****         }
 227:.\main.c      ****     }
ARM GAS  C:\Users\LUKASC~1\AppData\Local\Temp\ccPT6cHE.s 			page 12


 386              		.loc 1 227 0
 387 020c 6FE7     		b	.L18
 388              	.L20:
 389 020e 00BF     		.align	2
 390              	.L19:
 391 0210 00000000 		.word	.LC0
 392 0214 00000000 		.word	soundBuffer
 393 0218 00000000 		.word	VdacOutDmaCh
 394 021c 00000000 		.word	VdacOutDmaTd
 395 0220 00000000 		.word	VdacDmaDone
 396 0224 00000000 		.word	inIndex
 397 0228 00000000 		.word	outIndex
 398 022c 00000000 		.word	syncDma
 399 0230 00000000 		.word	syncDmaCounter
 400 0234 10000000 		.word	.LC1
 401 0238 1C000000 		.word	.LC2
 402              		.cfi_endproc
 403              	.LFE63:
 404              		.size	main, .-main
 405              		.section	.text.VdacDmaDone,"ax",%progbits
 406              		.align	2
 407              		.global	VdacDmaDone
 408              		.thumb
 409              		.thumb_func
 410              		.type	VdacDmaDone, %function
 411              	VdacDmaDone:
 412              	.LFB64:
 228:.\main.c      **** }
 229:.\main.c      **** 
 230:.\main.c      **** 
 231:.\main.c      **** /*******************************************************************************
 232:.\main.c      **** * Function Name: VdacDmaDone
 233:.\main.c      **** ********************************************************************************
 234:.\main.c      **** *
 235:.\main.c      **** * Summary:
 236:.\main.c      **** *  The Interrupt Service Routine for a DMA transfer completion event. The DMA is
 237:.\main.c      **** *  stopped when there is no data to send.
 238:.\main.c      **** *
 239:.\main.c      **** * Parameters:
 240:.\main.c      **** *  None.
 241:.\main.c      **** *
 242:.\main.c      **** * Return:
 243:.\main.c      **** *  None.
 244:.\main.c      **** *
 245:.\main.c      **** *******************************************************************************/
 246:.\main.c      **** CY_ISR(VdacDmaDone)
 247:.\main.c      **** {
 413              		.loc 1 247 0
 414              		.cfi_startproc
 415              		@ args = 0, pretend = 0, frame = 0
 416              		@ frame_needed = 1, uses_anonymous_args = 0
 417 0000 80B5     		push	{r7, lr}
 418              		.cfi_def_cfa_offset 8
 419              		.cfi_offset 7, -8
 420              		.cfi_offset 14, -4
 421 0002 00AF     		add	r7, sp, #0
 422              		.cfi_def_cfa_register 7
ARM GAS  C:\Users\LUKASC~1\AppData\Local\Temp\ccPT6cHE.s 			page 13


 248:.\main.c      ****     /* Move to next buffer location and adjust to be within buffer size. */
 249:.\main.c      ****     ++outIndex;
 423              		.loc 1 249 0
 424 0004 134B     		ldr	r3, .L25
 425 0006 1B88     		ldrh	r3, [r3]	@ movhi
 426 0008 9BB2     		uxth	r3, r3
 427 000a 0133     		adds	r3, r3, #1
 428 000c 9AB2     		uxth	r2, r3
 429 000e 114B     		ldr	r3, .L25
 430 0010 1A80     		strh	r2, [r3]	@ movhi
 250:.\main.c      ****     outIndex = (outIndex >= NUM_OF_BUFFERS) ? 0u : outIndex;
 431              		.loc 1 250 0
 432 0012 104B     		ldr	r3, .L25
 433 0014 1B88     		ldrh	r3, [r3]	@ movhi
 434 0016 9BB2     		uxth	r3, r3
 435 0018 092B     		cmp	r3, #9
 436 001a 03D8     		bhi	.L22
 437              		.loc 1 250 0 is_stmt 0 discriminator 1
 438 001c 0D4B     		ldr	r3, .L25
 439 001e 1B88     		ldrh	r3, [r3]	@ movhi
 440 0020 9BB2     		uxth	r3, r3
 441 0022 00E0     		b	.L23
 442              	.L22:
 443              		.loc 1 250 0 discriminator 2
 444 0024 0023     		movs	r3, #0
 445              	.L23:
 446              		.loc 1 250 0 discriminator 4
 447 0026 0B4A     		ldr	r2, .L25
 448 0028 1380     		strh	r3, [r2]	@ movhi
 251:.\main.c      **** 
 252:.\main.c      ****     /* When there is no data to transfer to VDAC stop DMA and wait until
 253:.\main.c      **** 	* buffer is half-full to continue operation.
 254:.\main.c      ****     */
 255:.\main.c      ****     if (outIndex == inIndex)
 449              		.loc 1 255 0 is_stmt 1 discriminator 4
 450 002a 0A4B     		ldr	r3, .L25
 451 002c 1B88     		ldrh	r3, [r3]	@ movhi
 452 002e 9AB2     		uxth	r2, r3
 453 0030 094B     		ldr	r3, .L25+4
 454 0032 1B88     		ldrh	r3, [r3]	@ movhi
 455 0034 9BB2     		uxth	r3, r3
 456 0036 9A42     		cmp	r2, r3
 457 0038 0AD1     		bne	.L21
 256:.\main.c      ****     {
 257:.\main.c      ****         /* Stop DMA operation. */
 258:.\main.c      ****         CyDmaChDisable(VdacOutDmaCh);
 458              		.loc 1 258 0
 459 003a 084B     		ldr	r3, .L25+8
 460 003c 1B78     		ldrb	r3, [r3]	@ zero_extendqisi2
 461 003e 1846     		mov	r0, r3
 462 0040 FFF7FEFF 		bl	CyDmaChDisable
 259:.\main.c      **** 
 260:.\main.c      ****         /* Enable underflow delayed start. */
 261:.\main.c      ****         syncDma = 0u;
 463              		.loc 1 261 0
 464 0044 064B     		ldr	r3, .L25+12
 465 0046 0022     		movs	r2, #0
ARM GAS  C:\Users\LUKASC~1\AppData\Local\Temp\ccPT6cHE.s 			page 14


 466 0048 1A70     		strb	r2, [r3]
 262:.\main.c      ****         syncDmaCounter = 0u;
 467              		.loc 1 262 0
 468 004a 064B     		ldr	r3, .L25+16
 469 004c 0022     		movs	r2, #0
 470 004e 1A70     		strb	r2, [r3]
 471              	.L21:
 263:.\main.c      ****     }
 264:.\main.c      **** }
 472              		.loc 1 264 0
 473 0050 80BD     		pop	{r7, pc}
 474              	.L26:
 475 0052 00BF     		.align	2
 476              	.L25:
 477 0054 00000000 		.word	outIndex
 478 0058 00000000 		.word	inIndex
 479 005c 00000000 		.word	VdacOutDmaCh
 480 0060 00000000 		.word	syncDma
 481 0064 00000000 		.word	syncDmaCounter
 482              		.cfi_endproc
 483              	.LFE64:
 484              		.size	VdacDmaDone, .-VdacDmaDone
 485              		.text
 486              	.Letext0:
 487              		.file 2 "c:\\program files (x86)\\cypress\\psoc creator\\3.3\\psoc creator\\import\\gnu\\arm\\4.9.
 488              		.file 3 "c:\\program files (x86)\\cypress\\psoc creator\\3.3\\psoc creator\\import\\gnu\\arm\\4.9.
 489              		.file 4 "Generated_Source\\PSoC5/cytypes.h"
 490              		.file 5 "Generated_Source\\PSoC5/core_cm3.h"
 491              		.section	.debug_info,"",%progbits
 492              	.Ldebug_info0:
 493 0000 C2010000 		.4byte	0x1c2
 494 0004 0400     		.2byte	0x4
 495 0006 00000000 		.4byte	.Ldebug_abbrev0
 496 000a 04       		.byte	0x4
 497 000b 01       		.uleb128 0x1
 498 000c 88000000 		.4byte	.LASF28
 499 0010 01       		.byte	0x1
 500 0011 16010000 		.4byte	.LASF29
 501 0015 00000000 		.4byte	.LASF30
 502 0019 00000000 		.4byte	.Ldebug_ranges0+0
 503 001d 00000000 		.4byte	0
 504 0021 00000000 		.4byte	.Ldebug_line0
 505 0025 02       		.uleb128 0x2
 506 0026 01       		.byte	0x1
 507 0027 06       		.byte	0x6
 508 0028 3E020000 		.4byte	.LASF0
 509 002c 02       		.uleb128 0x2
 510 002d 01       		.byte	0x1
 511 002e 08       		.byte	0x8
 512 002f 41010000 		.4byte	.LASF1
 513 0033 02       		.uleb128 0x2
 514 0034 02       		.byte	0x2
 515 0035 05       		.byte	0x5
 516 0036 18020000 		.4byte	.LASF2
 517 003a 02       		.uleb128 0x2
 518 003b 02       		.byte	0x2
 519 003c 07       		.byte	0x7
ARM GAS  C:\Users\LUKASC~1\AppData\Local\Temp\ccPT6cHE.s 			page 15


 520 003d 66010000 		.4byte	.LASF3
 521 0041 03       		.uleb128 0x3
 522 0042 7E000000 		.4byte	.LASF9
 523 0046 02       		.byte	0x2
 524 0047 3F       		.byte	0x3f
 525 0048 4C000000 		.4byte	0x4c
 526 004c 02       		.uleb128 0x2
 527 004d 04       		.byte	0x4
 528 004e 05       		.byte	0x5
 529 004f 28020000 		.4byte	.LASF4
 530 0053 02       		.uleb128 0x2
 531 0054 04       		.byte	0x4
 532 0055 07       		.byte	0x7
 533 0056 54010000 		.4byte	.LASF5
 534 005a 02       		.uleb128 0x2
 535 005b 08       		.byte	0x8
 536 005c 05       		.byte	0x5
 537 005d 05020000 		.4byte	.LASF6
 538 0061 02       		.uleb128 0x2
 539 0062 08       		.byte	0x8
 540 0063 07       		.byte	0x7
 541 0064 B9010000 		.4byte	.LASF7
 542 0068 04       		.uleb128 0x4
 543 0069 04       		.byte	0x4
 544 006a 05       		.byte	0x5
 545 006b 696E7400 		.ascii	"int\000"
 546 006f 02       		.uleb128 0x2
 547 0070 04       		.byte	0x4
 548 0071 07       		.byte	0x7
 549 0072 AC010000 		.4byte	.LASF8
 550 0076 03       		.uleb128 0x3
 551 0077 F4010000 		.4byte	.LASF10
 552 007b 03       		.byte	0x3
 553 007c 2C       		.byte	0x2c
 554 007d 41000000 		.4byte	0x41
 555 0081 05       		.uleb128 0x5
 556 0082 22020000 		.4byte	.LASF11
 557 0086 04       		.byte	0x4
 558 0087 3801     		.2byte	0x138
 559 0089 2C000000 		.4byte	0x2c
 560 008d 05       		.uleb128 0x5
 561 008e 9E010000 		.4byte	.LASF12
 562 0092 04       		.byte	0x4
 563 0093 3901     		.2byte	0x139
 564 0095 3A000000 		.4byte	0x3a
 565 0099 05       		.uleb128 0x5
 566 009a A5010000 		.4byte	.LASF13
 567 009e 04       		.byte	0x4
 568 009f 3A01     		.2byte	0x13a
 569 00a1 53000000 		.4byte	0x53
 570 00a5 02       		.uleb128 0x2
 571 00a6 04       		.byte	0x4
 572 00a7 04       		.byte	0x4
 573 00a8 3B010000 		.4byte	.LASF14
 574 00ac 02       		.uleb128 0x2
 575 00ad 08       		.byte	0x8
 576 00ae 04       		.byte	0x4
ARM GAS  C:\Users\LUKASC~1\AppData\Local\Temp\ccPT6cHE.s 			page 16


 577 00af 86010000 		.4byte	.LASF15
 578 00b3 02       		.uleb128 0x2
 579 00b4 01       		.byte	0x1
 580 00b5 08       		.byte	0x8
 581 00b6 13020000 		.4byte	.LASF16
 582 00ba 05       		.uleb128 0x5
 583 00bb 4F010000 		.4byte	.LASF17
 584 00bf 04       		.byte	0x4
 585 00c0 E201     		.2byte	0x1e2
 586 00c2 C6000000 		.4byte	0xc6
 587 00c6 06       		.uleb128 0x6
 588 00c7 81000000 		.4byte	0x81
 589 00cb 06       		.uleb128 0x6
 590 00cc 8D000000 		.4byte	0x8d
 591 00d0 02       		.uleb128 0x2
 592 00d1 04       		.byte	0x4
 593 00d2 07       		.byte	0x7
 594 00d3 FC010000 		.4byte	.LASF18
 595 00d7 07       		.uleb128 0x7
 596 00d8 99010000 		.4byte	.LASF31
 597 00dc 01       		.byte	0x1
 598 00dd 55       		.byte	0x55
 599 00de 68000000 		.4byte	0x68
 600 00e2 00000000 		.4byte	.LFB63
 601 00e6 3C020000 		.4byte	.LFE63-.LFB63
 602 00ea 01       		.uleb128 0x1
 603 00eb 9C       		.byte	0x9c
 604 00ec 0B010000 		.4byte	0x10b
 605 00f0 08       		.uleb128 0x8
 606 00f1 6900     		.ascii	"i\000"
 607 00f3 01       		.byte	0x1
 608 00f4 57       		.byte	0x57
 609 00f5 81000000 		.4byte	0x81
 610 00f9 02       		.uleb128 0x2
 611 00fa 91       		.byte	0x91
 612 00fb 6F       		.sleb128 -17
 613 00fc 09       		.uleb128 0x9
 614 00fd 1F010000 		.4byte	.LASF19
 615 0101 01       		.byte	0x1
 616 0102 58       		.byte	0x58
 617 0103 81000000 		.4byte	0x81
 618 0107 02       		.uleb128 0x2
 619 0108 91       		.byte	0x91
 620 0109 6E       		.sleb128 -18
 621 010a 00       		.byte	0
 622 010b 0A       		.uleb128 0xa
 623 010c E8010000 		.4byte	.LASF32
 624 0110 01       		.byte	0x1
 625 0111 F6       		.byte	0xf6
 626 0112 00000000 		.4byte	.LFB64
 627 0116 68000000 		.4byte	.LFE64-.LFB64
 628 011a 01       		.uleb128 0x1
 629 011b 9C       		.byte	0x9c
 630 011c 0B       		.uleb128 0xb
 631 011d 79010000 		.4byte	.LASF20
 632 0121 05       		.byte	0x5
 633 0122 5506     		.2byte	0x655
ARM GAS  C:\Users\LUKASC~1\AppData\Local\Temp\ccPT6cHE.s 			page 17


 634 0124 28010000 		.4byte	0x128
 635 0128 06       		.uleb128 0x6
 636 0129 76000000 		.4byte	0x76
 637 012d 0C       		.uleb128 0xc
 638 012e 81000000 		.4byte	0x81
 639 0132 3E010000 		.4byte	0x13e
 640 0136 0D       		.uleb128 0xd
 641 0137 D0000000 		.4byte	0xd0
 642 013b 3F01     		.2byte	0x13f
 643 013d 00       		.byte	0
 644 013e 0E       		.uleb128 0xe
 645 013f 8D010000 		.4byte	.LASF21
 646 0143 01       		.byte	0x1
 647 0144 25       		.byte	0x25
 648 0145 2D010000 		.4byte	0x12d
 649 0149 05       		.uleb128 0x5
 650 014a 03       		.byte	0x3
 651 014b 00000000 		.4byte	soundBuffer
 652 014f 0E       		.uleb128 0xe
 653 0150 D0010000 		.4byte	.LASF22
 654 0154 01       		.byte	0x1
 655 0155 26       		.byte	0x26
 656 0156 CB000000 		.4byte	0xcb
 657 015a 05       		.uleb128 0x5
 658 015b 03       		.byte	0x3
 659 015c 00000000 		.4byte	outIndex
 660 0160 0E       		.uleb128 0xe
 661 0161 33010000 		.4byte	.LASF23
 662 0165 01       		.byte	0x1
 663 0166 27       		.byte	0x27
 664 0167 CB000000 		.4byte	0xcb
 665 016b 05       		.uleb128 0x5
 666 016c 03       		.byte	0x3
 667 016d 00000000 		.4byte	inIndex
 668 0171 0E       		.uleb128 0xe
 669 0172 2B010000 		.4byte	.LASF24
 670 0176 01       		.byte	0x1
 671 0177 2A       		.byte	0x2a
 672 0178 C6000000 		.4byte	0xc6
 673 017c 05       		.uleb128 0x5
 674 017d 03       		.byte	0x3
 675 017e 00000000 		.4byte	syncDma
 676 0182 0E       		.uleb128 0xe
 677 0183 D9010000 		.4byte	.LASF25
 678 0187 01       		.byte	0x1
 679 0188 2B       		.byte	0x2b
 680 0189 C6000000 		.4byte	0xc6
 681 018d 05       		.uleb128 0x5
 682 018e 03       		.byte	0x3
 683 018f 00000000 		.4byte	syncDmaCounter
 684 0193 0E       		.uleb128 0xe
 685 0194 4A020000 		.4byte	.LASF26
 686 0198 01       		.byte	0x1
 687 0199 2E       		.byte	0x2e
 688 019a 81000000 		.4byte	0x81
 689 019e 05       		.uleb128 0x5
 690 019f 03       		.byte	0x3
ARM GAS  C:\Users\LUKASC~1\AppData\Local\Temp\ccPT6cHE.s 			page 18


 691 01a0 00000000 		.4byte	VdacOutDmaCh
 692 01a4 0C       		.uleb128 0xc
 693 01a5 81000000 		.4byte	0x81
 694 01a9 B4010000 		.4byte	0x1b4
 695 01ad 0F       		.uleb128 0xf
 696 01ae D0000000 		.4byte	0xd0
 697 01b2 09       		.byte	0x9
 698 01b3 00       		.byte	0
 699 01b4 0E       		.uleb128 0xe
 700 01b5 31020000 		.4byte	.LASF27
 701 01b9 01       		.byte	0x1
 702 01ba 2F       		.byte	0x2f
 703 01bb A4010000 		.4byte	0x1a4
 704 01bf 05       		.uleb128 0x5
 705 01c0 03       		.byte	0x3
 706 01c1 00000000 		.4byte	VdacOutDmaTd
 707 01c5 00       		.byte	0
 708              		.section	.debug_abbrev,"",%progbits
 709              	.Ldebug_abbrev0:
 710 0000 01       		.uleb128 0x1
 711 0001 11       		.uleb128 0x11
 712 0002 01       		.byte	0x1
 713 0003 25       		.uleb128 0x25
 714 0004 0E       		.uleb128 0xe
 715 0005 13       		.uleb128 0x13
 716 0006 0B       		.uleb128 0xb
 717 0007 03       		.uleb128 0x3
 718 0008 0E       		.uleb128 0xe
 719 0009 1B       		.uleb128 0x1b
 720 000a 0E       		.uleb128 0xe
 721 000b 55       		.uleb128 0x55
 722 000c 17       		.uleb128 0x17
 723 000d 11       		.uleb128 0x11
 724 000e 01       		.uleb128 0x1
 725 000f 10       		.uleb128 0x10
 726 0010 17       		.uleb128 0x17
 727 0011 00       		.byte	0
 728 0012 00       		.byte	0
 729 0013 02       		.uleb128 0x2
 730 0014 24       		.uleb128 0x24
 731 0015 00       		.byte	0
 732 0016 0B       		.uleb128 0xb
 733 0017 0B       		.uleb128 0xb
 734 0018 3E       		.uleb128 0x3e
 735 0019 0B       		.uleb128 0xb
 736 001a 03       		.uleb128 0x3
 737 001b 0E       		.uleb128 0xe
 738 001c 00       		.byte	0
 739 001d 00       		.byte	0
 740 001e 03       		.uleb128 0x3
 741 001f 16       		.uleb128 0x16
 742 0020 00       		.byte	0
 743 0021 03       		.uleb128 0x3
 744 0022 0E       		.uleb128 0xe
 745 0023 3A       		.uleb128 0x3a
 746 0024 0B       		.uleb128 0xb
 747 0025 3B       		.uleb128 0x3b
ARM GAS  C:\Users\LUKASC~1\AppData\Local\Temp\ccPT6cHE.s 			page 19


 748 0026 0B       		.uleb128 0xb
 749 0027 49       		.uleb128 0x49
 750 0028 13       		.uleb128 0x13
 751 0029 00       		.byte	0
 752 002a 00       		.byte	0
 753 002b 04       		.uleb128 0x4
 754 002c 24       		.uleb128 0x24
 755 002d 00       		.byte	0
 756 002e 0B       		.uleb128 0xb
 757 002f 0B       		.uleb128 0xb
 758 0030 3E       		.uleb128 0x3e
 759 0031 0B       		.uleb128 0xb
 760 0032 03       		.uleb128 0x3
 761 0033 08       		.uleb128 0x8
 762 0034 00       		.byte	0
 763 0035 00       		.byte	0
 764 0036 05       		.uleb128 0x5
 765 0037 16       		.uleb128 0x16
 766 0038 00       		.byte	0
 767 0039 03       		.uleb128 0x3
 768 003a 0E       		.uleb128 0xe
 769 003b 3A       		.uleb128 0x3a
 770 003c 0B       		.uleb128 0xb
 771 003d 3B       		.uleb128 0x3b
 772 003e 05       		.uleb128 0x5
 773 003f 49       		.uleb128 0x49
 774 0040 13       		.uleb128 0x13
 775 0041 00       		.byte	0
 776 0042 00       		.byte	0
 777 0043 06       		.uleb128 0x6
 778 0044 35       		.uleb128 0x35
 779 0045 00       		.byte	0
 780 0046 49       		.uleb128 0x49
 781 0047 13       		.uleb128 0x13
 782 0048 00       		.byte	0
 783 0049 00       		.byte	0
 784 004a 07       		.uleb128 0x7
 785 004b 2E       		.uleb128 0x2e
 786 004c 01       		.byte	0x1
 787 004d 3F       		.uleb128 0x3f
 788 004e 19       		.uleb128 0x19
 789 004f 03       		.uleb128 0x3
 790 0050 0E       		.uleb128 0xe
 791 0051 3A       		.uleb128 0x3a
 792 0052 0B       		.uleb128 0xb
 793 0053 3B       		.uleb128 0x3b
 794 0054 0B       		.uleb128 0xb
 795 0055 49       		.uleb128 0x49
 796 0056 13       		.uleb128 0x13
 797 0057 11       		.uleb128 0x11
 798 0058 01       		.uleb128 0x1
 799 0059 12       		.uleb128 0x12
 800 005a 06       		.uleb128 0x6
 801 005b 40       		.uleb128 0x40
 802 005c 18       		.uleb128 0x18
 803 005d 9642     		.uleb128 0x2116
 804 005f 19       		.uleb128 0x19
ARM GAS  C:\Users\LUKASC~1\AppData\Local\Temp\ccPT6cHE.s 			page 20


 805 0060 01       		.uleb128 0x1
 806 0061 13       		.uleb128 0x13
 807 0062 00       		.byte	0
 808 0063 00       		.byte	0
 809 0064 08       		.uleb128 0x8
 810 0065 34       		.uleb128 0x34
 811 0066 00       		.byte	0
 812 0067 03       		.uleb128 0x3
 813 0068 08       		.uleb128 0x8
 814 0069 3A       		.uleb128 0x3a
 815 006a 0B       		.uleb128 0xb
 816 006b 3B       		.uleb128 0x3b
 817 006c 0B       		.uleb128 0xb
 818 006d 49       		.uleb128 0x49
 819 006e 13       		.uleb128 0x13
 820 006f 02       		.uleb128 0x2
 821 0070 18       		.uleb128 0x18
 822 0071 00       		.byte	0
 823 0072 00       		.byte	0
 824 0073 09       		.uleb128 0x9
 825 0074 34       		.uleb128 0x34
 826 0075 00       		.byte	0
 827 0076 03       		.uleb128 0x3
 828 0077 0E       		.uleb128 0xe
 829 0078 3A       		.uleb128 0x3a
 830 0079 0B       		.uleb128 0xb
 831 007a 3B       		.uleb128 0x3b
 832 007b 0B       		.uleb128 0xb
 833 007c 49       		.uleb128 0x49
 834 007d 13       		.uleb128 0x13
 835 007e 02       		.uleb128 0x2
 836 007f 18       		.uleb128 0x18
 837 0080 00       		.byte	0
 838 0081 00       		.byte	0
 839 0082 0A       		.uleb128 0xa
 840 0083 2E       		.uleb128 0x2e
 841 0084 00       		.byte	0
 842 0085 3F       		.uleb128 0x3f
 843 0086 19       		.uleb128 0x19
 844 0087 03       		.uleb128 0x3
 845 0088 0E       		.uleb128 0xe
 846 0089 3A       		.uleb128 0x3a
 847 008a 0B       		.uleb128 0xb
 848 008b 3B       		.uleb128 0x3b
 849 008c 0B       		.uleb128 0xb
 850 008d 27       		.uleb128 0x27
 851 008e 19       		.uleb128 0x19
 852 008f 11       		.uleb128 0x11
 853 0090 01       		.uleb128 0x1
 854 0091 12       		.uleb128 0x12
 855 0092 06       		.uleb128 0x6
 856 0093 40       		.uleb128 0x40
 857 0094 18       		.uleb128 0x18
 858 0095 9642     		.uleb128 0x2116
 859 0097 19       		.uleb128 0x19
 860 0098 00       		.byte	0
 861 0099 00       		.byte	0
ARM GAS  C:\Users\LUKASC~1\AppData\Local\Temp\ccPT6cHE.s 			page 21


 862 009a 0B       		.uleb128 0xb
 863 009b 34       		.uleb128 0x34
 864 009c 00       		.byte	0
 865 009d 03       		.uleb128 0x3
 866 009e 0E       		.uleb128 0xe
 867 009f 3A       		.uleb128 0x3a
 868 00a0 0B       		.uleb128 0xb
 869 00a1 3B       		.uleb128 0x3b
 870 00a2 05       		.uleb128 0x5
 871 00a3 49       		.uleb128 0x49
 872 00a4 13       		.uleb128 0x13
 873 00a5 3F       		.uleb128 0x3f
 874 00a6 19       		.uleb128 0x19
 875 00a7 3C       		.uleb128 0x3c
 876 00a8 19       		.uleb128 0x19
 877 00a9 00       		.byte	0
 878 00aa 00       		.byte	0
 879 00ab 0C       		.uleb128 0xc
 880 00ac 01       		.uleb128 0x1
 881 00ad 01       		.byte	0x1
 882 00ae 49       		.uleb128 0x49
 883 00af 13       		.uleb128 0x13
 884 00b0 01       		.uleb128 0x1
 885 00b1 13       		.uleb128 0x13
 886 00b2 00       		.byte	0
 887 00b3 00       		.byte	0
 888 00b4 0D       		.uleb128 0xd
 889 00b5 21       		.uleb128 0x21
 890 00b6 00       		.byte	0
 891 00b7 49       		.uleb128 0x49
 892 00b8 13       		.uleb128 0x13
 893 00b9 2F       		.uleb128 0x2f
 894 00ba 05       		.uleb128 0x5
 895 00bb 00       		.byte	0
 896 00bc 00       		.byte	0
 897 00bd 0E       		.uleb128 0xe
 898 00be 34       		.uleb128 0x34
 899 00bf 00       		.byte	0
 900 00c0 03       		.uleb128 0x3
 901 00c1 0E       		.uleb128 0xe
 902 00c2 3A       		.uleb128 0x3a
 903 00c3 0B       		.uleb128 0xb
 904 00c4 3B       		.uleb128 0x3b
 905 00c5 0B       		.uleb128 0xb
 906 00c6 49       		.uleb128 0x49
 907 00c7 13       		.uleb128 0x13
 908 00c8 3F       		.uleb128 0x3f
 909 00c9 19       		.uleb128 0x19
 910 00ca 02       		.uleb128 0x2
 911 00cb 18       		.uleb128 0x18
 912 00cc 00       		.byte	0
 913 00cd 00       		.byte	0
 914 00ce 0F       		.uleb128 0xf
 915 00cf 21       		.uleb128 0x21
 916 00d0 00       		.byte	0
 917 00d1 49       		.uleb128 0x49
 918 00d2 13       		.uleb128 0x13
ARM GAS  C:\Users\LUKASC~1\AppData\Local\Temp\ccPT6cHE.s 			page 22


 919 00d3 2F       		.uleb128 0x2f
 920 00d4 0B       		.uleb128 0xb
 921 00d5 00       		.byte	0
 922 00d6 00       		.byte	0
 923 00d7 00       		.byte	0
 924              		.section	.debug_aranges,"",%progbits
 925 0000 24000000 		.4byte	0x24
 926 0004 0200     		.2byte	0x2
 927 0006 00000000 		.4byte	.Ldebug_info0
 928 000a 04       		.byte	0x4
 929 000b 00       		.byte	0
 930 000c 0000     		.2byte	0
 931 000e 0000     		.2byte	0
 932 0010 00000000 		.4byte	.LFB63
 933 0014 3C020000 		.4byte	.LFE63-.LFB63
 934 0018 00000000 		.4byte	.LFB64
 935 001c 68000000 		.4byte	.LFE64-.LFB64
 936 0020 00000000 		.4byte	0
 937 0024 00000000 		.4byte	0
 938              		.section	.debug_ranges,"",%progbits
 939              	.Ldebug_ranges0:
 940 0000 00000000 		.4byte	.LFB63
 941 0004 3C020000 		.4byte	.LFE63
 942 0008 00000000 		.4byte	.LFB64
 943 000c 68000000 		.4byte	.LFE64
 944 0010 00000000 		.4byte	0
 945 0014 00000000 		.4byte	0
 946              		.section	.debug_line,"",%progbits
 947              	.Ldebug_line0:
 948 0000 27020000 		.section	.debug_str,"MS",%progbits,1
 948      02004901 
 948      00000201 
 948      FB0E0D00 
 948      01010101 
 949              	.LASF30:
 950 0000 433A5C55 		.ascii	"C:\\Users\\Lukas Creutzburg\\Documents\\GitHub\\PSo"
 950      73657273 
 950      5C4C756B 
 950      61732043 
 950      72657574 
 951 002e 43354C50 		.ascii	"C5LP-freeDSP-USB-Port\\PSoC_freeDSP_USB_Port\\USBFS"
 951      2D667265 
 951      65445350 
 951      2D555342 
 951      2D506F72 
 952 005f 5F415544 		.ascii	"_AUDIO_PSoC3_5LP_Example.cydsn\000"
 952      494F5F50 
 952      536F4333 
 952      5F354C50 
 952      5F457861 
 953              	.LASF9:
 954 007e 5F5F696E 		.ascii	"__int32_t\000"
 954      7433325F 
 954      7400
 955              	.LASF28:
 956 0088 474E5520 		.ascii	"GNU C 4.9.3 20150303 (release) [ARM/embedded-4_9-br"
 956      4320342E 
ARM GAS  C:\Users\LUKASC~1\AppData\Local\Temp\ccPT6cHE.s 			page 23


 956      392E3320 
 956      32303135 
 956      30333033 
 957 00bb 616E6368 		.ascii	"anch revision 221220] -mcpu=cortex-m3 -mthumb -g -O"
 957      20726576 
 957      6973696F 
 957      6E203232 
 957      31323230 
 958 00ee 30202D66 		.ascii	"0 -ffunction-sections -ffat-lto-objects\000"
 958      66756E63 
 958      74696F6E 
 958      2D736563 
 958      74696F6E 
 959              	.LASF29:
 960 0116 2E5C6D61 		.ascii	".\\main.c\000"
 960      696E2E63 
 960      00
 961              	.LASF19:
 962 011f 736B6970 		.ascii	"skipNextOut\000"
 962      4E657874 
 962      4F757400 
 963              	.LASF24:
 964 012b 73796E63 		.ascii	"syncDma\000"
 964      446D6100 
 965              	.LASF23:
 966 0133 696E496E 		.ascii	"inIndex\000"
 966      64657800 
 967              	.LASF14:
 968 013b 666C6F61 		.ascii	"float\000"
 968      7400
 969              	.LASF1:
 970 0141 756E7369 		.ascii	"unsigned char\000"
 970      676E6564 
 970      20636861 
 970      7200
 971              	.LASF17:
 972 014f 72656738 		.ascii	"reg8\000"
 972      00
 973              	.LASF5:
 974 0154 6C6F6E67 		.ascii	"long unsigned int\000"
 974      20756E73 
 974      69676E65 
 974      6420696E 
 974      7400
 975              	.LASF3:
 976 0166 73686F72 		.ascii	"short unsigned int\000"
 976      7420756E 
 976      7369676E 
 976      65642069 
 976      6E7400
 977              	.LASF20:
 978 0179 49544D5F 		.ascii	"ITM_RxBuffer\000"
 978      52784275 
 978      66666572 
 978      00
 979              	.LASF15:
 980 0186 646F7562 		.ascii	"double\000"
ARM GAS  C:\Users\LUKASC~1\AppData\Local\Temp\ccPT6cHE.s 			page 24


 980      6C6500
 981              	.LASF21:
 982 018d 736F756E 		.ascii	"soundBuffer\000"
 982      64427566 
 982      66657200 
 983              	.LASF31:
 984 0199 6D61696E 		.ascii	"main\000"
 984      00
 985              	.LASF12:
 986 019e 75696E74 		.ascii	"uint16\000"
 986      313600
 987              	.LASF13:
 988 01a5 75696E74 		.ascii	"uint32\000"
 988      333200
 989              	.LASF8:
 990 01ac 756E7369 		.ascii	"unsigned int\000"
 990      676E6564 
 990      20696E74 
 990      00
 991              	.LASF7:
 992 01b9 6C6F6E67 		.ascii	"long long unsigned int\000"
 992      206C6F6E 
 992      6720756E 
 992      7369676E 
 992      65642069 
 993              	.LASF22:
 994 01d0 6F757449 		.ascii	"outIndex\000"
 994      6E646578 
 994      00
 995              	.LASF25:
 996 01d9 73796E63 		.ascii	"syncDmaCounter\000"
 996      446D6143 
 996      6F756E74 
 996      657200
 997              	.LASF32:
 998 01e8 56646163 		.ascii	"VdacDmaDone\000"
 998      446D6144 
 998      6F6E6500 
 999              	.LASF10:
 1000 01f4 696E7433 		.ascii	"int32_t\000"
 1000      325F7400 
 1001              	.LASF18:
 1002 01fc 73697A65 		.ascii	"sizetype\000"
 1002      74797065 
 1002      00
 1003              	.LASF6:
 1004 0205 6C6F6E67 		.ascii	"long long int\000"
 1004      206C6F6E 
 1004      6720696E 
 1004      7400
 1005              	.LASF16:
 1006 0213 63686172 		.ascii	"char\000"
 1006      00
 1007              	.LASF2:
 1008 0218 73686F72 		.ascii	"short int\000"
 1008      7420696E 
 1008      7400
ARM GAS  C:\Users\LUKASC~1\AppData\Local\Temp\ccPT6cHE.s 			page 25


 1009              	.LASF11:
 1010 0222 75696E74 		.ascii	"uint8\000"
 1010      3800
 1011              	.LASF4:
 1012 0228 6C6F6E67 		.ascii	"long int\000"
 1012      20696E74 
 1012      00
 1013              	.LASF27:
 1014 0231 56646163 		.ascii	"VdacOutDmaTd\000"
 1014      4F757444 
 1014      6D615464 
 1014      00
 1015              	.LASF0:
 1016 023e 7369676E 		.ascii	"signed char\000"
 1016      65642063 
 1016      68617200 
 1017              	.LASF26:
 1018 024a 56646163 		.ascii	"VdacOutDmaCh\000"
 1018      4F757444 
 1018      6D614368 
 1018      00
 1019              		.ident	"GCC: (GNU Tools for ARM Embedded Processors) 4.9.3 20150303 (release) [ARM/embedded-4_9-br
