ARM GAS  C:\Users\LUKASC~1\AppData\Local\Temp\cc8WfJDd.s 			page 1


   1              		.syntax unified
   2              		.cpu cortex-m3
   3              		.fpu softvfp
   4              		.eabi_attribute 20, 1
   5              		.eabi_attribute 21, 1
   6              		.eabi_attribute 23, 3
   7              		.eabi_attribute 24, 1
   8              		.eabi_attribute 25, 1
   9              		.eabi_attribute 26, 1
  10              		.eabi_attribute 30, 6
  11              		.eabi_attribute 34, 1
  12              		.eabi_attribute 18, 4
  13              		.thumb
  14              		.file	"USBFS_pm.c"
  15              		.text
  16              	.Ltext0:
  17              		.cfi_sections	.debug_frame
  18              		.bss
  19              		.align	2
  20              	USBFS_backup:
  21 0000 0000     		.space	2
  22 0002 0000     		.section	.text.USBFS_DP_ISR,"ax",%progbits
  23              		.align	2
  24              		.global	USBFS_DP_ISR
  25              		.thumb
  26              		.thumb_func
  27              		.type	USBFS_DP_ISR, %function
  28              	USBFS_DP_ISR:
  29              	.LFB0:
  30              		.file 1 ".\\Generated_Source\\PSoC5\\USBFS_pm.c"
   1:.\Generated_Source\PSoC5/USBFS_pm.c **** /***************************************************************************//**
   2:.\Generated_Source\PSoC5/USBFS_pm.c **** * \file USBFS_pm.c
   3:.\Generated_Source\PSoC5/USBFS_pm.c **** * \version 3.0
   4:.\Generated_Source\PSoC5/USBFS_pm.c **** *
   5:.\Generated_Source\PSoC5/USBFS_pm.c **** * \brief
   6:.\Generated_Source\PSoC5/USBFS_pm.c **** *  This file provides Suspend/Resume APIs implementation.
   7:.\Generated_Source\PSoC5/USBFS_pm.c **** *
   8:.\Generated_Source\PSoC5/USBFS_pm.c **** ********************************************************************************
   9:.\Generated_Source\PSoC5/USBFS_pm.c **** * \copyright
  10:.\Generated_Source\PSoC5/USBFS_pm.c **** * Copyright 2008-2015, Cypress Semiconductor Corporation.  All rights reserved.
  11:.\Generated_Source\PSoC5/USBFS_pm.c **** * You may use this file only in accordance with the license, terms, conditions,
  12:.\Generated_Source\PSoC5/USBFS_pm.c **** * disclaimers, and limitations in the end user license agreement accompanying
  13:.\Generated_Source\PSoC5/USBFS_pm.c **** * the software package with which this file was provided.
  14:.\Generated_Source\PSoC5/USBFS_pm.c **** *******************************************************************************/
  15:.\Generated_Source\PSoC5/USBFS_pm.c **** 
  16:.\Generated_Source\PSoC5/USBFS_pm.c **** #include "USBFS_pvt.h"
  17:.\Generated_Source\PSoC5/USBFS_pm.c **** #include "USBFS_Dp.h"
  18:.\Generated_Source\PSoC5/USBFS_pm.c **** #include "cyapicallbacks.h"
  19:.\Generated_Source\PSoC5/USBFS_pm.c **** 
  20:.\Generated_Source\PSoC5/USBFS_pm.c **** /***************************************
  21:.\Generated_Source\PSoC5/USBFS_pm.c **** * Custom Declarations
  22:.\Generated_Source\PSoC5/USBFS_pm.c **** ***************************************/
  23:.\Generated_Source\PSoC5/USBFS_pm.c **** /* `#START PM_CUSTOM_DECLARATIONS` Place your declaration here */
  24:.\Generated_Source\PSoC5/USBFS_pm.c **** 
  25:.\Generated_Source\PSoC5/USBFS_pm.c **** /* `#END` */
  26:.\Generated_Source\PSoC5/USBFS_pm.c **** 
  27:.\Generated_Source\PSoC5/USBFS_pm.c **** 
ARM GAS  C:\Users\LUKASC~1\AppData\Local\Temp\cc8WfJDd.s 			page 2


  28:.\Generated_Source\PSoC5/USBFS_pm.c **** /***************************************
  29:.\Generated_Source\PSoC5/USBFS_pm.c **** * Local data allocation
  30:.\Generated_Source\PSoC5/USBFS_pm.c **** ***************************************/
  31:.\Generated_Source\PSoC5/USBFS_pm.c **** 
  32:.\Generated_Source\PSoC5/USBFS_pm.c **** static USBFS_BACKUP_STRUCT  USBFS_backup;
  33:.\Generated_Source\PSoC5/USBFS_pm.c **** 
  34:.\Generated_Source\PSoC5/USBFS_pm.c **** #if (USBFS_DP_ISR_ACTIVE)
  35:.\Generated_Source\PSoC5/USBFS_pm.c ****     /*******************************************************************************
  36:.\Generated_Source\PSoC5/USBFS_pm.c ****     * Function Name: USBFS_DP_ISR
  37:.\Generated_Source\PSoC5/USBFS_pm.c ****     ****************************************************************************//**
  38:.\Generated_Source\PSoC5/USBFS_pm.c ****     *
  39:.\Generated_Source\PSoC5/USBFS_pm.c ****     *  This Interrupt Service Routine handles DP pin changes for wake-up from
  40:.\Generated_Source\PSoC5/USBFS_pm.c ****     *  the sleep mode.
  41:.\Generated_Source\PSoC5/USBFS_pm.c ****     *
  42:.\Generated_Source\PSoC5/USBFS_pm.c ****     *******************************************************************************/
  43:.\Generated_Source\PSoC5/USBFS_pm.c ****     CY_ISR(USBFS_DP_ISR)
  44:.\Generated_Source\PSoC5/USBFS_pm.c ****     {
  31              		.loc 1 44 0
  32              		.cfi_startproc
  33              		@ args = 0, pretend = 0, frame = 0
  34              		@ frame_needed = 1, uses_anonymous_args = 0
  35 0000 80B5     		push	{r7, lr}
  36              		.cfi_def_cfa_offset 8
  37              		.cfi_offset 7, -8
  38              		.cfi_offset 14, -4
  39 0002 00AF     		add	r7, sp, #0
  40              		.cfi_def_cfa_register 7
  45:.\Generated_Source\PSoC5/USBFS_pm.c ****     #ifdef USBFS_DP_ISR_ENTRY_CALLBACK
  46:.\Generated_Source\PSoC5/USBFS_pm.c ****         USBFS_DP_ISR_EntryCallback();
  47:.\Generated_Source\PSoC5/USBFS_pm.c ****     #endif /* (USBFS_DP_ISR_ENTRY_CALLBACK) */
  48:.\Generated_Source\PSoC5/USBFS_pm.c **** 
  49:.\Generated_Source\PSoC5/USBFS_pm.c ****         /* `#START DP_USER_CODE` Place your code here */
  50:.\Generated_Source\PSoC5/USBFS_pm.c **** 
  51:.\Generated_Source\PSoC5/USBFS_pm.c ****         /* `#END` */
  52:.\Generated_Source\PSoC5/USBFS_pm.c **** 
  53:.\Generated_Source\PSoC5/USBFS_pm.c ****         (void) USBFS_Dp_ClearInterrupt();
  41              		.loc 1 53 0
  42 0004 FFF7FEFF 		bl	USBFS_Dp_ClearInterrupt
  54:.\Generated_Source\PSoC5/USBFS_pm.c **** 		
  55:.\Generated_Source\PSoC5/USBFS_pm.c **** 	#ifdef USBFS_DP_ISR_EXIT_CALLBACK
  56:.\Generated_Source\PSoC5/USBFS_pm.c ****         USBFS_DP_ISR_ExitCallback();
  57:.\Generated_Source\PSoC5/USBFS_pm.c ****     #endif /* (USBFS_DP_ISR_EXIT_CALLBACK) */
  58:.\Generated_Source\PSoC5/USBFS_pm.c ****     }
  43              		.loc 1 58 0
  44 0008 80BD     		pop	{r7, pc}
  45              		.cfi_endproc
  46              	.LFE0:
  47              		.size	USBFS_DP_ISR, .-USBFS_DP_ISR
  48 000a 00BF     		.section	.text.USBFS_SaveConfig,"ax",%progbits
  49              		.align	2
  50              		.global	USBFS_SaveConfig
  51              		.thumb
  52              		.thumb_func
  53              		.type	USBFS_SaveConfig, %function
  54              	USBFS_SaveConfig:
  55              	.LFB1:
  59:.\Generated_Source\PSoC5/USBFS_pm.c **** #endif /* (USBFS_DP_ISR_ACTIVE) */
ARM GAS  C:\Users\LUKASC~1\AppData\Local\Temp\cc8WfJDd.s 			page 3


  60:.\Generated_Source\PSoC5/USBFS_pm.c **** 
  61:.\Generated_Source\PSoC5/USBFS_pm.c **** 
  62:.\Generated_Source\PSoC5/USBFS_pm.c **** /*******************************************************************************
  63:.\Generated_Source\PSoC5/USBFS_pm.c **** * Function Name: USBFS_SaveConfig
  64:.\Generated_Source\PSoC5/USBFS_pm.c **** ****************************************************************************//**
  65:.\Generated_Source\PSoC5/USBFS_pm.c **** *
  66:.\Generated_Source\PSoC5/USBFS_pm.c **** *  Saves the current user configuration.
  67:.\Generated_Source\PSoC5/USBFS_pm.c **** *
  68:.\Generated_Source\PSoC5/USBFS_pm.c **** * \reentrant
  69:.\Generated_Source\PSoC5/USBFS_pm.c **** *  No.
  70:.\Generated_Source\PSoC5/USBFS_pm.c **** *
  71:.\Generated_Source\PSoC5/USBFS_pm.c **** *******************************************************************************/
  72:.\Generated_Source\PSoC5/USBFS_pm.c **** void USBFS_SaveConfig(void) 
  73:.\Generated_Source\PSoC5/USBFS_pm.c **** {
  56              		.loc 1 73 0
  57              		.cfi_startproc
  58              		@ args = 0, pretend = 0, frame = 0
  59              		@ frame_needed = 1, uses_anonymous_args = 0
  60              		@ link register save eliminated.
  61 0000 80B4     		push	{r7}
  62              		.cfi_def_cfa_offset 4
  63              		.cfi_offset 7, -4
  64 0002 00AF     		add	r7, sp, #0
  65              		.cfi_def_cfa_register 7
  74:.\Generated_Source\PSoC5/USBFS_pm.c ****     /* Empty function added for the compatibility purpose. */
  75:.\Generated_Source\PSoC5/USBFS_pm.c **** }
  66              		.loc 1 75 0
  67 0004 BD46     		mov	sp, r7
  68              		.cfi_def_cfa_register 13
  69              		@ sp needed
  70 0006 5DF8047B 		ldr	r7, [sp], #4
  71              		.cfi_restore 7
  72              		.cfi_def_cfa_offset 0
  73 000a 7047     		bx	lr
  74              		.cfi_endproc
  75              	.LFE1:
  76              		.size	USBFS_SaveConfig, .-USBFS_SaveConfig
  77              		.section	.text.USBFS_RestoreConfig,"ax",%progbits
  78              		.align	2
  79              		.global	USBFS_RestoreConfig
  80              		.thumb
  81              		.thumb_func
  82              		.type	USBFS_RestoreConfig, %function
  83              	USBFS_RestoreConfig:
  84              	.LFB2:
  76:.\Generated_Source\PSoC5/USBFS_pm.c **** 
  77:.\Generated_Source\PSoC5/USBFS_pm.c **** 
  78:.\Generated_Source\PSoC5/USBFS_pm.c **** /*******************************************************************************
  79:.\Generated_Source\PSoC5/USBFS_pm.c **** * Function Name: USBFS_RestoreConfig
  80:.\Generated_Source\PSoC5/USBFS_pm.c **** ****************************************************************************//**
  81:.\Generated_Source\PSoC5/USBFS_pm.c **** *
  82:.\Generated_Source\PSoC5/USBFS_pm.c **** *  Restores the current user configuration.
  83:.\Generated_Source\PSoC5/USBFS_pm.c **** *
  84:.\Generated_Source\PSoC5/USBFS_pm.c **** * \reentrant
  85:.\Generated_Source\PSoC5/USBFS_pm.c **** *  No.
  86:.\Generated_Source\PSoC5/USBFS_pm.c **** *
  87:.\Generated_Source\PSoC5/USBFS_pm.c **** *******************************************************************************/
ARM GAS  C:\Users\LUKASC~1\AppData\Local\Temp\cc8WfJDd.s 			page 4


  88:.\Generated_Source\PSoC5/USBFS_pm.c **** void USBFS_RestoreConfig(void) 
  89:.\Generated_Source\PSoC5/USBFS_pm.c **** {
  85              		.loc 1 89 0
  86              		.cfi_startproc
  87              		@ args = 0, pretend = 0, frame = 0
  88              		@ frame_needed = 1, uses_anonymous_args = 0
  89 0000 80B5     		push	{r7, lr}
  90              		.cfi_def_cfa_offset 8
  91              		.cfi_offset 7, -8
  92              		.cfi_offset 14, -4
  93 0002 00AF     		add	r7, sp, #0
  94              		.cfi_def_cfa_register 7
  90:.\Generated_Source\PSoC5/USBFS_pm.c ****     if (USBFS_configuration != 0u)
  95              		.loc 1 90 0
  96 0004 044B     		ldr	r3, .L5
  97 0006 1B78     		ldrb	r3, [r3]
  98 0008 DBB2     		uxtb	r3, r3
  99 000a 002B     		cmp	r3, #0
 100 000c 03D0     		beq	.L3
  91:.\Generated_Source\PSoC5/USBFS_pm.c ****     {
  92:.\Generated_Source\PSoC5/USBFS_pm.c ****         USBFS_ConfigReg();
 101              		.loc 1 92 0
 102 000e FFF7FEFF 		bl	USBFS_ConfigReg
  93:.\Generated_Source\PSoC5/USBFS_pm.c ****         USBFS_EpStateInit();
 103              		.loc 1 93 0
 104 0012 FFF7FEFF 		bl	USBFS_EpStateInit
 105              	.L3:
  94:.\Generated_Source\PSoC5/USBFS_pm.c ****     }
  95:.\Generated_Source\PSoC5/USBFS_pm.c **** }
 106              		.loc 1 95 0
 107 0016 80BD     		pop	{r7, pc}
 108              	.L6:
 109              		.align	2
 110              	.L5:
 111 0018 00000000 		.word	USBFS_configuration
 112              		.cfi_endproc
 113              	.LFE2:
 114              		.size	USBFS_RestoreConfig, .-USBFS_RestoreConfig
 115              		.section	.text.USBFS_Suspend,"ax",%progbits
 116              		.align	2
 117              		.global	USBFS_Suspend
 118              		.thumb
 119              		.thumb_func
 120              		.type	USBFS_Suspend, %function
 121              	USBFS_Suspend:
 122              	.LFB3:
  96:.\Generated_Source\PSoC5/USBFS_pm.c **** 
  97:.\Generated_Source\PSoC5/USBFS_pm.c **** 
  98:.\Generated_Source\PSoC5/USBFS_pm.c **** /*******************************************************************************
  99:.\Generated_Source\PSoC5/USBFS_pm.c **** * Function Name: USBFS_Suspend
 100:.\Generated_Source\PSoC5/USBFS_pm.c **** ****************************************************************************//**
 101:.\Generated_Source\PSoC5/USBFS_pm.c **** *
 102:.\Generated_Source\PSoC5/USBFS_pm.c **** *  This function prepares the USBFS component to enter low power mode. The 
 103:.\Generated_Source\PSoC5/USBFS_pm.c **** *  interrupt on falling edge on Dp pin is configured to wakeup device when the 
 104:.\Generated_Source\PSoC5/USBFS_pm.c **** *  host drives resume condition. The pull-up is enabled on the Dp line while 
 105:.\Generated_Source\PSoC5/USBFS_pm.c **** *  device is in low power mode. The supported low power modes are Deep Sleep 
 106:.\Generated_Source\PSoC5/USBFS_pm.c **** *  (PSoC 4200L) and Sleep (PSoC 3/ PSoC 5LP).
ARM GAS  C:\Users\LUKASC~1\AppData\Local\Temp\cc8WfJDd.s 			page 5


 107:.\Generated_Source\PSoC5/USBFS_pm.c **** *  
 108:.\Generated_Source\PSoC5/USBFS_pm.c **** *  *Note* For PSoC 4200L devices, this function should not be called before 
 109:.\Generated_Source\PSoC5/USBFS_pm.c **** *  entering Sleep.
 110:.\Generated_Source\PSoC5/USBFS_pm.c **** *  
 111:.\Generated_Source\PSoC5/USBFS_pm.c **** *  *Note* After enter low power mode, the data which is left in the IN or OUT 
 112:.\Generated_Source\PSoC5/USBFS_pm.c **** *  endpoint buffers is not restored after wakeup and lost. Therefore it should 
 113:.\Generated_Source\PSoC5/USBFS_pm.c **** *  be stored in the SRAM for OUT endpoint or read by the host for IN endpoint 
 114:.\Generated_Source\PSoC5/USBFS_pm.c **** *  before enter low power mode.
 115:.\Generated_Source\PSoC5/USBFS_pm.c **** *
 116:.\Generated_Source\PSoC5/USBFS_pm.c **** * \globalvars
 117:.\Generated_Source\PSoC5/USBFS_pm.c **** *  USBFS_backup.enable:  modified.
 118:.\Generated_Source\PSoC5/USBFS_pm.c **** *
 119:.\Generated_Source\PSoC5/USBFS_pm.c **** * \reentrant
 120:.\Generated_Source\PSoC5/USBFS_pm.c **** *  No.
 121:.\Generated_Source\PSoC5/USBFS_pm.c **** *
 122:.\Generated_Source\PSoC5/USBFS_pm.c **** *******************************************************************************/
 123:.\Generated_Source\PSoC5/USBFS_pm.c **** void USBFS_Suspend(void) 
 124:.\Generated_Source\PSoC5/USBFS_pm.c **** {
 123              		.loc 1 124 0
 124              		.cfi_startproc
 125              		@ args = 0, pretend = 0, frame = 8
 126              		@ frame_needed = 1, uses_anonymous_args = 0
 127 0000 80B5     		push	{r7, lr}
 128              		.cfi_def_cfa_offset 8
 129              		.cfi_offset 7, -8
 130              		.cfi_offset 14, -4
 131 0002 82B0     		sub	sp, sp, #8
 132              		.cfi_def_cfa_offset 16
 133 0004 00AF     		add	r7, sp, #0
 134              		.cfi_def_cfa_register 7
 125:.\Generated_Source\PSoC5/USBFS_pm.c ****     uint8 enableInterrupts;
 126:.\Generated_Source\PSoC5/USBFS_pm.c **** 
 127:.\Generated_Source\PSoC5/USBFS_pm.c ****     enableInterrupts = CyEnterCriticalSection();
 135              		.loc 1 127 0
 136 0006 FFF7FEFF 		bl	CyEnterCriticalSection
 137 000a 0346     		mov	r3, r0
 138 000c FB71     		strb	r3, [r7, #7]
 128:.\Generated_Source\PSoC5/USBFS_pm.c **** 
 129:.\Generated_Source\PSoC5/USBFS_pm.c ****     if (0u != (USBFS_CR0_REG & USBFS_CR0_ENABLE))
 139              		.loc 1 129 0
 140 000e 3B4B     		ldr	r3, .L10
 141 0010 1B78     		ldrb	r3, [r3]
 142 0012 DBB2     		uxtb	r3, r3
 143 0014 DBB2     		uxtb	r3, r3
 144 0016 5BB2     		sxtb	r3, r3
 145 0018 002B     		cmp	r3, #0
 146 001a 5ADA     		bge	.L8
 130:.\Generated_Source\PSoC5/USBFS_pm.c ****     {
 131:.\Generated_Source\PSoC5/USBFS_pm.c ****         /* USB block is enabled. */
 132:.\Generated_Source\PSoC5/USBFS_pm.c ****         USBFS_backup.enableState = 1u;
 147              		.loc 1 132 0
 148 001c 384B     		ldr	r3, .L10+4
 149 001e 0122     		movs	r2, #1
 150 0020 1A70     		strb	r2, [r3]
 133:.\Generated_Source\PSoC5/USBFS_pm.c **** 
 134:.\Generated_Source\PSoC5/USBFS_pm.c ****     #if (USBFS_EP_MANAGEMENT_DMA)
 135:.\Generated_Source\PSoC5/USBFS_pm.c ****         USBFS_Stop_DMA(USBFS_MAX_EP);
ARM GAS  C:\Users\LUKASC~1\AppData\Local\Temp\cc8WfJDd.s 			page 6


 151              		.loc 1 135 0
 152 0022 0920     		movs	r0, #9
 153 0024 FFF7FEFF 		bl	USBFS_Stop_DMA
 136:.\Generated_Source\PSoC5/USBFS_pm.c ****     #endif /* (USBFS_EP_MANAGEMENT_DMA) */
 137:.\Generated_Source\PSoC5/USBFS_pm.c **** 
 138:.\Generated_Source\PSoC5/USBFS_pm.c ****     #if (CY_PSOC4)
 139:.\Generated_Source\PSoC5/USBFS_pm.c ****         /* Suspend enter sequence. */
 140:.\Generated_Source\PSoC5/USBFS_pm.c ****         USBFS_POWER_CTRL_REG |= (USBFS_POWER_CTRL_SUSPEND |
 141:.\Generated_Source\PSoC5/USBFS_pm.c ****                                             USBFS_POWER_CTRL_SUSPEND_DEL);
 142:.\Generated_Source\PSoC5/USBFS_pm.c **** 
 143:.\Generated_Source\PSoC5/USBFS_pm.c ****         /* Store state of USB regulator and disable it. */
 144:.\Generated_Source\PSoC5/USBFS_pm.c ****         USBFS_backup.mode = (uint8)  (USBFS_CR1_REG & USBFS_CR1_REG_ENABLE);
 145:.\Generated_Source\PSoC5/USBFS_pm.c ****         USBFS_CR1_REG    &= (uint32) ~USBFS_CR1_REG_ENABLE;
 146:.\Generated_Source\PSoC5/USBFS_pm.c ****         
 147:.\Generated_Source\PSoC5/USBFS_pm.c ****         /* Store SIE interrupt sources. Valid bits are 0 - 4. */
 148:.\Generated_Source\PSoC5/USBFS_pm.c ****         USBFS_backup.intrSeiMask = (uint8) USBFS_INTR_SIE_MASK_REG;
 149:.\Generated_Source\PSoC5/USBFS_pm.c **** 
 150:.\Generated_Source\PSoC5/USBFS_pm.c ****     #else
 151:.\Generated_Source\PSoC5/USBFS_pm.c ****         /* Ensure USB transmit enable is low (USB_USBIO_CR0.ten). - Manual Transmission - Disabled.
 152:.\Generated_Source\PSoC5/USBFS_pm.c ****         USBFS_USBIO_CR0_REG &= (uint8) ~USBFS_USBIO_CR0_TEN;
 154              		.loc 1 152 0
 155 0028 364A     		ldr	r2, .L10+8
 156 002a 364B     		ldr	r3, .L10+8
 157 002c 1B78     		ldrb	r3, [r3]
 158 002e DBB2     		uxtb	r3, r3
 159 0030 03F07F03 		and	r3, r3, #127
 160 0034 DBB2     		uxtb	r3, r3
 161 0036 1370     		strb	r3, [r2]
 153:.\Generated_Source\PSoC5/USBFS_pm.c ****         CyDelayUs(USBFS_WAIT_REG_STABILITY_50NS);  /*~50ns delay. */
 162              		.loc 1 153 0
 163 0038 0020     		movs	r0, #0
 164 003a FFF7FEFF 		bl	CyDelayUs
 154:.\Generated_Source\PSoC5/USBFS_pm.c **** 
 155:.\Generated_Source\PSoC5/USBFS_pm.c ****         /* Disable the USBIO by asserting PM.USB_CR0.fsusbio_pd_n(Inverted) and pd_pullup_hv(Invert
 156:.\Generated_Source\PSoC5/USBFS_pm.c ****         USBFS_PM_USB_CR0_REG &= (uint8) ~(USBFS_PM_USB_CR0_PD_N |
 165              		.loc 1 156 0
 166 003e 324A     		ldr	r2, .L10+12
 167 0040 314B     		ldr	r3, .L10+12
 168 0042 1B78     		ldrb	r3, [r3]
 169 0044 DBB2     		uxtb	r3, r3
 170 0046 23F00603 		bic	r3, r3, #6
 171 004a DBB2     		uxtb	r3, r3
 172 004c 1370     		strb	r3, [r2]
 157:.\Generated_Source\PSoC5/USBFS_pm.c ****                                                      USBFS_PM_USB_CR0_PD_PULLUP_N);
 158:.\Generated_Source\PSoC5/USBFS_pm.c **** 
 159:.\Generated_Source\PSoC5/USBFS_pm.c ****         /* Disable the SIE. */
 160:.\Generated_Source\PSoC5/USBFS_pm.c ****         USBFS_CR0_REG &= (uint8) ~USBFS_CR0_ENABLE;
 173              		.loc 1 160 0
 174 004e 2B4A     		ldr	r2, .L10
 175 0050 2A4B     		ldr	r3, .L10
 176 0052 1B78     		ldrb	r3, [r3]
 177 0054 DBB2     		uxtb	r3, r3
 178 0056 03F07F03 		and	r3, r3, #127
 179 005a DBB2     		uxtb	r3, r3
 180 005c 1370     		strb	r3, [r2]
 161:.\Generated_Source\PSoC5/USBFS_pm.c **** 
 162:.\Generated_Source\PSoC5/USBFS_pm.c ****         CyDelayUs(USBFS_WAIT_REG_STABILITY_50NS);  /* ~50ns delay. */
ARM GAS  C:\Users\LUKASC~1\AppData\Local\Temp\cc8WfJDd.s 			page 7


 181              		.loc 1 162 0
 182 005e 0020     		movs	r0, #0
 183 0060 FFF7FEFF 		bl	CyDelayUs
 163:.\Generated_Source\PSoC5/USBFS_pm.c ****         /* Store mode and disable VRegulator. */
 164:.\Generated_Source\PSoC5/USBFS_pm.c ****         USBFS_backup.mode = (uint8) (USBFS_CR1_REG & USBFS_CR1_REG_ENABLE);
 184              		.loc 1 164 0
 185 0064 294B     		ldr	r3, .L10+16
 186 0066 1B78     		ldrb	r3, [r3]
 187 0068 DBB2     		uxtb	r3, r3
 188 006a 03F00103 		and	r3, r3, #1
 189 006e DAB2     		uxtb	r2, r3
 190 0070 234B     		ldr	r3, .L10+4
 191 0072 5A70     		strb	r2, [r3, #1]
 165:.\Generated_Source\PSoC5/USBFS_pm.c ****         USBFS_CR1_REG    &= (uint8) ~USBFS_CR1_REG_ENABLE;
 192              		.loc 1 165 0
 193 0074 254A     		ldr	r2, .L10+16
 194 0076 254B     		ldr	r3, .L10+16
 195 0078 1B78     		ldrb	r3, [r3]
 196 007a DBB2     		uxtb	r3, r3
 197 007c 23F00103 		bic	r3, r3, #1
 198 0080 DBB2     		uxtb	r3, r3
 199 0082 1370     		strb	r3, [r2]
 166:.\Generated_Source\PSoC5/USBFS_pm.c **** 
 167:.\Generated_Source\PSoC5/USBFS_pm.c ****         CyDelayUs(USBFS_WAIT_REG_STABILITY_1US); /* min 0.5us delay required. */
 200              		.loc 1 167 0
 201 0084 0120     		movs	r0, #1
 202 0086 FFF7FEFF 		bl	CyDelayUs
 168:.\Generated_Source\PSoC5/USBFS_pm.c **** 
 169:.\Generated_Source\PSoC5/USBFS_pm.c ****         /* Disable the USBIO reference by setting PM.USB_CR0.fsusbio_ref_en.*/
 170:.\Generated_Source\PSoC5/USBFS_pm.c ****         USBFS_PM_USB_CR0_REG &= (uint8) ~USBFS_PM_USB_CR0_REF_EN;
 203              		.loc 1 170 0
 204 008a 1F4A     		ldr	r2, .L10+12
 205 008c 1E4B     		ldr	r3, .L10+12
 206 008e 1B78     		ldrb	r3, [r3]
 207 0090 DBB2     		uxtb	r3, r3
 208 0092 23F00103 		bic	r3, r3, #1
 209 0096 DBB2     		uxtb	r3, r3
 210 0098 1370     		strb	r3, [r2]
 171:.\Generated_Source\PSoC5/USBFS_pm.c **** 
 172:.\Generated_Source\PSoC5/USBFS_pm.c ****         /* Switch DP and DM terminals to GPIO mode and disconnect 1.5k pull-up. */
 173:.\Generated_Source\PSoC5/USBFS_pm.c ****         USBFS_USBIO_CR1_REG |= USBFS_USBIO_CR1_IOMODE;
 211              		.loc 1 173 0
 212 009a 1D4A     		ldr	r2, .L10+20
 213 009c 1C4B     		ldr	r3, .L10+20
 214 009e 1B78     		ldrb	r3, [r3]
 215 00a0 DBB2     		uxtb	r3, r3
 216 00a2 43F02003 		orr	r3, r3, #32
 217 00a6 DBB2     		uxtb	r3, r3
 218 00a8 1370     		strb	r3, [r2]
 174:.\Generated_Source\PSoC5/USBFS_pm.c **** 
 175:.\Generated_Source\PSoC5/USBFS_pm.c ****         /* Disable USBFS block. */
 176:.\Generated_Source\PSoC5/USBFS_pm.c ****         /* Clear power active and standby mode templates: disable USB block. */
 177:.\Generated_Source\PSoC5/USBFS_pm.c ****         USBFS_PM_ACT_CFG_REG  &= (uint8) ~USBFS_PM_ACT_EN_FSUSB;
 219              		.loc 1 177 0
 220 00aa 1A4A     		ldr	r2, .L10+24
 221 00ac 194B     		ldr	r3, .L10+24
 222 00ae 1B78     		ldrb	r3, [r3]
ARM GAS  C:\Users\LUKASC~1\AppData\Local\Temp\cc8WfJDd.s 			page 8


 223 00b0 DBB2     		uxtb	r3, r3
 224 00b2 23F00103 		bic	r3, r3, #1
 225 00b6 DBB2     		uxtb	r3, r3
 226 00b8 1370     		strb	r3, [r2]
 178:.\Generated_Source\PSoC5/USBFS_pm.c ****         USBFS_PM_STBY_CFG_REG &= (uint8) ~USBFS_PM_STBY_EN_FSUSB;
 227              		.loc 1 178 0
 228 00ba 174A     		ldr	r2, .L10+28
 229 00bc 164B     		ldr	r3, .L10+28
 230 00be 1B78     		ldrb	r3, [r3]
 231 00c0 DBB2     		uxtb	r3, r3
 232 00c2 23F00103 		bic	r3, r3, #1
 233 00c6 DBB2     		uxtb	r3, r3
 234 00c8 1370     		strb	r3, [r2]
 179:.\Generated_Source\PSoC5/USBFS_pm.c **** 
 180:.\Generated_Source\PSoC5/USBFS_pm.c ****         CyDelayUs(USBFS_WAIT_REG_STABILITY_1US); /* min 0.5us delay required. */
 235              		.loc 1 180 0
 236 00ca 0120     		movs	r0, #1
 237 00cc FFF7FEFF 		bl	CyDelayUs
 238 00d0 02E0     		b	.L9
 239              	.L8:
 181:.\Generated_Source\PSoC5/USBFS_pm.c ****     #endif /* (CY_PSOC4) */
 182:.\Generated_Source\PSoC5/USBFS_pm.c ****     }
 183:.\Generated_Source\PSoC5/USBFS_pm.c ****     else
 184:.\Generated_Source\PSoC5/USBFS_pm.c ****     {
 185:.\Generated_Source\PSoC5/USBFS_pm.c ****         USBFS_backup.enableState = 0u;
 240              		.loc 1 185 0
 241 00d2 0B4B     		ldr	r3, .L10+4
 242 00d4 0022     		movs	r2, #0
 243 00d6 1A70     		strb	r2, [r3]
 244              	.L9:
 186:.\Generated_Source\PSoC5/USBFS_pm.c ****     }
 187:.\Generated_Source\PSoC5/USBFS_pm.c **** 
 188:.\Generated_Source\PSoC5/USBFS_pm.c ****     CyExitCriticalSection(enableInterrupts);
 245              		.loc 1 188 0
 246 00d8 FB79     		ldrb	r3, [r7, #7]	@ zero_extendqisi2
 247 00da 1846     		mov	r0, r3
 248 00dc FFF7FEFF 		bl	CyExitCriticalSection
 189:.\Generated_Source\PSoC5/USBFS_pm.c **** 
 190:.\Generated_Source\PSoC5/USBFS_pm.c **** #if (USBFS_DP_ISR_ACTIVE)
 191:.\Generated_Source\PSoC5/USBFS_pm.c ****     /* Clear active mode Dp interrupt source history. */
 192:.\Generated_Source\PSoC5/USBFS_pm.c ****     (void) USBFS_Dp_ClearInterrupt();
 249              		.loc 1 192 0
 250 00e0 FFF7FEFF 		bl	USBFS_Dp_ClearInterrupt
 193:.\Generated_Source\PSoC5/USBFS_pm.c ****     CyIntClearPending(USBFS_DP_INTC_VECT_NUM);
 251              		.loc 1 193 0
 252 00e4 0D4B     		ldr	r3, .L10+32
 253 00e6 4FF48052 		mov	r2, #4096
 254 00ea 1A60     		str	r2, [r3]
 194:.\Generated_Source\PSoC5/USBFS_pm.c **** 
 195:.\Generated_Source\PSoC5/USBFS_pm.c ****     CyIntEnable      (USBFS_DP_INTC_VECT_NUM);
 255              		.loc 1 195 0
 256 00ec 0C4B     		ldr	r3, .L10+36
 257 00ee 4FF48052 		mov	r2, #4096
 258 00f2 1A60     		str	r2, [r3]
 196:.\Generated_Source\PSoC5/USBFS_pm.c **** #endif /* (USBFS_DP_ISR_ACTIVE). */
 197:.\Generated_Source\PSoC5/USBFS_pm.c **** }
 259              		.loc 1 197 0
ARM GAS  C:\Users\LUKASC~1\AppData\Local\Temp\cc8WfJDd.s 			page 9


 260 00f4 0837     		adds	r7, r7, #8
 261              		.cfi_def_cfa_offset 8
 262 00f6 BD46     		mov	sp, r7
 263              		.cfi_def_cfa_register 13
 264              		@ sp needed
 265 00f8 80BD     		pop	{r7, pc}
 266              	.L11:
 267 00fa 00BF     		.align	2
 268              	.L10:
 269 00fc 08600040 		.word	1073766408
 270 0100 00000000 		.word	USBFS_backup
 271 0104 10600040 		.word	1073766416
 272 0108 94430040 		.word	1073759124
 273 010c 09600040 		.word	1073766409
 274 0110 12600040 		.word	1073766418
 275 0114 A5430040 		.word	1073759141
 276 0118 B5430040 		.word	1073759157
 277 011c 80E200E0 		.word	-536812928
 278 0120 00E100E0 		.word	-536813312
 279              		.cfi_endproc
 280              	.LFE3:
 281              		.size	USBFS_Suspend, .-USBFS_Suspend
 282              		.section	.text.USBFS_Resume,"ax",%progbits
 283              		.align	2
 284              		.global	USBFS_Resume
 285              		.thumb
 286              		.thumb_func
 287              		.type	USBFS_Resume, %function
 288              	USBFS_Resume:
 289              	.LFB4:
 198:.\Generated_Source\PSoC5/USBFS_pm.c **** 
 199:.\Generated_Source\PSoC5/USBFS_pm.c **** 
 200:.\Generated_Source\PSoC5/USBFS_pm.c **** /*******************************************************************************
 201:.\Generated_Source\PSoC5/USBFS_pm.c **** * Function Name: USBFS_Resume
 202:.\Generated_Source\PSoC5/USBFS_pm.c **** ****************************************************************************//**
 203:.\Generated_Source\PSoC5/USBFS_pm.c **** *
 204:.\Generated_Source\PSoC5/USBFS_pm.c **** *  This function prepares the USBFS component for active mode operation after 
 205:.\Generated_Source\PSoC5/USBFS_pm.c **** *  exit low power mode. It restores the component active mode configuration such 
 206:.\Generated_Source\PSoC5/USBFS_pm.c **** *  as device address assigned previously by the host, endpoints buffer and disables 
 207:.\Generated_Source\PSoC5/USBFS_pm.c **** *  interrupt on Dp pin.
 208:.\Generated_Source\PSoC5/USBFS_pm.c **** *  The supported low power modes are Deep Sleep (PSoC 4200L) and Sleep 
 209:.\Generated_Source\PSoC5/USBFS_pm.c **** *  (PSoC 3/ PSoC 5LP).
 210:.\Generated_Source\PSoC5/USBFS_pm.c **** *  
 211:.\Generated_Source\PSoC5/USBFS_pm.c **** *  *Note* For PSoC 4200L devices, this function should not be called after 
 212:.\Generated_Source\PSoC5/USBFS_pm.c **** *  exiting Sleep.
 213:.\Generated_Source\PSoC5/USBFS_pm.c **** *  
 214:.\Generated_Source\PSoC5/USBFS_pm.c **** *  *Note* To resume communication with the host, the data endpoints must be 
 215:.\Generated_Source\PSoC5/USBFS_pm.c **** *  managed: the OUT endpoints must be enabled and IN endpoints must be loaded 
 216:.\Generated_Source\PSoC5/USBFS_pm.c **** *  with data. For DMA with Automatic Buffer Management, all endpoints buffers 
 217:.\Generated_Source\PSoC5/USBFS_pm.c **** *  must be initialized again before making them available to the host.
 218:.\Generated_Source\PSoC5/USBFS_pm.c **** *
 219:.\Generated_Source\PSoC5/USBFS_pm.c **** *
 220:.\Generated_Source\PSoC5/USBFS_pm.c **** * \globalvars
 221:.\Generated_Source\PSoC5/USBFS_pm.c **** *  USBFS_backup - checked.
 222:.\Generated_Source\PSoC5/USBFS_pm.c **** *
 223:.\Generated_Source\PSoC5/USBFS_pm.c **** * \reentrant
 224:.\Generated_Source\PSoC5/USBFS_pm.c **** *  No.
ARM GAS  C:\Users\LUKASC~1\AppData\Local\Temp\cc8WfJDd.s 			page 10


 225:.\Generated_Source\PSoC5/USBFS_pm.c **** *
 226:.\Generated_Source\PSoC5/USBFS_pm.c **** *******************************************************************************/
 227:.\Generated_Source\PSoC5/USBFS_pm.c **** void USBFS_Resume(void) 
 228:.\Generated_Source\PSoC5/USBFS_pm.c **** {
 290              		.loc 1 228 0
 291              		.cfi_startproc
 292              		@ args = 0, pretend = 0, frame = 8
 293              		@ frame_needed = 1, uses_anonymous_args = 0
 294 0000 80B5     		push	{r7, lr}
 295              		.cfi_def_cfa_offset 8
 296              		.cfi_offset 7, -8
 297              		.cfi_offset 14, -4
 298 0002 82B0     		sub	sp, sp, #8
 299              		.cfi_def_cfa_offset 16
 300 0004 00AF     		add	r7, sp, #0
 301              		.cfi_def_cfa_register 7
 229:.\Generated_Source\PSoC5/USBFS_pm.c ****     uint8 enableInterrupts;
 230:.\Generated_Source\PSoC5/USBFS_pm.c **** 
 231:.\Generated_Source\PSoC5/USBFS_pm.c ****     enableInterrupts = CyEnterCriticalSection();
 302              		.loc 1 231 0
 303 0006 FFF7FEFF 		bl	CyEnterCriticalSection
 304 000a 0346     		mov	r3, r0
 305 000c FB71     		strb	r3, [r7, #7]
 232:.\Generated_Source\PSoC5/USBFS_pm.c **** 
 233:.\Generated_Source\PSoC5/USBFS_pm.c ****     if (0u != USBFS_backup.enableState)
 306              		.loc 1 233 0
 307 000e 354B     		ldr	r3, .L14
 308 0010 1B78     		ldrb	r3, [r3]	@ zero_extendqisi2
 309 0012 002B     		cmp	r3, #0
 310 0014 5ED0     		beq	.L13
 234:.\Generated_Source\PSoC5/USBFS_pm.c ****     {
 235:.\Generated_Source\PSoC5/USBFS_pm.c ****     #if (USBFS_DP_ISR_ACTIVE)
 236:.\Generated_Source\PSoC5/USBFS_pm.c ****         CyIntDisable(USBFS_DP_INTC_VECT_NUM);
 311              		.loc 1 236 0
 312 0016 344B     		ldr	r3, .L14+4
 313 0018 4FF48052 		mov	r2, #4096
 314 001c 1A60     		str	r2, [r3]
 237:.\Generated_Source\PSoC5/USBFS_pm.c ****     #endif /* (USBFS_DP_ISR_ACTIVE) */
 238:.\Generated_Source\PSoC5/USBFS_pm.c **** 
 239:.\Generated_Source\PSoC5/USBFS_pm.c ****     #if (CY_PSOC4)
 240:.\Generated_Source\PSoC5/USBFS_pm.c ****         /* Enable clock to USB IP. */
 241:.\Generated_Source\PSoC5/USBFS_pm.c ****         USBFS_USB_CLK_EN_REG |= USBFS_USB_CLK_CSR_CLK_EN;
 242:.\Generated_Source\PSoC5/USBFS_pm.c **** 
 243:.\Generated_Source\PSoC5/USBFS_pm.c ****         /* Restore arbiter configuration for DMA transfers. */
 244:.\Generated_Source\PSoC5/USBFS_pm.c ****         #if (USBFS_EP_MANAGEMENT_DMA)
 245:.\Generated_Source\PSoC5/USBFS_pm.c ****             #if (USBFS_ARB_ISR_ACTIVE)
 246:.\Generated_Source\PSoC5/USBFS_pm.c ****                 /* Enable ARB EP interrupt sources. */
 247:.\Generated_Source\PSoC5/USBFS_pm.c ****                 USBFS_ARB_INT_EN_REG = USBFS_DEFAULT_ARB_INT_EN;
 248:.\Generated_Source\PSoC5/USBFS_pm.c ****             #endif /* (USBFS_EP_MANAGEMENT_DMA) */
 249:.\Generated_Source\PSoC5/USBFS_pm.c **** 
 250:.\Generated_Source\PSoC5/USBFS_pm.c ****             /* Configure arbiter for Manual or Auto DMA operation and clear 
 251:.\Generated_Source\PSoC5/USBFS_pm.c ****             * configuration completion. 
 252:.\Generated_Source\PSoC5/USBFS_pm.c ****             */
 253:.\Generated_Source\PSoC5/USBFS_pm.c ****             USBFS_ARB_CFG_REG = USBFS_DEFAULT_ARB_CFG;
 254:.\Generated_Source\PSoC5/USBFS_pm.c ****         #endif /* (USBFS_EP_MANAGEMENT_DMA) */
 255:.\Generated_Source\PSoC5/USBFS_pm.c **** 
 256:.\Generated_Source\PSoC5/USBFS_pm.c ****         /* Restore level (hi, lo, med) for each interrupt source. */
ARM GAS  C:\Users\LUKASC~1\AppData\Local\Temp\cc8WfJDd.s 			page 11


 257:.\Generated_Source\PSoC5/USBFS_pm.c ****         USBFS_INTR_LVL_SEL_REG = USBFS_DEFAULT_INTR_LVL_SEL;
 258:.\Generated_Source\PSoC5/USBFS_pm.c ****         
 259:.\Generated_Source\PSoC5/USBFS_pm.c ****         /* Store SIE interrupt sources. */
 260:.\Generated_Source\PSoC5/USBFS_pm.c ****         USBFS_INTR_SIE_MASK_REG = (uint32) USBFS_backup.intrSeiMask;
 261:.\Generated_Source\PSoC5/USBFS_pm.c **** 
 262:.\Generated_Source\PSoC5/USBFS_pm.c ****         /* Set EP0.CR: ACK Setup, NAK IN/OUT. */
 263:.\Generated_Source\PSoC5/USBFS_pm.c ****         USBFS_EP0_CR_REG = USBFS_MODE_NAK_IN_OUT;
 264:.\Generated_Source\PSoC5/USBFS_pm.c **** 
 265:.\Generated_Source\PSoC5/USBFS_pm.c ****         /* Restore data EP1-8 configuration. */
 266:.\Generated_Source\PSoC5/USBFS_pm.c ****         USBFS_RestoreConfig();
 267:.\Generated_Source\PSoC5/USBFS_pm.c **** 
 268:.\Generated_Source\PSoC5/USBFS_pm.c ****         /* Restore state of USB regulator and wait until it supples stable power. */
 269:.\Generated_Source\PSoC5/USBFS_pm.c ****         USBFS_CR1_REG |= USBFS_backup.mode;
 270:.\Generated_Source\PSoC5/USBFS_pm.c ****         CyDelayUs(USBFS_WAIT_VREF_STABILITY);
 271:.\Generated_Source\PSoC5/USBFS_pm.c **** 
 272:.\Generated_Source\PSoC5/USBFS_pm.c ****         /* Suspend exit sequence. */
 273:.\Generated_Source\PSoC5/USBFS_pm.c ****         USBFS_POWER_CTRL_REG &= (uint32) ~USBFS_POWER_CTRL_SUSPEND;
 274:.\Generated_Source\PSoC5/USBFS_pm.c ****         CyDelayUs(USBFS_WAIT_SUSPEND_DEL_DISABLE);
 275:.\Generated_Source\PSoC5/USBFS_pm.c ****         USBFS_POWER_CTRL_REG &= (uint32) ~USBFS_POWER_CTRL_SUSPEND_DEL;
 276:.\Generated_Source\PSoC5/USBFS_pm.c **** 
 277:.\Generated_Source\PSoC5/USBFS_pm.c ****     #else
 278:.\Generated_Source\PSoC5/USBFS_pm.c ****         /* Set power active and standby mode templates: enable USB block. */
 279:.\Generated_Source\PSoC5/USBFS_pm.c ****         USBFS_PM_ACT_CFG_REG  |= USBFS_PM_ACT_EN_FSUSB;
 315              		.loc 1 279 0
 316 001e 334A     		ldr	r2, .L14+8
 317 0020 324B     		ldr	r3, .L14+8
 318 0022 1B78     		ldrb	r3, [r3]
 319 0024 DBB2     		uxtb	r3, r3
 320 0026 43F00103 		orr	r3, r3, #1
 321 002a DBB2     		uxtb	r3, r3
 322 002c 1370     		strb	r3, [r2]
 280:.\Generated_Source\PSoC5/USBFS_pm.c ****         USBFS_PM_STBY_CFG_REG |= USBFS_PM_STBY_EN_FSUSB;
 323              		.loc 1 280 0
 324 002e 304A     		ldr	r2, .L14+12
 325 0030 2F4B     		ldr	r3, .L14+12
 326 0032 1B78     		ldrb	r3, [r3]
 327 0034 DBB2     		uxtb	r3, r3
 328 0036 43F00103 		orr	r3, r3, #1
 329 003a DBB2     		uxtb	r3, r3
 330 003c 1370     		strb	r3, [r2]
 281:.\Generated_Source\PSoC5/USBFS_pm.c **** 
 282:.\Generated_Source\PSoC5/USBFS_pm.c ****         /* Enable core clock. */
 283:.\Generated_Source\PSoC5/USBFS_pm.c ****         USBFS_USB_CLK_EN_REG |= USBFS_USB_CLK_ENABLE;
 331              		.loc 1 283 0
 332 003e 2D4A     		ldr	r2, .L14+16
 333 0040 2C4B     		ldr	r3, .L14+16
 334 0042 1B78     		ldrb	r3, [r3]
 335 0044 DBB2     		uxtb	r3, r3
 336 0046 43F00103 		orr	r3, r3, #1
 337 004a DBB2     		uxtb	r3, r3
 338 004c 1370     		strb	r3, [r2]
 284:.\Generated_Source\PSoC5/USBFS_pm.c **** 
 285:.\Generated_Source\PSoC5/USBFS_pm.c ****         /* Enable the USBIO reference by setting PM.USB_CR0.fsusbio_ref_en.*/
 286:.\Generated_Source\PSoC5/USBFS_pm.c ****         USBFS_PM_USB_CR0_REG |= USBFS_PM_USB_CR0_REF_EN;
 339              		.loc 1 286 0
 340 004e 2A4A     		ldr	r2, .L14+20
 341 0050 294B     		ldr	r3, .L14+20
ARM GAS  C:\Users\LUKASC~1\AppData\Local\Temp\cc8WfJDd.s 			page 12


 342 0052 1B78     		ldrb	r3, [r3]
 343 0054 DBB2     		uxtb	r3, r3
 344 0056 43F00103 		orr	r3, r3, #1
 345 005a DBB2     		uxtb	r3, r3
 346 005c 1370     		strb	r3, [r2]
 287:.\Generated_Source\PSoC5/USBFS_pm.c **** 
 288:.\Generated_Source\PSoC5/USBFS_pm.c ****         /* The reference is available ~40us after power restored. */
 289:.\Generated_Source\PSoC5/USBFS_pm.c ****         CyDelayUs(USBFS_WAIT_VREF_RESTORE);
 347              		.loc 1 289 0
 348 005e 2820     		movs	r0, #40
 349 0060 FFF7FEFF 		bl	CyDelayUs
 290:.\Generated_Source\PSoC5/USBFS_pm.c ****         /* Restore state of USB regulator and wait until it supples stable power. */
 291:.\Generated_Source\PSoC5/USBFS_pm.c ****         USBFS_CR1_REG |= USBFS_backup.mode;
 350              		.loc 1 291 0
 351 0064 2549     		ldr	r1, .L14+24
 352 0066 254B     		ldr	r3, .L14+24
 353 0068 1B78     		ldrb	r3, [r3]
 354 006a DAB2     		uxtb	r2, r3
 355 006c 1D4B     		ldr	r3, .L14
 356 006e 5B78     		ldrb	r3, [r3, #1]	@ zero_extendqisi2
 357 0070 1343     		orrs	r3, r3, r2
 358 0072 DBB2     		uxtb	r3, r3
 359 0074 0B70     		strb	r3, [r1]
 292:.\Generated_Source\PSoC5/USBFS_pm.c ****         CyDelayUs(USBFS_WAIT_VREF_STABILITY);   /*~50ns delay. */
 360              		.loc 1 292 0
 361 0076 0020     		movs	r0, #0
 362 0078 FFF7FEFF 		bl	CyDelayUs
 293:.\Generated_Source\PSoC5/USBFS_pm.c **** 
 294:.\Generated_Source\PSoC5/USBFS_pm.c ****         /* Enable USBIO. */
 295:.\Generated_Source\PSoC5/USBFS_pm.c ****         USBFS_PM_USB_CR0_REG |= USBFS_PM_USB_CR0_PD_N;
 363              		.loc 1 295 0
 364 007c 1E4A     		ldr	r2, .L14+20
 365 007e 1E4B     		ldr	r3, .L14+20
 366 0080 1B78     		ldrb	r3, [r3]
 367 0082 DBB2     		uxtb	r3, r3
 368 0084 43F00203 		orr	r3, r3, #2
 369 0088 DBB2     		uxtb	r3, r3
 370 008a 1370     		strb	r3, [r2]
 296:.\Generated_Source\PSoC5/USBFS_pm.c ****         CyDelayUs(USBFS_WAIT_PD_PULLUP_N_ENABLE);
 371              		.loc 1 296 0
 372 008c 0220     		movs	r0, #2
 373 008e FFF7FEFF 		bl	CyDelayUs
 297:.\Generated_Source\PSoC5/USBFS_pm.c ****         /* Set the USBIO pull-up enable. */
 298:.\Generated_Source\PSoC5/USBFS_pm.c ****         USBFS_PM_USB_CR0_REG |= USBFS_PM_USB_CR0_PD_PULLUP_N;
 374              		.loc 1 298 0
 375 0092 194A     		ldr	r2, .L14+20
 376 0094 184B     		ldr	r3, .L14+20
 377 0096 1B78     		ldrb	r3, [r3]
 378 0098 DBB2     		uxtb	r3, r3
 379 009a 43F00403 		orr	r3, r3, #4
 380 009e DBB2     		uxtb	r3, r3
 381 00a0 1370     		strb	r3, [r2]
 299:.\Generated_Source\PSoC5/USBFS_pm.c **** 
 300:.\Generated_Source\PSoC5/USBFS_pm.c ****         /* Restore arbiter configuration for DMA transfers. */
 301:.\Generated_Source\PSoC5/USBFS_pm.c ****         #if (USBFS_EP_MANAGEMENT_DMA)
 302:.\Generated_Source\PSoC5/USBFS_pm.c ****             #if (USBFS_ARB_ISR_ACTIVE)
 303:.\Generated_Source\PSoC5/USBFS_pm.c ****                 /* Enable ARB EP interrupt sources. */
ARM GAS  C:\Users\LUKASC~1\AppData\Local\Temp\cc8WfJDd.s 			page 13


 304:.\Generated_Source\PSoC5/USBFS_pm.c ****                 USBFS_ARB_INT_EN_REG = USBFS_DEFAULT_ARB_INT_EN;
 382              		.loc 1 304 0
 383 00a2 174B     		ldr	r3, .L14+28
 384 00a4 0222     		movs	r2, #2
 385 00a6 1A70     		strb	r2, [r3]
 305:.\Generated_Source\PSoC5/USBFS_pm.c ****             #endif /* (USBFS_EP_MANAGEMENT_DMA) */
 306:.\Generated_Source\PSoC5/USBFS_pm.c **** 
 307:.\Generated_Source\PSoC5/USBFS_pm.c ****             /* Configure arbiter for Manual or Auto DMA operation and clear 
 308:.\Generated_Source\PSoC5/USBFS_pm.c ****             * configuration completion. 
 309:.\Generated_Source\PSoC5/USBFS_pm.c ****             */
 310:.\Generated_Source\PSoC5/USBFS_pm.c ****             USBFS_ARB_CFG_REG = USBFS_DEFAULT_ARB_CFG;
 386              		.loc 1 310 0
 387 00a8 164B     		ldr	r3, .L14+32
 388 00aa 2022     		movs	r2, #32
 389 00ac 1A70     		strb	r2, [r3]
 311:.\Generated_Source\PSoC5/USBFS_pm.c ****         #endif /* (USBFS_EP_MANAGEMENT_DMA) */
 312:.\Generated_Source\PSoC5/USBFS_pm.c **** 
 313:.\Generated_Source\PSoC5/USBFS_pm.c ****         /* Set EP0.CR: ACK Setup, STALL IN/OUT. */
 314:.\Generated_Source\PSoC5/USBFS_pm.c ****         USBFS_EP0_CR_REG = USBFS_MODE_STALL_IN_OUT;
 390              		.loc 1 314 0
 391 00ae 164B     		ldr	r3, .L14+36
 392 00b0 0322     		movs	r2, #3
 393 00b2 1A70     		strb	r2, [r3]
 315:.\Generated_Source\PSoC5/USBFS_pm.c **** 
 316:.\Generated_Source\PSoC5/USBFS_pm.c ****         /* Enable the USB IP to respond to USB traffic with the last address. */
 317:.\Generated_Source\PSoC5/USBFS_pm.c ****         USBFS_CR0_REG |= USBFS_CR0_ENABLE;
 394              		.loc 1 317 0
 395 00b4 154A     		ldr	r2, .L14+40
 396 00b6 154B     		ldr	r3, .L14+40
 397 00b8 1B78     		ldrb	r3, [r3]
 398 00ba DBB2     		uxtb	r3, r3
 399 00bc 63F07F03 		orn	r3, r3, #127
 400 00c0 DBB2     		uxtb	r3, r3
 401 00c2 1370     		strb	r3, [r2]
 318:.\Generated_Source\PSoC5/USBFS_pm.c ****         CyDelayCycles(USBFS_WAIT_CR0_REG_STABILITY);
 402              		.loc 1 318 0
 403 00c4 0120     		movs	r0, #1
 404 00c6 FFF7FEFF 		bl	CyDelayCycles
 319:.\Generated_Source\PSoC5/USBFS_pm.c **** 
 320:.\Generated_Source\PSoC5/USBFS_pm.c ****         /* Enable D+ pull-up and keep USB control on IO. */
 321:.\Generated_Source\PSoC5/USBFS_pm.c ****         USBFS_USBIO_CR1_REG = USBFS_USBIO_CR1_USBPUEN;
 405              		.loc 1 321 0
 406 00ca 114B     		ldr	r3, .L14+44
 407 00cc 0422     		movs	r2, #4
 408 00ce 1A70     		strb	r2, [r3]
 322:.\Generated_Source\PSoC5/USBFS_pm.c **** 
 323:.\Generated_Source\PSoC5/USBFS_pm.c ****         /* Restore data EP1-8 configuration. */
 324:.\Generated_Source\PSoC5/USBFS_pm.c ****         USBFS_RestoreConfig();
 409              		.loc 1 324 0
 410 00d0 FFF7FEFF 		bl	USBFS_RestoreConfig
 411              	.L13:
 325:.\Generated_Source\PSoC5/USBFS_pm.c ****     #endif /* (CY_PSOC4) */
 326:.\Generated_Source\PSoC5/USBFS_pm.c ****     }
 327:.\Generated_Source\PSoC5/USBFS_pm.c **** 
 328:.\Generated_Source\PSoC5/USBFS_pm.c ****     CyExitCriticalSection(enableInterrupts);
 412              		.loc 1 328 0
 413 00d4 FB79     		ldrb	r3, [r7, #7]	@ zero_extendqisi2
ARM GAS  C:\Users\LUKASC~1\AppData\Local\Temp\cc8WfJDd.s 			page 14


 414 00d6 1846     		mov	r0, r3
 415 00d8 FFF7FEFF 		bl	CyExitCriticalSection
 329:.\Generated_Source\PSoC5/USBFS_pm.c **** }
 416              		.loc 1 329 0
 417 00dc 0837     		adds	r7, r7, #8
 418              		.cfi_def_cfa_offset 8
 419 00de BD46     		mov	sp, r7
 420              		.cfi_def_cfa_register 13
 421              		@ sp needed
 422 00e0 80BD     		pop	{r7, pc}
 423              	.L15:
 424 00e2 00BF     		.align	2
 425              	.L14:
 426 00e4 00000000 		.word	USBFS_backup
 427 00e8 80E100E0 		.word	-536813184
 428 00ec A5430040 		.word	1073759141
 429 00f0 B5430040 		.word	1073759157
 430 00f4 9D600040 		.word	1073766557
 431 00f8 94430040 		.word	1073759124
 432 00fc 09600040 		.word	1073766409
 433 0100 9E600040 		.word	1073766558
 434 0104 9C600040 		.word	1073766556
 435 0108 28600040 		.word	1073766440
 436 010c 08600040 		.word	1073766408
 437 0110 12600040 		.word	1073766418
 438              		.cfi_endproc
 439              	.LFE4:
 440              		.size	USBFS_Resume, .-USBFS_Resume
 441              		.text
 442              	.Letext0:
 443              		.file 2 ".\\Generated_Source\\PSoC5\\cytypes.h"
 444              		.file 3 ".\\Generated_Source\\PSoC5\\USBFS.h"