ARM GAS  C:\Users\LUKASC~1\AppData\Local\Temp\cch3eAra.s 			page 1


   1              		.syntax unified
   2              		.cpu cortex-m3
   3              		.fpu softvfp
   4              		.eabi_attribute 20, 1
   5              		.eabi_attribute 21, 1
   6              		.eabi_attribute 23, 3
   7              		.eabi_attribute 24, 1
   8              		.eabi_attribute 25, 1
   9              		.eabi_attribute 26, 1
  10              		.eabi_attribute 30, 6
  11              		.eabi_attribute 34, 1
  12              		.eabi_attribute 18, 4
  13              		.thumb
  14              		.file	"USBFS_audio.c"
  15              		.text
  16              	.Ltext0:
  17              		.cfi_sections	.debug_frame
  18              		.comm	USBFS_currentSampleFrequency,27,4
  19              		.comm	USBFS_frequencyChanged,1,1
  20              		.comm	USBFS_currentMute,1,1
  21              		.comm	USBFS_currentVolume,2,4
  22              		.global	USBFS_minimumVolume
  23              		.data
  24              		.align	2
  25              		.type	USBFS_minimumVolume, %object
  26              		.size	USBFS_minimumVolume, 2
  27              	USBFS_minimumVolume:
  28 0000 01       		.byte	1
  29 0001 80       		.byte	-128
  30              		.global	USBFS_maximumVolume
  31 0002 0000     		.align	2
  32              		.type	USBFS_maximumVolume, %object
  33              		.size	USBFS_maximumVolume, 2
  34              	USBFS_maximumVolume:
  35 0004 FF       		.byte	-1
  36 0005 7F       		.byte	127
  37              		.global	USBFS_resolutionVolume
  38 0006 0000     		.align	2
  39              		.type	USBFS_resolutionVolume, %object
  40              		.size	USBFS_resolutionVolume, 2
  41              	USBFS_resolutionVolume:
  42 0008 01       		.byte	1
  43 0009 00       		.byte	0
  44 000a 0000     		.section	.text.USBFS_DispatchAUDIOClassRqst,"ax",%progbits
  45              		.align	2
  46              		.global	USBFS_DispatchAUDIOClassRqst
  47              		.thumb
  48              		.thumb_func
  49              		.type	USBFS_DispatchAUDIOClassRqst, %function
  50              	USBFS_DispatchAUDIOClassRqst:
  51              	.LFB0:
  52              		.file 1 ".\\Generated_Source\\PSoC5\\USBFS_audio.c"
   1:.\Generated_Source\PSoC5/USBFS_audio.c **** /***************************************************************************//**
   2:.\Generated_Source\PSoC5/USBFS_audio.c **** * \file USBFS_audio.c
   3:.\Generated_Source\PSoC5/USBFS_audio.c **** * \version 3.0
   4:.\Generated_Source\PSoC5/USBFS_audio.c **** *
   5:.\Generated_Source\PSoC5/USBFS_audio.c **** * \brief
ARM GAS  C:\Users\LUKASC~1\AppData\Local\Temp\cch3eAra.s 			page 2


   6:.\Generated_Source\PSoC5/USBFS_audio.c **** *  This file contains the USB AUDIO Class request handler.
   7:.\Generated_Source\PSoC5/USBFS_audio.c **** *
   8:.\Generated_Source\PSoC5/USBFS_audio.c **** * Related Document:
   9:.\Generated_Source\PSoC5/USBFS_audio.c **** *  Universal Serial Bus Device Class Definition for Audio Devices Release 1.0
  10:.\Generated_Source\PSoC5/USBFS_audio.c **** *
  11:.\Generated_Source\PSoC5/USBFS_audio.c **** ********************************************************************************
  12:.\Generated_Source\PSoC5/USBFS_audio.c **** * \copyright
  13:.\Generated_Source\PSoC5/USBFS_audio.c **** * Copyright 2008-2015, Cypress Semiconductor Corporation.  All rights reserved.
  14:.\Generated_Source\PSoC5/USBFS_audio.c **** * You may use this file only in accordance with the license, terms, conditions,
  15:.\Generated_Source\PSoC5/USBFS_audio.c **** * disclaimers, and limitations in the end user license agreement accompanying
  16:.\Generated_Source\PSoC5/USBFS_audio.c **** * the software package with which this file was provided.
  17:.\Generated_Source\PSoC5/USBFS_audio.c **** *******************************************************************************/
  18:.\Generated_Source\PSoC5/USBFS_audio.c **** 
  19:.\Generated_Source\PSoC5/USBFS_audio.c **** #include "USBFS_audio.h"
  20:.\Generated_Source\PSoC5/USBFS_audio.c **** #include "USBFS_pvt.h"
  21:.\Generated_Source\PSoC5/USBFS_audio.c **** #include "cyapicallbacks.h"
  22:.\Generated_Source\PSoC5/USBFS_audio.c **** 
  23:.\Generated_Source\PSoC5/USBFS_audio.c **** #if defined(USBFS_ENABLE_AUDIO_CLASS)
  24:.\Generated_Source\PSoC5/USBFS_audio.c **** 
  25:.\Generated_Source\PSoC5/USBFS_audio.c **** /***************************************
  26:.\Generated_Source\PSoC5/USBFS_audio.c **** * Custom Declarations
  27:.\Generated_Source\PSoC5/USBFS_audio.c **** ***************************************/
  28:.\Generated_Source\PSoC5/USBFS_audio.c **** 
  29:.\Generated_Source\PSoC5/USBFS_audio.c **** /* `#START CUSTOM_DECLARATIONS` Place your declaration here */
  30:.\Generated_Source\PSoC5/USBFS_audio.c **** 
  31:.\Generated_Source\PSoC5/USBFS_audio.c **** /* `#END` */
  32:.\Generated_Source\PSoC5/USBFS_audio.c **** 
  33:.\Generated_Source\PSoC5/USBFS_audio.c **** 
  34:.\Generated_Source\PSoC5/USBFS_audio.c **** #if !defined(USER_SUPPLIED_AUDIO_HANDLER)
  35:.\Generated_Source\PSoC5/USBFS_audio.c **** 
  36:.\Generated_Source\PSoC5/USBFS_audio.c **** /***************************************
  37:.\Generated_Source\PSoC5/USBFS_audio.c **** *    AUDIO Variables
  38:.\Generated_Source\PSoC5/USBFS_audio.c **** ***************************************/
  39:.\Generated_Source\PSoC5/USBFS_audio.c **** 
  40:.\Generated_Source\PSoC5/USBFS_audio.c **** #if defined(USBFS_ENABLE_AUDIO_STREAMING)
  41:.\Generated_Source\PSoC5/USBFS_audio.c ****     /** Contains the current audio sample frequency. It is set by the host using a SET_CUR request 
  42:.\Generated_Source\PSoC5/USBFS_audio.c ****     volatile uint8 USBFS_currentSampleFrequency[USBFS_MAX_EP][USBFS_SAMPLE_FREQ_LEN];
  43:.\Generated_Source\PSoC5/USBFS_audio.c ****     /** Used as a flag for the user code, to inform it that the host has been sent a request 
  44:.\Generated_Source\PSoC5/USBFS_audio.c ****      * to change the sample frequency. The sample frequency will be sent on the next OUT transactio
  45:.\Generated_Source\PSoC5/USBFS_audio.c ****      * It contains the endpoint address when set. The following code is recommended for 
  46:.\Generated_Source\PSoC5/USBFS_audio.c ****      * detecting new sample frequency in main code:
  47:.\Generated_Source\PSoC5/USBFS_audio.c ****      * \snippet  /USBFS_sut_02.cydsn/main.c Detecting new Sample Frequency
  48:.\Generated_Source\PSoC5/USBFS_audio.c ****      *     
  49:.\Generated_Source\PSoC5/USBFS_audio.c ****      * The USBFS_transferState variable is checked to make sure that the transfer completes. */
  50:.\Generated_Source\PSoC5/USBFS_audio.c ****     volatile uint8 USBFS_frequencyChanged;
  51:.\Generated_Source\PSoC5/USBFS_audio.c ****     /** Contains the mute configuration set by the host.*/
  52:.\Generated_Source\PSoC5/USBFS_audio.c ****     volatile uint8 USBFS_currentMute;
  53:.\Generated_Source\PSoC5/USBFS_audio.c ****     /** Contains the volume level set by the host.*/
  54:.\Generated_Source\PSoC5/USBFS_audio.c ****     volatile uint8 USBFS_currentVolume[USBFS_VOLUME_LEN];
  55:.\Generated_Source\PSoC5/USBFS_audio.c ****     volatile uint8 USBFS_minimumVolume[USBFS_VOLUME_LEN] = {USBFS_VOL_MIN_LSB,
  56:.\Generated_Source\PSoC5/USBFS_audio.c ****                                                                                   USBFS_VOL_MIN_MSB
  57:.\Generated_Source\PSoC5/USBFS_audio.c ****     volatile uint8 USBFS_maximumVolume[USBFS_VOLUME_LEN] = {USBFS_VOL_MAX_LSB,
  58:.\Generated_Source\PSoC5/USBFS_audio.c ****                                                                                   USBFS_VOL_MAX_MSB
  59:.\Generated_Source\PSoC5/USBFS_audio.c ****     volatile uint8 USBFS_resolutionVolume[USBFS_VOLUME_LEN] = {USBFS_VOL_RES_LSB,
  60:.\Generated_Source\PSoC5/USBFS_audio.c ****                                                                                      USBFS_VOL_RES_
  61:.\Generated_Source\PSoC5/USBFS_audio.c **** #endif /*  USBFS_ENABLE_AUDIO_STREAMING */
  62:.\Generated_Source\PSoC5/USBFS_audio.c **** 
ARM GAS  C:\Users\LUKASC~1\AppData\Local\Temp\cch3eAra.s 			page 3


  63:.\Generated_Source\PSoC5/USBFS_audio.c **** 
  64:.\Generated_Source\PSoC5/USBFS_audio.c **** /*******************************************************************************
  65:.\Generated_Source\PSoC5/USBFS_audio.c **** * Function Name: USBFS_DispatchAUDIOClassRqst
  66:.\Generated_Source\PSoC5/USBFS_audio.c **** ****************************************************************************//**
  67:.\Generated_Source\PSoC5/USBFS_audio.c **** *
  68:.\Generated_Source\PSoC5/USBFS_audio.c **** *  This routine dispatches class requests
  69:.\Generated_Source\PSoC5/USBFS_audio.c **** *
  70:.\Generated_Source\PSoC5/USBFS_audio.c **** * \return
  71:.\Generated_Source\PSoC5/USBFS_audio.c **** *  Results of Audio Class request handling: 
  72:.\Generated_Source\PSoC5/USBFS_audio.c **** *  - USBFS_TRUE  - request was handled without errors
  73:.\Generated_Source\PSoC5/USBFS_audio.c **** *  - USBFS_FALSE - error occurs during handling of request     
  74:.\Generated_Source\PSoC5/USBFS_audio.c **** *
  75:.\Generated_Source\PSoC5/USBFS_audio.c **** * \globalvars
  76:.\Generated_Source\PSoC5/USBFS_audio.c **** *   USBFS_currentSampleFrequency: Contains the current audio Sample
  77:.\Generated_Source\PSoC5/USBFS_audio.c **** *       Frequency. It is set by the Host using SET_CUR request to the endpoint.
  78:.\Generated_Source\PSoC5/USBFS_audio.c **** *   USBFS_frequencyChanged: This variable is used as a flag for the
  79:.\Generated_Source\PSoC5/USBFS_audio.c **** *       user code, to be aware that Host has been sent request for changing
  80:.\Generated_Source\PSoC5/USBFS_audio.c **** *       Sample Frequency. Sample frequency will be sent on the next OUT
  81:.\Generated_Source\PSoC5/USBFS_audio.c **** *       transaction. It is contains endpoint address when set. The following
  82:.\Generated_Source\PSoC5/USBFS_audio.c **** *       code is recommended for detecting new Sample Frequency in main code:
  83:.\Generated_Source\PSoC5/USBFS_audio.c **** *       
  84:.\Generated_Source\PSoC5/USBFS_audio.c **** *  \snippet  /USBFS_sut_02.cydsn/main.c Detecting new Sample Frequency
  85:.\Generated_Source\PSoC5/USBFS_audio.c **** *      
  86:.\Generated_Source\PSoC5/USBFS_audio.c **** *   USBFS_transferState variable is checked to be sure that transfer
  87:.\Generated_Source\PSoC5/USBFS_audio.c **** *              completes.
  88:.\Generated_Source\PSoC5/USBFS_audio.c **** *   USBFS_currentMute: Contains mute configuration set by Host.
  89:.\Generated_Source\PSoC5/USBFS_audio.c **** *   USBFS_currentVolume: Contains volume level set by Host.
  90:.\Generated_Source\PSoC5/USBFS_audio.c **** *
  91:.\Generated_Source\PSoC5/USBFS_audio.c **** * \reentrant
  92:.\Generated_Source\PSoC5/USBFS_audio.c **** *  No.
  93:.\Generated_Source\PSoC5/USBFS_audio.c **** *
  94:.\Generated_Source\PSoC5/USBFS_audio.c **** *******************************************************************************/
  95:.\Generated_Source\PSoC5/USBFS_audio.c **** uint8 USBFS_DispatchAUDIOClassRqst(void) 
  96:.\Generated_Source\PSoC5/USBFS_audio.c **** {
  53              		.loc 1 96 0
  54              		.cfi_startproc
  55              		@ args = 0, pretend = 0, frame = 8
  56              		@ frame_needed = 1, uses_anonymous_args = 0
  57 0000 80B5     		push	{r7, lr}
  58              		.cfi_def_cfa_offset 8
  59              		.cfi_offset 7, -8
  60              		.cfi_offset 14, -4
  61 0002 82B0     		sub	sp, sp, #8
  62              		.cfi_def_cfa_offset 16
  63 0004 00AF     		add	r7, sp, #0
  64              		.cfi_def_cfa_register 7
  97:.\Generated_Source\PSoC5/USBFS_audio.c ****     uint8 requestHandled = USBFS_FALSE;
  65              		.loc 1 97 0
  66 0006 0023     		movs	r3, #0
  67 0008 FB71     		strb	r3, [r7, #7]
  98:.\Generated_Source\PSoC5/USBFS_audio.c ****     
  99:.\Generated_Source\PSoC5/USBFS_audio.c ****     uint8 RqstRcpt = (uint8)(USBFS_bmRequestTypeReg & USBFS_RQST_RCPT_MASK);
  68              		.loc 1 99 0
  69 000a 734B     		ldr	r3, .L35
  70 000c 1B78     		ldrb	r3, [r3]
  71 000e DBB2     		uxtb	r3, r3
  72 0010 03F00303 		and	r3, r3, #3
ARM GAS  C:\Users\LUKASC~1\AppData\Local\Temp\cch3eAra.s 			page 4


  73 0014 BB71     		strb	r3, [r7, #6]
 100:.\Generated_Source\PSoC5/USBFS_audio.c **** #if defined(USBFS_ENABLE_AUDIO_STREAMING)
 101:.\Generated_Source\PSoC5/USBFS_audio.c ****     uint8 wValueHi = (uint8) USBFS_wValueHiReg;
  74              		.loc 1 101 0
  75 0016 704B     		ldr	r3, .L35
  76 0018 DB78     		ldrb	r3, [r3, #3]
  77 001a 7B71     		strb	r3, [r7, #5]
 102:.\Generated_Source\PSoC5/USBFS_audio.c ****     uint8 epNumber = (uint8) USBFS_wIndexLoReg & USBFS_DIR_UNUSED;
  78              		.loc 1 102 0
  79 001c 6E4B     		ldr	r3, .L35
  80 001e 1B79     		ldrb	r3, [r3, #4]
  81 0020 DBB2     		uxtb	r3, r3
  82 0022 03F07F03 		and	r3, r3, #127
  83 0026 3B71     		strb	r3, [r7, #4]
 103:.\Generated_Source\PSoC5/USBFS_audio.c **** #endif /* (USBFS_ENABLE_AUDIO_STREAMING) */
 104:.\Generated_Source\PSoC5/USBFS_audio.c ****     
 105:.\Generated_Source\PSoC5/USBFS_audio.c ****     /* Check request direction: D2H or H2D. */
 106:.\Generated_Source\PSoC5/USBFS_audio.c ****     if (0u != (USBFS_bmRequestTypeReg & USBFS_RQST_DIR_D2H))
  84              		.loc 1 106 0
  85 0028 6B4B     		ldr	r3, .L35
  86 002a 1B78     		ldrb	r3, [r3]
  87 002c DBB2     		uxtb	r3, r3
  88 002e DBB2     		uxtb	r3, r3
  89 0030 5BB2     		sxtb	r3, r3
  90 0032 002B     		cmp	r3, #0
  91 0034 80F28580 		bge	.L2
 107:.\Generated_Source\PSoC5/USBFS_audio.c ****     {
 108:.\Generated_Source\PSoC5/USBFS_audio.c ****         /* Handle direction from device to host. */
 109:.\Generated_Source\PSoC5/USBFS_audio.c ****         
 110:.\Generated_Source\PSoC5/USBFS_audio.c ****         if (USBFS_RQST_RCPT_EP == RqstRcpt)
  92              		.loc 1 110 0
  93 0038 BB79     		ldrb	r3, [r7, #6]	@ zero_extendqisi2
  94 003a 022B     		cmp	r3, #2
  95 003c 1AD1     		bne	.L3
 111:.\Generated_Source\PSoC5/USBFS_audio.c ****         {
 112:.\Generated_Source\PSoC5/USBFS_audio.c ****             /* Request recipient is to endpoint. */
 113:.\Generated_Source\PSoC5/USBFS_audio.c ****             switch (USBFS_bRequestReg)
  96              		.loc 1 113 0
  97 003e 664B     		ldr	r3, .L35
  98 0040 5B78     		ldrb	r3, [r3, #1]
  99 0042 DBB2     		uxtb	r3, r3
 100 0044 812B     		cmp	r3, #129
 101 0046 00D0     		beq	.L5
 114:.\Generated_Source\PSoC5/USBFS_audio.c ****             {
 115:.\Generated_Source\PSoC5/USBFS_audio.c ****                 case USBFS_GET_CUR:
 116:.\Generated_Source\PSoC5/USBFS_audio.c ****                 #if defined(USBFS_ENABLE_AUDIO_STREAMING)
 117:.\Generated_Source\PSoC5/USBFS_audio.c ****                     if (wValueHi == USBFS_SAMPLING_FREQ_CONTROL)
 118:.\Generated_Source\PSoC5/USBFS_audio.c ****                     {
 119:.\Generated_Source\PSoC5/USBFS_audio.c ****                          /* point Control Selector is Sampling Frequency */
 120:.\Generated_Source\PSoC5/USBFS_audio.c ****                         USBFS_currentTD.wCount = USBFS_SAMPLE_FREQ_LEN;
 121:.\Generated_Source\PSoC5/USBFS_audio.c ****                         USBFS_currentTD.pData  = USBFS_currentSampleFrequency[epNumber];
 122:.\Generated_Source\PSoC5/USBFS_audio.c ****                         
 123:.\Generated_Source\PSoC5/USBFS_audio.c ****                         requestHandled   = USBFS_InitControlRead();
 124:.\Generated_Source\PSoC5/USBFS_audio.c ****                     }
 125:.\Generated_Source\PSoC5/USBFS_audio.c ****                 #endif /* (USBFS_ENABLE_AUDIO_STREAMING) */
 126:.\Generated_Source\PSoC5/USBFS_audio.c ****                 
 127:.\Generated_Source\PSoC5/USBFS_audio.c ****                     /* `#START AUDIO_READ_REQUESTS` Place other request handler here */
ARM GAS  C:\Users\LUKASC~1\AppData\Local\Temp\cch3eAra.s 			page 5


 128:.\Generated_Source\PSoC5/USBFS_audio.c **** 
 129:.\Generated_Source\PSoC5/USBFS_audio.c ****                     /* `#END` */
 130:.\Generated_Source\PSoC5/USBFS_audio.c ****                 
 131:.\Generated_Source\PSoC5/USBFS_audio.c ****                 #ifdef USBFS_DISPATCH_AUDIO_CLASS_AUDIO_READ_REQUESTS_CALLBACK    
 132:.\Generated_Source\PSoC5/USBFS_audio.c ****                     USBFS_DispatchAUDIOClass_AUDIO_READ_REQUESTS_Callback();
 133:.\Generated_Source\PSoC5/USBFS_audio.c ****                 #endif /* (USBFS_DISPATCH_AUDIO_CLASS_AUDIO_READ_REQUESTS_CALLBACK) */             
 134:.\Generated_Source\PSoC5/USBFS_audio.c ****                 break;
 135:.\Generated_Source\PSoC5/USBFS_audio.c ****                 
 136:.\Generated_Source\PSoC5/USBFS_audio.c ****                 default:
 137:.\Generated_Source\PSoC5/USBFS_audio.c ****                     /* Do not handle this request unless callback is defined. */
 138:.\Generated_Source\PSoC5/USBFS_audio.c ****                     break;
 102              		.loc 1 138 0
 103 0048 13E0     		b	.L7
 104              	.L5:
 117:.\Generated_Source\PSoC5/USBFS_audio.c ****                     {
 105              		.loc 1 117 0
 106 004a 7B79     		ldrb	r3, [r7, #5]	@ zero_extendqisi2
 107 004c 012B     		cmp	r3, #1
 108 004e 0FD1     		bne	.L6
 120:.\Generated_Source\PSoC5/USBFS_audio.c ****                         USBFS_currentTD.pData  = USBFS_currentSampleFrequency[epNumber];
 109              		.loc 1 120 0
 110 0050 624B     		ldr	r3, .L35+4
 111 0052 0322     		movs	r2, #3
 112 0054 1A80     		strh	r2, [r3]	@ movhi
 121:.\Generated_Source\PSoC5/USBFS_audio.c ****                         
 113              		.loc 1 121 0
 114 0056 3A79     		ldrb	r2, [r7, #4]	@ zero_extendqisi2
 115 0058 1346     		mov	r3, r2
 116 005a 5B00     		lsls	r3, r3, #1
 117 005c 1344     		add	r3, r3, r2
 118 005e 604A     		ldr	r2, .L35+8
 119 0060 1344     		add	r3, r3, r2
 120 0062 5E4A     		ldr	r2, .L35+4
 121 0064 5360     		str	r3, [r2, #4]
 123:.\Generated_Source\PSoC5/USBFS_audio.c ****                     }
 122              		.loc 1 123 0
 123 0066 FFF7FEFF 		bl	USBFS_InitControlRead
 124 006a 0346     		mov	r3, r0
 125 006c FB71     		strb	r3, [r7, #7]
 134:.\Generated_Source\PSoC5/USBFS_audio.c ****                 
 126              		.loc 1 134 0
 127 006e FFE7     		b	.L33
 128              	.L6:
 129              	.L33:
 130 0070 00BF     		nop
 131              	.L7:
 132 0072 ACE0     		b	.L8
 133              	.L3:
 139:.\Generated_Source\PSoC5/USBFS_audio.c ****             }
 140:.\Generated_Source\PSoC5/USBFS_audio.c ****         
 141:.\Generated_Source\PSoC5/USBFS_audio.c ****         }
 142:.\Generated_Source\PSoC5/USBFS_audio.c ****         else if (USBFS_RQST_RCPT_IFC == RqstRcpt)
 134              		.loc 1 142 0
 135 0074 BB79     		ldrb	r3, [r7, #6]	@ zero_extendqisi2
 136 0076 012B     		cmp	r3, #1
 137 0078 40F0A980 		bne	.L8
 143:.\Generated_Source\PSoC5/USBFS_audio.c ****         {
ARM GAS  C:\Users\LUKASC~1\AppData\Local\Temp\cch3eAra.s 			page 6


 144:.\Generated_Source\PSoC5/USBFS_audio.c ****             /* Request recipient is interface or entity ID. */
 145:.\Generated_Source\PSoC5/USBFS_audio.c ****             switch (USBFS_bRequestReg)
 138              		.loc 1 145 0
 139 007c 564B     		ldr	r3, .L35
 140 007e 5B78     		ldrb	r3, [r3, #1]
 141 0080 DBB2     		uxtb	r3, r3
 142 0082 832B     		cmp	r3, #131
 143 0084 36D0     		beq	.L10
 144 0086 832B     		cmp	r3, #131
 145 0088 04DC     		bgt	.L11
 146 008a 812B     		cmp	r3, #129
 147 008c 07D0     		beq	.L12
 148 008e 822B     		cmp	r3, #130
 149 0090 21D0     		beq	.L13
 146:.\Generated_Source\PSoC5/USBFS_audio.c ****             {
 147:.\Generated_Source\PSoC5/USBFS_audio.c ****                 case USBFS_GET_CUR:
 148:.\Generated_Source\PSoC5/USBFS_audio.c ****                 #if defined(USBFS_ENABLE_AUDIO_STREAMING)
 149:.\Generated_Source\PSoC5/USBFS_audio.c ****                     if (wValueHi == USBFS_MUTE_CONTROL)
 150:.\Generated_Source\PSoC5/USBFS_audio.c ****                     {
 151:.\Generated_Source\PSoC5/USBFS_audio.c ****                         /* `#START MUTE_CONTROL_GET_REQUEST` Place multi-channel handler here */
 152:.\Generated_Source\PSoC5/USBFS_audio.c **** 
 153:.\Generated_Source\PSoC5/USBFS_audio.c ****                         /* `#END` */
 154:.\Generated_Source\PSoC5/USBFS_audio.c **** 
 155:.\Generated_Source\PSoC5/USBFS_audio.c ****                     #ifdef USBFS_DISPATCH_AUDIO_CLASS_MUTE_CONTROL_GET_REQUEST_CALLBACK
 156:.\Generated_Source\PSoC5/USBFS_audio.c ****                         USBFS_DispatchAUDIOClass_MUTE_CONTROL_GET_REQUEST_Callback();
 157:.\Generated_Source\PSoC5/USBFS_audio.c ****                     #endif /* (USBFS_DISPATCH_AUDIO_CLASS_MUTE_CONTROL_GET_REQUEST_CALLBACK) */
 158:.\Generated_Source\PSoC5/USBFS_audio.c **** 
 159:.\Generated_Source\PSoC5/USBFS_audio.c ****                         /* Entity ID Control Selector is MUTE */
 160:.\Generated_Source\PSoC5/USBFS_audio.c ****                         USBFS_currentTD.wCount = 1u;
 161:.\Generated_Source\PSoC5/USBFS_audio.c ****                         USBFS_currentTD.pData  = &USBFS_currentMute;
 162:.\Generated_Source\PSoC5/USBFS_audio.c ****                         
 163:.\Generated_Source\PSoC5/USBFS_audio.c ****                         requestHandled = USBFS_InitControlRead();
 164:.\Generated_Source\PSoC5/USBFS_audio.c ****                     }
 165:.\Generated_Source\PSoC5/USBFS_audio.c ****                     else if (wValueHi == USBFS_VOLUME_CONTROL)
 166:.\Generated_Source\PSoC5/USBFS_audio.c ****                     {
 167:.\Generated_Source\PSoC5/USBFS_audio.c ****                         /* `#START VOLUME_CONTROL_GET_REQUEST` Place multi-channel handler here */
 168:.\Generated_Source\PSoC5/USBFS_audio.c **** 
 169:.\Generated_Source\PSoC5/USBFS_audio.c ****                         /* `#END` */
 170:.\Generated_Source\PSoC5/USBFS_audio.c **** 
 171:.\Generated_Source\PSoC5/USBFS_audio.c ****                     #ifdef USBFS_DISPATCH_AUDIO_CLASS_VOLUME_CONTROL_GET_REQUEST_CALLBACK
 172:.\Generated_Source\PSoC5/USBFS_audio.c ****                         USBFS_DispatchAUDIOClass_VOLUME_CONTROL_GET_REQUEST_Callback();
 173:.\Generated_Source\PSoC5/USBFS_audio.c ****                     #endif /* (USBFS_DISPATCH_AUDIO_CLASS_VOLUME_CONTROL_GET_REQUEST_CALLBACK) */
 174:.\Generated_Source\PSoC5/USBFS_audio.c **** 
 175:.\Generated_Source\PSoC5/USBFS_audio.c ****                         /* Entity ID Control Selector is VOLUME, */
 176:.\Generated_Source\PSoC5/USBFS_audio.c ****                         USBFS_currentTD.wCount = USBFS_VOLUME_LEN;
 177:.\Generated_Source\PSoC5/USBFS_audio.c ****                         USBFS_currentTD.pData  = USBFS_currentVolume;
 178:.\Generated_Source\PSoC5/USBFS_audio.c ****                         
 179:.\Generated_Source\PSoC5/USBFS_audio.c ****                         requestHandled = USBFS_InitControlRead();
 180:.\Generated_Source\PSoC5/USBFS_audio.c ****                     }
 181:.\Generated_Source\PSoC5/USBFS_audio.c ****                     else
 182:.\Generated_Source\PSoC5/USBFS_audio.c ****                     {
 183:.\Generated_Source\PSoC5/USBFS_audio.c ****                         /* `#START OTHER_GET_CUR_REQUESTS` Place other request handler here */
 184:.\Generated_Source\PSoC5/USBFS_audio.c **** 
 185:.\Generated_Source\PSoC5/USBFS_audio.c ****                         /* `#END` */
 186:.\Generated_Source\PSoC5/USBFS_audio.c **** 
 187:.\Generated_Source\PSoC5/USBFS_audio.c ****                     #ifdef USBFS_DISPATCH_AUDIO_CLASS_OTHER_GET_CUR_REQUESTS_CALLBACK
 188:.\Generated_Source\PSoC5/USBFS_audio.c ****                         USBFS_DispatchAUDIOClass_OTHER_GET_CUR_REQUESTS_Callback();
ARM GAS  C:\Users\LUKASC~1\AppData\Local\Temp\cch3eAra.s 			page 7


 189:.\Generated_Source\PSoC5/USBFS_audio.c ****                     #endif /* (USBFS_DISPATCH_AUDIO_CLASS_OTHER_GET_CUR_REQUESTS_CALLBACK) */
 190:.\Generated_Source\PSoC5/USBFS_audio.c ****                     }
 191:.\Generated_Source\PSoC5/USBFS_audio.c ****                     break;
 192:.\Generated_Source\PSoC5/USBFS_audio.c ****                     
 193:.\Generated_Source\PSoC5/USBFS_audio.c ****                 case USBFS_GET_MIN:
 194:.\Generated_Source\PSoC5/USBFS_audio.c ****                     if (wValueHi == USBFS_VOLUME_CONTROL)
 195:.\Generated_Source\PSoC5/USBFS_audio.c ****                     {
 196:.\Generated_Source\PSoC5/USBFS_audio.c ****                         /* Entity ID Control Selector is VOLUME, */
 197:.\Generated_Source\PSoC5/USBFS_audio.c ****                         USBFS_currentTD.wCount = USBFS_VOLUME_LEN;
 198:.\Generated_Source\PSoC5/USBFS_audio.c ****                         USBFS_currentTD.pData  = &USBFS_minimumVolume[0];
 199:.\Generated_Source\PSoC5/USBFS_audio.c ****                         
 200:.\Generated_Source\PSoC5/USBFS_audio.c ****                         requestHandled = USBFS_InitControlRead();
 201:.\Generated_Source\PSoC5/USBFS_audio.c ****                     }
 202:.\Generated_Source\PSoC5/USBFS_audio.c ****                     break;
 203:.\Generated_Source\PSoC5/USBFS_audio.c ****                     
 204:.\Generated_Source\PSoC5/USBFS_audio.c ****                 case USBFS_GET_MAX:
 205:.\Generated_Source\PSoC5/USBFS_audio.c ****                     if (wValueHi == USBFS_VOLUME_CONTROL)
 206:.\Generated_Source\PSoC5/USBFS_audio.c ****                     {
 207:.\Generated_Source\PSoC5/USBFS_audio.c ****                         /* Entity ID Control Selector is VOLUME, */
 208:.\Generated_Source\PSoC5/USBFS_audio.c ****                         USBFS_currentTD.wCount = USBFS_VOLUME_LEN;
 209:.\Generated_Source\PSoC5/USBFS_audio.c ****                         USBFS_currentTD.pData  = &USBFS_maximumVolume[0];
 210:.\Generated_Source\PSoC5/USBFS_audio.c ****                         
 211:.\Generated_Source\PSoC5/USBFS_audio.c ****                         requestHandled = USBFS_InitControlRead();
 212:.\Generated_Source\PSoC5/USBFS_audio.c ****                     }
 213:.\Generated_Source\PSoC5/USBFS_audio.c ****                     break;
 214:.\Generated_Source\PSoC5/USBFS_audio.c ****                     
 215:.\Generated_Source\PSoC5/USBFS_audio.c ****                 case USBFS_GET_RES:
 216:.\Generated_Source\PSoC5/USBFS_audio.c ****                     if (wValueHi == USBFS_VOLUME_CONTROL)
 217:.\Generated_Source\PSoC5/USBFS_audio.c ****                     {
 218:.\Generated_Source\PSoC5/USBFS_audio.c ****                          /* Entity ID Control Selector is VOLUME, */
 219:.\Generated_Source\PSoC5/USBFS_audio.c ****                         USBFS_currentTD.wCount = USBFS_VOLUME_LEN;
 220:.\Generated_Source\PSoC5/USBFS_audio.c ****                         USBFS_currentTD.pData  = &USBFS_resolutionVolume[0];
 221:.\Generated_Source\PSoC5/USBFS_audio.c ****                         
 222:.\Generated_Source\PSoC5/USBFS_audio.c ****                         requestHandled   = USBFS_InitControlRead();
 223:.\Generated_Source\PSoC5/USBFS_audio.c ****                     }
 224:.\Generated_Source\PSoC5/USBFS_audio.c ****                     break;
 225:.\Generated_Source\PSoC5/USBFS_audio.c ****                     
 226:.\Generated_Source\PSoC5/USBFS_audio.c ****                 /* The contents of the status message is reserved for future use.
 227:.\Generated_Source\PSoC5/USBFS_audio.c ****                 * For the time being, a null packet should be returned in the data stage of the
 228:.\Generated_Source\PSoC5/USBFS_audio.c ****                 * control transfer, and the received null packet should be ACKed.
 229:.\Generated_Source\PSoC5/USBFS_audio.c ****                 */
 230:.\Generated_Source\PSoC5/USBFS_audio.c ****                 case USBFS_GET_STAT:
 231:.\Generated_Source\PSoC5/USBFS_audio.c ****                     USBFS_currentTD.wCount = 0u;    
 232:.\Generated_Source\PSoC5/USBFS_audio.c ****                     
 233:.\Generated_Source\PSoC5/USBFS_audio.c ****                     requestHandled = USBFS_InitControlWrite();
 234:.\Generated_Source\PSoC5/USBFS_audio.c **** 
 235:.\Generated_Source\PSoC5/USBFS_audio.c ****                 #endif /* (USBFS_ENABLE_AUDIO_STREAMING) */
 236:.\Generated_Source\PSoC5/USBFS_audio.c ****                 
 237:.\Generated_Source\PSoC5/USBFS_audio.c ****                     /* `#START AUDIO_WRITE_REQUESTS` Place other request handler here */
 238:.\Generated_Source\PSoC5/USBFS_audio.c **** 
 239:.\Generated_Source\PSoC5/USBFS_audio.c ****                     /* `#END` */
 240:.\Generated_Source\PSoC5/USBFS_audio.c ****                 
 241:.\Generated_Source\PSoC5/USBFS_audio.c ****                 #ifdef USBFS_DISPATCH_AUDIO_CLASS_AUDIO_WRITE_REQUESTS_CALLBACK
 242:.\Generated_Source\PSoC5/USBFS_audio.c ****                     USBFS_DispatchAUDIOClass_AUDIO_WRITE_REQUESTS_Callback();
 243:.\Generated_Source\PSoC5/USBFS_audio.c ****                 #endif /* (USBFS_DISPATCH_AUDIO_CLASS_AUDIO_WRITE_REQUESTS_CALLBACK) */
 244:.\Generated_Source\PSoC5/USBFS_audio.c ****                     break;
 245:.\Generated_Source\PSoC5/USBFS_audio.c ****                 
ARM GAS  C:\Users\LUKASC~1\AppData\Local\Temp\cch3eAra.s 			page 8


 246:.\Generated_Source\PSoC5/USBFS_audio.c ****                 default:
 247:.\Generated_Source\PSoC5/USBFS_audio.c ****                     /* Do not handle this request. */
 248:.\Generated_Source\PSoC5/USBFS_audio.c ****                     break;
 150              		.loc 1 248 0
 151 0092 55E0     		b	.L18
 152              	.L11:
 145:.\Generated_Source\PSoC5/USBFS_audio.c ****             {
 153              		.loc 1 145 0
 154 0094 842B     		cmp	r3, #132
 155 0096 3CD0     		beq	.L14
 156 0098 FF2B     		cmp	r3, #255
 157 009a 49D0     		beq	.L15
 158              		.loc 1 248 0
 159 009c 50E0     		b	.L18
 160              	.L12:
 149:.\Generated_Source\PSoC5/USBFS_audio.c ****                     {
 161              		.loc 1 149 0
 162 009e 7B79     		ldrb	r3, [r7, #5]	@ zero_extendqisi2
 163 00a0 012B     		cmp	r3, #1
 164 00a2 0AD1     		bne	.L16
 160:.\Generated_Source\PSoC5/USBFS_audio.c ****                         USBFS_currentTD.pData  = &USBFS_currentMute;
 165              		.loc 1 160 0
 166 00a4 4D4B     		ldr	r3, .L35+4
 167 00a6 0122     		movs	r2, #1
 168 00a8 1A80     		strh	r2, [r3]	@ movhi
 161:.\Generated_Source\PSoC5/USBFS_audio.c ****                         
 169              		.loc 1 161 0
 170 00aa 4C4B     		ldr	r3, .L35+4
 171 00ac 4D4A     		ldr	r2, .L35+12
 172 00ae 5A60     		str	r2, [r3, #4]
 163:.\Generated_Source\PSoC5/USBFS_audio.c ****                     }
 173              		.loc 1 163 0
 174 00b0 FFF7FEFF 		bl	USBFS_InitControlRead
 175 00b4 0346     		mov	r3, r0
 176 00b6 FB71     		strb	r3, [r7, #7]
 177 00b8 0CE0     		b	.L17
 178              	.L16:
 165:.\Generated_Source\PSoC5/USBFS_audio.c ****                     {
 179              		.loc 1 165 0
 180 00ba 7B79     		ldrb	r3, [r7, #5]	@ zero_extendqisi2
 181 00bc 022B     		cmp	r3, #2
 182 00be 09D1     		bne	.L17
 176:.\Generated_Source\PSoC5/USBFS_audio.c ****                         USBFS_currentTD.pData  = USBFS_currentVolume;
 183              		.loc 1 176 0
 184 00c0 464B     		ldr	r3, .L35+4
 185 00c2 0222     		movs	r2, #2
 186 00c4 1A80     		strh	r2, [r3]	@ movhi
 177:.\Generated_Source\PSoC5/USBFS_audio.c ****                         
 187              		.loc 1 177 0
 188 00c6 454B     		ldr	r3, .L35+4
 189 00c8 474A     		ldr	r2, .L35+16
 190 00ca 5A60     		str	r2, [r3, #4]
 179:.\Generated_Source\PSoC5/USBFS_audio.c ****                     }
 191              		.loc 1 179 0
 192 00cc FFF7FEFF 		bl	USBFS_InitControlRead
 193 00d0 0346     		mov	r3, r0
 194 00d2 FB71     		strb	r3, [r7, #7]
ARM GAS  C:\Users\LUKASC~1\AppData\Local\Temp\cch3eAra.s 			page 9


 195              	.L17:
 191:.\Generated_Source\PSoC5/USBFS_audio.c ****                     
 196              		.loc 1 191 0
 197 00d4 34E0     		b	.L18
 198              	.L13:
 194:.\Generated_Source\PSoC5/USBFS_audio.c ****                     {
 199              		.loc 1 194 0
 200 00d6 7B79     		ldrb	r3, [r7, #5]	@ zero_extendqisi2
 201 00d8 022B     		cmp	r3, #2
 202 00da 0AD1     		bne	.L19
 197:.\Generated_Source\PSoC5/USBFS_audio.c ****                         USBFS_currentTD.pData  = &USBFS_minimumVolume[0];
 203              		.loc 1 197 0
 204 00dc 3F4B     		ldr	r3, .L35+4
 205 00de 0222     		movs	r2, #2
 206 00e0 1A80     		strh	r2, [r3]	@ movhi
 198:.\Generated_Source\PSoC5/USBFS_audio.c ****                         
 207              		.loc 1 198 0
 208 00e2 3E4B     		ldr	r3, .L35+4
 209 00e4 414A     		ldr	r2, .L35+20
 210 00e6 5A60     		str	r2, [r3, #4]
 200:.\Generated_Source\PSoC5/USBFS_audio.c ****                     }
 211              		.loc 1 200 0
 212 00e8 FFF7FEFF 		bl	USBFS_InitControlRead
 213 00ec 0346     		mov	r3, r0
 214 00ee FB71     		strb	r3, [r7, #7]
 202:.\Generated_Source\PSoC5/USBFS_audio.c ****                     
 215              		.loc 1 202 0
 216 00f0 26E0     		b	.L18
 217              	.L19:
 202:.\Generated_Source\PSoC5/USBFS_audio.c ****                     
 218              		.loc 1 202 0 is_stmt 0 discriminator 5
 219 00f2 25E0     		b	.L18
 220              	.L10:
 205:.\Generated_Source\PSoC5/USBFS_audio.c ****                     {
 221              		.loc 1 205 0 is_stmt 1
 222 00f4 7B79     		ldrb	r3, [r7, #5]	@ zero_extendqisi2
 223 00f6 022B     		cmp	r3, #2
 224 00f8 0AD1     		bne	.L20
 208:.\Generated_Source\PSoC5/USBFS_audio.c ****                         USBFS_currentTD.pData  = &USBFS_maximumVolume[0];
 225              		.loc 1 208 0
 226 00fa 384B     		ldr	r3, .L35+4
 227 00fc 0222     		movs	r2, #2
 228 00fe 1A80     		strh	r2, [r3]	@ movhi
 209:.\Generated_Source\PSoC5/USBFS_audio.c ****                         
 229              		.loc 1 209 0
 230 0100 364B     		ldr	r3, .L35+4
 231 0102 3B4A     		ldr	r2, .L35+24
 232 0104 5A60     		str	r2, [r3, #4]
 211:.\Generated_Source\PSoC5/USBFS_audio.c ****                     }
 233              		.loc 1 211 0
 234 0106 FFF7FEFF 		bl	USBFS_InitControlRead
 235 010a 0346     		mov	r3, r0
 236 010c FB71     		strb	r3, [r7, #7]
 213:.\Generated_Source\PSoC5/USBFS_audio.c ****                     
 237              		.loc 1 213 0
 238 010e 17E0     		b	.L18
 239              	.L20:
ARM GAS  C:\Users\LUKASC~1\AppData\Local\Temp\cch3eAra.s 			page 10


 213:.\Generated_Source\PSoC5/USBFS_audio.c ****                     
 240              		.loc 1 213 0 is_stmt 0 discriminator 6
 241 0110 16E0     		b	.L18
 242              	.L14:
 216:.\Generated_Source\PSoC5/USBFS_audio.c ****                     {
 243              		.loc 1 216 0 is_stmt 1
 244 0112 7B79     		ldrb	r3, [r7, #5]	@ zero_extendqisi2
 245 0114 022B     		cmp	r3, #2
 246 0116 0AD1     		bne	.L21
 219:.\Generated_Source\PSoC5/USBFS_audio.c ****                         USBFS_currentTD.pData  = &USBFS_resolutionVolume[0];
 247              		.loc 1 219 0
 248 0118 304B     		ldr	r3, .L35+4
 249 011a 0222     		movs	r2, #2
 250 011c 1A80     		strh	r2, [r3]	@ movhi
 220:.\Generated_Source\PSoC5/USBFS_audio.c ****                         
 251              		.loc 1 220 0
 252 011e 2F4B     		ldr	r3, .L35+4
 253 0120 344A     		ldr	r2, .L35+28
 254 0122 5A60     		str	r2, [r3, #4]
 222:.\Generated_Source\PSoC5/USBFS_audio.c ****                     }
 255              		.loc 1 222 0
 256 0124 FFF7FEFF 		bl	USBFS_InitControlRead
 257 0128 0346     		mov	r3, r0
 258 012a FB71     		strb	r3, [r7, #7]
 224:.\Generated_Source\PSoC5/USBFS_audio.c ****                     
 259              		.loc 1 224 0
 260 012c 08E0     		b	.L18
 261              	.L21:
 224:.\Generated_Source\PSoC5/USBFS_audio.c ****                     
 262              		.loc 1 224 0 is_stmt 0 discriminator 7
 263 012e 07E0     		b	.L18
 264              	.L15:
 231:.\Generated_Source\PSoC5/USBFS_audio.c ****                     
 265              		.loc 1 231 0 is_stmt 1
 266 0130 2A4B     		ldr	r3, .L35+4
 267 0132 0022     		movs	r2, #0
 268 0134 1A80     		strh	r2, [r3]	@ movhi
 233:.\Generated_Source\PSoC5/USBFS_audio.c **** 
 269              		.loc 1 233 0
 270 0136 FFF7FEFF 		bl	USBFS_InitControlWrite
 271 013a 0346     		mov	r3, r0
 272 013c FB71     		strb	r3, [r7, #7]
 244:.\Generated_Source\PSoC5/USBFS_audio.c ****                 
 273              		.loc 1 244 0
 274 013e 00BF     		nop
 275              	.L18:
 276 0140 45E0     		b	.L8
 277              	.L2:
 249:.\Generated_Source\PSoC5/USBFS_audio.c ****             }
 250:.\Generated_Source\PSoC5/USBFS_audio.c ****         }
 251:.\Generated_Source\PSoC5/USBFS_audio.c ****         else
 252:.\Generated_Source\PSoC5/USBFS_audio.c ****         {   
 253:.\Generated_Source\PSoC5/USBFS_audio.c ****             /* Do not handle other requests recipients. */
 254:.\Generated_Source\PSoC5/USBFS_audio.c ****         }
 255:.\Generated_Source\PSoC5/USBFS_audio.c ****     }
 256:.\Generated_Source\PSoC5/USBFS_audio.c ****     else
 257:.\Generated_Source\PSoC5/USBFS_audio.c ****     {
ARM GAS  C:\Users\LUKASC~1\AppData\Local\Temp\cch3eAra.s 			page 11


 258:.\Generated_Source\PSoC5/USBFS_audio.c ****         /* Handle direction from host to device. */
 259:.\Generated_Source\PSoC5/USBFS_audio.c ****         
 260:.\Generated_Source\PSoC5/USBFS_audio.c ****         if (USBFS_RQST_RCPT_EP == RqstRcpt)
 278              		.loc 1 260 0
 279 0142 BB79     		ldrb	r3, [r7, #6]	@ zero_extendqisi2
 280 0144 022B     		cmp	r3, #2
 281 0146 1DD1     		bne	.L22
 261:.\Generated_Source\PSoC5/USBFS_audio.c ****         {
 262:.\Generated_Source\PSoC5/USBFS_audio.c ****             /* Request recipient is endpoint. */
 263:.\Generated_Source\PSoC5/USBFS_audio.c ****             switch (USBFS_bRequestReg)
 282              		.loc 1 263 0
 283 0148 234B     		ldr	r3, .L35
 284 014a 5B78     		ldrb	r3, [r3, #1]
 285 014c DBB2     		uxtb	r3, r3
 286 014e 012B     		cmp	r3, #1
 287 0150 00D0     		beq	.L24
 264:.\Generated_Source\PSoC5/USBFS_audio.c ****             {
 265:.\Generated_Source\PSoC5/USBFS_audio.c ****                 case USBFS_SET_CUR:
 266:.\Generated_Source\PSoC5/USBFS_audio.c ****                 #if defined(USBFS_ENABLE_AUDIO_STREAMING)
 267:.\Generated_Source\PSoC5/USBFS_audio.c ****                     if (wValueHi == USBFS_SAMPLING_FREQ_CONTROL)
 268:.\Generated_Source\PSoC5/USBFS_audio.c ****                     {
 269:.\Generated_Source\PSoC5/USBFS_audio.c ****                          /* point Control Selector is Sampling Frequency */
 270:.\Generated_Source\PSoC5/USBFS_audio.c ****                         USBFS_currentTD.wCount = USBFS_SAMPLE_FREQ_LEN;
 271:.\Generated_Source\PSoC5/USBFS_audio.c ****                         USBFS_currentTD.pData  = USBFS_currentSampleFrequency[epNumber];
 272:.\Generated_Source\PSoC5/USBFS_audio.c ****                         USBFS_frequencyChanged = (uint8) epNumber;
 273:.\Generated_Source\PSoC5/USBFS_audio.c ****                         
 274:.\Generated_Source\PSoC5/USBFS_audio.c ****                         requestHandled   = USBFS_InitControlWrite();
 275:.\Generated_Source\PSoC5/USBFS_audio.c ****                     }
 276:.\Generated_Source\PSoC5/USBFS_audio.c ****                 #endif /* (USBFS_ENABLE_AUDIO_STREAMING) */
 277:.\Generated_Source\PSoC5/USBFS_audio.c **** 
 278:.\Generated_Source\PSoC5/USBFS_audio.c ****                     /* `#START AUDIO_SAMPLING_FREQ_REQUESTS` Place other request handler here */
 279:.\Generated_Source\PSoC5/USBFS_audio.c **** 
 280:.\Generated_Source\PSoC5/USBFS_audio.c ****                     /* `#END` */
 281:.\Generated_Source\PSoC5/USBFS_audio.c **** 
 282:.\Generated_Source\PSoC5/USBFS_audio.c ****                 #ifdef USBFS_DISPATCH_AUDIO_CLASS_AUDIO_SAMPLING_FREQ_REQUESTS_CALLBACK
 283:.\Generated_Source\PSoC5/USBFS_audio.c ****                     USBFS_DispatchAUDIOClass_AUDIO_SAMPLING_FREQ_REQUESTS_Callback();
 284:.\Generated_Source\PSoC5/USBFS_audio.c ****                 #endif /* (USBFS_DISPATCH_AUDIO_CLASS_AUDIO_SAMPLING_FREQ_REQUESTS_CALLBACK) */
 285:.\Generated_Source\PSoC5/USBFS_audio.c ****                     break;
 286:.\Generated_Source\PSoC5/USBFS_audio.c ****                 
 287:.\Generated_Source\PSoC5/USBFS_audio.c ****                 default:
 288:.\Generated_Source\PSoC5/USBFS_audio.c ****                     /* Do not handle this request. */
 289:.\Generated_Source\PSoC5/USBFS_audio.c ****                     break;
 288              		.loc 1 289 0
 289 0152 16E0     		b	.L26
 290              	.L24:
 267:.\Generated_Source\PSoC5/USBFS_audio.c ****                     {
 291              		.loc 1 267 0
 292 0154 7B79     		ldrb	r3, [r7, #5]	@ zero_extendqisi2
 293 0156 012B     		cmp	r3, #1
 294 0158 12D1     		bne	.L25
 270:.\Generated_Source\PSoC5/USBFS_audio.c ****                         USBFS_currentTD.pData  = USBFS_currentSampleFrequency[epNumber];
 295              		.loc 1 270 0
 296 015a 204B     		ldr	r3, .L35+4
 297 015c 0322     		movs	r2, #3
 298 015e 1A80     		strh	r2, [r3]	@ movhi
 271:.\Generated_Source\PSoC5/USBFS_audio.c ****                         USBFS_frequencyChanged = (uint8) epNumber;
 299              		.loc 1 271 0
ARM GAS  C:\Users\LUKASC~1\AppData\Local\Temp\cch3eAra.s 			page 12


 300 0160 3A79     		ldrb	r2, [r7, #4]	@ zero_extendqisi2
 301 0162 1346     		mov	r3, r2
 302 0164 5B00     		lsls	r3, r3, #1
 303 0166 1344     		add	r3, r3, r2
 304 0168 1D4A     		ldr	r2, .L35+8
 305 016a 1344     		add	r3, r3, r2
 306 016c 1B4A     		ldr	r2, .L35+4
 307 016e 5360     		str	r3, [r2, #4]
 272:.\Generated_Source\PSoC5/USBFS_audio.c ****                         
 308              		.loc 1 272 0
 309 0170 214A     		ldr	r2, .L35+32
 310 0172 3B79     		ldrb	r3, [r7, #4]
 311 0174 1370     		strb	r3, [r2]
 274:.\Generated_Source\PSoC5/USBFS_audio.c ****                     }
 312              		.loc 1 274 0
 313 0176 FFF7FEFF 		bl	USBFS_InitControlWrite
 314 017a 0346     		mov	r3, r0
 315 017c FB71     		strb	r3, [r7, #7]
 285:.\Generated_Source\PSoC5/USBFS_audio.c ****                 
 316              		.loc 1 285 0
 317 017e FFE7     		b	.L34
 318              	.L25:
 319              	.L34:
 320 0180 00BF     		nop
 321              	.L26:
 322 0182 24E0     		b	.L8
 323              	.L22:
 290:.\Generated_Source\PSoC5/USBFS_audio.c ****             }
 291:.\Generated_Source\PSoC5/USBFS_audio.c ****         }
 292:.\Generated_Source\PSoC5/USBFS_audio.c ****         else if(USBFS_RQST_RCPT_IFC == RqstRcpt)
 324              		.loc 1 292 0
 325 0184 BB79     		ldrb	r3, [r7, #6]	@ zero_extendqisi2
 326 0186 012B     		cmp	r3, #1
 327 0188 21D1     		bne	.L8
 293:.\Generated_Source\PSoC5/USBFS_audio.c ****         {
 294:.\Generated_Source\PSoC5/USBFS_audio.c ****             /* Request recipient is interface or entity ID. */
 295:.\Generated_Source\PSoC5/USBFS_audio.c ****             switch (USBFS_bRequestReg)
 328              		.loc 1 295 0
 329 018a 134B     		ldr	r3, .L35
 330 018c 5B78     		ldrb	r3, [r3, #1]
 331 018e DBB2     		uxtb	r3, r3
 332 0190 012B     		cmp	r3, #1
 333 0192 00D0     		beq	.L28
 296:.\Generated_Source\PSoC5/USBFS_audio.c ****             {
 297:.\Generated_Source\PSoC5/USBFS_audio.c ****                 case USBFS_SET_CUR:
 298:.\Generated_Source\PSoC5/USBFS_audio.c ****                 #if defined(USBFS_ENABLE_AUDIO_STREAMING)
 299:.\Generated_Source\PSoC5/USBFS_audio.c ****                     if (wValueHi == USBFS_MUTE_CONTROL)
 300:.\Generated_Source\PSoC5/USBFS_audio.c ****                     {
 301:.\Generated_Source\PSoC5/USBFS_audio.c ****                         /* `#START MUTE_SET_REQUEST` Place multi-channel handler here */
 302:.\Generated_Source\PSoC5/USBFS_audio.c **** 
 303:.\Generated_Source\PSoC5/USBFS_audio.c ****                         /* `#END` */
 304:.\Generated_Source\PSoC5/USBFS_audio.c **** 
 305:.\Generated_Source\PSoC5/USBFS_audio.c ****                     #ifdef USBFS_DISPATCH_AUDIO_CLASS_MUTE_SET_REQUEST_CALLBACK
 306:.\Generated_Source\PSoC5/USBFS_audio.c ****                         USBFS_DispatchAUDIOClass_MUTE_SET_REQUEST_Callback();
 307:.\Generated_Source\PSoC5/USBFS_audio.c ****                     #endif /* (USBFS_DISPATCH_AUDIO_CLASS_MUTE_SET_REQUEST_CALLBACK) */
 308:.\Generated_Source\PSoC5/USBFS_audio.c **** 
 309:.\Generated_Source\PSoC5/USBFS_audio.c ****                         /* Entity ID Control Selector is MUTE */
ARM GAS  C:\Users\LUKASC~1\AppData\Local\Temp\cch3eAra.s 			page 13


 310:.\Generated_Source\PSoC5/USBFS_audio.c ****                         USBFS_currentTD.wCount = 1u;
 311:.\Generated_Source\PSoC5/USBFS_audio.c ****                         USBFS_currentTD.pData  = &USBFS_currentMute;
 312:.\Generated_Source\PSoC5/USBFS_audio.c ****                         
 313:.\Generated_Source\PSoC5/USBFS_audio.c ****                         requestHandled = USBFS_InitControlWrite();
 314:.\Generated_Source\PSoC5/USBFS_audio.c ****                     }
 315:.\Generated_Source\PSoC5/USBFS_audio.c ****                     else if (wValueHi == USBFS_VOLUME_CONTROL)
 316:.\Generated_Source\PSoC5/USBFS_audio.c ****                     {
 317:.\Generated_Source\PSoC5/USBFS_audio.c ****                         /* `#START VOLUME_CONTROL_SET_REQUEST` Place multi-channel handler here */
 318:.\Generated_Source\PSoC5/USBFS_audio.c **** 
 319:.\Generated_Source\PSoC5/USBFS_audio.c ****                         /* `#END` */
 320:.\Generated_Source\PSoC5/USBFS_audio.c **** 
 321:.\Generated_Source\PSoC5/USBFS_audio.c ****                     #ifdef USBFS_DISPATCH_AUDIO_CLASS_VOLUME_CONTROL_SET_REQUEST_CALLBACK
 322:.\Generated_Source\PSoC5/USBFS_audio.c ****                         USBFS_DispatchAUDIOClass_VOLUME_CONTROL_SET_REQUEST_Callback();
 323:.\Generated_Source\PSoC5/USBFS_audio.c ****                     #endif /* (USBFS_DISPATCH_AUDIO_CLASS_VOLUME_CONTROL_SET_REQUEST_CALLBACK) */
 324:.\Generated_Source\PSoC5/USBFS_audio.c **** 
 325:.\Generated_Source\PSoC5/USBFS_audio.c ****                         /* Entity ID Control Selector is VOLUME */
 326:.\Generated_Source\PSoC5/USBFS_audio.c ****                         USBFS_currentTD.wCount = USBFS_VOLUME_LEN;
 327:.\Generated_Source\PSoC5/USBFS_audio.c ****                         USBFS_currentTD.pData  = USBFS_currentVolume;
 328:.\Generated_Source\PSoC5/USBFS_audio.c ****                         
 329:.\Generated_Source\PSoC5/USBFS_audio.c ****                         requestHandled = USBFS_InitControlWrite();
 330:.\Generated_Source\PSoC5/USBFS_audio.c ****                     }
 331:.\Generated_Source\PSoC5/USBFS_audio.c ****                     else
 332:.\Generated_Source\PSoC5/USBFS_audio.c ****                     {
 333:.\Generated_Source\PSoC5/USBFS_audio.c ****                         /* `#START OTHER_SET_CUR_REQUESTS` Place other request handler here */
 334:.\Generated_Source\PSoC5/USBFS_audio.c **** 
 335:.\Generated_Source\PSoC5/USBFS_audio.c ****                         /* `#END` */
 336:.\Generated_Source\PSoC5/USBFS_audio.c **** 
 337:.\Generated_Source\PSoC5/USBFS_audio.c ****                     #ifdef USBFS_DISPATCH_AUDIO_CLASS_OTHER_SET_CUR_REQUESTS_CALLBACK
 338:.\Generated_Source\PSoC5/USBFS_audio.c ****                         USBFS_DispatchAUDIOClass_OTHER_SET_CUR_REQUESTS_Callback();
 339:.\Generated_Source\PSoC5/USBFS_audio.c ****                     #endif /* (USBFS_DISPATCH_AUDIO_CLASS_OTHER_SET_CUR_REQUESTS_CALLBACK) */
 340:.\Generated_Source\PSoC5/USBFS_audio.c ****                     }
 341:.\Generated_Source\PSoC5/USBFS_audio.c ****                 #endif /*  USBFS_ENABLE_AUDIO_STREAMING */
 342:.\Generated_Source\PSoC5/USBFS_audio.c ****                 
 343:.\Generated_Source\PSoC5/USBFS_audio.c ****                 
 344:.\Generated_Source\PSoC5/USBFS_audio.c ****                     /* `#START AUDIO_CONTROL_SEL_REQUESTS` Place other request handler here */
 345:.\Generated_Source\PSoC5/USBFS_audio.c **** 
 346:.\Generated_Source\PSoC5/USBFS_audio.c ****                     /* `#END` */
 347:.\Generated_Source\PSoC5/USBFS_audio.c ****                     
 348:.\Generated_Source\PSoC5/USBFS_audio.c ****                 #ifdef USBFS_DISPATCH_AUDIO_CLASS_AUDIO_CONTROL_SEL_REQUESTS_CALLBACK
 349:.\Generated_Source\PSoC5/USBFS_audio.c ****                     USBFS_DispatchAUDIOClass_AUDIO_CONTROL_SEL_REQUESTS_Callback();
 350:.\Generated_Source\PSoC5/USBFS_audio.c ****                 #endif /* (USBFS_DISPATCH_AUDIO_CLASS_AUDIO_CONTROL_SEL_REQUESTS_CALLBACK) */
 351:.\Generated_Source\PSoC5/USBFS_audio.c ****                 break;
 352:.\Generated_Source\PSoC5/USBFS_audio.c **** 
 353:.\Generated_Source\PSoC5/USBFS_audio.c ****                 default:
 354:.\Generated_Source\PSoC5/USBFS_audio.c ****                     /* Do not handle this request. */
 355:.\Generated_Source\PSoC5/USBFS_audio.c ****                 break;
 334              		.loc 1 355 0
 335 0194 1BE0     		b	.L31
 336              	.L28:
 299:.\Generated_Source\PSoC5/USBFS_audio.c ****                     {
 337              		.loc 1 299 0
 338 0196 7B79     		ldrb	r3, [r7, #5]	@ zero_extendqisi2
 339 0198 012B     		cmp	r3, #1
 340 019a 0AD1     		bne	.L29
 310:.\Generated_Source\PSoC5/USBFS_audio.c ****                         USBFS_currentTD.pData  = &USBFS_currentMute;
 341              		.loc 1 310 0
 342 019c 0F4B     		ldr	r3, .L35+4
ARM GAS  C:\Users\LUKASC~1\AppData\Local\Temp\cch3eAra.s 			page 14


 343 019e 0122     		movs	r2, #1
 344 01a0 1A80     		strh	r2, [r3]	@ movhi
 311:.\Generated_Source\PSoC5/USBFS_audio.c ****                         
 345              		.loc 1 311 0
 346 01a2 0E4B     		ldr	r3, .L35+4
 347 01a4 0F4A     		ldr	r2, .L35+12
 348 01a6 5A60     		str	r2, [r3, #4]
 313:.\Generated_Source\PSoC5/USBFS_audio.c ****                     }
 349              		.loc 1 313 0
 350 01a8 FFF7FEFF 		bl	USBFS_InitControlWrite
 351 01ac 0346     		mov	r3, r0
 352 01ae FB71     		strb	r3, [r7, #7]
 353 01b0 0CE0     		b	.L30
 354              	.L29:
 315:.\Generated_Source\PSoC5/USBFS_audio.c ****                     {
 355              		.loc 1 315 0
 356 01b2 7B79     		ldrb	r3, [r7, #5]	@ zero_extendqisi2
 357 01b4 022B     		cmp	r3, #2
 358 01b6 09D1     		bne	.L30
 326:.\Generated_Source\PSoC5/USBFS_audio.c ****                         USBFS_currentTD.pData  = USBFS_currentVolume;
 359              		.loc 1 326 0
 360 01b8 084B     		ldr	r3, .L35+4
 361 01ba 0222     		movs	r2, #2
 362 01bc 1A80     		strh	r2, [r3]	@ movhi
 327:.\Generated_Source\PSoC5/USBFS_audio.c ****                         
 363              		.loc 1 327 0
 364 01be 074B     		ldr	r3, .L35+4
 365 01c0 094A     		ldr	r2, .L35+16
 366 01c2 5A60     		str	r2, [r3, #4]
 329:.\Generated_Source\PSoC5/USBFS_audio.c ****                     }
 367              		.loc 1 329 0
 368 01c4 FFF7FEFF 		bl	USBFS_InitControlWrite
 369 01c8 0346     		mov	r3, r0
 370 01ca FB71     		strb	r3, [r7, #7]
 371              	.L30:
 351:.\Generated_Source\PSoC5/USBFS_audio.c **** 
 372              		.loc 1 351 0
 373 01cc 00BF     		nop
 374              	.L31:
 375              	.L8:
 356:.\Generated_Source\PSoC5/USBFS_audio.c ****             }
 357:.\Generated_Source\PSoC5/USBFS_audio.c ****         }
 358:.\Generated_Source\PSoC5/USBFS_audio.c ****         else
 359:.\Generated_Source\PSoC5/USBFS_audio.c ****         {
 360:.\Generated_Source\PSoC5/USBFS_audio.c ****             /* Do not handle other requests recipients. */
 361:.\Generated_Source\PSoC5/USBFS_audio.c ****         }
 362:.\Generated_Source\PSoC5/USBFS_audio.c ****     }
 363:.\Generated_Source\PSoC5/USBFS_audio.c **** 
 364:.\Generated_Source\PSoC5/USBFS_audio.c ****     return (requestHandled);
 376              		.loc 1 364 0
 377 01ce FB79     		ldrb	r3, [r7, #7]	@ zero_extendqisi2
 365:.\Generated_Source\PSoC5/USBFS_audio.c **** }
 378              		.loc 1 365 0
 379 01d0 1846     		mov	r0, r3
 380 01d2 0837     		adds	r7, r7, #8
 381              		.cfi_def_cfa_offset 8
 382 01d4 BD46     		mov	sp, r7
ARM GAS  C:\Users\LUKASC~1\AppData\Local\Temp\cch3eAra.s 			page 15


 383              		.cfi_def_cfa_register 13
 384              		@ sp needed
 385 01d6 80BD     		pop	{r7, pc}
 386              	.L36:
 387              		.align	2
 388              	.L35:
 389 01d8 00600040 		.word	1073766400
 390 01dc 00000000 		.word	USBFS_currentTD
 391 01e0 00000000 		.word	USBFS_currentSampleFrequency
 392 01e4 00000000 		.word	USBFS_currentMute
 393 01e8 00000000 		.word	USBFS_currentVolume
 394 01ec 00000000 		.word	USBFS_minimumVolume
 395 01f0 00000000 		.word	USBFS_maximumVolume
 396 01f4 00000000 		.word	USBFS_resolutionVolume
 397 01f8 00000000 		.word	USBFS_frequencyChanged
 398              		.cfi_endproc
 399              	.LFE0:
 400              		.size	USBFS_DispatchAUDIOClassRqst, .-USBFS_DispatchAUDIOClassRqst
 401              		.text
 402              	.Letext0:
 403              		.file 2 ".\\Generated_Source\\PSoC5\\cytypes.h"
 404              		.file 3 ".\\Generated_Source\\PSoC5\\USBFS.h"
 405              		.file 4 ".\\Generated_Source\\PSoC5\\USBFS_pvt.h"