ARM GAS  C:\Users\LUKASC~1\AppData\Local\Temp\ccvUkhee.s 			page 1


   1              		.syntax unified
   2              		.cpu cortex-m3
   3              		.fpu softvfp
   4              		.eabi_attribute 20, 1
   5              		.eabi_attribute 21, 1
   6              		.eabi_attribute 23, 3
   7              		.eabi_attribute 24, 1
   8              		.eabi_attribute 25, 1
   9              		.eabi_attribute 26, 1
  10              		.eabi_attribute 30, 6
  11              		.eabi_attribute 34, 1
  12              		.eabi_attribute 18, 4
  13              		.thumb
  14              		.file	"I2S_1.c"
  15              		.text
  16              	.Ltext0:
  17              		.cfi_sections	.debug_frame
  18              		.global	I2S_1_initVar
  19              		.bss
  20              		.type	I2S_1_initVar, %object
  21              		.size	I2S_1_initVar, 1
  22              	I2S_1_initVar:
  23 0000 00       		.space	1
  24              		.section	.text.I2S_1_Enable,"ax",%progbits
  25              		.align	2
  26              		.global	I2S_1_Enable
  27              		.thumb
  28              		.thumb_func
  29              		.type	I2S_1_Enable, %function
  30              	I2S_1_Enable:
  31              	.LFB0:
  32              		.file 1 ".\\Generated_Source\\PSoC5\\I2S_1.c"
   1:.\Generated_Source\PSoC5/I2S_1.c **** /*******************************************************************************
   2:.\Generated_Source\PSoC5/I2S_1.c **** * File Name: I2S_1.c
   3:.\Generated_Source\PSoC5/I2S_1.c **** * Version 2.70
   4:.\Generated_Source\PSoC5/I2S_1.c **** *
   5:.\Generated_Source\PSoC5/I2S_1.c **** * Description:
   6:.\Generated_Source\PSoC5/I2S_1.c **** *  This file contains the setup, control and status commands for the I2S
   7:.\Generated_Source\PSoC5/I2S_1.c **** *  component.
   8:.\Generated_Source\PSoC5/I2S_1.c **** *
   9:.\Generated_Source\PSoC5/I2S_1.c **** * Note:
  10:.\Generated_Source\PSoC5/I2S_1.c **** *
  11:.\Generated_Source\PSoC5/I2S_1.c **** ********************************************************************************
  12:.\Generated_Source\PSoC5/I2S_1.c **** * Copyright 2008-2015, Cypress Semiconductor Corporation.  All rights reserved.
  13:.\Generated_Source\PSoC5/I2S_1.c **** * You may use this file only in accordance with the license, terms, conditions,
  14:.\Generated_Source\PSoC5/I2S_1.c **** * disclaimers, and limitations in the end user license agreement accompanying
  15:.\Generated_Source\PSoC5/I2S_1.c **** * the software package with which this file was provided.
  16:.\Generated_Source\PSoC5/I2S_1.c **** *******************************************************************************/
  17:.\Generated_Source\PSoC5/I2S_1.c **** 
  18:.\Generated_Source\PSoC5/I2S_1.c **** #include "CyLib.h"
  19:.\Generated_Source\PSoC5/I2S_1.c **** #include "I2S_1.h"
  20:.\Generated_Source\PSoC5/I2S_1.c **** 
  21:.\Generated_Source\PSoC5/I2S_1.c **** uint8 I2S_1_initVar = 0u;
  22:.\Generated_Source\PSoC5/I2S_1.c **** 
  23:.\Generated_Source\PSoC5/I2S_1.c **** 
  24:.\Generated_Source\PSoC5/I2S_1.c **** /*******************************************************************************
  25:.\Generated_Source\PSoC5/I2S_1.c **** * Function Name: I2S_1_Enable
ARM GAS  C:\Users\LUKASC~1\AppData\Local\Temp\ccvUkhee.s 			page 2


  26:.\Generated_Source\PSoC5/I2S_1.c **** ********************************************************************************
  27:.\Generated_Source\PSoC5/I2S_1.c **** *
  28:.\Generated_Source\PSoC5/I2S_1.c **** * Summary:
  29:.\Generated_Source\PSoC5/I2S_1.c **** *  Enables I2S interface. Starts the generation of the sck and ws outputs.
  30:.\Generated_Source\PSoC5/I2S_1.c **** *  The Tx and Rx directions remain disabled. It is not necessary to call
  31:.\Generated_Source\PSoC5/I2S_1.c **** *  I2S_Enable() because the I2S_Start() routine calls this function, which is
  32:.\Generated_Source\PSoC5/I2S_1.c **** *  the preferred method to begin component operation.
  33:.\Generated_Source\PSoC5/I2S_1.c **** *
  34:.\Generated_Source\PSoC5/I2S_1.c **** * Parameters:
  35:.\Generated_Source\PSoC5/I2S_1.c **** *  None.
  36:.\Generated_Source\PSoC5/I2S_1.c **** *
  37:.\Generated_Source\PSoC5/I2S_1.c **** * Return:
  38:.\Generated_Source\PSoC5/I2S_1.c **** *  None.
  39:.\Generated_Source\PSoC5/I2S_1.c **** *
  40:.\Generated_Source\PSoC5/I2S_1.c **** *******************************************************************************/
  41:.\Generated_Source\PSoC5/I2S_1.c **** void I2S_1_Enable(void) 
  42:.\Generated_Source\PSoC5/I2S_1.c **** {
  33              		.loc 1 42 0
  34              		.cfi_startproc
  35              		@ args = 0, pretend = 0, frame = 8
  36              		@ frame_needed = 1, uses_anonymous_args = 0
  37 0000 80B5     		push	{r7, lr}
  38              		.cfi_def_cfa_offset 8
  39              		.cfi_offset 7, -8
  40              		.cfi_offset 14, -4
  41 0002 82B0     		sub	sp, sp, #8
  42              		.cfi_def_cfa_offset 16
  43 0004 00AF     		add	r7, sp, #0
  44              		.cfi_def_cfa_register 7
  43:.\Generated_Source\PSoC5/I2S_1.c ****     uint8 enableInterrupts;
  44:.\Generated_Source\PSoC5/I2S_1.c **** 
  45:.\Generated_Source\PSoC5/I2S_1.c ****     enableInterrupts = CyEnterCriticalSection();
  45              		.loc 1 45 0
  46 0006 FFF7FEFF 		bl	CyEnterCriticalSection
  47 000a 0346     		mov	r3, r0
  48 000c FB71     		strb	r3, [r7, #7]
  46:.\Generated_Source\PSoC5/I2S_1.c ****     I2S_1_AUX_CONTROL_REG |= I2S_1_CNT_START;
  49              		.loc 1 46 0
  50 000e 0B4A     		ldr	r2, .L2
  51 0010 0A4B     		ldr	r3, .L2
  52 0012 1B78     		ldrb	r3, [r3]
  53 0014 DBB2     		uxtb	r3, r3
  54 0016 43F02003 		orr	r3, r3, #32
  55 001a DBB2     		uxtb	r3, r3
  56 001c 1370     		strb	r3, [r2]
  47:.\Generated_Source\PSoC5/I2S_1.c ****     CyExitCriticalSection(enableInterrupts);
  57              		.loc 1 47 0
  58 001e FB79     		ldrb	r3, [r7, #7]	@ zero_extendqisi2
  59 0020 1846     		mov	r0, r3
  60 0022 FFF7FEFF 		bl	CyExitCriticalSection
  48:.\Generated_Source\PSoC5/I2S_1.c **** 
  49:.\Generated_Source\PSoC5/I2S_1.c ****     I2S_1_CONTROL_REG |= I2S_1_EN;
  61              		.loc 1 49 0
  62 0026 064A     		ldr	r2, .L2+4
  63 0028 054B     		ldr	r3, .L2+4
  64 002a 1B78     		ldrb	r3, [r3]
  65 002c DBB2     		uxtb	r3, r3
ARM GAS  C:\Users\LUKASC~1\AppData\Local\Temp\ccvUkhee.s 			page 3


  66 002e 43F00403 		orr	r3, r3, #4
  67 0032 DBB2     		uxtb	r3, r3
  68 0034 1370     		strb	r3, [r2]
  50:.\Generated_Source\PSoC5/I2S_1.c **** }
  69              		.loc 1 50 0
  70 0036 0837     		adds	r7, r7, #8
  71              		.cfi_def_cfa_offset 8
  72 0038 BD46     		mov	sp, r7
  73              		.cfi_def_cfa_register 13
  74              		@ sp needed
  75 003a 80BD     		pop	{r7, pc}
  76              	.L3:
  77              		.align	2
  78              	.L2:
  79 003c 90640040 		.word	1073767568
  80 0040 72640040 		.word	1073767538
  81              		.cfi_endproc
  82              	.LFE0:
  83              		.size	I2S_1_Enable, .-I2S_1_Enable
  84              		.section	.text.I2S_1_Init,"ax",%progbits
  85              		.align	2
  86              		.global	I2S_1_Init
  87              		.thumb
  88              		.thumb_func
  89              		.type	I2S_1_Init, %function
  90              	I2S_1_Init:
  91              	.LFB1:
  51:.\Generated_Source\PSoC5/I2S_1.c **** 
  52:.\Generated_Source\PSoC5/I2S_1.c **** 
  53:.\Generated_Source\PSoC5/I2S_1.c **** /*******************************************************************************
  54:.\Generated_Source\PSoC5/I2S_1.c **** * Function Name: I2S_1_Init
  55:.\Generated_Source\PSoC5/I2S_1.c **** ********************************************************************************
  56:.\Generated_Source\PSoC5/I2S_1.c **** *
  57:.\Generated_Source\PSoC5/I2S_1.c **** * Summary:
  58:.\Generated_Source\PSoC5/I2S_1.c **** *  Initializes or restores default I2S configuration provided with customizer.
  59:.\Generated_Source\PSoC5/I2S_1.c **** *  It is not necessary to call I2S_Init() because the I2S_Start() routine calls
  60:.\Generated_Source\PSoC5/I2S_1.c **** *  this function, which is the preferred method to begin component operation.
  61:.\Generated_Source\PSoC5/I2S_1.c **** *
  62:.\Generated_Source\PSoC5/I2S_1.c **** * Parameters:
  63:.\Generated_Source\PSoC5/I2S_1.c **** *  None.
  64:.\Generated_Source\PSoC5/I2S_1.c **** *
  65:.\Generated_Source\PSoC5/I2S_1.c **** * Return:
  66:.\Generated_Source\PSoC5/I2S_1.c **** *  None.
  67:.\Generated_Source\PSoC5/I2S_1.c **** *
  68:.\Generated_Source\PSoC5/I2S_1.c **** *******************************************************************************/
  69:.\Generated_Source\PSoC5/I2S_1.c **** void I2S_1_Init(void) 
  70:.\Generated_Source\PSoC5/I2S_1.c **** {
  92              		.loc 1 70 0
  93              		.cfi_startproc
  94              		@ args = 0, pretend = 0, frame = 0
  95              		@ frame_needed = 1, uses_anonymous_args = 0
  96              		@ link register save eliminated.
  97 0000 80B4     		push	{r7}
  98              		.cfi_def_cfa_offset 4
  99              		.cfi_offset 7, -4
 100 0002 00AF     		add	r7, sp, #0
 101              		.cfi_def_cfa_register 7
ARM GAS  C:\Users\LUKASC~1\AppData\Local\Temp\ccvUkhee.s 			page 4


  71:.\Generated_Source\PSoC5/I2S_1.c ****     #if (I2S_1_CLIP_DETECT_ENABLE)
  72:.\Generated_Source\PSoC5/I2S_1.c ****         static const uint8 CYCODE I2S_1_posThresholds[] = {64u, 64u, 64u, 64u, 64u};
  73:.\Generated_Source\PSoC5/I2S_1.c ****         static const int8  CYCODE I2S_1_negThresholds[] = {-64, -64, -64, -64, -64};
  74:.\Generated_Source\PSoC5/I2S_1.c ****     #endif /* I2S_1_CLIP_DETECT_ENABLE */
  75:.\Generated_Source\PSoC5/I2S_1.c **** 
  76:.\Generated_Source\PSoC5/I2S_1.c ****     #if (I2S_1_DYNAMIC_BIT_RESOLUTION)
  77:.\Generated_Source\PSoC5/I2S_1.c ****         (void)I2S_1_SetDataBits(I2S_1_DATA_BITS);
  78:.\Generated_Source\PSoC5/I2S_1.c ****     #endif /* I2S_1_DYNAMIC_BIT_RESOLUTION */
  79:.\Generated_Source\PSoC5/I2S_1.c **** 
  80:.\Generated_Source\PSoC5/I2S_1.c ****     /* Initialize Tx interrupt source selected in customizer */
  81:.\Generated_Source\PSoC5/I2S_1.c ****     #if (I2S_1_TX_DIRECTION_ENABLE)
  82:.\Generated_Source\PSoC5/I2S_1.c ****         I2S_1_SET_TX_INT_MASK(CH0, I2S_1_TX_INT_SOURCE);
 102              		.loc 1 82 0
 103 0004 124A     		ldr	r2, .L5
 104 0006 124B     		ldr	r3, .L5
 105 0008 1B78     		ldrb	r3, [r3]
 106 000a DBB2     		uxtb	r3, r3
 107 000c 23F00703 		bic	r3, r3, #7
 108 0010 DBB2     		uxtb	r3, r3
 109 0012 1370     		strb	r3, [r2]
 110 0014 0E4B     		ldr	r3, .L5
 111 0016 0E4A     		ldr	r2, .L5
 112 0018 1278     		ldrb	r2, [r2]
 113 001a D2B2     		uxtb	r2, r2
 114 001c 1A70     		strb	r2, [r3]
  83:.\Generated_Source\PSoC5/I2S_1.c ****         #if (I2S_1_TX_STEREO_1_PRESENT)
  84:.\Generated_Source\PSoC5/I2S_1.c ****             I2S_1_SET_TX_INT_MASK(CH1, I2S_1_TX_INT_SOURCE);
  85:.\Generated_Source\PSoC5/I2S_1.c ****         #endif /* I2S_1_TX_STEREO_1_PRESENT */
  86:.\Generated_Source\PSoC5/I2S_1.c ****         #if (I2S_1_TX_STEREO_2_PRESENT)
  87:.\Generated_Source\PSoC5/I2S_1.c ****             I2S_1_SET_TX_INT_MASK(CH2, I2S_1_TX_INT_SOURCE);
  88:.\Generated_Source\PSoC5/I2S_1.c ****         #endif /* I2S_1_TX_STEREO_2_PRESENT */
  89:.\Generated_Source\PSoC5/I2S_1.c ****         #if (I2S_1_TX_STEREO_3_PRESENT)
  90:.\Generated_Source\PSoC5/I2S_1.c ****             I2S_1_SET_TX_INT_MASK(CH3, I2S_1_TX_INT_SOURCE);
  91:.\Generated_Source\PSoC5/I2S_1.c ****         #endif /* I2S_1_TX_STEREO_3_PRESENT */
  92:.\Generated_Source\PSoC5/I2S_1.c ****         #if (I2S_1_TX_STEREO_4_PRESENT)
  93:.\Generated_Source\PSoC5/I2S_1.c ****             I2S_1_SET_TX_INT_MASK(CH4, I2S_1_TX_INT_SOURCE);
  94:.\Generated_Source\PSoC5/I2S_1.c ****         #endif /* I2S_1_TX_STEREO_4_PRESENT */
  95:.\Generated_Source\PSoC5/I2S_1.c ****     #endif /* (I2S_1_TX_DIRECTION_ENABLE) */
  96:.\Generated_Source\PSoC5/I2S_1.c ****     
  97:.\Generated_Source\PSoC5/I2S_1.c ****     /* Initialize Rx interrupt source and clipping thresholds selected in customizer */
  98:.\Generated_Source\PSoC5/I2S_1.c ****     #if (I2S_1_RX_DIRECTION_ENABLE)
  99:.\Generated_Source\PSoC5/I2S_1.c ****         I2S_1_SET_RX_INT_MASK(CH0, I2S_1_RX_INT_SOURCE);
 115              		.loc 1 99 0
 116 001e 0D4A     		ldr	r2, .L5+4
 117 0020 0C4B     		ldr	r3, .L5+4
 118 0022 1B78     		ldrb	r3, [r3]
 119 0024 DBB2     		uxtb	r3, r3
 120 0026 23F00703 		bic	r3, r3, #7
 121 002a DBB2     		uxtb	r3, r3
 122 002c 1370     		strb	r3, [r2]
 123 002e 094B     		ldr	r3, .L5+4
 124 0030 084A     		ldr	r2, .L5+4
 125 0032 1278     		ldrb	r2, [r2]
 126 0034 D2B2     		uxtb	r2, r2
 127 0036 1A70     		strb	r2, [r3]
 100:.\Generated_Source\PSoC5/I2S_1.c ****         #if (I2S_1_CLIP_DETECT_ENABLE)
 101:.\Generated_Source\PSoC5/I2S_1.c ****             I2S_1_SET_POS_THRESHOLD(CH0, I2S_1_posThresholds[I2S_1_STEREO_0]);
ARM GAS  C:\Users\LUKASC~1\AppData\Local\Temp\ccvUkhee.s 			page 5


 128              		.loc 1 101 0
 129 0038 074B     		ldr	r3, .L5+8
 130 003a 4022     		movs	r2, #64
 131 003c 1A70     		strb	r2, [r3]
 102:.\Generated_Source\PSoC5/I2S_1.c ****             I2S_1_SET_NEG_THRESHOLD(CH0, I2S_1_negThresholds[I2S_1_STEREO_0]);
 132              		.loc 1 102 0
 133 003e 074B     		ldr	r3, .L5+12
 134 0040 C022     		movs	r2, #192
 135 0042 D2B2     		uxtb	r2, r2
 136 0044 1A70     		strb	r2, [r3]
 103:.\Generated_Source\PSoC5/I2S_1.c ****         #endif /* I2S_1_CLIP_DETECT_ENABLE */
 104:.\Generated_Source\PSoC5/I2S_1.c ****         #if (I2S_1_RX_STEREO_1_PRESENT)
 105:.\Generated_Source\PSoC5/I2S_1.c ****             I2S_1_SET_RX_INT_MASK(CH1, I2S_1_RX_INT_SOURCE);
 106:.\Generated_Source\PSoC5/I2S_1.c ****             #if (I2S_1_CLIP_DETECT_ENABLE)
 107:.\Generated_Source\PSoC5/I2S_1.c ****                 I2S_1_SET_POS_THRESHOLD(CH1, I2S_1_posThresholds[I2S_1_STEREO_1]);
 108:.\Generated_Source\PSoC5/I2S_1.c ****                 I2S_1_SET_NEG_THRESHOLD(CH1, I2S_1_negThresholds[I2S_1_STEREO_1]);
 109:.\Generated_Source\PSoC5/I2S_1.c ****             #endif /* I2S_1_CLIP_DETECT_ENABLE */
 110:.\Generated_Source\PSoC5/I2S_1.c ****         #endif /* I2S_1_RX_STEREO_1_PRESENT */
 111:.\Generated_Source\PSoC5/I2S_1.c ****         #if (I2S_1_RX_STEREO_2_PRESENT)
 112:.\Generated_Source\PSoC5/I2S_1.c ****             I2S_1_SET_RX_INT_MASK(CH2, I2S_1_RX_INT_SOURCE);
 113:.\Generated_Source\PSoC5/I2S_1.c ****             #if (I2S_1_CLIP_DETECT_ENABLE)
 114:.\Generated_Source\PSoC5/I2S_1.c ****                 I2S_1_SET_POS_THRESHOLD(CH2, I2S_1_posThresholds[I2S_1_STEREO_2]);
 115:.\Generated_Source\PSoC5/I2S_1.c ****                 I2S_1_SET_NEG_THRESHOLD(CH2, I2S_1_negThresholds[I2S_1_STEREO_2]);
 116:.\Generated_Source\PSoC5/I2S_1.c ****             #endif /* I2S_1_CLIP_DETECT_ENABLE */
 117:.\Generated_Source\PSoC5/I2S_1.c ****         #endif /* I2S_1_RX_STEREO_2_PRESENT */
 118:.\Generated_Source\PSoC5/I2S_1.c ****         #if (I2S_1_RX_STEREO_3_PRESENT)
 119:.\Generated_Source\PSoC5/I2S_1.c ****             I2S_1_SET_RX_INT_MASK(CH3, I2S_1_RX_INT_SOURCE);
 120:.\Generated_Source\PSoC5/I2S_1.c ****             #if (I2S_1_CLIP_DETECT_ENABLE)
 121:.\Generated_Source\PSoC5/I2S_1.c ****                 I2S_1_SET_POS_THRESHOLD(CH3, I2S_1_posThresholds[I2S_1_STEREO_3]);
 122:.\Generated_Source\PSoC5/I2S_1.c ****                 I2S_1_SET_NEG_THRESHOLD(CH3, I2S_1_negThresholds[I2S_1_STEREO_3]);
 123:.\Generated_Source\PSoC5/I2S_1.c ****             #endif /* I2S_1_CLIP_DETECT_ENABLE */
 124:.\Generated_Source\PSoC5/I2S_1.c ****         #endif /* I2S_1_RX_STEREO_3_PRESENT */
 125:.\Generated_Source\PSoC5/I2S_1.c ****         #if (I2S_1_RX_STEREO_4_PRESENT)
 126:.\Generated_Source\PSoC5/I2S_1.c ****             I2S_1_SET_RX_INT_MASK(CH4, I2S_1_RX_INT_SOURCE);
 127:.\Generated_Source\PSoC5/I2S_1.c ****             #if (I2S_1_CLIP_DETECT_ENABLE)
 128:.\Generated_Source\PSoC5/I2S_1.c ****                 I2S_1_SET_POS_THRESHOLD(CH4, I2S_1_posThresholds[I2S_1_STEREO_4]);
 129:.\Generated_Source\PSoC5/I2S_1.c ****                 I2S_1_SET_NEG_THRESHOLD(CH4, I2S_1_negThresholds[I2S_1_STEREO_4]);
 130:.\Generated_Source\PSoC5/I2S_1.c ****             #endif /* I2S_1_CLIP_DETECT_ENABLE */
 131:.\Generated_Source\PSoC5/I2S_1.c ****         #endif /* I2S_1_RX_STEREO_4_PRESENT */
 132:.\Generated_Source\PSoC5/I2S_1.c ****     #endif /* (I2S_1_RX_DIRECTION_ENABLE) */
 133:.\Generated_Source\PSoC5/I2S_1.c **** }
 137              		.loc 1 133 0
 138 0046 BD46     		mov	sp, r7
 139              		.cfi_def_cfa_register 13
 140              		@ sp needed
 141 0048 5DF8047B 		ldr	r7, [sp], #4
 142              		.cfi_restore 7
 143              		.cfi_def_cfa_offset 0
 144 004c 7047     		bx	lr
 145              	.L6:
 146 004e 00BF     		.align	2
 147              	.L5:
 148 0050 81640040 		.word	1073767553
 149 0054 82640040 		.word	1073767554
 150 0058 22640040 		.word	1073767458
 151 005c 32640040 		.word	1073767474
 152              		.cfi_endproc
ARM GAS  C:\Users\LUKASC~1\AppData\Local\Temp\ccvUkhee.s 			page 6


 153              	.LFE1:
 154              		.size	I2S_1_Init, .-I2S_1_Init
 155              		.section	.text.I2S_1_Start,"ax",%progbits
 156              		.align	2
 157              		.global	I2S_1_Start
 158              		.thumb
 159              		.thumb_func
 160              		.type	I2S_1_Start, %function
 161              	I2S_1_Start:
 162              	.LFB2:
 134:.\Generated_Source\PSoC5/I2S_1.c **** 
 135:.\Generated_Source\PSoC5/I2S_1.c **** 
 136:.\Generated_Source\PSoC5/I2S_1.c **** /*******************************************************************************
 137:.\Generated_Source\PSoC5/I2S_1.c **** * Function Name: I2S_1_Start
 138:.\Generated_Source\PSoC5/I2S_1.c **** ********************************************************************************
 139:.\Generated_Source\PSoC5/I2S_1.c **** *
 140:.\Generated_Source\PSoC5/I2S_1.c **** * Summary:
 141:.\Generated_Source\PSoC5/I2S_1.c **** *  Starts the I2S interface. Starts the generation of the sck and ws outputs.
 142:.\Generated_Source\PSoC5/I2S_1.c **** *  The Tx and Rx directions remain disabled.
 143:.\Generated_Source\PSoC5/I2S_1.c **** *
 144:.\Generated_Source\PSoC5/I2S_1.c **** * Parameters:
 145:.\Generated_Source\PSoC5/I2S_1.c **** *  None.
 146:.\Generated_Source\PSoC5/I2S_1.c **** *
 147:.\Generated_Source\PSoC5/I2S_1.c **** * Return:
 148:.\Generated_Source\PSoC5/I2S_1.c **** *  None.
 149:.\Generated_Source\PSoC5/I2S_1.c **** *
 150:.\Generated_Source\PSoC5/I2S_1.c **** * Global Variables:
 151:.\Generated_Source\PSoC5/I2S_1.c **** *  I2S_1_initVar - used to check initial configuration, modified on
 152:.\Generated_Source\PSoC5/I2S_1.c **** *  first function call.
 153:.\Generated_Source\PSoC5/I2S_1.c **** *
 154:.\Generated_Source\PSoC5/I2S_1.c **** * Reentrant:
 155:.\Generated_Source\PSoC5/I2S_1.c **** *  No.
 156:.\Generated_Source\PSoC5/I2S_1.c **** *
 157:.\Generated_Source\PSoC5/I2S_1.c **** *******************************************************************************/
 158:.\Generated_Source\PSoC5/I2S_1.c **** void I2S_1_Start(void) 
 159:.\Generated_Source\PSoC5/I2S_1.c **** {
 163              		.loc 1 159 0
 164              		.cfi_startproc
 165              		@ args = 0, pretend = 0, frame = 0
 166              		@ frame_needed = 1, uses_anonymous_args = 0
 167 0000 80B5     		push	{r7, lr}
 168              		.cfi_def_cfa_offset 8
 169              		.cfi_offset 7, -8
 170              		.cfi_offset 14, -4
 171 0002 00AF     		add	r7, sp, #0
 172              		.cfi_def_cfa_register 7
 160:.\Generated_Source\PSoC5/I2S_1.c ****     if(0u == I2S_1_initVar)
 173              		.loc 1 160 0
 174 0004 054B     		ldr	r3, .L9
 175 0006 1B78     		ldrb	r3, [r3]	@ zero_extendqisi2
 176 0008 002B     		cmp	r3, #0
 177 000a 04D1     		bne	.L8
 161:.\Generated_Source\PSoC5/I2S_1.c ****     {
 162:.\Generated_Source\PSoC5/I2S_1.c ****         I2S_1_Init();
 178              		.loc 1 162 0
 179 000c FFF7FEFF 		bl	I2S_1_Init
 163:.\Generated_Source\PSoC5/I2S_1.c ****         I2S_1_initVar = 1u;
ARM GAS  C:\Users\LUKASC~1\AppData\Local\Temp\ccvUkhee.s 			page 7


 180              		.loc 1 163 0
 181 0010 024B     		ldr	r3, .L9
 182 0012 0122     		movs	r2, #1
 183 0014 1A70     		strb	r2, [r3]
 184              	.L8:
 164:.\Generated_Source\PSoC5/I2S_1.c ****     }
 165:.\Generated_Source\PSoC5/I2S_1.c **** 
 166:.\Generated_Source\PSoC5/I2S_1.c ****     I2S_1_Enable();
 185              		.loc 1 166 0
 186 0016 FFF7FEFF 		bl	I2S_1_Enable
 167:.\Generated_Source\PSoC5/I2S_1.c **** }
 187              		.loc 1 167 0
 188 001a 80BD     		pop	{r7, pc}
 189              	.L10:
 190              		.align	2
 191              	.L9:
 192 001c 00000000 		.word	I2S_1_initVar
 193              		.cfi_endproc
 194              	.LFE2:
 195              		.size	I2S_1_Start, .-I2S_1_Start
 196              		.section	.text.I2S_1_Stop,"ax",%progbits
 197              		.align	2
 198              		.global	I2S_1_Stop
 199              		.thumb
 200              		.thumb_func
 201              		.type	I2S_1_Stop, %function
 202              	I2S_1_Stop:
 203              	.LFB3:
 168:.\Generated_Source\PSoC5/I2S_1.c **** 
 169:.\Generated_Source\PSoC5/I2S_1.c **** 
 170:.\Generated_Source\PSoC5/I2S_1.c **** /*******************************************************************************
 171:.\Generated_Source\PSoC5/I2S_1.c **** * Function Name: I2S_1_Stop
 172:.\Generated_Source\PSoC5/I2S_1.c **** ********************************************************************************
 173:.\Generated_Source\PSoC5/I2S_1.c **** *
 174:.\Generated_Source\PSoC5/I2S_1.c **** * Summary:
 175:.\Generated_Source\PSoC5/I2S_1.c **** *  Disables the I2S interface. The sck and ws outputs are set to 0. The Tx and
 176:.\Generated_Source\PSoC5/I2S_1.c **** *  Rx directions are disabled and their FIFOs are cleared.
 177:.\Generated_Source\PSoC5/I2S_1.c **** *
 178:.\Generated_Source\PSoC5/I2S_1.c **** * Parameters:
 179:.\Generated_Source\PSoC5/I2S_1.c **** *  None.
 180:.\Generated_Source\PSoC5/I2S_1.c **** *
 181:.\Generated_Source\PSoC5/I2S_1.c **** * Return:
 182:.\Generated_Source\PSoC5/I2S_1.c **** *  None.
 183:.\Generated_Source\PSoC5/I2S_1.c **** *
 184:.\Generated_Source\PSoC5/I2S_1.c **** *******************************************************************************/
 185:.\Generated_Source\PSoC5/I2S_1.c **** void I2S_1_Stop(void) 
 186:.\Generated_Source\PSoC5/I2S_1.c **** {
 204              		.loc 1 186 0
 205              		.cfi_startproc
 206              		@ args = 0, pretend = 0, frame = 8
 207              		@ frame_needed = 1, uses_anonymous_args = 0
 208 0000 80B5     		push	{r7, lr}
 209              		.cfi_def_cfa_offset 8
 210              		.cfi_offset 7, -8
 211              		.cfi_offset 14, -4
 212 0002 82B0     		sub	sp, sp, #8
 213              		.cfi_def_cfa_offset 16
ARM GAS  C:\Users\LUKASC~1\AppData\Local\Temp\ccvUkhee.s 			page 8


 214 0004 00AF     		add	r7, sp, #0
 215              		.cfi_def_cfa_register 7
 187:.\Generated_Source\PSoC5/I2S_1.c ****     uint8 enableInterrupts;
 188:.\Generated_Source\PSoC5/I2S_1.c **** 
 189:.\Generated_Source\PSoC5/I2S_1.c ****     I2S_1_CONTROL_REG &= (uint8)~I2S_1_EN;
 216              		.loc 1 189 0
 217 0006 134A     		ldr	r2, .L12
 218 0008 124B     		ldr	r3, .L12
 219 000a 1B78     		ldrb	r3, [r3]
 220 000c DBB2     		uxtb	r3, r3
 221 000e 23F00403 		bic	r3, r3, #4
 222 0012 DBB2     		uxtb	r3, r3
 223 0014 1370     		strb	r3, [r2]
 190:.\Generated_Source\PSoC5/I2S_1.c **** 
 191:.\Generated_Source\PSoC5/I2S_1.c ****     enableInterrupts = CyEnterCriticalSection();
 224              		.loc 1 191 0
 225 0016 FFF7FEFF 		bl	CyEnterCriticalSection
 226 001a 0346     		mov	r3, r0
 227 001c FB71     		strb	r3, [r7, #7]
 192:.\Generated_Source\PSoC5/I2S_1.c ****     I2S_1_AUX_CONTROL_REG &= (uint8)~I2S_1_CNT_START;
 228              		.loc 1 192 0
 229 001e 0E4A     		ldr	r2, .L12+4
 230 0020 0D4B     		ldr	r3, .L12+4
 231 0022 1B78     		ldrb	r3, [r3]
 232 0024 DBB2     		uxtb	r3, r3
 233 0026 23F02003 		bic	r3, r3, #32
 234 002a DBB2     		uxtb	r3, r3
 235 002c 1370     		strb	r3, [r2]
 193:.\Generated_Source\PSoC5/I2S_1.c ****     CyExitCriticalSection(enableInterrupts);
 236              		.loc 1 193 0
 237 002e FB79     		ldrb	r3, [r7, #7]	@ zero_extendqisi2
 238 0030 1846     		mov	r0, r3
 239 0032 FFF7FEFF 		bl	CyExitCriticalSection
 194:.\Generated_Source\PSoC5/I2S_1.c **** 
 195:.\Generated_Source\PSoC5/I2S_1.c ****     /* Clear counter value to force reload when component is enabled */
 196:.\Generated_Source\PSoC5/I2S_1.c ****     I2S_1_CNT_COUNT_REG = 0u;
 240              		.loc 1 196 0
 241 0036 094B     		ldr	r3, .L12+8
 242 0038 0022     		movs	r2, #0
 243 003a 1A70     		strb	r2, [r3]
 197:.\Generated_Source\PSoC5/I2S_1.c **** 
 198:.\Generated_Source\PSoC5/I2S_1.c ****     #if (I2S_1_TX_DIRECTION_ENABLE)
 199:.\Generated_Source\PSoC5/I2S_1.c ****         I2S_1_DisableTx();
 244              		.loc 1 199 0
 245 003c FFF7FEFF 		bl	I2S_1_DisableTx
 200:.\Generated_Source\PSoC5/I2S_1.c ****         I2S_1_ClearTxFIFO();
 246              		.loc 1 200 0
 247 0040 FFF7FEFF 		bl	I2S_1_ClearTxFIFO
 201:.\Generated_Source\PSoC5/I2S_1.c ****     #endif /* (I2S_1_TX_DIRECTION_ENABLE) */
 202:.\Generated_Source\PSoC5/I2S_1.c ****     
 203:.\Generated_Source\PSoC5/I2S_1.c ****     #if (I2S_1_RX_DIRECTION_ENABLE)
 204:.\Generated_Source\PSoC5/I2S_1.c ****         I2S_1_DisableRx();
 248              		.loc 1 204 0
 249 0044 FFF7FEFF 		bl	I2S_1_DisableRx
 205:.\Generated_Source\PSoC5/I2S_1.c ****         I2S_1_ClearRxFIFO();
 250              		.loc 1 205 0
 251 0048 FFF7FEFF 		bl	I2S_1_ClearRxFIFO
ARM GAS  C:\Users\LUKASC~1\AppData\Local\Temp\ccvUkhee.s 			page 9


 206:.\Generated_Source\PSoC5/I2S_1.c ****     #endif /* (I2S_1_RX_DIRECTION_ENABLE) */
 207:.\Generated_Source\PSoC5/I2S_1.c **** }
 252              		.loc 1 207 0
 253 004c 0837     		adds	r7, r7, #8
 254              		.cfi_def_cfa_offset 8
 255 004e BD46     		mov	sp, r7
 256              		.cfi_def_cfa_register 13
 257              		@ sp needed
 258 0050 80BD     		pop	{r7, pc}
 259              	.L13:
 260 0052 00BF     		.align	2
 261              	.L12:
 262 0054 72640040 		.word	1073767538
 263 0058 90640040 		.word	1073767568
 264 005c 70640040 		.word	1073767536
 265              		.cfi_endproc
 266              	.LFE3:
 267              		.size	I2S_1_Stop, .-I2S_1_Stop
 268              		.section	.text.I2S_1_EnableTx,"ax",%progbits
 269              		.align	2
 270              		.global	I2S_1_EnableTx
 271              		.thumb
 272              		.thumb_func
 273              		.type	I2S_1_EnableTx, %function
 274              	I2S_1_EnableTx:
 275              	.LFB4:
 208:.\Generated_Source\PSoC5/I2S_1.c **** 
 209:.\Generated_Source\PSoC5/I2S_1.c **** #if (I2S_1_DYNAMIC_BIT_RESOLUTION)
 210:.\Generated_Source\PSoC5/I2S_1.c ****     /*******************************************************************************
 211:.\Generated_Source\PSoC5/I2S_1.c ****     * Function Name: I2S_1_SetDataBits
 212:.\Generated_Source\PSoC5/I2S_1.c ****     ********************************************************************************
 213:.\Generated_Source\PSoC5/I2S_1.c ****     *
 214:.\Generated_Source\PSoC5/I2S_1.c ****     * Summary:
 215:.\Generated_Source\PSoC5/I2S_1.c ****     *  Sets the number of data bits for each sample. The component must be stopped
 216:.\Generated_Source\PSoC5/I2S_1.c ****     *  before calling this API.
 217:.\Generated_Source\PSoC5/I2S_1.c ****     *
 218:.\Generated_Source\PSoC5/I2S_1.c ****     * Parameters:
 219:.\Generated_Source\PSoC5/I2S_1.c ****     *  dataBits: the number of data bits for each sample. Valid values - 8/16/24/32.
 220:.\Generated_Source\PSoC5/I2S_1.c ****     *  If Tx or Rx byte swapping is enabled, valid values are 16 and 24.
 221:.\Generated_Source\PSoC5/I2S_1.c ****     *
 222:.\Generated_Source\PSoC5/I2S_1.c ****     * Return:
 223:.\Generated_Source\PSoC5/I2S_1.c ****     *  CYRET_SUCCESS  : Operation is successful
 224:.\Generated_Source\PSoC5/I2S_1.c ****     *  CYRET_BAD_PARAM: Invalid parameter value
 225:.\Generated_Source\PSoC5/I2S_1.c ****     *
 226:.\Generated_Source\PSoC5/I2S_1.c ****     * Side effects:
 227:.\Generated_Source\PSoC5/I2S_1.c ****     *  Calling this API while the component is operating may cause unexpected
 228:.\Generated_Source\PSoC5/I2S_1.c ****     *  behavior.
 229:.\Generated_Source\PSoC5/I2S_1.c ****     *
 230:.\Generated_Source\PSoC5/I2S_1.c ****     *******************************************************************************/
 231:.\Generated_Source\PSoC5/I2S_1.c ****     cystatus I2S_1_SetDataBits(uint8 dataBits)   
 232:.\Generated_Source\PSoC5/I2S_1.c ****     {
 233:.\Generated_Source\PSoC5/I2S_1.c ****         cystatus status;
 234:.\Generated_Source\PSoC5/I2S_1.c **** 
 235:.\Generated_Source\PSoC5/I2S_1.c ****         CYASSERT((dataBits >= I2S_1_MIN_DATA_BITS) && (dataBits <= I2S_1_MAX_DATA_BITS));
 236:.\Generated_Source\PSoC5/I2S_1.c **** 
 237:.\Generated_Source\PSoC5/I2S_1.c ****         status = CYRET_SUCCESS;
 238:.\Generated_Source\PSoC5/I2S_1.c ****         /* The component must be stopped prior calling this API. Therefore
ARM GAS  C:\Users\LUKASC~1\AppData\Local\Temp\ccvUkhee.s 			page 10


 239:.\Generated_Source\PSoC5/I2S_1.c ****         * all the control bits except the bits modified are zeros.
 240:.\Generated_Source\PSoC5/I2S_1.c ****         */
 241:.\Generated_Source\PSoC5/I2S_1.c ****         switch(dataBits)
 242:.\Generated_Source\PSoC5/I2S_1.c ****         {
 243:.\Generated_Source\PSoC5/I2S_1.c ****         case I2S_1_8BIT_DATA:
 244:.\Generated_Source\PSoC5/I2S_1.c ****             I2S_1_CONTROL_REG = I2S_1_8BIT_MODE;
 245:.\Generated_Source\PSoC5/I2S_1.c ****             break;
 246:.\Generated_Source\PSoC5/I2S_1.c ****         case I2S_1_16BIT_DATA:
 247:.\Generated_Source\PSoC5/I2S_1.c ****             I2S_1_CONTROL_REG = I2S_1_16BIT_MODE;
 248:.\Generated_Source\PSoC5/I2S_1.c ****             break;
 249:.\Generated_Source\PSoC5/I2S_1.c ****         case I2S_1_24BIT_DATA:
 250:.\Generated_Source\PSoC5/I2S_1.c ****             I2S_1_CONTROL_REG = I2S_1_24BIT_MODE;
 251:.\Generated_Source\PSoC5/I2S_1.c ****             break;
 252:.\Generated_Source\PSoC5/I2S_1.c ****         case I2S_1_32BIT_DATA:
 253:.\Generated_Source\PSoC5/I2S_1.c ****             I2S_1_CONTROL_REG = I2S_1_32BIT_MODE;
 254:.\Generated_Source\PSoC5/I2S_1.c ****             break;
 255:.\Generated_Source\PSoC5/I2S_1.c ****         default: status = CYRET_BAD_PARAM;
 256:.\Generated_Source\PSoC5/I2S_1.c ****             break;
 257:.\Generated_Source\PSoC5/I2S_1.c ****         }
 258:.\Generated_Source\PSoC5/I2S_1.c **** 
 259:.\Generated_Source\PSoC5/I2S_1.c ****         return (status);
 260:.\Generated_Source\PSoC5/I2S_1.c ****     }
 261:.\Generated_Source\PSoC5/I2S_1.c **** 
 262:.\Generated_Source\PSoC5/I2S_1.c **** #endif /* I2S_1_DYNAMIC_BIT_RESOLUTION */
 263:.\Generated_Source\PSoC5/I2S_1.c **** 
 264:.\Generated_Source\PSoC5/I2S_1.c **** #if(I2S_1_TX_DIRECTION_ENABLE)
 265:.\Generated_Source\PSoC5/I2S_1.c ****     /*******************************************************************************
 266:.\Generated_Source\PSoC5/I2S_1.c ****     * Function Name: I2S_1_EnableTx
 267:.\Generated_Source\PSoC5/I2S_1.c ****     ********************************************************************************
 268:.\Generated_Source\PSoC5/I2S_1.c ****     *
 269:.\Generated_Source\PSoC5/I2S_1.c ****     * Summary:
 270:.\Generated_Source\PSoC5/I2S_1.c ****     *  Enables the Tx direction of the I2S interface.  At the next word
 271:.\Generated_Source\PSoC5/I2S_1.c ****     *  select falling edge transmission will begin.
 272:.\Generated_Source\PSoC5/I2S_1.c ****     *
 273:.\Generated_Source\PSoC5/I2S_1.c ****     * Parameters:
 274:.\Generated_Source\PSoC5/I2S_1.c ****     *  None.
 275:.\Generated_Source\PSoC5/I2S_1.c ****     *
 276:.\Generated_Source\PSoC5/I2S_1.c ****     * Return:
 277:.\Generated_Source\PSoC5/I2S_1.c ****     *  None.
 278:.\Generated_Source\PSoC5/I2S_1.c ****     *
 279:.\Generated_Source\PSoC5/I2S_1.c ****     *******************************************************************************/
 280:.\Generated_Source\PSoC5/I2S_1.c ****     void I2S_1_EnableTx(void) 
 281:.\Generated_Source\PSoC5/I2S_1.c ****     {
 276              		.loc 1 281 0
 277              		.cfi_startproc
 278              		@ args = 0, pretend = 0, frame = 8
 279              		@ frame_needed = 1, uses_anonymous_args = 0
 280 0000 80B5     		push	{r7, lr}
 281              		.cfi_def_cfa_offset 8
 282              		.cfi_offset 7, -8
 283              		.cfi_offset 14, -4
 284 0002 82B0     		sub	sp, sp, #8
 285              		.cfi_def_cfa_offset 16
 286 0004 00AF     		add	r7, sp, #0
 287              		.cfi_def_cfa_register 7
 282:.\Generated_Source\PSoC5/I2S_1.c ****         uint8 enableInterrupts;
 283:.\Generated_Source\PSoC5/I2S_1.c **** 
ARM GAS  C:\Users\LUKASC~1\AppData\Local\Temp\ccvUkhee.s 			page 11


 284:.\Generated_Source\PSoC5/I2S_1.c ****         enableInterrupts = CyEnterCriticalSection();
 288              		.loc 1 284 0
 289 0006 FFF7FEFF 		bl	CyEnterCriticalSection
 290 000a 0346     		mov	r3, r0
 291 000c FB71     		strb	r3, [r7, #7]
 285:.\Generated_Source\PSoC5/I2S_1.c ****         I2S_1_TX_STS0_1_ACTL_REG |= I2S_1_INT_EN;
 292              		.loc 1 285 0
 293 000e 0B4A     		ldr	r2, .L15
 294 0010 0A4B     		ldr	r3, .L15
 295 0012 1B78     		ldrb	r3, [r3]
 296 0014 DBB2     		uxtb	r3, r3
 297 0016 43F01003 		orr	r3, r3, #16
 298 001a DBB2     		uxtb	r3, r3
 299 001c 1370     		strb	r3, [r2]
 286:.\Generated_Source\PSoC5/I2S_1.c ****         #ifdef I2S_1_TX_STS2_3_ACTL_REG
 287:.\Generated_Source\PSoC5/I2S_1.c ****             I2S_1_TX_STS2_3_ACTL_REG |= I2S_1_INT_EN;
 288:.\Generated_Source\PSoC5/I2S_1.c ****         #endif /* I2S_1_TX_STS2_3_ACTL_REG */
 289:.\Generated_Source\PSoC5/I2S_1.c ****         #ifdef I2S_1_TX_STS4_ACTL_REG
 290:.\Generated_Source\PSoC5/I2S_1.c ****             I2S_1_TX_STS4_ACTL_REG |= I2S_1_INT_EN;
 291:.\Generated_Source\PSoC5/I2S_1.c ****         #endif /* I2S_1_TX_STS4_ACTL_REG */
 292:.\Generated_Source\PSoC5/I2S_1.c ****         CyExitCriticalSection(enableInterrupts);
 300              		.loc 1 292 0
 301 001e FB79     		ldrb	r3, [r7, #7]	@ zero_extendqisi2
 302 0020 1846     		mov	r0, r3
 303 0022 FFF7FEFF 		bl	CyExitCriticalSection
 293:.\Generated_Source\PSoC5/I2S_1.c ****         
 294:.\Generated_Source\PSoC5/I2S_1.c ****         I2S_1_CONTROL_REG |= I2S_1_TX_EN;
 304              		.loc 1 294 0
 305 0026 064A     		ldr	r2, .L15+4
 306 0028 054B     		ldr	r3, .L15+4
 307 002a 1B78     		ldrb	r3, [r3]
 308 002c DBB2     		uxtb	r3, r3
 309 002e 43F00103 		orr	r3, r3, #1
 310 0032 DBB2     		uxtb	r3, r3
 311 0034 1370     		strb	r3, [r2]
 295:.\Generated_Source\PSoC5/I2S_1.c ****     }
 312              		.loc 1 295 0
 313 0036 0837     		adds	r7, r7, #8
 314              		.cfi_def_cfa_offset 8
 315 0038 BD46     		mov	sp, r7
 316              		.cfi_def_cfa_register 13
 317              		@ sp needed
 318 003a 80BD     		pop	{r7, pc}
 319              	.L16:
 320              		.align	2
 321              	.L15:
 322 003c 91640040 		.word	1073767569
 323 0040 72640040 		.word	1073767538
 324              		.cfi_endproc
 325              	.LFE4:
 326              		.size	I2S_1_EnableTx, .-I2S_1_EnableTx
 327              		.section	.text.I2S_1_DisableTx,"ax",%progbits
 328              		.align	2
 329              		.global	I2S_1_DisableTx
 330              		.thumb
 331              		.thumb_func
 332              		.type	I2S_1_DisableTx, %function
ARM GAS  C:\Users\LUKASC~1\AppData\Local\Temp\ccvUkhee.s 			page 12


 333              	I2S_1_DisableTx:
 334              	.LFB5:
 296:.\Generated_Source\PSoC5/I2S_1.c **** 
 297:.\Generated_Source\PSoC5/I2S_1.c **** 
 298:.\Generated_Source\PSoC5/I2S_1.c ****     /*******************************************************************************
 299:.\Generated_Source\PSoC5/I2S_1.c ****     * Function Name: I2S_1_DisableTx
 300:.\Generated_Source\PSoC5/I2S_1.c ****     ********************************************************************************
 301:.\Generated_Source\PSoC5/I2S_1.c ****     *
 302:.\Generated_Source\PSoC5/I2S_1.c ****     * Summary:
 303:.\Generated_Source\PSoC5/I2S_1.c ****     *  Disables the Tx direction of the I2S interface.  At the next word
 304:.\Generated_Source\PSoC5/I2S_1.c ****     *  select falling edge transmission of data will stop and a constant 0 value
 305:.\Generated_Source\PSoC5/I2S_1.c ****     *  will be transmitted.
 306:.\Generated_Source\PSoC5/I2S_1.c ****     *
 307:.\Generated_Source\PSoC5/I2S_1.c ****     * Parameters:
 308:.\Generated_Source\PSoC5/I2S_1.c ****     *  None.
 309:.\Generated_Source\PSoC5/I2S_1.c ****     *
 310:.\Generated_Source\PSoC5/I2S_1.c ****     * Return:
 311:.\Generated_Source\PSoC5/I2S_1.c ****     *  None.
 312:.\Generated_Source\PSoC5/I2S_1.c ****     *
 313:.\Generated_Source\PSoC5/I2S_1.c ****     *******************************************************************************/
 314:.\Generated_Source\PSoC5/I2S_1.c ****     void I2S_1_DisableTx(void) 
 315:.\Generated_Source\PSoC5/I2S_1.c ****     {
 335              		.loc 1 315 0
 336              		.cfi_startproc
 337              		@ args = 0, pretend = 0, frame = 8
 338              		@ frame_needed = 1, uses_anonymous_args = 0
 339 0000 80B5     		push	{r7, lr}
 340              		.cfi_def_cfa_offset 8
 341              		.cfi_offset 7, -8
 342              		.cfi_offset 14, -4
 343 0002 82B0     		sub	sp, sp, #8
 344              		.cfi_def_cfa_offset 16
 345 0004 00AF     		add	r7, sp, #0
 346              		.cfi_def_cfa_register 7
 316:.\Generated_Source\PSoC5/I2S_1.c ****         uint8 enableInterrupts;
 317:.\Generated_Source\PSoC5/I2S_1.c **** 
 318:.\Generated_Source\PSoC5/I2S_1.c ****         I2S_1_CONTROL_REG &= (uint8)~I2S_1_TX_EN;
 347              		.loc 1 318 0
 348 0006 0D4A     		ldr	r2, .L18
 349 0008 0C4B     		ldr	r3, .L18
 350 000a 1B78     		ldrb	r3, [r3]
 351 000c DBB2     		uxtb	r3, r3
 352 000e 23F00103 		bic	r3, r3, #1
 353 0012 DBB2     		uxtb	r3, r3
 354 0014 1370     		strb	r3, [r2]
 319:.\Generated_Source\PSoC5/I2S_1.c **** 
 320:.\Generated_Source\PSoC5/I2S_1.c ****         enableInterrupts = CyEnterCriticalSection();
 355              		.loc 1 320 0
 356 0016 FFF7FEFF 		bl	CyEnterCriticalSection
 357 001a 0346     		mov	r3, r0
 358 001c FB71     		strb	r3, [r7, #7]
 321:.\Generated_Source\PSoC5/I2S_1.c ****         I2S_1_TX_STS0_1_ACTL_REG &= (uint8)~I2S_1_INT_EN;
 359              		.loc 1 321 0
 360 001e 084A     		ldr	r2, .L18+4
 361 0020 074B     		ldr	r3, .L18+4
 362 0022 1B78     		ldrb	r3, [r3]
 363 0024 DBB2     		uxtb	r3, r3
ARM GAS  C:\Users\LUKASC~1\AppData\Local\Temp\ccvUkhee.s 			page 13


 364 0026 23F01003 		bic	r3, r3, #16
 365 002a DBB2     		uxtb	r3, r3
 366 002c 1370     		strb	r3, [r2]
 322:.\Generated_Source\PSoC5/I2S_1.c ****         #ifdef I2S_1_TX_STS2_3_ACTL_REG
 323:.\Generated_Source\PSoC5/I2S_1.c ****             I2S_1_TX_STS2_3_ACTL_REG &= (uint8)~I2S_1_INT_EN;
 324:.\Generated_Source\PSoC5/I2S_1.c ****         #endif /* I2S_1_TX_STS2_3_ACTL_REG */
 325:.\Generated_Source\PSoC5/I2S_1.c ****         #ifdef I2S_1_TX_STS4_ACTL_REG
 326:.\Generated_Source\PSoC5/I2S_1.c ****             I2S_1_TX_STS4_ACTL_REG &= (uint8)~I2S_1_INT_EN;
 327:.\Generated_Source\PSoC5/I2S_1.c ****         #endif /* I2S_1_TX_STS4_ACTL_REG */
 328:.\Generated_Source\PSoC5/I2S_1.c ****         CyExitCriticalSection(enableInterrupts);
 367              		.loc 1 328 0
 368 002e FB79     		ldrb	r3, [r7, #7]	@ zero_extendqisi2
 369 0030 1846     		mov	r0, r3
 370 0032 FFF7FEFF 		bl	CyExitCriticalSection
 329:.\Generated_Source\PSoC5/I2S_1.c ****     }
 371              		.loc 1 329 0
 372 0036 0837     		adds	r7, r7, #8
 373              		.cfi_def_cfa_offset 8
 374 0038 BD46     		mov	sp, r7
 375              		.cfi_def_cfa_register 13
 376              		@ sp needed
 377 003a 80BD     		pop	{r7, pc}
 378              	.L19:
 379              		.align	2
 380              	.L18:
 381 003c 72640040 		.word	1073767538
 382 0040 91640040 		.word	1073767569
 383              		.cfi_endproc
 384              	.LFE5:
 385              		.size	I2S_1_DisableTx, .-I2S_1_DisableTx
 386              		.section	.text.I2S_1_ClearTxFIFO,"ax",%progbits
 387              		.align	2
 388              		.global	I2S_1_ClearTxFIFO
 389              		.thumb
 390              		.thumb_func
 391              		.type	I2S_1_ClearTxFIFO, %function
 392              	I2S_1_ClearTxFIFO:
 393              	.LFB6:
 330:.\Generated_Source\PSoC5/I2S_1.c **** 
 331:.\Generated_Source\PSoC5/I2S_1.c **** 
 332:.\Generated_Source\PSoC5/I2S_1.c ****     /*******************************************************************************
 333:.\Generated_Source\PSoC5/I2S_1.c ****     * Function Name: I2S_1_ClearTxFIFO
 334:.\Generated_Source\PSoC5/I2S_1.c ****     ********************************************************************************
 335:.\Generated_Source\PSoC5/I2S_1.c ****     *
 336:.\Generated_Source\PSoC5/I2S_1.c ****     * Summary:
 337:.\Generated_Source\PSoC5/I2S_1.c ****     *  Clears out the FIFOs for all Tx channels. Any data present in the FIFO will
 338:.\Generated_Source\PSoC5/I2S_1.c ****     *  not be sent. This call should be made only when the Tx direction is disabled.
 339:.\Generated_Source\PSoC5/I2S_1.c ****     *
 340:.\Generated_Source\PSoC5/I2S_1.c ****     * Parameters:
 341:.\Generated_Source\PSoC5/I2S_1.c ****     *  None.
 342:.\Generated_Source\PSoC5/I2S_1.c ****     *
 343:.\Generated_Source\PSoC5/I2S_1.c ****     * Return:
 344:.\Generated_Source\PSoC5/I2S_1.c ****     *  None.
 345:.\Generated_Source\PSoC5/I2S_1.c ****     *
 346:.\Generated_Source\PSoC5/I2S_1.c ****     *******************************************************************************/
 347:.\Generated_Source\PSoC5/I2S_1.c ****     void I2S_1_ClearTxFIFO(void) 
 348:.\Generated_Source\PSoC5/I2S_1.c ****     {
ARM GAS  C:\Users\LUKASC~1\AppData\Local\Temp\ccvUkhee.s 			page 14


 394              		.loc 1 348 0
 395              		.cfi_startproc
 396              		@ args = 0, pretend = 0, frame = 8
 397              		@ frame_needed = 1, uses_anonymous_args = 0
 398 0000 80B5     		push	{r7, lr}
 399              		.cfi_def_cfa_offset 8
 400              		.cfi_offset 7, -8
 401              		.cfi_offset 14, -4
 402 0002 82B0     		sub	sp, sp, #8
 403              		.cfi_def_cfa_offset 16
 404 0004 00AF     		add	r7, sp, #0
 405              		.cfi_def_cfa_register 7
 349:.\Generated_Source\PSoC5/I2S_1.c ****         uint8 enableInterrupts;
 350:.\Generated_Source\PSoC5/I2S_1.c **** 
 351:.\Generated_Source\PSoC5/I2S_1.c ****         enableInterrupts = CyEnterCriticalSection();
 406              		.loc 1 351 0
 407 0006 FFF7FEFF 		bl	CyEnterCriticalSection
 408 000a 0346     		mov	r3, r0
 409 000c FB71     		strb	r3, [r7, #7]
 352:.\Generated_Source\PSoC5/I2S_1.c ****         I2S_1_CLEAR_TX_FIFO(CH0);
 410              		.loc 1 352 0
 411 000e 0B4A     		ldr	r2, .L21
 412 0010 0A4B     		ldr	r3, .L21
 413 0012 1B78     		ldrb	r3, [r3]
 414 0014 DBB2     		uxtb	r3, r3
 415 0016 43F00303 		orr	r3, r3, #3
 416 001a DBB2     		uxtb	r3, r3
 417 001c 1370     		strb	r3, [r2]
 418 001e 074A     		ldr	r2, .L21
 419 0020 064B     		ldr	r3, .L21
 420 0022 1B78     		ldrb	r3, [r3]
 421 0024 DBB2     		uxtb	r3, r3
 422 0026 23F00303 		bic	r3, r3, #3
 423 002a DBB2     		uxtb	r3, r3
 424 002c 1370     		strb	r3, [r2]
 353:.\Generated_Source\PSoC5/I2S_1.c ****         #if (I2S_1_TX_STEREO_1_PRESENT)
 354:.\Generated_Source\PSoC5/I2S_1.c ****             I2S_1_CLEAR_TX_FIFO(CH1);
 355:.\Generated_Source\PSoC5/I2S_1.c ****         #endif /* I2S_1_TX_STEREO_1_PRESENT */
 356:.\Generated_Source\PSoC5/I2S_1.c ****         #if (I2S_1_TX_STEREO_2_PRESENT)
 357:.\Generated_Source\PSoC5/I2S_1.c ****             I2S_1_CLEAR_TX_FIFO(CH2);
 358:.\Generated_Source\PSoC5/I2S_1.c ****         #endif /* I2S_1_TX_STEREO_2_PRESENT */
 359:.\Generated_Source\PSoC5/I2S_1.c ****         #if (I2S_1_TX_STEREO_3_PRESENT)
 360:.\Generated_Source\PSoC5/I2S_1.c ****             I2S_1_CLEAR_TX_FIFO(CH3);
 361:.\Generated_Source\PSoC5/I2S_1.c ****         #endif /* I2S_1_TX_STEREO_3_PRESENT */
 362:.\Generated_Source\PSoC5/I2S_1.c ****         #if (I2S_1_TX_STEREO_4_PRESENT)
 363:.\Generated_Source\PSoC5/I2S_1.c ****             I2S_1_CLEAR_TX_FIFO(CH4);
 364:.\Generated_Source\PSoC5/I2S_1.c ****         #endif /* I2S_1_TX_STEREO_4_PRESENT */
 365:.\Generated_Source\PSoC5/I2S_1.c ****         CyExitCriticalSection(enableInterrupts);
 425              		.loc 1 365 0
 426 002e FB79     		ldrb	r3, [r7, #7]	@ zero_extendqisi2
 427 0030 1846     		mov	r0, r3
 428 0032 FFF7FEFF 		bl	CyExitCriticalSection
 366:.\Generated_Source\PSoC5/I2S_1.c ****     }
 429              		.loc 1 366 0
 430 0036 0837     		adds	r7, r7, #8
 431              		.cfi_def_cfa_offset 8
 432 0038 BD46     		mov	sp, r7
ARM GAS  C:\Users\LUKASC~1\AppData\Local\Temp\ccvUkhee.s 			page 15


 433              		.cfi_def_cfa_register 13
 434              		@ sp needed
 435 003a 80BD     		pop	{r7, pc}
 436              	.L22:
 437              		.align	2
 438              	.L21:
 439 003c 91640040 		.word	1073767569
 440              		.cfi_endproc
 441              	.LFE6:
 442              		.size	I2S_1_ClearTxFIFO, .-I2S_1_ClearTxFIFO
 443              		.section	.text.I2S_1_EnableRx,"ax",%progbits
 444              		.align	2
 445              		.global	I2S_1_EnableRx
 446              		.thumb
 447              		.thumb_func
 448              		.type	I2S_1_EnableRx, %function
 449              	I2S_1_EnableRx:
 450              	.LFB7:
 367:.\Generated_Source\PSoC5/I2S_1.c **** 
 368:.\Generated_Source\PSoC5/I2S_1.c **** #endif /* (I2S_1_TX_DIRECTION_ENABLE) */
 369:.\Generated_Source\PSoC5/I2S_1.c **** 
 370:.\Generated_Source\PSoC5/I2S_1.c **** 
 371:.\Generated_Source\PSoC5/I2S_1.c **** #if(I2S_1_RX_DIRECTION_ENABLE)
 372:.\Generated_Source\PSoC5/I2S_1.c ****     /*******************************************************************************
 373:.\Generated_Source\PSoC5/I2S_1.c ****     * Function Name: I2S_1_EnableRx
 374:.\Generated_Source\PSoC5/I2S_1.c ****     ********************************************************************************
 375:.\Generated_Source\PSoC5/I2S_1.c ****     *
 376:.\Generated_Source\PSoC5/I2S_1.c ****     * Summary:
 377:.\Generated_Source\PSoC5/I2S_1.c ****     *  Enables the Rx direction of the I2S interface.  At the next word
 378:.\Generated_Source\PSoC5/I2S_1.c ****     *  select falling edge reception of data will begin.
 379:.\Generated_Source\PSoC5/I2S_1.c ****     *
 380:.\Generated_Source\PSoC5/I2S_1.c ****     * Parameters:
 381:.\Generated_Source\PSoC5/I2S_1.c ****     *  None.
 382:.\Generated_Source\PSoC5/I2S_1.c ****     *
 383:.\Generated_Source\PSoC5/I2S_1.c ****     * Return:
 384:.\Generated_Source\PSoC5/I2S_1.c ****     *  None.
 385:.\Generated_Source\PSoC5/I2S_1.c ****     *
 386:.\Generated_Source\PSoC5/I2S_1.c ****     *******************************************************************************/
 387:.\Generated_Source\PSoC5/I2S_1.c ****     void I2S_1_EnableRx(void) 
 388:.\Generated_Source\PSoC5/I2S_1.c ****     {
 451              		.loc 1 388 0
 452              		.cfi_startproc
 453              		@ args = 0, pretend = 0, frame = 8
 454              		@ frame_needed = 1, uses_anonymous_args = 0
 455 0000 80B5     		push	{r7, lr}
 456              		.cfi_def_cfa_offset 8
 457              		.cfi_offset 7, -8
 458              		.cfi_offset 14, -4
 459 0002 82B0     		sub	sp, sp, #8
 460              		.cfi_def_cfa_offset 16
 461 0004 00AF     		add	r7, sp, #0
 462              		.cfi_def_cfa_register 7
 389:.\Generated_Source\PSoC5/I2S_1.c ****         uint8 enableInterrupts;
 390:.\Generated_Source\PSoC5/I2S_1.c **** 
 391:.\Generated_Source\PSoC5/I2S_1.c ****         enableInterrupts = CyEnterCriticalSection();
 463              		.loc 1 391 0
 464 0006 FFF7FEFF 		bl	CyEnterCriticalSection
ARM GAS  C:\Users\LUKASC~1\AppData\Local\Temp\ccvUkhee.s 			page 16


 465 000a 0346     		mov	r3, r0
 466 000c FB71     		strb	r3, [r7, #7]
 392:.\Generated_Source\PSoC5/I2S_1.c ****         I2S_1_RX_STS0_1_ACTL_REG |= I2S_1_INT_EN;
 467              		.loc 1 392 0
 468 000e 0B4A     		ldr	r2, .L24
 469 0010 0A4B     		ldr	r3, .L24
 470 0012 1B78     		ldrb	r3, [r3]
 471 0014 DBB2     		uxtb	r3, r3
 472 0016 43F01003 		orr	r3, r3, #16
 473 001a DBB2     		uxtb	r3, r3
 474 001c 1370     		strb	r3, [r2]
 393:.\Generated_Source\PSoC5/I2S_1.c ****         #ifdef I2S_1_RX_STS2_3_ACTL_REG
 394:.\Generated_Source\PSoC5/I2S_1.c ****             I2S_1_RX_STS2_3_ACTL_REG |= I2S_1_INT_EN;
 395:.\Generated_Source\PSoC5/I2S_1.c ****         #endif /* I2S_1_RX_STS2_3_ACTL_REG */
 396:.\Generated_Source\PSoC5/I2S_1.c ****         #ifdef I2S_1_RX_STS4_ACTL_REG
 397:.\Generated_Source\PSoC5/I2S_1.c ****             I2S_1_RX_STS4_ACTL_REG |= I2S_1_INT_EN;
 398:.\Generated_Source\PSoC5/I2S_1.c ****         #endif /* I2S_1_RX_STS4_ACTL_REG */
 399:.\Generated_Source\PSoC5/I2S_1.c ****         CyExitCriticalSection(enableInterrupts);
 475              		.loc 1 399 0
 476 001e FB79     		ldrb	r3, [r7, #7]	@ zero_extendqisi2
 477 0020 1846     		mov	r0, r3
 478 0022 FFF7FEFF 		bl	CyExitCriticalSection
 400:.\Generated_Source\PSoC5/I2S_1.c ****         
 401:.\Generated_Source\PSoC5/I2S_1.c ****         I2S_1_CONTROL_REG |= I2S_1_RX_EN;
 479              		.loc 1 401 0
 480 0026 064A     		ldr	r2, .L24+4
 481 0028 054B     		ldr	r3, .L24+4
 482 002a 1B78     		ldrb	r3, [r3]
 483 002c DBB2     		uxtb	r3, r3
 484 002e 43F00203 		orr	r3, r3, #2
 485 0032 DBB2     		uxtb	r3, r3
 486 0034 1370     		strb	r3, [r2]
 402:.\Generated_Source\PSoC5/I2S_1.c ****     }
 487              		.loc 1 402 0
 488 0036 0837     		adds	r7, r7, #8
 489              		.cfi_def_cfa_offset 8
 490 0038 BD46     		mov	sp, r7
 491              		.cfi_def_cfa_register 13
 492              		@ sp needed
 493 003a 80BD     		pop	{r7, pc}
 494              	.L25:
 495              		.align	2
 496              	.L24:
 497 003c 92640040 		.word	1073767570
 498 0040 72640040 		.word	1073767538
 499              		.cfi_endproc
 500              	.LFE7:
 501              		.size	I2S_1_EnableRx, .-I2S_1_EnableRx
 502              		.section	.text.I2S_1_DisableRx,"ax",%progbits
 503              		.align	2
 504              		.global	I2S_1_DisableRx
 505              		.thumb
 506              		.thumb_func
 507              		.type	I2S_1_DisableRx, %function
 508              	I2S_1_DisableRx:
 509              	.LFB8:
 403:.\Generated_Source\PSoC5/I2S_1.c **** 
ARM GAS  C:\Users\LUKASC~1\AppData\Local\Temp\ccvUkhee.s 			page 17


 404:.\Generated_Source\PSoC5/I2S_1.c **** 
 405:.\Generated_Source\PSoC5/I2S_1.c ****     /*******************************************************************************
 406:.\Generated_Source\PSoC5/I2S_1.c ****     * Function Name: I2S_1_DisableRx
 407:.\Generated_Source\PSoC5/I2S_1.c ****     ********************************************************************************
 408:.\Generated_Source\PSoC5/I2S_1.c ****     *
 409:.\Generated_Source\PSoC5/I2S_1.c ****     * Summary:
 410:.\Generated_Source\PSoC5/I2S_1.c ****     *  Disables the Rx direction of the I2S interface.
 411:.\Generated_Source\PSoC5/I2S_1.c ****     *
 412:.\Generated_Source\PSoC5/I2S_1.c ****     * Parameters:
 413:.\Generated_Source\PSoC5/I2S_1.c ****     *  None.
 414:.\Generated_Source\PSoC5/I2S_1.c ****     *
 415:.\Generated_Source\PSoC5/I2S_1.c ****     * Return:
 416:.\Generated_Source\PSoC5/I2S_1.c ****     *  None.
 417:.\Generated_Source\PSoC5/I2S_1.c ****     *
 418:.\Generated_Source\PSoC5/I2S_1.c ****     *******************************************************************************/
 419:.\Generated_Source\PSoC5/I2S_1.c ****     void I2S_1_DisableRx(void) 
 420:.\Generated_Source\PSoC5/I2S_1.c ****     {
 510              		.loc 1 420 0
 511              		.cfi_startproc
 512              		@ args = 0, pretend = 0, frame = 8
 513              		@ frame_needed = 1, uses_anonymous_args = 0
 514 0000 80B5     		push	{r7, lr}
 515              		.cfi_def_cfa_offset 8
 516              		.cfi_offset 7, -8
 517              		.cfi_offset 14, -4
 518 0002 82B0     		sub	sp, sp, #8
 519              		.cfi_def_cfa_offset 16
 520 0004 00AF     		add	r7, sp, #0
 521              		.cfi_def_cfa_register 7
 421:.\Generated_Source\PSoC5/I2S_1.c ****         uint8 enableInterrupts;
 422:.\Generated_Source\PSoC5/I2S_1.c **** 
 423:.\Generated_Source\PSoC5/I2S_1.c ****         I2S_1_CONTROL_REG &= (uint8)~I2S_1_RX_EN;
 522              		.loc 1 423 0
 523 0006 0D4A     		ldr	r2, .L27
 524 0008 0C4B     		ldr	r3, .L27
 525 000a 1B78     		ldrb	r3, [r3]
 526 000c DBB2     		uxtb	r3, r3
 527 000e 23F00203 		bic	r3, r3, #2
 528 0012 DBB2     		uxtb	r3, r3
 529 0014 1370     		strb	r3, [r2]
 424:.\Generated_Source\PSoC5/I2S_1.c **** 
 425:.\Generated_Source\PSoC5/I2S_1.c ****         enableInterrupts = CyEnterCriticalSection();
 530              		.loc 1 425 0
 531 0016 FFF7FEFF 		bl	CyEnterCriticalSection
 532 001a 0346     		mov	r3, r0
 533 001c FB71     		strb	r3, [r7, #7]
 426:.\Generated_Source\PSoC5/I2S_1.c ****         I2S_1_RX_STS0_1_ACTL_REG &= (uint8)~I2S_1_INT_EN;
 534              		.loc 1 426 0
 535 001e 084A     		ldr	r2, .L27+4
 536 0020 074B     		ldr	r3, .L27+4
 537 0022 1B78     		ldrb	r3, [r3]
 538 0024 DBB2     		uxtb	r3, r3
 539 0026 23F01003 		bic	r3, r3, #16
 540 002a DBB2     		uxtb	r3, r3
 541 002c 1370     		strb	r3, [r2]
 427:.\Generated_Source\PSoC5/I2S_1.c ****         #ifdef I2S_1_RX_STS2_3_ACTL_REG
 428:.\Generated_Source\PSoC5/I2S_1.c ****             I2S_1_RX_STS2_3_ACTL_REG &= (uint8)~I2S_1_INT_EN;
ARM GAS  C:\Users\LUKASC~1\AppData\Local\Temp\ccvUkhee.s 			page 18


 429:.\Generated_Source\PSoC5/I2S_1.c ****         #endif /* I2S_1_RX_STS2_3_ACTL_REG */
 430:.\Generated_Source\PSoC5/I2S_1.c ****         #ifdef I2S_1_RX_STS4_ACTL_REG
 431:.\Generated_Source\PSoC5/I2S_1.c ****             I2S_1_RX_STS4_ACTL_REG &= (uint8)~I2S_1_INT_EN;
 432:.\Generated_Source\PSoC5/I2S_1.c ****         #endif /* I2S_1_RX_STS4_ACTL_REG */
 433:.\Generated_Source\PSoC5/I2S_1.c ****         CyExitCriticalSection(enableInterrupts);
 542              		.loc 1 433 0
 543 002e FB79     		ldrb	r3, [r7, #7]	@ zero_extendqisi2
 544 0030 1846     		mov	r0, r3
 545 0032 FFF7FEFF 		bl	CyExitCriticalSection
 434:.\Generated_Source\PSoC5/I2S_1.c ****     }
 546              		.loc 1 434 0
 547 0036 0837     		adds	r7, r7, #8
 548              		.cfi_def_cfa_offset 8
 549 0038 BD46     		mov	sp, r7
 550              		.cfi_def_cfa_register 13
 551              		@ sp needed
 552 003a 80BD     		pop	{r7, pc}
 553              	.L28:
 554              		.align	2
 555              	.L27:
 556 003c 72640040 		.word	1073767538
 557 0040 92640040 		.word	1073767570
 558              		.cfi_endproc
 559              	.LFE8:
 560              		.size	I2S_1_DisableRx, .-I2S_1_DisableRx
 561              		.section	.text.I2S_1_ClearRxFIFO,"ax",%progbits
 562              		.align	2
 563              		.global	I2S_1_ClearRxFIFO
 564              		.thumb
 565              		.thumb_func
 566              		.type	I2S_1_ClearRxFIFO, %function
 567              	I2S_1_ClearRxFIFO:
 568              	.LFB9:
 435:.\Generated_Source\PSoC5/I2S_1.c **** 
 436:.\Generated_Source\PSoC5/I2S_1.c **** 
 437:.\Generated_Source\PSoC5/I2S_1.c ****     /*******************************************************************************
 438:.\Generated_Source\PSoC5/I2S_1.c ****     * Function Name: I2S_1_ClearRxFIFO
 439:.\Generated_Source\PSoC5/I2S_1.c ****     ********************************************************************************
 440:.\Generated_Source\PSoC5/I2S_1.c ****     *
 441:.\Generated_Source\PSoC5/I2S_1.c ****     * Summary:
 442:.\Generated_Source\PSoC5/I2S_1.c ****     *  Clears out the Rx FIFO.  Any data present in the FIFO will be lost.
 443:.\Generated_Source\PSoC5/I2S_1.c ****     *  This call should be made only when the Rx direction is disabled.
 444:.\Generated_Source\PSoC5/I2S_1.c ****     *
 445:.\Generated_Source\PSoC5/I2S_1.c ****     * Parameters:
 446:.\Generated_Source\PSoC5/I2S_1.c ****     *  None.
 447:.\Generated_Source\PSoC5/I2S_1.c ****     *
 448:.\Generated_Source\PSoC5/I2S_1.c ****     * Return:
 449:.\Generated_Source\PSoC5/I2S_1.c ****     *  None.
 450:.\Generated_Source\PSoC5/I2S_1.c ****     *
 451:.\Generated_Source\PSoC5/I2S_1.c ****     *******************************************************************************/
 452:.\Generated_Source\PSoC5/I2S_1.c ****     void I2S_1_ClearRxFIFO(void) 
 453:.\Generated_Source\PSoC5/I2S_1.c ****     {
 569              		.loc 1 453 0
 570              		.cfi_startproc
 571              		@ args = 0, pretend = 0, frame = 8
 572              		@ frame_needed = 1, uses_anonymous_args = 0
 573 0000 80B5     		push	{r7, lr}
ARM GAS  C:\Users\LUKASC~1\AppData\Local\Temp\ccvUkhee.s 			page 19


 574              		.cfi_def_cfa_offset 8
 575              		.cfi_offset 7, -8
 576              		.cfi_offset 14, -4
 577 0002 82B0     		sub	sp, sp, #8
 578              		.cfi_def_cfa_offset 16
 579 0004 00AF     		add	r7, sp, #0
 580              		.cfi_def_cfa_register 7
 454:.\Generated_Source\PSoC5/I2S_1.c ****         uint8 enableInterrupts;
 455:.\Generated_Source\PSoC5/I2S_1.c **** 
 456:.\Generated_Source\PSoC5/I2S_1.c ****         enableInterrupts = CyEnterCriticalSection();
 581              		.loc 1 456 0
 582 0006 FFF7FEFF 		bl	CyEnterCriticalSection
 583 000a 0346     		mov	r3, r0
 584 000c FB71     		strb	r3, [r7, #7]
 457:.\Generated_Source\PSoC5/I2S_1.c ****         I2S_1_CLEAR_RX_FIFO(CH0);
 585              		.loc 1 457 0
 586 000e 0B4A     		ldr	r2, .L30
 587 0010 0A4B     		ldr	r3, .L30
 588 0012 1B78     		ldrb	r3, [r3]
 589 0014 DBB2     		uxtb	r3, r3
 590 0016 43F00303 		orr	r3, r3, #3
 591 001a DBB2     		uxtb	r3, r3
 592 001c 1370     		strb	r3, [r2]
 593 001e 074A     		ldr	r2, .L30
 594 0020 064B     		ldr	r3, .L30
 595 0022 1B78     		ldrb	r3, [r3]
 596 0024 DBB2     		uxtb	r3, r3
 597 0026 23F00303 		bic	r3, r3, #3
 598 002a DBB2     		uxtb	r3, r3
 599 002c 1370     		strb	r3, [r2]
 458:.\Generated_Source\PSoC5/I2S_1.c ****         #if (I2S_1_RX_STEREO_1_PRESENT)
 459:.\Generated_Source\PSoC5/I2S_1.c ****             I2S_1_CLEAR_RX_FIFO(CH1);
 460:.\Generated_Source\PSoC5/I2S_1.c ****         #endif /* I2S_1_RX_STEREO_1_PRESENT */
 461:.\Generated_Source\PSoC5/I2S_1.c ****         #if (I2S_1_RX_STEREO_2_PRESENT)
 462:.\Generated_Source\PSoC5/I2S_1.c ****             I2S_1_CLEAR_RX_FIFO(CH2);
 463:.\Generated_Source\PSoC5/I2S_1.c ****         #endif /* I2S_1_RX_STEREO_2_PRESENT */
 464:.\Generated_Source\PSoC5/I2S_1.c ****         #if (I2S_1_RX_STEREO_3_PRESENT)
 465:.\Generated_Source\PSoC5/I2S_1.c ****             I2S_1_CLEAR_RX_FIFO(CH3);
 466:.\Generated_Source\PSoC5/I2S_1.c ****         #endif /* I2S_1_RX_STEREO_3_PRESENT */
 467:.\Generated_Source\PSoC5/I2S_1.c ****         #if (I2S_1_RX_STEREO_4_PRESENT)
 468:.\Generated_Source\PSoC5/I2S_1.c ****             I2S_1_CLEAR_RX_FIFO(CH4);
 469:.\Generated_Source\PSoC5/I2S_1.c ****         #endif /* I2S_1_RX_STEREO_4_PRESENT */
 470:.\Generated_Source\PSoC5/I2S_1.c ****         CyExitCriticalSection(enableInterrupts);
 600              		.loc 1 470 0
 601 002e FB79     		ldrb	r3, [r7, #7]	@ zero_extendqisi2
 602 0030 1846     		mov	r0, r3
 603 0032 FFF7FEFF 		bl	CyExitCriticalSection
 471:.\Generated_Source\PSoC5/I2S_1.c ****     }
 604              		.loc 1 471 0
 605 0036 0837     		adds	r7, r7, #8
 606              		.cfi_def_cfa_offset 8
 607 0038 BD46     		mov	sp, r7
 608              		.cfi_def_cfa_register 13
 609              		@ sp needed
 610 003a 80BD     		pop	{r7, pc}
 611              	.L31:
 612              		.align	2
ARM GAS  C:\Users\LUKASC~1\AppData\Local\Temp\ccvUkhee.s 			page 20


 613              	.L30:
 614 003c 92640040 		.word	1073767570
 615              		.cfi_endproc
 616              	.LFE9:
 617              		.size	I2S_1_ClearRxFIFO, .-I2S_1_ClearRxFIFO
 618              		.section	.rodata
 619              		.align	2
 620              		.type	I2S_1_negThresholds.4838, %object
 621              		.size	I2S_1_negThresholds.4838, 5
 622              	I2S_1_negThresholds.4838:
 623 0000 C0       		.byte	-64
 624 0001 C0       		.byte	-64
 625 0002 C0       		.byte	-64
 626 0003 C0       		.byte	-64
 627 0004 C0       		.byte	-64
 628 0005 000000   		.align	2
 629              		.type	I2S_1_posThresholds.4837, %object
 630              		.size	I2S_1_posThresholds.4837, 5
 631              	I2S_1_posThresholds.4837:
 632 0008 40       		.byte	64
 633 0009 40       		.byte	64
 634 000a 40       		.byte	64
 635 000b 40       		.byte	64
 636 000c 40       		.byte	64
 637 000d 000000   		.text
 638              	.Letext0:
 639              		.file 2 ".\\Generated_Source\\PSoC5\\cytypes.h"