ARM GAS  C:\Users\LUKASC~1\AppData\Local\Temp\ccYtuUSQ.s 			page 1


   1              		.syntax unified
   2              		.cpu cortex-m3
   3              		.fpu softvfp
   4              		.eabi_attribute 20, 1
   5              		.eabi_attribute 21, 1
   6              		.eabi_attribute 23, 3
   7              		.eabi_attribute 24, 1
   8              		.eabi_attribute 25, 1
   9              		.eabi_attribute 26, 1
  10              		.eabi_attribute 30, 6
  11              		.eabi_attribute 34, 1
  12              		.eabi_attribute 18, 4
  13              		.thumb
  14              		.file	"main.c"
  15              		.text
  16              	.Ltext0:
  17              		.cfi_sections	.debug_frame
  18              		.bss
  19              	rxDmaChan:
  20 0000 00       		.space	1
  21 0001 000000   		.align	2
  22              	rxDmaTd:
  23 0004 00       		.space	1
  24              	txDmaChan:
  25 0005 00       		.space	1
  26 0006 0000     		.align	2
  27              	txDmaTd:
  28 0008 00       		.space	1
  29 0009 000000   		.align	2
  30              	rxBuff:
  31 000c 00000000 		.space	4
  32              		.global	txBuff
  33              		.data
  34              		.align	2
  35              		.type	txBuff, %object
  36              		.size	txBuff, 4
  37              	txBuff:
  38 0000 CA       		.byte	-54
  39 0001 FE       		.byte	-2
  40 0002 FA       		.byte	-6
  41 0003 CE       		.byte	-50
  42              		.bss
  43              	buttonPressed:
  44 0010 00       		.space	1
  45 0011 000000   		.section	.rodata
  46              		.align	2
  47              	.LC0:
  48 0000 54583A00 		.ascii	"TX:\000"
  49              		.align	2
  50              	.LC1:
  51 0004 52583A00 		.ascii	"RX:\000"
  52              		.section	.text.main,"ax",%progbits
  53              		.align	2
  54              		.global	main
  55              		.thumb
  56              		.thumb_func
  57              		.type	main, %function
ARM GAS  C:\Users\LUKASC~1\AppData\Local\Temp\ccYtuUSQ.s 			page 2


  58              	main:
  59              	.LFB63:
  60              		.file 1 ".\\main.c"
   1:.\main.c      **** /*******************************************************************************
   2:.\main.c      **** * File Name: main.c
   3:.\main.c      **** *
   4:.\main.c      **** * Version: 2.0
   5:.\main.c      **** *
   6:.\main.c      **** * Description:
   7:.\main.c      **** *  This is the source code for the example project of the Inter-IC Sound Bus
   8:.\main.c      **** * (I2S) component.
   9:.\main.c      **** *
  10:.\main.c      **** *  Parameters used:
  11:.\main.c      **** *   Direction:          Tx and Rx
  12:.\main.c      **** *   WordSelect:         64 bits
  13:.\main.c      **** *   DataBits:           16 bits
  14:.\main.c      **** *   DataInterleaving:   Interleaved
  15:.\main.c      **** *   DMA Request:        Tx and Rx
  16:.\main.c      **** *   Rx clip detection:  Enabled
  17:.\main.c      **** *
  18:.\main.c      **** *  I2S data transfers with a loopback. Tx data is sent from the memory to
  19:.\main.c      **** *  the Tx FIFO using TxDMA. The data is transmitted on the Tx direction and
  20:.\main.c      **** *  is received on the Rx direction.
  21:.\main.c      **** *  RxDMA transfers the data from Rx FIFO to the SRAM buffer.
  22:.\main.c      **** *  Received data is  displayed on the LCD. 
  23:.\main.c      **** *  Pressing SW1 on the DVK increments the value of the first element in the
  24:.\main.c      **** *  transmit buffer. If the value crosses the negative and positive clipping
  25:.\main.c      **** *  thresholds, the LED1 is turned on.
  26:.\main.c      **** *
  27:.\main.c      **** ********************************************************************************
  28:.\main.c      **** * Copyright 2012-2014, Cypress Semiconductor Corporation. All rights reserved.
  29:.\main.c      **** * This software is owned by Cypress Semiconductor Corporation and is protected
  30:.\main.c      **** * by and subject to worldwide patent and copyright laws and treaties.
  31:.\main.c      **** * Therefore, you may use this software only as provided in the license agreement
  32:.\main.c      **** * accompanying the software package from which you obtained this software.
  33:.\main.c      **** * CYPRESS AND ITS SUPPLIERS MAKE NO WARRANTY OF ANY KIND, EXPRESS OR IMPLIED,
  34:.\main.c      **** * WITH REGARD TO THIS SOFTWARE, INCLUDING, BUT NOT LIMITED TO, NONINFRINGEMENT,
  35:.\main.c      **** * IMPLIED WARRANTIES OF MERCHANTABILITY AND FITNESS FOR A PARTICULAR PURPOSE.
  36:.\main.c      **** *******************************************************************************/
  37:.\main.c      **** 
  38:.\main.c      **** #include <project.h>
  39:.\main.c      **** 
  40:.\main.c      **** #define BUFFER_SIZE                 (4u)
  41:.\main.c      **** #define	BUTTON_DEBOUNCE_COUNT_MAX	(30u)
  42:.\main.c      **** #define	USERIO_DISPLAY_REFRESH      (100u)
  43:.\main.c      **** 
  44:.\main.c      **** /* DMA Configuration for RxDMA */
  45:.\main.c      **** #define RxDMA_BYTES_PER_BURST       (1u)
  46:.\main.c      **** #define RxDMA_REQUEST_PER_BURST     (1u)
  47:.\main.c      **** #define RxDMA_SRC_BASE              (CYDEV_PERIPH_BASE)
  48:.\main.c      **** #define RxDMA_DST_BASE              (CYDEV_SRAM_BASE)
  49:.\main.c      **** 
  50:.\main.c      **** /* DMA Configuration for TxDMA */
  51:.\main.c      **** #define TxDMA_BYTES_PER_BURST       (1u)
  52:.\main.c      **** #define TxDMA_REQUEST_PER_BURST     (1u)
  53:.\main.c      **** #define TxDMA_SRC_BASE              (CYDEV_SRAM_BASE)
  54:.\main.c      **** #define TxDMA_DST_BASE              (CYDEV_PERIPH_BASE)
ARM GAS  C:\Users\LUKASC~1\AppData\Local\Temp\ccYtuUSQ.s 			page 3


  55:.\main.c      **** 
  56:.\main.c      **** /* Function prototypes */
  57:.\main.c      **** static void DmaRxConfiguration(void);
  58:.\main.c      **** static void DmaTxConfiguration(void);
  59:.\main.c      **** static void ButtonProcess(void);
  60:.\main.c      **** static void DisplayUpdate(void);
  61:.\main.c      **** 
  62:.\main.c      **** /* Variable declarations for RxDMA and TxDMA */
  63:.\main.c      **** static uint8 rxDmaChan;
  64:.\main.c      **** static uint8 rxDmaTd[1u];
  65:.\main.c      **** static uint8 txDmaChan;
  66:.\main.c      **** static uint8 txDmaTd[1u];
  67:.\main.c      **** 
  68:.\main.c      **** /* Receive buffer */
  69:.\main.c      **** static uint8 rxBuff[BUFFER_SIZE];
  70:.\main.c      **** 
  71:.\main.c      **** /* Data to be transmitted by Tx */
  72:.\main.c      **** uint8 txBuff[BUFFER_SIZE] = {0xCAu, 0xFEu, 0xFAu, 0xCEu};
  73:.\main.c      **** 
  74:.\main.c      **** /* Press button state */
  75:.\main.c      **** static uint8 buttonPressed = 0u;
  76:.\main.c      **** 
  77:.\main.c      **** 
  78:.\main.c      **** /*******************************************************************************
  79:.\main.c      **** * Function Name: main
  80:.\main.c      **** ********************************************************************************
  81:.\main.c      **** *
  82:.\main.c      **** * Summary:
  83:.\main.c      **** *  The main function performs the following tasks:
  84:.\main.c      **** *   1. Starts all components
  85:.\main.c      **** *   2. Configures the DMA transfer for the Rx and Tx directions
  86:.\main.c      **** *   3. Enables Rx and Tx directions
  87:.\main.c      **** *   4. Scans for a button event and increment the first element of txBuff[] if
  88:.\main.c      **** *      the button was pressed
  89:.\main.c      **** *   5. Prints out the received data onto the LCD with a user defined refresh
  90:.\main.c      **** *      rate
  91:.\main.c      **** *   
  92:.\main.c      **** * Parameters:
  93:.\main.c      **** *  None.
  94:.\main.c      **** *
  95:.\main.c      **** * Return:
  96:.\main.c      **** *  None.
  97:.\main.c      **** *
  98:.\main.c      **** *******************************************************************************/
  99:.\main.c      **** int main()
 100:.\main.c      **** {   
  61              		.loc 1 100 0
  62              		.cfi_startproc
  63              		@ args = 0, pretend = 0, frame = 8
  64              		@ frame_needed = 1, uses_anonymous_args = 0
  65 0000 80B5     		push	{r7, lr}
  66              		.cfi_def_cfa_offset 8
  67              		.cfi_offset 7, -8
  68              		.cfi_offset 14, -4
  69 0002 82B0     		sub	sp, sp, #8
  70              		.cfi_def_cfa_offset 16
  71 0004 00AF     		add	r7, sp, #0
ARM GAS  C:\Users\LUKASC~1\AppData\Local\Temp\ccYtuUSQ.s 			page 4


  72              		.cfi_def_cfa_register 7
 101:.\main.c      ****     uint8 refreshRate = USERIO_DISPLAY_REFRESH;
  73              		.loc 1 101 0
  74 0006 6423     		movs	r3, #100
  75 0008 FB71     		strb	r3, [r7, #7]
 102:.\main.c      **** 
 103:.\main.c      ****     LCD_Start();
  76              		.loc 1 103 0
  77 000a FFF7FEFF 		bl	LCD_Start
 104:.\main.c      ****     LCD_PrintString("TX:");
  78              		.loc 1 104 0
  79 000e 2048     		ldr	r0, .L6
  80 0010 FFF7FEFF 		bl	LCD_PrintString
 105:.\main.c      ****     LCD_Position(1u, 0u);
  81              		.loc 1 105 0
  82 0014 0120     		movs	r0, #1
  83 0016 0021     		movs	r1, #0
  84 0018 FFF7FEFF 		bl	LCD_Position
 106:.\main.c      ****     LCD_PrintString("RX:");
  85              		.loc 1 106 0
  86 001c 1D48     		ldr	r0, .L6+4
  87 001e FFF7FEFF 		bl	LCD_PrintString
 107:.\main.c      **** 
 108:.\main.c      ****     I2S_1_Start();
  88              		.loc 1 108 0
  89 0022 FFF7FEFF 		bl	I2S_1_Start
 109:.\main.c      ****     
 110:.\main.c      ****     /* Configure DMAs for each direction */ 
 111:.\main.c      ****     DmaRxConfiguration();
  90              		.loc 1 111 0
  91 0026 FFF7FEFF 		bl	DmaRxConfiguration
 112:.\main.c      ****     DmaTxConfiguration();
  92              		.loc 1 112 0
  93 002a FFF7FEFF 		bl	DmaTxConfiguration
 113:.\main.c      **** 
 114:.\main.c      ****     LCD_Position(1u,0u);
  94              		.loc 1 114 0
  95 002e 0120     		movs	r0, #1
  96 0030 0021     		movs	r1, #0
  97 0032 FFF7FEFF 		bl	LCD_Position
 115:.\main.c      **** 
 116:.\main.c      ****     
 117:.\main.c      ****     I2S_1_EnableRx();
  98              		.loc 1 117 0
  99 0036 FFF7FEFF 		bl	I2S_1_EnableRx
 118:.\main.c      **** 
 119:.\main.c      ****     while(0u != (I2S_1_ReadTxStatus() & I2S_1_TX_FIFO_0_NOT_FULL))
 100              		.loc 1 119 0
 101 003a 00BF     		nop
 102              	.L2:
 103              		.loc 1 119 0 is_stmt 0 discriminator 1
 104 003c 164B     		ldr	r3, .L6+8
 105 003e 1B78     		ldrb	r3, [r3]
 106 0040 DBB2     		uxtb	r3, r3
 107 0042 03F00203 		and	r3, r3, #2
 108 0046 002B     		cmp	r3, #0
 109 0048 F8D1     		bne	.L2
ARM GAS  C:\Users\LUKASC~1\AppData\Local\Temp\ccYtuUSQ.s 			page 5


 120:.\main.c      ****     {
 121:.\main.c      ****         /* Wait for TxDMA to fill Tx FIFO */
 122:.\main.c      ****     }
 123:.\main.c      ****     CyDelayUs(1);
 110              		.loc 1 123 0 is_stmt 1
 111 004a 0120     		movs	r0, #1
 112 004c FFF7FEFF 		bl	CyDelayUs
 124:.\main.c      ****     I2S_1_EnableTx();   /* Enable Tx direction */
 113              		.loc 1 124 0
 114 0050 FFF7FEFF 		bl	I2S_1_EnableTx
 115              	.L5:
 125:.\main.c      ****    
 126:.\main.c      ****     for(;;)
 127:.\main.c      ****     {
 128:.\main.c      ****         /* Execute following tasks once every millisecond */
 129:.\main.c      ****         CyDelay(1u);
 116              		.loc 1 129 0
 117 0054 0120     		movs	r0, #1
 118 0056 FFF7FEFF 		bl	CyDelay
 130:.\main.c      **** 
 131:.\main.c      ****         /* Process button related events */
 132:.\main.c      ****         ButtonProcess();
 119              		.loc 1 132 0
 120 005a FFF7FEFF 		bl	ButtonProcess
 133:.\main.c      **** 
 134:.\main.c      ****         if(0u != refreshRate)
 121              		.loc 1 134 0
 122 005e FB79     		ldrb	r3, [r7, #7]	@ zero_extendqisi2
 123 0060 002B     		cmp	r3, #0
 124 0062 03D0     		beq	.L3
 135:.\main.c      ****         {
 136:.\main.c      ****             refreshRate--;
 125              		.loc 1 136 0
 126 0064 FB79     		ldrb	r3, [r7, #7]	@ zero_extendqisi2
 127 0066 013B     		subs	r3, r3, #1
 128 0068 FB71     		strb	r3, [r7, #7]
 129 006a 10E0     		b	.L4
 130              	.L3:
 137:.\main.c      ****         }
 138:.\main.c      ****         else
 139:.\main.c      ****         {
 140:.\main.c      ****             refreshRate = USERIO_DISPLAY_REFRESH;
 131              		.loc 1 140 0
 132 006c 6423     		movs	r3, #100
 133 006e FB71     		strb	r3, [r7, #7]
 141:.\main.c      **** 
 142:.\main.c      ****             /* Print out Tx and Rx data onto LCD */
 143:.\main.c      ****             DisplayUpdate();
 134              		.loc 1 143 0
 135 0070 FFF7FEFF 		bl	DisplayUpdate
 144:.\main.c      **** 
 145:.\main.c      ****             /* If SW1 has been pressed, increment the first byte of Tx buffer */
 146:.\main.c      ****             if(0u != buttonPressed)
 136              		.loc 1 146 0
 137 0074 094B     		ldr	r3, .L6+12
 138 0076 1B78     		ldrb	r3, [r3]	@ zero_extendqisi2
 139 0078 002B     		cmp	r3, #0
ARM GAS  C:\Users\LUKASC~1\AppData\Local\Temp\ccYtuUSQ.s 			page 6


 140 007a 08D0     		beq	.L4
 147:.\main.c      ****             {
 148:.\main.c      ****                 txBuff[0u]++;
 141              		.loc 1 148 0
 142 007c 084B     		ldr	r3, .L6+16
 143 007e 1B78     		ldrb	r3, [r3]	@ zero_extendqisi2
 144 0080 0133     		adds	r3, r3, #1
 145 0082 DAB2     		uxtb	r2, r3
 146 0084 064B     		ldr	r3, .L6+16
 147 0086 1A70     		strb	r2, [r3]
 149:.\main.c      ****                 buttonPressed = 0u;
 148              		.loc 1 149 0
 149 0088 044B     		ldr	r3, .L6+12
 150 008a 0022     		movs	r2, #0
 151 008c 1A70     		strb	r2, [r3]
 152              	.L4:
 150:.\main.c      ****             }
 151:.\main.c      ****         }
 152:.\main.c      ****     }
 153              		.loc 1 152 0
 154 008e E1E7     		b	.L5
 155              	.L7:
 156              		.align	2
 157              	.L6:
 158 0090 00000000 		.word	.LC0
 159 0094 04000000 		.word	.LC1
 160 0098 61640040 		.word	1073767521
 161 009c 10000000 		.word	buttonPressed
 162 00a0 00000000 		.word	txBuff
 163              		.cfi_endproc
 164              	.LFE63:
 165              		.size	main, .-main
 166              		.section	.text.DmaRxConfiguration,"ax",%progbits
 167              		.align	2
 168              		.thumb
 169              		.thumb_func
 170              		.type	DmaRxConfiguration, %function
 171              	DmaRxConfiguration:
 172              	.LFB64:
 153:.\main.c      **** }
 154:.\main.c      **** 
 155:.\main.c      **** 
 156:.\main.c      **** /*******************************************************************************
 157:.\main.c      **** * Function Name: DmaRxConfiguration
 158:.\main.c      **** ********************************************************************************
 159:.\main.c      **** *
 160:.\main.c      **** * Summary:
 161:.\main.c      **** *  Configures the DMA transfer for the Rx direction.
 162:.\main.c      **** *   
 163:.\main.c      **** * Parameters:
 164:.\main.c      **** *  None.
 165:.\main.c      **** *
 166:.\main.c      **** * Return:
 167:.\main.c      **** *  None.
 168:.\main.c      **** *
 169:.\main.c      **** *******************************************************************************/
 170:.\main.c      **** void DmaRxConfiguration(void)
ARM GAS  C:\Users\LUKASC~1\AppData\Local\Temp\ccYtuUSQ.s 			page 7


 171:.\main.c      **** {
 173              		.loc 1 171 0
 174              		.cfi_startproc
 175              		@ args = 0, pretend = 0, frame = 0
 176              		@ frame_needed = 1, uses_anonymous_args = 0
 177 0000 80B5     		push	{r7, lr}
 178              		.cfi_def_cfa_offset 8
 179              		.cfi_offset 7, -8
 180              		.cfi_offset 14, -4
 181 0002 00AF     		add	r7, sp, #0
 182              		.cfi_def_cfa_register 7
 172:.\main.c      ****     /* Rx DMA Config
 173:.\main.c      ****     * Init DMA, 1 byte bursts, each burst requires a request */
 174:.\main.c      ****     rxDmaChan = RxDMA_DmaInitialize(RxDMA_BYTES_PER_BURST, RxDMA_REQUEST_PER_BURST,
 183              		.loc 1 174 0
 184 0004 0120     		movs	r0, #1
 185 0006 0121     		movs	r1, #1
 186 0008 4FF48042 		mov	r2, #16384
 187 000c 41F6FF73 		movw	r3, #8191
 188 0010 FFF7FEFF 		bl	RxDMA_DmaInitialize
 189 0014 0346     		mov	r3, r0
 190 0016 1A46     		mov	r2, r3
 191 0018 154B     		ldr	r3, .L9
 192 001a 1A70     		strb	r2, [r3]
 175:.\main.c      ****                                      HI16(RxDMA_SRC_BASE), HI16(RxDMA_DST_BASE));
 176:.\main.c      **** 
 177:.\main.c      ****     rxDmaTd[0u] = CyDmaTdAllocate();
 193              		.loc 1 177 0
 194 001c FFF7FEFF 		bl	CyDmaTdAllocate
 195 0020 0346     		mov	r3, r0
 196 0022 1A46     		mov	r2, r3
 197 0024 134B     		ldr	r3, .L9+4
 198 0026 1A70     		strb	r2, [r3]
 178:.\main.c      ****     /* Configure this Td as follows:
 179:.\main.c      ****     *  - The TD is looping on itself
 180:.\main.c      ****     *  - Increment the destination address, but not the source address
 181:.\main.c      ****     */
 182:.\main.c      ****     CyDmaTdSetConfiguration(rxDmaTd[0], BUFFER_SIZE, rxDmaTd[0u], TD_INC_DST_ADR);
 199              		.loc 1 182 0
 200 0028 124B     		ldr	r3, .L9+4
 201 002a 1A78     		ldrb	r2, [r3]	@ zero_extendqisi2
 202 002c 114B     		ldr	r3, .L9+4
 203 002e 1B78     		ldrb	r3, [r3]	@ zero_extendqisi2
 204 0030 1046     		mov	r0, r2
 205 0032 0421     		movs	r1, #4
 206 0034 1A46     		mov	r2, r3
 207 0036 0223     		movs	r3, #2
 208 0038 FFF7FEFF 		bl	CyDmaTdSetConfiguration
 183:.\main.c      **** 
 184:.\main.c      ****     /* From the I2S to the memory */
 185:.\main.c      ****     CyDmaTdSetAddress(rxDmaTd[0u], LO16((uint32)I2S_1_RX_CH0_F0_PTR), LO16((uint32)rxBuff));
 209              		.loc 1 185 0
 210 003c 0D4B     		ldr	r3, .L9+4
 211 003e 1A78     		ldrb	r2, [r3]	@ zero_extendqisi2
 212 0040 0D4B     		ldr	r3, .L9+8
 213 0042 9BB2     		uxth	r3, r3
 214 0044 1046     		mov	r0, r2
ARM GAS  C:\Users\LUKASC~1\AppData\Local\Temp\ccYtuUSQ.s 			page 8


 215 0046 46F24241 		movw	r1, #25666
 216 004a 1A46     		mov	r2, r3
 217 004c FFF7FEFF 		bl	CyDmaTdSetAddress
 186:.\main.c      **** 
 187:.\main.c      ****     /* Associate the TD with the channel */
 188:.\main.c      ****     CyDmaChSetInitialTd(rxDmaChan, rxDmaTd[0u]);
 218              		.loc 1 188 0
 219 0050 074B     		ldr	r3, .L9
 220 0052 1A78     		ldrb	r2, [r3]	@ zero_extendqisi2
 221 0054 074B     		ldr	r3, .L9+4
 222 0056 1B78     		ldrb	r3, [r3]	@ zero_extendqisi2
 223 0058 1046     		mov	r0, r2
 224 005a 1946     		mov	r1, r3
 225 005c FFF7FEFF 		bl	CyDmaChSetInitialTd
 189:.\main.c      **** 
 190:.\main.c      ****     /* Enable the channel */
 191:.\main.c      ****     CyDmaChEnable(rxDmaChan, 1u);
 226              		.loc 1 191 0
 227 0060 034B     		ldr	r3, .L9
 228 0062 1B78     		ldrb	r3, [r3]	@ zero_extendqisi2
 229 0064 1846     		mov	r0, r3
 230 0066 0121     		movs	r1, #1
 231 0068 FFF7FEFF 		bl	CyDmaChEnable
 192:.\main.c      **** }
 232              		.loc 1 192 0
 233 006c 80BD     		pop	{r7, pc}
 234              	.L10:
 235 006e 00BF     		.align	2
 236              	.L9:
 237 0070 00000000 		.word	rxDmaChan
 238 0074 04000000 		.word	rxDmaTd
 239 0078 0C000000 		.word	rxBuff
 240              		.cfi_endproc
 241              	.LFE64:
 242              		.size	DmaRxConfiguration, .-DmaRxConfiguration
 243              		.section	.text.DmaTxConfiguration,"ax",%progbits
 244              		.align	2
 245              		.thumb
 246              		.thumb_func
 247              		.type	DmaTxConfiguration, %function
 248              	DmaTxConfiguration:
 249              	.LFB65:
 193:.\main.c      **** 
 194:.\main.c      **** 
 195:.\main.c      **** /*******************************************************************************
 196:.\main.c      **** * Function Name: DmaTxConfiguration
 197:.\main.c      **** ********************************************************************************
 198:.\main.c      **** *
 199:.\main.c      **** * Summary:
 200:.\main.c      **** *  Configures the DMA transfer for the Tx direction.
 201:.\main.c      **** *   
 202:.\main.c      **** * Parameters:
 203:.\main.c      **** *  None.
 204:.\main.c      **** *
 205:.\main.c      **** * Return:
 206:.\main.c      **** *  None.
 207:.\main.c      **** *
ARM GAS  C:\Users\LUKASC~1\AppData\Local\Temp\ccYtuUSQ.s 			page 9


 208:.\main.c      **** *******************************************************************************/
 209:.\main.c      **** void DmaTxConfiguration(void)
 210:.\main.c      **** {
 250              		.loc 1 210 0
 251              		.cfi_startproc
 252              		@ args = 0, pretend = 0, frame = 0
 253              		@ frame_needed = 1, uses_anonymous_args = 0
 254 0000 80B5     		push	{r7, lr}
 255              		.cfi_def_cfa_offset 8
 256              		.cfi_offset 7, -8
 257              		.cfi_offset 14, -4
 258 0002 00AF     		add	r7, sp, #0
 259              		.cfi_def_cfa_register 7
 211:.\main.c      ****      /* Tx DMA Config
 212:.\main.c      ****     * Init DMA, 1 byte bursts, each burst requires a request
 213:.\main.c      ****     */ 
 214:.\main.c      ****     txDmaChan = TxDMA_DmaInitialize(TxDMA_BYTES_PER_BURST, TxDMA_REQUEST_PER_BURST, 
 260              		.loc 1 214 0
 261 0004 0120     		movs	r0, #1
 262 0006 0121     		movs	r1, #1
 263 0008 41F6FF72 		movw	r2, #8191
 264 000c 4FF48043 		mov	r3, #16384
 265 0010 FFF7FEFF 		bl	TxDMA_DmaInitialize
 266 0014 0346     		mov	r3, r0
 267 0016 1A46     		mov	r2, r3
 268 0018 154B     		ldr	r3, .L12
 269 001a 1A70     		strb	r2, [r3]
 215:.\main.c      ****                                     HI16(TxDMA_SRC_BASE), HI16(TxDMA_DST_BASE));
 216:.\main.c      **** 
 217:.\main.c      ****     txDmaTd[0u] = CyDmaTdAllocate();
 270              		.loc 1 217 0
 271 001c FFF7FEFF 		bl	CyDmaTdAllocate
 272 0020 0346     		mov	r3, r0
 273 0022 1A46     		mov	r2, r3
 274 0024 134B     		ldr	r3, .L12+4
 275 0026 1A70     		strb	r2, [r3]
 218:.\main.c      **** 
 219:.\main.c      ****     /* Configure this Td chain as follows:
 220:.\main.c      ****     *  - The TD is looping on itself
 221:.\main.c      ****     *  - Increment the source address, but not the destination address   
 222:.\main.c      ****     */
 223:.\main.c      ****     CyDmaTdSetConfiguration(txDmaTd[0u], BUFFER_SIZE, txDmaTd[0u], TD_INC_SRC_ADR);
 276              		.loc 1 223 0
 277 0028 124B     		ldr	r3, .L12+4
 278 002a 1A78     		ldrb	r2, [r3]	@ zero_extendqisi2
 279 002c 114B     		ldr	r3, .L12+4
 280 002e 1B78     		ldrb	r3, [r3]	@ zero_extendqisi2
 281 0030 1046     		mov	r0, r2
 282 0032 0421     		movs	r1, #4
 283 0034 1A46     		mov	r2, r3
 284 0036 0123     		movs	r3, #1
 285 0038 FFF7FEFF 		bl	CyDmaTdSetConfiguration
 224:.\main.c      ****     
 225:.\main.c      ****     /* From the memory to the I2S */
 226:.\main.c      ****     CyDmaTdSetAddress(txDmaTd[0u], LO16((uint32)txBuff), LO16((uint32)I2S_1_TX_CH0_F0_PTR));
 286              		.loc 1 226 0
 287 003c 0D4B     		ldr	r3, .L12+4
ARM GAS  C:\Users\LUKASC~1\AppData\Local\Temp\ccYtuUSQ.s 			page 10


 288 003e 1A78     		ldrb	r2, [r3]	@ zero_extendqisi2
 289 0040 0D4B     		ldr	r3, .L12+8
 290 0042 9BB2     		uxth	r3, r3
 291 0044 1046     		mov	r0, r2
 292 0046 1946     		mov	r1, r3
 293 0048 46F24142 		movw	r2, #25665
 294 004c FFF7FEFF 		bl	CyDmaTdSetAddress
 227:.\main.c      **** 
 228:.\main.c      ****     /* Associate the TD with the channel */
 229:.\main.c      ****     CyDmaChSetInitialTd(txDmaChan, txDmaTd[0u]);
 295              		.loc 1 229 0
 296 0050 074B     		ldr	r3, .L12
 297 0052 1A78     		ldrb	r2, [r3]	@ zero_extendqisi2
 298 0054 074B     		ldr	r3, .L12+4
 299 0056 1B78     		ldrb	r3, [r3]	@ zero_extendqisi2
 300 0058 1046     		mov	r0, r2
 301 005a 1946     		mov	r1, r3
 302 005c FFF7FEFF 		bl	CyDmaChSetInitialTd
 230:.\main.c      **** 
 231:.\main.c      ****     /* Enable the channel */
 232:.\main.c      ****     CyDmaChEnable(txDmaChan, 1u);
 303              		.loc 1 232 0
 304 0060 034B     		ldr	r3, .L12
 305 0062 1B78     		ldrb	r3, [r3]	@ zero_extendqisi2
 306 0064 1846     		mov	r0, r3
 307 0066 0121     		movs	r1, #1
 308 0068 FFF7FEFF 		bl	CyDmaChEnable
 233:.\main.c      **** }
 309              		.loc 1 233 0
 310 006c 80BD     		pop	{r7, pc}
 311              	.L13:
 312 006e 00BF     		.align	2
 313              	.L12:
 314 0070 05000000 		.word	txDmaChan
 315 0074 08000000 		.word	txDmaTd
 316 0078 00000000 		.word	txBuff
 317              		.cfi_endproc
 318              	.LFE65:
 319              		.size	DmaTxConfiguration, .-DmaTxConfiguration
 320              		.section	.text.ButtonProcess,"ax",%progbits
 321              		.align	2
 322              		.thumb
 323              		.thumb_func
 324              		.type	ButtonProcess, %function
 325              	ButtonProcess:
 326              	.LFB66:
 234:.\main.c      **** 
 235:.\main.c      **** /*******************************************************************************
 236:.\main.c      **** *  Function Name: ButtonProcess
 237:.\main.c      **** ********************************************************************************
 238:.\main.c      **** *
 239:.\main.c      **** * Summary:
 240:.\main.c      **** *	This function performs the button de-bouncing and event detection. 
 241:.\main.c      **** *	Ideally this should be called on a regular basis that is acceptable for good
 242:.\main.c      **** *	perceivable de-bounce performance. Just for general guidance, de-bounce 
 243:.\main.c      **** *	should not be less than 25ms and not more than 100ms. Timings too short 
 244:.\main.c      **** *	could lead to erroneous button events (i.e. failure to de-bounce), while 
ARM GAS  C:\Users\LUKASC~1\AppData\Local\Temp\ccYtuUSQ.s 			page 11


 245:.\main.c      **** *	too long a time could lead to a perceived poor human real-time response.  
 246:.\main.c      **** *
 247:.\main.c      **** * Parameters:
 248:.\main.c      **** *  None.
 249:.\main.c      **** *
 250:.\main.c      **** * Return:
 251:.\main.c      **** *  None.
 252:.\main.c      **** *
 253:.\main.c      **** *******************************************************************************/
 254:.\main.c      **** static void ButtonProcess(void)
 255:.\main.c      **** {
 327              		.loc 1 255 0
 328              		.cfi_startproc
 329              		@ args = 0, pretend = 0, frame = 0
 330              		@ frame_needed = 1, uses_anonymous_args = 0
 331 0000 80B5     		push	{r7, lr}
 332              		.cfi_def_cfa_offset 8
 333              		.cfi_offset 7, -8
 334              		.cfi_offset 14, -4
 335 0002 00AF     		add	r7, sp, #0
 336              		.cfi_def_cfa_register 7
 256:.\main.c      ****     static uint8 debounceCount = BUTTON_DEBOUNCE_COUNT_MAX;
 257:.\main.c      **** 
 258:.\main.c      **** 	/* Scan for a button event and maintain a time for debounce */
 259:.\main.c      **** 	if (0u == SW1_Read())		/* pressed */
 337              		.loc 1 259 0
 338 0004 FFF7FEFF 		bl	SW1_Read
 339 0008 0346     		mov	r3, r0
 340 000a 002B     		cmp	r3, #0
 341 000c 14D1     		bne	.L14
 260:.\main.c      **** 	{
 261:.\main.c      **** 		/* Decrement the SW1 debounce count until it reaches 0 */
 262:.\main.c      **** 		if (0u != debounceCount)
 342              		.loc 1 262 0
 343 000e 0B4B     		ldr	r3, .L17
 344 0010 1B78     		ldrb	r3, [r3]	@ zero_extendqisi2
 345 0012 002B     		cmp	r3, #0
 346 0014 06D0     		beq	.L16
 263:.\main.c      ****         {
 264:.\main.c      ****             debounceCount--;
 347              		.loc 1 264 0
 348 0016 094B     		ldr	r3, .L17
 349 0018 1B78     		ldrb	r3, [r3]	@ zero_extendqisi2
 350 001a 013B     		subs	r3, r3, #1
 351 001c DAB2     		uxtb	r2, r3
 352 001e 074B     		ldr	r3, .L17
 353 0020 1A70     		strb	r2, [r3]
 354 0022 09E0     		b	.L14
 355              	.L16:
 265:.\main.c      ****         }
 266:.\main.c      ****         else
 267:.\main.c      ****         {
 268:.\main.c      ****             /* If the button was pressed for the debounce time, set the flag for
 269:.\main.c      ****             * the button press */
 270:.\main.c      ****             if(0u == debounceCount)
 356              		.loc 1 270 0
 357 0024 054B     		ldr	r3, .L17
ARM GAS  C:\Users\LUKASC~1\AppData\Local\Temp\ccYtuUSQ.s 			page 12


 358 0026 1B78     		ldrb	r3, [r3]	@ zero_extendqisi2
 359 0028 002B     		cmp	r3, #0
 360 002a 05D1     		bne	.L14
 271:.\main.c      ****             {
 272:.\main.c      ****                 buttonPressed = 1u;
 361              		.loc 1 272 0
 362 002c 044B     		ldr	r3, .L17+4
 363 002e 0122     		movs	r2, #1
 364 0030 1A70     		strb	r2, [r3]
 273:.\main.c      ****                 debounceCount = BUTTON_DEBOUNCE_COUNT_MAX;
 365              		.loc 1 273 0
 366 0032 024B     		ldr	r3, .L17
 367 0034 1E22     		movs	r2, #30
 368 0036 1A70     		strb	r2, [r3]
 369              	.L14:
 274:.\main.c      ****             }
 275:.\main.c      ****         }
 276:.\main.c      ****     }
 277:.\main.c      **** }
 370              		.loc 1 277 0
 371 0038 80BD     		pop	{r7, pc}
 372              	.L18:
 373 003a 00BF     		.align	2
 374              	.L17:
 375 003c 04000000 		.word	debounceCount.5524
 376 0040 10000000 		.word	buttonPressed
 377              		.cfi_endproc
 378              	.LFE66:
 379              		.size	ButtonProcess, .-ButtonProcess
 380              		.section	.text.DisplayUpdate,"ax",%progbits
 381              		.align	2
 382              		.thumb
 383              		.thumb_func
 384              		.type	DisplayUpdate, %function
 385              	DisplayUpdate:
 386              	.LFB67:
 278:.\main.c      **** 
 279:.\main.c      **** 
 280:.\main.c      **** /*******************************************************************************
 281:.\main.c      **** *  Function Name: DisplayUpdate
 282:.\main.c      **** ********************************************************************************
 283:.\main.c      **** *
 284:.\main.c      **** * Summary:
 285:.\main.c      **** *  This function prints out the Tx and Rx data onto the LCD.  
 286:.\main.c      **** *
 287:.\main.c      **** * Parameters:
 288:.\main.c      **** *  None.
 289:.\main.c      **** *
 290:.\main.c      **** * Return:
 291:.\main.c      **** *  None.
 292:.\main.c      **** *
 293:.\main.c      **** *******************************************************************************/
 294:.\main.c      **** static void DisplayUpdate(void)
 295:.\main.c      **** {
 387              		.loc 1 295 0
 388              		.cfi_startproc
 389              		@ args = 0, pretend = 0, frame = 8
ARM GAS  C:\Users\LUKASC~1\AppData\Local\Temp\ccYtuUSQ.s 			page 13


 390              		@ frame_needed = 1, uses_anonymous_args = 0
 391 0000 80B5     		push	{r7, lr}
 392              		.cfi_def_cfa_offset 8
 393              		.cfi_offset 7, -8
 394              		.cfi_offset 14, -4
 395 0002 82B0     		sub	sp, sp, #8
 396              		.cfi_def_cfa_offset 16
 397 0004 00AF     		add	r7, sp, #0
 398              		.cfi_def_cfa_register 7
 296:.\main.c      ****     uint8 idx;
 297:.\main.c      ****     uint8 col;
 298:.\main.c      **** 
 299:.\main.c      ****     /* Set start position for data output */
 300:.\main.c      ****     col = 4u; 
 399              		.loc 1 300 0
 400 0006 0423     		movs	r3, #4
 401 0008 BB71     		strb	r3, [r7, #6]
 301:.\main.c      **** 	for(idx = 0u; idx < BUFFER_SIZE; idx++)
 402              		.loc 1 301 0
 403 000a 0023     		movs	r3, #0
 404 000c FB71     		strb	r3, [r7, #7]
 405 000e 1BE0     		b	.L20
 406              	.L21:
 302:.\main.c      ****     {
 303:.\main.c      ****         LCD_Position(0u, col);
 407              		.loc 1 303 0 discriminator 3
 408 0010 BB79     		ldrb	r3, [r7, #6]	@ zero_extendqisi2
 409 0012 0020     		movs	r0, #0
 410 0014 1946     		mov	r1, r3
 411 0016 FFF7FEFF 		bl	LCD_Position
 304:.\main.c      ****         LCD_PrintInt8(txBuff[idx]);
 412              		.loc 1 304 0 discriminator 3
 413 001a FB79     		ldrb	r3, [r7, #7]	@ zero_extendqisi2
 414 001c 0D4A     		ldr	r2, .L22
 415 001e D35C     		ldrb	r3, [r2, r3]	@ zero_extendqisi2
 416 0020 1846     		mov	r0, r3
 417 0022 FFF7FEFF 		bl	LCD_PrintInt8
 305:.\main.c      ****         LCD_Position(1u, col);
 418              		.loc 1 305 0 discriminator 3
 419 0026 BB79     		ldrb	r3, [r7, #6]	@ zero_extendqisi2
 420 0028 0120     		movs	r0, #1
 421 002a 1946     		mov	r1, r3
 422 002c FFF7FEFF 		bl	LCD_Position
 306:.\main.c      ****         LCD_PrintInt8(rxBuff[idx]);
 423              		.loc 1 306 0 discriminator 3
 424 0030 FB79     		ldrb	r3, [r7, #7]	@ zero_extendqisi2
 425 0032 094A     		ldr	r2, .L22+4
 426 0034 D35C     		ldrb	r3, [r2, r3]	@ zero_extendqisi2
 427 0036 1846     		mov	r0, r3
 428 0038 FFF7FEFF 		bl	LCD_PrintInt8
 307:.\main.c      ****         col += 3u;
 429              		.loc 1 307 0 discriminator 3
 430 003c BB79     		ldrb	r3, [r7, #6]
 431 003e 0333     		adds	r3, r3, #3
 432 0040 BB71     		strb	r3, [r7, #6]
 301:.\main.c      ****     {
 433              		.loc 1 301 0 discriminator 3
ARM GAS  C:\Users\LUKASC~1\AppData\Local\Temp\ccYtuUSQ.s 			page 14


 434 0042 FB79     		ldrb	r3, [r7, #7]	@ zero_extendqisi2
 435 0044 0133     		adds	r3, r3, #1
 436 0046 FB71     		strb	r3, [r7, #7]
 437              	.L20:
 301:.\main.c      ****     {
 438              		.loc 1 301 0 is_stmt 0 discriminator 1
 439 0048 FB79     		ldrb	r3, [r7, #7]	@ zero_extendqisi2
 440 004a 032B     		cmp	r3, #3
 441 004c E0D9     		bls	.L21
 308:.\main.c      ****     }
 309:.\main.c      **** }
 442              		.loc 1 309 0 is_stmt 1
 443 004e 0837     		adds	r7, r7, #8
 444              		.cfi_def_cfa_offset 8
 445 0050 BD46     		mov	sp, r7
 446              		.cfi_def_cfa_register 13
 447              		@ sp needed
 448 0052 80BD     		pop	{r7, pc}
 449              	.L23:
 450              		.align	2
 451              	.L22:
 452 0054 00000000 		.word	txBuff
 453 0058 0C000000 		.word	rxBuff
 454              		.cfi_endproc
 455              	.LFE67:
 456              		.size	DisplayUpdate, .-DisplayUpdate
 457              		.data
 458              		.type	debounceCount.5524, %object
 459              		.size	debounceCount.5524, 1
 460              	debounceCount.5524:
 461 0004 1E       		.byte	30
 462 0005 000000   		.text
 463              	.Letext0:
 464              		.file 2 "c:\\program files (x86)\\cypress\\psoc creator\\3.3\\psoc creator\\import\\gnu\\arm\\4.9.
 465              		.file 3 "c:\\program files (x86)\\cypress\\psoc creator\\3.3\\psoc creator\\import\\gnu\\arm\\4.9.
 466              		.file 4 "Generated_Source\\PSoC5/cytypes.h"
 467              		.file 5 "Generated_Source\\PSoC5/core_cm3.h"