ARM GAS  C:\USERS\LUKAS\APPDATA\LOCAL\TEMP\ccNvTykm.s 			page 1


   1              		.syntax unified
   2              		.cpu cortex-m3
   3              		.fpu softvfp
   4              		.eabi_attribute 20, 1
   5              		.eabi_attribute 21, 1
   6              		.eabi_attribute 23, 3
   7              		.eabi_attribute 24, 1
   8              		.eabi_attribute 25, 1
   9              		.eabi_attribute 26, 1
  10              		.eabi_attribute 30, 6
  11              		.eabi_attribute 34, 1
  12              		.eabi_attribute 18, 4
  13              		.thumb
  14              		.file	"Bootloadable.c"
  15              		.text
  16              	.Ltext0:
  17              		.cfi_sections	.debug_frame
  18              		.section	.text.Bootloadable_Load,"ax",%progbits
  19              		.align	2
  20              		.global	Bootloadable_Load
  21              		.thumb
  22              		.thumb_func
  23              		.type	Bootloadable_Load, %function
  24              	Bootloadable_Load:
  25              	.LFB0:
  26              		.file 1 ".\\Generated_Source\\PSoC5\\Bootloadable.c"
   1:.\Generated_Source\PSoC5/Bootloadable.c **** /*******************************************************************************
   2:.\Generated_Source\PSoC5/Bootloadable.c **** * File Name: Bootloadable.c
   3:.\Generated_Source\PSoC5/Bootloadable.c **** * Version 1.10
   4:.\Generated_Source\PSoC5/Bootloadable.c **** *
   5:.\Generated_Source\PSoC5/Bootloadable.c **** *  Description:
   6:.\Generated_Source\PSoC5/Bootloadable.c **** *   Provides an API for the Bootloadable application. The API includes a
   7:.\Generated_Source\PSoC5/Bootloadable.c **** *   single function for starting bootloader.
   8:.\Generated_Source\PSoC5/Bootloadable.c **** *
   9:.\Generated_Source\PSoC5/Bootloadable.c **** ********************************************************************************
  10:.\Generated_Source\PSoC5/Bootloadable.c **** * Copyright 2008-2013, Cypress Semiconductor Corporation.  All rights reserved.
  11:.\Generated_Source\PSoC5/Bootloadable.c **** * You may use this file only in accordance with the license, terms, conditions,
  12:.\Generated_Source\PSoC5/Bootloadable.c **** * disclaimers, and limitations in the end user license agreement accompanying
  13:.\Generated_Source\PSoC5/Bootloadable.c **** * the software package with which this file was provided.
  14:.\Generated_Source\PSoC5/Bootloadable.c **** *******************************************************************************/
  15:.\Generated_Source\PSoC5/Bootloadable.c **** 
  16:.\Generated_Source\PSoC5/Bootloadable.c **** #include "Bootloadable.h"
  17:.\Generated_Source\PSoC5/Bootloadable.c **** 
  18:.\Generated_Source\PSoC5/Bootloadable.c **** 
  19:.\Generated_Source\PSoC5/Bootloadable.c **** /*******************************************************************************
  20:.\Generated_Source\PSoC5/Bootloadable.c **** * Function Name: Bootloadable_Load
  21:.\Generated_Source\PSoC5/Bootloadable.c **** ********************************************************************************
  22:.\Generated_Source\PSoC5/Bootloadable.c **** * Summary:
  23:.\Generated_Source\PSoC5/Bootloadable.c **** *  Begins the bootloading algorithm, downloading a new ACD image from the host.
  24:.\Generated_Source\PSoC5/Bootloadable.c **** *
  25:.\Generated_Source\PSoC5/Bootloadable.c **** * Parameters:
  26:.\Generated_Source\PSoC5/Bootloadable.c **** *  None
  27:.\Generated_Source\PSoC5/Bootloadable.c **** *
  28:.\Generated_Source\PSoC5/Bootloadable.c **** * Returns:
  29:.\Generated_Source\PSoC5/Bootloadable.c **** *  This method will never return. It will load a new application and reset
  30:.\Generated_Source\PSoC5/Bootloadable.c **** *  the device.
  31:.\Generated_Source\PSoC5/Bootloadable.c **** *
ARM GAS  C:\USERS\LUKAS\APPDATA\LOCAL\TEMP\ccNvTykm.s 			page 2


  32:.\Generated_Source\PSoC5/Bootloadable.c **** *******************************************************************************/
  33:.\Generated_Source\PSoC5/Bootloadable.c **** void Bootloadable_Load(void) 
  34:.\Generated_Source\PSoC5/Bootloadable.c **** {
  27              		.loc 1 34 0
  28              		.cfi_startproc
  29              		@ args = 0, pretend = 0, frame = 0
  30              		@ frame_needed = 1, uses_anonymous_args = 0
  31              		@ link register save eliminated.
  32 0000 80B4     		push	{r7}
  33              		.cfi_def_cfa_offset 4
  34              		.cfi_offset 7, -4
  35 0002 00AF     		add	r7, sp, #0
  36              		.cfi_def_cfa_register 7
  35:.\Generated_Source\PSoC5/Bootloadable.c ****     /* Schedule Bootloader to start after reset */
  36:.\Generated_Source\PSoC5/Bootloadable.c ****     Bootloadable_SET_RUN_TYPE(Bootloadable_START_BTLDR);
  37              		.loc 1 36 0
  38 0004 044B     		ldr	r3, .L2
  39 0006 4022     		movs	r2, #64
  40 0008 1A70     		strb	r2, [r3]
  37:.\Generated_Source\PSoC5/Bootloadable.c **** 
  38:.\Generated_Source\PSoC5/Bootloadable.c ****     /* Reset device */
  39:.\Generated_Source\PSoC5/Bootloadable.c ****     Bootloadable_SOFTWARE_RESET;
  41              		.loc 1 39 0
  42 000a 044B     		ldr	r3, .L2+4
  43 000c 0122     		movs	r2, #1
  44 000e 1A70     		strb	r2, [r3]
  40:.\Generated_Source\PSoC5/Bootloadable.c **** }
  45              		.loc 1 40 0
  46 0010 BD46     		mov	sp, r7
  47              		.cfi_def_cfa_register 13
  48              		@ sp needed
  49 0012 5DF8047B 		ldr	r7, [sp], #4
  50              		.cfi_restore 7
  51              		.cfi_def_cfa_offset 0
  52 0016 7047     		bx	lr
  53              	.L3:
  54              		.align	2
  55              	.L2:
  56 0018 FA460040 		.word	1073759994
  57 001c F6460040 		.word	1073759990
  58              		.cfi_endproc
  59              	.LFE0:
  60              		.size	Bootloadable_Load, .-Bootloadable_Load
  61              		.section	.text.Bootloadable_SetFlashByte,"ax",%progbits
  62              		.align	2
  63              		.global	Bootloadable_SetFlashByte
  64              		.thumb
  65              		.thumb_func
  66              		.type	Bootloadable_SetFlashByte, %function
  67              	Bootloadable_SetFlashByte:
  68              	.LFB1:
  41:.\Generated_Source\PSoC5/Bootloadable.c **** 
  42:.\Generated_Source\PSoC5/Bootloadable.c **** 
  43:.\Generated_Source\PSoC5/Bootloadable.c **** /*******************************************************************************
  44:.\Generated_Source\PSoC5/Bootloadable.c **** * Function Name: Bootloadable_SetFlashByte
  45:.\Generated_Source\PSoC5/Bootloadable.c **** ********************************************************************************
  46:.\Generated_Source\PSoC5/Bootloadable.c **** * Summary:
ARM GAS  C:\USERS\LUKAS\APPDATA\LOCAL\TEMP\ccNvTykm.s 			page 3


  47:.\Generated_Source\PSoC5/Bootloadable.c **** *  Sets byte at specified address in Flash.
  48:.\Generated_Source\PSoC5/Bootloadable.c **** *
  49:.\Generated_Source\PSoC5/Bootloadable.c **** * Parameters:  
  50:.\Generated_Source\PSoC5/Bootloadable.c **** *  None
  51:.\Generated_Source\PSoC5/Bootloadable.c **** *
  52:.\Generated_Source\PSoC5/Bootloadable.c **** * Returns:
  53:.\Generated_Source\PSoC5/Bootloadable.c **** *  None
  54:.\Generated_Source\PSoC5/Bootloadable.c **** *
  55:.\Generated_Source\PSoC5/Bootloadable.c **** *******************************************************************************/
  56:.\Generated_Source\PSoC5/Bootloadable.c **** void Bootloadable_SetFlashByte(uint32 address, uint8 runType) 
  57:.\Generated_Source\PSoC5/Bootloadable.c **** {
  69              		.loc 1 57 0
  70              		.cfi_startproc
  71              		@ args = 0, pretend = 0, frame = 280
  72              		@ frame_needed = 1, uses_anonymous_args = 0
  73 0000 80B5     		push	{r7, lr}
  74              		.cfi_def_cfa_offset 8
  75              		.cfi_offset 7, -8
  76              		.cfi_offset 14, -4
  77 0002 C6B0     		sub	sp, sp, #280
  78              		.cfi_def_cfa_offset 288
  79 0004 00AF     		add	r7, sp, #0
  80              		.cfi_def_cfa_register 7
  81 0006 3B1D     		adds	r3, r7, #4
  82 0008 1860     		str	r0, [r3]
  83 000a 0A46     		mov	r2, r1
  84 000c FB1C     		adds	r3, r7, #3
  85 000e 1A70     		strb	r2, [r3]
  58:.\Generated_Source\PSoC5/Bootloadable.c ****     uint32 flsAddr = address - CYDEV_FLASH_BASE;
  86              		.loc 1 58 0
  87 0010 3B1D     		adds	r3, r7, #4
  88 0012 1B68     		ldr	r3, [r3]
  89 0014 C7F81031 		str	r3, [r7, #272]
  59:.\Generated_Source\PSoC5/Bootloadable.c ****     uint8 rowData[CYDEV_FLS_ROW_SIZE];
  60:.\Generated_Source\PSoC5/Bootloadable.c **** 
  61:.\Generated_Source\PSoC5/Bootloadable.c ****     #if !(CY_PSOC4)
  62:.\Generated_Source\PSoC5/Bootloadable.c ****         uint8 arrayId = (flsAddr / CYDEV_FLS_SECTOR_SIZE);
  90              		.loc 1 62 0
  91 0018 D7F81031 		ldr	r3, [r7, #272]
  92 001c 1B0C     		lsrs	r3, r3, #16
  93 001e 87F80F31 		strb	r3, [r7, #271]
  63:.\Generated_Source\PSoC5/Bootloadable.c ****     #endif  /* !(CY_PSOC4) */
  64:.\Generated_Source\PSoC5/Bootloadable.c **** 
  65:.\Generated_Source\PSoC5/Bootloadable.c ****     uint16 rowNum = ((flsAddr % CYDEV_FLS_SECTOR_SIZE) / CYDEV_FLS_ROW_SIZE);
  94              		.loc 1 65 0
  95 0022 D7F81031 		ldr	r3, [r7, #272]
  96 0026 9BB2     		uxth	r3, r3
  97 0028 1B0A     		lsrs	r3, r3, #8
  98 002a A7F80C31 		strh	r3, [r7, #268]	@ movhi
  66:.\Generated_Source\PSoC5/Bootloadable.c ****     uint32 baseAddr = address - (address % CYDEV_FLS_ROW_SIZE);
  99              		.loc 1 66 0
 100 002e 3B1D     		adds	r3, r7, #4
 101 0030 1B68     		ldr	r3, [r3]
 102 0032 23F0FF03 		bic	r3, r3, #255
 103 0036 C7F80831 		str	r3, [r7, #264]
  67:.\Generated_Source\PSoC5/Bootloadable.c ****     uint16 idx;
  68:.\Generated_Source\PSoC5/Bootloadable.c **** 
ARM GAS  C:\USERS\LUKAS\APPDATA\LOCAL\TEMP\ccNvTykm.s 			page 4


  69:.\Generated_Source\PSoC5/Bootloadable.c **** 
  70:.\Generated_Source\PSoC5/Bootloadable.c ****     for (idx = 0; idx < CYDEV_FLS_ROW_SIZE; idx++)
 104              		.loc 1 70 0
 105 003a 0023     		movs	r3, #0
 106 003c A7F81631 		strh	r3, [r7, #278]	@ movhi
 107 0040 0FE0     		b	.L5
 108              	.L6:
  71:.\Generated_Source\PSoC5/Bootloadable.c ****     {
  72:.\Generated_Source\PSoC5/Bootloadable.c ****         rowData[idx] = Bootloadable_GET_CODE_DATA(baseAddr + idx);
 109              		.loc 1 72 0 discriminator 3
 110 0042 B7F81631 		ldrh	r3, [r7, #278]
 111 0046 B7F81611 		ldrh	r1, [r7, #278]
 112 004a D7F80821 		ldr	r2, [r7, #264]
 113 004e 0A44     		add	r2, r2, r1
 114 0050 1178     		ldrb	r1, [r2]	@ zero_extendqisi2
 115 0052 07F10802 		add	r2, r7, #8
 116 0056 D154     		strb	r1, [r2, r3]
  70:.\Generated_Source\PSoC5/Bootloadable.c ****     {
 117              		.loc 1 70 0 discriminator 3
 118 0058 B7F81631 		ldrh	r3, [r7, #278]
 119 005c 0133     		adds	r3, r3, #1
 120 005e A7F81631 		strh	r3, [r7, #278]	@ movhi
 121              	.L5:
  70:.\Generated_Source\PSoC5/Bootloadable.c ****     {
 122              		.loc 1 70 0 is_stmt 0 discriminator 1
 123 0062 B7F81631 		ldrh	r3, [r7, #278]
 124 0066 FF2B     		cmp	r3, #255
 125 0068 EBD9     		bls	.L6
  73:.\Generated_Source\PSoC5/Bootloadable.c ****     }
  74:.\Generated_Source\PSoC5/Bootloadable.c ****     rowData[address % CYDEV_FLS_ROW_SIZE] = runType;
 126              		.loc 1 74 0 is_stmt 1
 127 006a 3B1D     		adds	r3, r7, #4
 128 006c 1B68     		ldr	r3, [r3]
 129 006e DBB2     		uxtb	r3, r3
 130 0070 07F10802 		add	r2, r7, #8
 131 0074 F91C     		adds	r1, r7, #3
 132 0076 0978     		ldrb	r1, [r1]
 133 0078 D154     		strb	r1, [r2, r3]
  75:.\Generated_Source\PSoC5/Bootloadable.c **** 
  76:.\Generated_Source\PSoC5/Bootloadable.c ****     #if(CY_PSOC4)
  77:.\Generated_Source\PSoC5/Bootloadable.c ****         CySysFlashWriteRow(rowNum, rowData);
  78:.\Generated_Source\PSoC5/Bootloadable.c ****     #else
  79:.\Generated_Source\PSoC5/Bootloadable.c ****         CyWriteRowData(arrayId, rowNum, rowData);
 134              		.loc 1 79 0
 135 007a 97F80F11 		ldrb	r1, [r7, #271]	@ zero_extendqisi2
 136 007e B7F80C21 		ldrh	r2, [r7, #268]
 137 0082 07F10803 		add	r3, r7, #8
 138 0086 0846     		mov	r0, r1
 139 0088 1146     		mov	r1, r2
 140 008a 1A46     		mov	r2, r3
 141 008c FFF7FEFF 		bl	CyWriteRowData
  80:.\Generated_Source\PSoC5/Bootloadable.c ****     #endif  /* (CY_PSOC4) */
  81:.\Generated_Source\PSoC5/Bootloadable.c **** }
 142              		.loc 1 81 0
 143 0090 07F58C77 		add	r7, r7, #280
 144              		.cfi_def_cfa_offset 8
 145 0094 BD46     		mov	sp, r7
ARM GAS  C:\USERS\LUKAS\APPDATA\LOCAL\TEMP\ccNvTykm.s 			page 5


 146              		.cfi_def_cfa_register 13
 147              		@ sp needed
 148 0096 80BD     		pop	{r7, pc}
 149              		.cfi_endproc
 150              	.LFE1:
 151              		.size	Bootloadable_SetFlashByte, .-Bootloadable_SetFlashByte
 152              		.text
 153              	.Letext0:
 154              		.file 2 ".\\Generated_Source\\PSoC5\\cytypes.h"