ARM GAS  C:\USERS\LUKAS\APPDATA\LOCAL\TEMP\ccRhhaPB.s 			page 1


   1              		.syntax unified
   2              		.cpu cortex-m3
   3              		.fpu softvfp
   4              		.eabi_attribute 20, 1
   5              		.eabi_attribute 21, 1
   6              		.eabi_attribute 23, 3
   7              		.eabi_attribute 24, 1
   8              		.eabi_attribute 25, 1
   9              		.eabi_attribute 26, 1
  10              		.eabi_attribute 30, 6
  11              		.eabi_attribute 34, 1
  12              		.eabi_attribute 18, 4
  13              		.thumb
  14              		.file	"ByteSwap_Tx.c"
  15              		.text
  16              	.Ltext0:
  17              		.cfi_sections	.debug_frame
  18              		.section	.text.ByteSwap_Tx_Start,"ax",%progbits
  19              		.align	2
  20              		.global	ByteSwap_Tx_Start
  21              		.thumb
  22              		.thumb_func
  23              		.type	ByteSwap_Tx_Start, %function
  24              	ByteSwap_Tx_Start:
  25              	.LFB0:
  26              		.file 1 ".\\Generated_Source\\PSoC5\\ByteSwap_Tx.c"
   1:.\Generated_Source\PSoC5/ByteSwap_Tx.c **** /*******************************************************************************
   2:.\Generated_Source\PSoC5/ByteSwap_Tx.c **** * File Name: ByteSwap_Tx.c  
   3:.\Generated_Source\PSoC5/ByteSwap_Tx.c **** * Version 1.10
   4:.\Generated_Source\PSoC5/ByteSwap_Tx.c **** *
   5:.\Generated_Source\PSoC5/ByteSwap_Tx.c **** * Description:
   6:.\Generated_Source\PSoC5/ByteSwap_Tx.c **** *  This file contains the setup, control and status commands for the ByteSwap
   7:.\Generated_Source\PSoC5/ByteSwap_Tx.c **** *  component.  
   8:.\Generated_Source\PSoC5/ByteSwap_Tx.c **** *
   9:.\Generated_Source\PSoC5/ByteSwap_Tx.c **** * Note: 
  10:.\Generated_Source\PSoC5/ByteSwap_Tx.c **** *
  11:.\Generated_Source\PSoC5/ByteSwap_Tx.c **** *******************************************************************************
  12:.\Generated_Source\PSoC5/ByteSwap_Tx.c **** * Copyright 2008-2011, Cypress Semiconductor Corporation.  All rights reserved.
  13:.\Generated_Source\PSoC5/ByteSwap_Tx.c **** * You may use this file only in accordance with the license, terms, conditions, 
  14:.\Generated_Source\PSoC5/ByteSwap_Tx.c **** * disclaimers, and limitations in the end user license agreement accompanying 
  15:.\Generated_Source\PSoC5/ByteSwap_Tx.c **** * the software package with which this file was provided.
  16:.\Generated_Source\PSoC5/ByteSwap_Tx.c **** *******************************************************************************/
  17:.\Generated_Source\PSoC5/ByteSwap_Tx.c **** 
  18:.\Generated_Source\PSoC5/ByteSwap_Tx.c **** #include "ByteSwap_Tx.h"  
  19:.\Generated_Source\PSoC5/ByteSwap_Tx.c **** 
  20:.\Generated_Source\PSoC5/ByteSwap_Tx.c **** /*******************************************************************************
  21:.\Generated_Source\PSoC5/ByteSwap_Tx.c **** * Function Name: ByteSwap_Tx_Start
  22:.\Generated_Source\PSoC5/ByteSwap_Tx.c **** ********************************************************************************
  23:.\Generated_Source\PSoC5/ByteSwap_Tx.c **** *
  24:.\Generated_Source\PSoC5/ByteSwap_Tx.c **** * Summary:
  25:.\Generated_Source\PSoC5/ByteSwap_Tx.c **** *  Starts the Byte swap component.
  26:.\Generated_Source\PSoC5/ByteSwap_Tx.c **** *
  27:.\Generated_Source\PSoC5/ByteSwap_Tx.c **** * Parameters:
  28:.\Generated_Source\PSoC5/ByteSwap_Tx.c **** *  None.
  29:.\Generated_Source\PSoC5/ByteSwap_Tx.c **** *
  30:.\Generated_Source\PSoC5/ByteSwap_Tx.c **** * Return:
  31:.\Generated_Source\PSoC5/ByteSwap_Tx.c **** *  None.
ARM GAS  C:\USERS\LUKAS\APPDATA\LOCAL\TEMP\ccRhhaPB.s 			page 2


  32:.\Generated_Source\PSoC5/ByteSwap_Tx.c **** *
  33:.\Generated_Source\PSoC5/ByteSwap_Tx.c **** * Reentrant:
  34:.\Generated_Source\PSoC5/ByteSwap_Tx.c **** *  No.
  35:.\Generated_Source\PSoC5/ByteSwap_Tx.c **** *
  36:.\Generated_Source\PSoC5/ByteSwap_Tx.c **** *******************************************************************************/
  37:.\Generated_Source\PSoC5/ByteSwap_Tx.c **** void ByteSwap_Tx_Start(void)
  38:.\Generated_Source\PSoC5/ByteSwap_Tx.c **** {
  27              		.loc 1 38 0
  28              		.cfi_startproc
  29              		@ args = 0, pretend = 0, frame = 0
  30              		@ frame_needed = 1, uses_anonymous_args = 0
  31              		@ link register save eliminated.
  32 0000 80B4     		push	{r7}
  33              		.cfi_def_cfa_offset 4
  34              		.cfi_offset 7, -4
  35 0002 00AF     		add	r7, sp, #0
  36              		.cfi_def_cfa_register 7
  39:.\Generated_Source\PSoC5/ByteSwap_Tx.c **** 	/* Configure Aux control register for FIFO status */
  40:.\Generated_Source\PSoC5/ByteSwap_Tx.c **** 	ByteSwap_Tx_AUX_CONTROL_REG = ByteSwap_Tx_AUX_CONTROL_REG & (~(ByteSwap_Tx_INPUT_FIFO_0_CLR | 
  37              		.loc 1 40 0
  38 0004 0D4A     		ldr	r2, .L2
  39 0006 0D4B     		ldr	r3, .L2
  40 0008 1B78     		ldrb	r3, [r3]
  41 000a DBB2     		uxtb	r3, r3
  42 000c 23F00303 		bic	r3, r3, #3
  43 0010 DBB2     		uxtb	r3, r3
  44 0012 1370     		strb	r3, [r2]
  41:.\Generated_Source\PSoC5/ByteSwap_Tx.c **** 	                                                                        ByteSwap_Tx_OUTPUT_FIFO_1_
  42:.\Generated_Source\PSoC5/ByteSwap_Tx.c **** 																			
  43:.\Generated_Source\PSoC5/ByteSwap_Tx.c **** 	ByteSwap_Tx_AUX_CONTROL_REG = ByteSwap_Tx_AUX_CONTROL_REG | ByteSwap_Tx_INPUT_FIFO_LEVEL_HALF_EMPT
  45              		.loc 1 43 0
  46 0014 094A     		ldr	r2, .L2
  47 0016 094B     		ldr	r3, .L2
  48 0018 1B78     		ldrb	r3, [r3]
  49 001a DBB2     		uxtb	r3, r3
  50 001c 43F00C03 		orr	r3, r3, #12
  51 0020 DBB2     		uxtb	r3, r3
  52 0022 1370     		strb	r3, [r2]
  44:.\Generated_Source\PSoC5/ByteSwap_Tx.c **** 	
  45:.\Generated_Source\PSoC5/ByteSwap_Tx.c ****     /* Set Control register enable flag  */
  46:.\Generated_Source\PSoC5/ByteSwap_Tx.c **** 	ByteSwap_Tx_CONTROL_REG = ByteSwap_Tx_CONTROL_REG | ByteSwap_Tx_EN;
  53              		.loc 1 46 0
  54 0024 064A     		ldr	r2, .L2+4
  55 0026 064B     		ldr	r3, .L2+4
  56 0028 1B78     		ldrb	r3, [r3]
  57 002a DBB2     		uxtb	r3, r3
  58 002c 43F00103 		orr	r3, r3, #1
  59 0030 DBB2     		uxtb	r3, r3
  60 0032 1370     		strb	r3, [r2]
  47:.\Generated_Source\PSoC5/ByteSwap_Tx.c ****         
  48:.\Generated_Source\PSoC5/ByteSwap_Tx.c **** }
  61              		.loc 1 48 0
  62 0034 BD46     		mov	sp, r7
  63              		.cfi_def_cfa_register 13
  64              		@ sp needed
  65 0036 5DF8047B 		ldr	r7, [sp], #4
  66              		.cfi_restore 7
ARM GAS  C:\USERS\LUKAS\APPDATA\LOCAL\TEMP\ccRhhaPB.s 			page 3


  67              		.cfi_def_cfa_offset 0
  68 003a 7047     		bx	lr
  69              	.L3:
  70              		.align	2
  71              	.L2:
  72 003c 90640040 		.word	1073767568
  73 0040 72640040 		.word	1073767538
  74              		.cfi_endproc
  75              	.LFE0:
  76              		.size	ByteSwap_Tx_Start, .-ByteSwap_Tx_Start
  77              		.section	.text.ByteSwap_Tx_Stop,"ax",%progbits
  78              		.align	2
  79              		.global	ByteSwap_Tx_Stop
  80              		.thumb
  81              		.thumb_func
  82              		.type	ByteSwap_Tx_Stop, %function
  83              	ByteSwap_Tx_Stop:
  84              	.LFB1:
  49:.\Generated_Source\PSoC5/ByteSwap_Tx.c **** 
  50:.\Generated_Source\PSoC5/ByteSwap_Tx.c **** /*******************************************************************************
  51:.\Generated_Source\PSoC5/ByteSwap_Tx.c **** * Function Name: ByteSwap_Tx_Stop
  52:.\Generated_Source\PSoC5/ByteSwap_Tx.c **** ********************************************************************************
  53:.\Generated_Source\PSoC5/ByteSwap_Tx.c **** *
  54:.\Generated_Source\PSoC5/ByteSwap_Tx.c **** * Summary:
  55:.\Generated_Source\PSoC5/ByteSwap_Tx.c **** *  Stops the Byte swap component.
  56:.\Generated_Source\PSoC5/ByteSwap_Tx.c **** *
  57:.\Generated_Source\PSoC5/ByteSwap_Tx.c **** * Parameters:
  58:.\Generated_Source\PSoC5/ByteSwap_Tx.c **** *  None.
  59:.\Generated_Source\PSoC5/ByteSwap_Tx.c **** *
  60:.\Generated_Source\PSoC5/ByteSwap_Tx.c **** * Return:
  61:.\Generated_Source\PSoC5/ByteSwap_Tx.c **** *  None.
  62:.\Generated_Source\PSoC5/ByteSwap_Tx.c **** *
  63:.\Generated_Source\PSoC5/ByteSwap_Tx.c **** * Reentrant:
  64:.\Generated_Source\PSoC5/ByteSwap_Tx.c **** *  No.
  65:.\Generated_Source\PSoC5/ByteSwap_Tx.c **** *
  66:.\Generated_Source\PSoC5/ByteSwap_Tx.c **** *******************************************************************************/
  67:.\Generated_Source\PSoC5/ByteSwap_Tx.c **** void ByteSwap_Tx_Stop(void)
  68:.\Generated_Source\PSoC5/ByteSwap_Tx.c **** {
  85              		.loc 1 68 0
  86              		.cfi_startproc
  87              		@ args = 0, pretend = 0, frame = 0
  88              		@ frame_needed = 1, uses_anonymous_args = 0
  89              		@ link register save eliminated.
  90 0000 80B4     		push	{r7}
  91              		.cfi_def_cfa_offset 4
  92              		.cfi_offset 7, -4
  93 0002 00AF     		add	r7, sp, #0
  94              		.cfi_def_cfa_register 7
  69:.\Generated_Source\PSoC5/ByteSwap_Tx.c **** 	/* Clear Aux control FIFO status */
  70:.\Generated_Source\PSoC5/ByteSwap_Tx.c **** 	ByteSwap_Tx_AUX_CONTROL_REG = ByteSwap_Tx_AUX_CONTROL_REG | (ByteSwap_Tx_INPUT_FIFO_0_CLR | 
  95              		.loc 1 70 0
  96 0004 094A     		ldr	r2, .L5
  97 0006 094B     		ldr	r3, .L5
  98 0008 1B78     		ldrb	r3, [r3]
  99 000a DBB2     		uxtb	r3, r3
 100 000c 43F00303 		orr	r3, r3, #3
 101 0010 DBB2     		uxtb	r3, r3
ARM GAS  C:\USERS\LUKAS\APPDATA\LOCAL\TEMP\ccRhhaPB.s 			page 4


 102 0012 1370     		strb	r3, [r2]
  71:.\Generated_Source\PSoC5/ByteSwap_Tx.c **** 	                                                                        ByteSwap_Tx_OUTPUT_FIFO_1_
  72:.\Generated_Source\PSoC5/ByteSwap_Tx.c **** 	
  73:.\Generated_Source\PSoC5/ByteSwap_Tx.c ****     /* Clears the Control register enable flag  */
  74:.\Generated_Source\PSoC5/ByteSwap_Tx.c **** 	ByteSwap_Tx_CONTROL_REG = ByteSwap_Tx_CONTROL_REG & (~ ByteSwap_Tx_EN);
 103              		.loc 1 74 0
 104 0014 064A     		ldr	r2, .L5+4
 105 0016 064B     		ldr	r3, .L5+4
 106 0018 1B78     		ldrb	r3, [r3]
 107 001a DBB2     		uxtb	r3, r3
 108 001c 23F00103 		bic	r3, r3, #1
 109 0020 DBB2     		uxtb	r3, r3
 110 0022 1370     		strb	r3, [r2]
  75:.\Generated_Source\PSoC5/ByteSwap_Tx.c **** }
 111              		.loc 1 75 0
 112 0024 BD46     		mov	sp, r7
 113              		.cfi_def_cfa_register 13
 114              		@ sp needed
 115 0026 5DF8047B 		ldr	r7, [sp], #4
 116              		.cfi_restore 7
 117              		.cfi_def_cfa_offset 0
 118 002a 7047     		bx	lr
 119              	.L6:
 120              		.align	2
 121              	.L5:
 122 002c 90640040 		.word	1073767568
 123 0030 72640040 		.word	1073767538
 124              		.cfi_endproc
 125              	.LFE1:
 126              		.size	ByteSwap_Tx_Stop, .-ByteSwap_Tx_Stop
 127              		.text
 128              	.Letext0:
 129              		.file 2 ".\\Generated_Source\\PSoC5\\cytypes.h"