ARM GAS  C:\USERS\LUKAS\APPDATA\LOCAL\TEMP\cctz5fJI.s 			page 1


   1              		.syntax unified
   2              		.cpu cortex-m3
   3              		.fpu softvfp
   4              		.eabi_attribute 20, 1
   5              		.eabi_attribute 21, 1
   6              		.eabi_attribute 23, 3
   7              		.eabi_attribute 24, 1
   8              		.eabi_attribute 25, 1
   9              		.eabi_attribute 26, 1
  10              		.eabi_attribute 30, 6
  11              		.eabi_attribute 34, 1
  12              		.eabi_attribute 18, 4
  13              		.thumb
  14              		.file	"cyfitter_cfg.c"
  15              		.text
  16              	.Ltext0:
  17              		.cfi_sections	.debug_frame
  18              		.section	.text.CYMEMZERO,"ax",%progbits
  19              		.align	2
  20              		.thumb
  21              		.thumb_func
  22              		.type	CYMEMZERO, %function
  23              	CYMEMZERO:
  24              	.LFB0:
  25              		.file 1 ".\\Generated_Source\\PSoC5\\cyfitter_cfg.c"
   1:.\Generated_Source\PSoC5/cyfitter_cfg.c **** /*******************************************************************************
   2:.\Generated_Source\PSoC5/cyfitter_cfg.c **** * File Name: cyfitter_cfg.c
   3:.\Generated_Source\PSoC5/cyfitter_cfg.c **** * 
   4:.\Generated_Source\PSoC5/cyfitter_cfg.c **** * PSoC Creator  3.3 SP1
   5:.\Generated_Source\PSoC5/cyfitter_cfg.c **** *
   6:.\Generated_Source\PSoC5/cyfitter_cfg.c **** * Description:
   7:.\Generated_Source\PSoC5/cyfitter_cfg.c **** * This file contains device initialization code.
   8:.\Generated_Source\PSoC5/cyfitter_cfg.c **** * Except for the user defined sections in CyClockStartupError(), this file should not be modified.
   9:.\Generated_Source\PSoC5/cyfitter_cfg.c **** * This file is automatically generated by PSoC Creator.
  10:.\Generated_Source\PSoC5/cyfitter_cfg.c **** *
  11:.\Generated_Source\PSoC5/cyfitter_cfg.c **** ********************************************************************************
  12:.\Generated_Source\PSoC5/cyfitter_cfg.c **** * Copyright (c) 2007-2015 Cypress Semiconductor.  All rights reserved.
  13:.\Generated_Source\PSoC5/cyfitter_cfg.c **** * You may use this file only in accordance with the license, terms, conditions, 
  14:.\Generated_Source\PSoC5/cyfitter_cfg.c **** * disclaimers, and limitations in the end user license agreement accompanying 
  15:.\Generated_Source\PSoC5/cyfitter_cfg.c **** * the software package with which this file was provided.
  16:.\Generated_Source\PSoC5/cyfitter_cfg.c **** ********************************************************************************/
  17:.\Generated_Source\PSoC5/cyfitter_cfg.c **** 
  18:.\Generated_Source\PSoC5/cyfitter_cfg.c **** #include <string.h>
  19:.\Generated_Source\PSoC5/cyfitter_cfg.c **** #include "cytypes.h"
  20:.\Generated_Source\PSoC5/cyfitter_cfg.c **** #include "cydevice_trm.h"
  21:.\Generated_Source\PSoC5/cyfitter_cfg.c **** #include "cyfitter.h"
  22:.\Generated_Source\PSoC5/cyfitter_cfg.c **** #include "CyLib.h"
  23:.\Generated_Source\PSoC5/cyfitter_cfg.c **** #include "cyfitter_cfg.h"
  24:.\Generated_Source\PSoC5/cyfitter_cfg.c **** 
  25:.\Generated_Source\PSoC5/cyfitter_cfg.c **** #define CY_NEED_CYCLOCKSTARTUPERROR 1
  26:.\Generated_Source\PSoC5/cyfitter_cfg.c **** 
  27:.\Generated_Source\PSoC5/cyfitter_cfg.c **** 
  28:.\Generated_Source\PSoC5/cyfitter_cfg.c **** #if defined(__GNUC__) || defined(__ARMCC_VERSION)
  29:.\Generated_Source\PSoC5/cyfitter_cfg.c ****     #define CYPACKED 
  30:.\Generated_Source\PSoC5/cyfitter_cfg.c ****     #define CYPACKED_ATTR __attribute__ ((packed))
  31:.\Generated_Source\PSoC5/cyfitter_cfg.c ****     #define CYALIGNED __attribute__ ((aligned))
  32:.\Generated_Source\PSoC5/cyfitter_cfg.c ****     #define CY_CFG_UNUSED __attribute__ ((unused))
ARM GAS  C:\USERS\LUKAS\APPDATA\LOCAL\TEMP\cctz5fJI.s 			page 2


  33:.\Generated_Source\PSoC5/cyfitter_cfg.c ****     #ifndef CY_CFG_SECTION
  34:.\Generated_Source\PSoC5/cyfitter_cfg.c ****         #define CY_CFG_SECTION __attribute__ ((section(".psocinit")))
  35:.\Generated_Source\PSoC5/cyfitter_cfg.c ****     #endif
  36:.\Generated_Source\PSoC5/cyfitter_cfg.c ****     
  37:.\Generated_Source\PSoC5/cyfitter_cfg.c ****     #if defined(__ARMCC_VERSION)
  38:.\Generated_Source\PSoC5/cyfitter_cfg.c ****         #define CY_CFG_MEMORY_BARRIER() __memory_changed()
  39:.\Generated_Source\PSoC5/cyfitter_cfg.c ****     #else
  40:.\Generated_Source\PSoC5/cyfitter_cfg.c ****         #define CY_CFG_MEMORY_BARRIER() __sync_synchronize()
  41:.\Generated_Source\PSoC5/cyfitter_cfg.c ****     #endif
  42:.\Generated_Source\PSoC5/cyfitter_cfg.c ****     
  43:.\Generated_Source\PSoC5/cyfitter_cfg.c **** #elif defined(__ICCARM__)
  44:.\Generated_Source\PSoC5/cyfitter_cfg.c ****     #include <intrinsics.h>
  45:.\Generated_Source\PSoC5/cyfitter_cfg.c **** 
  46:.\Generated_Source\PSoC5/cyfitter_cfg.c ****     #define CYPACKED __packed
  47:.\Generated_Source\PSoC5/cyfitter_cfg.c ****     #define CYPACKED_ATTR 
  48:.\Generated_Source\PSoC5/cyfitter_cfg.c ****     #define CYALIGNED _Pragma("data_alignment=4")
  49:.\Generated_Source\PSoC5/cyfitter_cfg.c ****     #define CY_CFG_UNUSED _Pragma("diag_suppress=Pe177")
  50:.\Generated_Source\PSoC5/cyfitter_cfg.c ****     #define CY_CFG_SECTION _Pragma("location=\".psocinit\"")
  51:.\Generated_Source\PSoC5/cyfitter_cfg.c ****     
  52:.\Generated_Source\PSoC5/cyfitter_cfg.c ****     #define CY_CFG_MEMORY_BARRIER() __DMB()
  53:.\Generated_Source\PSoC5/cyfitter_cfg.c ****     
  54:.\Generated_Source\PSoC5/cyfitter_cfg.c **** #else
  55:.\Generated_Source\PSoC5/cyfitter_cfg.c ****     #error Unsupported toolchain
  56:.\Generated_Source\PSoC5/cyfitter_cfg.c **** #endif
  57:.\Generated_Source\PSoC5/cyfitter_cfg.c **** 
  58:.\Generated_Source\PSoC5/cyfitter_cfg.c **** 
  59:.\Generated_Source\PSoC5/cyfitter_cfg.c **** CY_CFG_UNUSED
  60:.\Generated_Source\PSoC5/cyfitter_cfg.c **** static void CYMEMZERO(void *s, size_t n);
  61:.\Generated_Source\PSoC5/cyfitter_cfg.c **** CY_CFG_UNUSED
  62:.\Generated_Source\PSoC5/cyfitter_cfg.c **** static void CYMEMZERO(void *s, size_t n)
  63:.\Generated_Source\PSoC5/cyfitter_cfg.c **** {
  26              		.loc 1 63 0
  27              		.cfi_startproc
  28              		@ args = 0, pretend = 0, frame = 8
  29              		@ frame_needed = 1, uses_anonymous_args = 0
  30 0000 80B5     		push	{r7, lr}
  31              		.cfi_def_cfa_offset 8
  32              		.cfi_offset 7, -8
  33              		.cfi_offset 14, -4
  34 0002 82B0     		sub	sp, sp, #8
  35              		.cfi_def_cfa_offset 16
  36 0004 00AF     		add	r7, sp, #0
  37              		.cfi_def_cfa_register 7
  38 0006 7860     		str	r0, [r7, #4]
  39 0008 3960     		str	r1, [r7]
  64:.\Generated_Source\PSoC5/cyfitter_cfg.c **** 	(void)memset(s, 0, n);
  40              		.loc 1 64 0
  41 000a 7868     		ldr	r0, [r7, #4]
  42 000c 0021     		movs	r1, #0
  43 000e 3A68     		ldr	r2, [r7]
  44 0010 FFF7FEFF 		bl	memset
  65:.\Generated_Source\PSoC5/cyfitter_cfg.c **** }
  45              		.loc 1 65 0
  46 0014 0837     		adds	r7, r7, #8
  47              		.cfi_def_cfa_offset 8
  48 0016 BD46     		mov	sp, r7
  49              		.cfi_def_cfa_register 13
ARM GAS  C:\USERS\LUKAS\APPDATA\LOCAL\TEMP\cctz5fJI.s 			page 3


  50              		@ sp needed
  51 0018 80BD     		pop	{r7, pc}
  52              		.cfi_endproc
  53              	.LFE0:
  54              		.size	CYMEMZERO, .-CYMEMZERO
  55 001a 00BF     		.section	.text.CYCONFIGCPY,"ax",%progbits
  56              		.align	2
  57              		.thumb
  58              		.thumb_func
  59              		.type	CYCONFIGCPY, %function
  60              	CYCONFIGCPY:
  61              	.LFB1:
  66:.\Generated_Source\PSoC5/cyfitter_cfg.c **** CY_CFG_UNUSED
  67:.\Generated_Source\PSoC5/cyfitter_cfg.c **** static void CYCONFIGCPY(void *dest, const void *src, size_t n);
  68:.\Generated_Source\PSoC5/cyfitter_cfg.c **** CY_CFG_UNUSED
  69:.\Generated_Source\PSoC5/cyfitter_cfg.c **** static void CYCONFIGCPY(void *dest, const void *src, size_t n)
  70:.\Generated_Source\PSoC5/cyfitter_cfg.c **** {
  62              		.loc 1 70 0
  63              		.cfi_startproc
  64              		@ args = 0, pretend = 0, frame = 16
  65              		@ frame_needed = 1, uses_anonymous_args = 0
  66 0000 80B5     		push	{r7, lr}
  67              		.cfi_def_cfa_offset 8
  68              		.cfi_offset 7, -8
  69              		.cfi_offset 14, -4
  70 0002 84B0     		sub	sp, sp, #16
  71              		.cfi_def_cfa_offset 24
  72 0004 00AF     		add	r7, sp, #0
  73              		.cfi_def_cfa_register 7
  74 0006 F860     		str	r0, [r7, #12]
  75 0008 B960     		str	r1, [r7, #8]
  76 000a 7A60     		str	r2, [r7, #4]
  71:.\Generated_Source\PSoC5/cyfitter_cfg.c **** 	(void)memcpy(dest, src, n);
  77              		.loc 1 71 0
  78 000c F868     		ldr	r0, [r7, #12]
  79 000e B968     		ldr	r1, [r7, #8]
  80 0010 7A68     		ldr	r2, [r7, #4]
  81 0012 FFF7FEFF 		bl	memcpy
  72:.\Generated_Source\PSoC5/cyfitter_cfg.c **** }
  82              		.loc 1 72 0
  83 0016 1037     		adds	r7, r7, #16
  84              		.cfi_def_cfa_offset 8
  85 0018 BD46     		mov	sp, r7
  86              		.cfi_def_cfa_register 13
  87              		@ sp needed
  88 001a 80BD     		pop	{r7, pc}
  89              		.cfi_endproc
  90              	.LFE1:
  91              		.size	CYCONFIGCPY, .-CYCONFIGCPY
  92              		.section	.text.CYCONFIGCPYCODE,"ax",%progbits
  93              		.align	2
  94              		.thumb
  95              		.thumb_func
  96              		.type	CYCONFIGCPYCODE, %function
  97              	CYCONFIGCPYCODE:
  98              	.LFB2:
  73:.\Generated_Source\PSoC5/cyfitter_cfg.c **** CY_CFG_UNUSED
ARM GAS  C:\USERS\LUKAS\APPDATA\LOCAL\TEMP\cctz5fJI.s 			page 4


  74:.\Generated_Source\PSoC5/cyfitter_cfg.c **** static void CYCONFIGCPYCODE(void *dest, const void *src, size_t n);
  75:.\Generated_Source\PSoC5/cyfitter_cfg.c **** CY_CFG_UNUSED
  76:.\Generated_Source\PSoC5/cyfitter_cfg.c **** static void CYCONFIGCPYCODE(void *dest, const void *src, size_t n)
  77:.\Generated_Source\PSoC5/cyfitter_cfg.c **** {
  99              		.loc 1 77 0
 100              		.cfi_startproc
 101              		@ args = 0, pretend = 0, frame = 16
 102              		@ frame_needed = 1, uses_anonymous_args = 0
 103 0000 80B5     		push	{r7, lr}
 104              		.cfi_def_cfa_offset 8
 105              		.cfi_offset 7, -8
 106              		.cfi_offset 14, -4
 107 0002 84B0     		sub	sp, sp, #16
 108              		.cfi_def_cfa_offset 24
 109 0004 00AF     		add	r7, sp, #0
 110              		.cfi_def_cfa_register 7
 111 0006 F860     		str	r0, [r7, #12]
 112 0008 B960     		str	r1, [r7, #8]
 113 000a 7A60     		str	r2, [r7, #4]
  78:.\Generated_Source\PSoC5/cyfitter_cfg.c **** 	(void)memcpy(dest, src, n);
 114              		.loc 1 78 0
 115 000c F868     		ldr	r0, [r7, #12]
 116 000e B968     		ldr	r1, [r7, #8]
 117 0010 7A68     		ldr	r2, [r7, #4]
 118 0012 FFF7FEFF 		bl	memcpy
  79:.\Generated_Source\PSoC5/cyfitter_cfg.c **** }
 119              		.loc 1 79 0
 120 0016 1037     		adds	r7, r7, #16
 121              		.cfi_def_cfa_offset 8
 122 0018 BD46     		mov	sp, r7
 123              		.cfi_def_cfa_register 13
 124              		@ sp needed
 125 001a 80BD     		pop	{r7, pc}
 126              		.cfi_endproc
 127              	.LFE2:
 128              		.size	CYCONFIGCPYCODE, .-CYCONFIGCPYCODE
 129              		.section	.text.CyClockStartupError,"ax",%progbits
 130              		.align	2
 131              		.thumb
 132              		.thumb_func
 133              		.type	CyClockStartupError, %function
 134              	CyClockStartupError:
 135              	.LFB3:
  80:.\Generated_Source\PSoC5/cyfitter_cfg.c **** 
  81:.\Generated_Source\PSoC5/cyfitter_cfg.c **** 
  82:.\Generated_Source\PSoC5/cyfitter_cfg.c **** 
  83:.\Generated_Source\PSoC5/cyfitter_cfg.c **** /* Clock startup error codes                                                   */
  84:.\Generated_Source\PSoC5/cyfitter_cfg.c **** #define CYCLOCKSTART_NO_ERROR    0u
  85:.\Generated_Source\PSoC5/cyfitter_cfg.c **** #define CYCLOCKSTART_XTAL_ERROR  1u
  86:.\Generated_Source\PSoC5/cyfitter_cfg.c **** #define CYCLOCKSTART_32KHZ_ERROR 2u
  87:.\Generated_Source\PSoC5/cyfitter_cfg.c **** #define CYCLOCKSTART_PLL_ERROR   3u
  88:.\Generated_Source\PSoC5/cyfitter_cfg.c **** 
  89:.\Generated_Source\PSoC5/cyfitter_cfg.c **** #ifdef CY_NEED_CYCLOCKSTARTUPERROR
  90:.\Generated_Source\PSoC5/cyfitter_cfg.c **** /*******************************************************************************
  91:.\Generated_Source\PSoC5/cyfitter_cfg.c **** * Function Name: CyClockStartupError
  92:.\Generated_Source\PSoC5/cyfitter_cfg.c **** ********************************************************************************
  93:.\Generated_Source\PSoC5/cyfitter_cfg.c **** * Summary:
ARM GAS  C:\USERS\LUKAS\APPDATA\LOCAL\TEMP\cctz5fJI.s 			page 5


  94:.\Generated_Source\PSoC5/cyfitter_cfg.c **** *  If an error is encountered during clock configuration (crystal startup error,
  95:.\Generated_Source\PSoC5/cyfitter_cfg.c **** *  PLL lock error, etc.), the system will end up here.  Unless reimplemented by
  96:.\Generated_Source\PSoC5/cyfitter_cfg.c **** *  the customer, this function will stop in an infinite loop.
  97:.\Generated_Source\PSoC5/cyfitter_cfg.c **** *
  98:.\Generated_Source\PSoC5/cyfitter_cfg.c **** * Parameters:
  99:.\Generated_Source\PSoC5/cyfitter_cfg.c **** *   void
 100:.\Generated_Source\PSoC5/cyfitter_cfg.c **** *
 101:.\Generated_Source\PSoC5/cyfitter_cfg.c **** * Return:
 102:.\Generated_Source\PSoC5/cyfitter_cfg.c **** *   void
 103:.\Generated_Source\PSoC5/cyfitter_cfg.c **** *
 104:.\Generated_Source\PSoC5/cyfitter_cfg.c **** *******************************************************************************/
 105:.\Generated_Source\PSoC5/cyfitter_cfg.c **** CY_CFG_UNUSED
 106:.\Generated_Source\PSoC5/cyfitter_cfg.c **** static void CyClockStartupError(uint8 errorCode);
 107:.\Generated_Source\PSoC5/cyfitter_cfg.c **** CY_CFG_UNUSED
 108:.\Generated_Source\PSoC5/cyfitter_cfg.c **** static void CyClockStartupError(uint8 errorCode)
 109:.\Generated_Source\PSoC5/cyfitter_cfg.c **** {
 136              		.loc 1 109 0
 137              		.cfi_startproc
 138              		@ args = 0, pretend = 0, frame = 8
 139              		@ frame_needed = 1, uses_anonymous_args = 0
 140              		@ link register save eliminated.
 141 0000 80B4     		push	{r7}
 142              		.cfi_def_cfa_offset 4
 143              		.cfi_offset 7, -4
 144 0002 83B0     		sub	sp, sp, #12
 145              		.cfi_def_cfa_offset 16
 146 0004 00AF     		add	r7, sp, #0
 147              		.cfi_def_cfa_register 7
 148 0006 0346     		mov	r3, r0
 149 0008 FB71     		strb	r3, [r7, #7]
 150              	.L5:
 110:.\Generated_Source\PSoC5/cyfitter_cfg.c ****     /* To remove the compiler warning if errorCode not used.                */
 111:.\Generated_Source\PSoC5/cyfitter_cfg.c ****     errorCode = errorCode;
 112:.\Generated_Source\PSoC5/cyfitter_cfg.c **** 
 113:.\Generated_Source\PSoC5/cyfitter_cfg.c ****     /* `#START CyClockStartupError` */
 114:.\Generated_Source\PSoC5/cyfitter_cfg.c **** 
 115:.\Generated_Source\PSoC5/cyfitter_cfg.c ****     /* If we have a clock startup error (bad MHz crystal, PLL lock, etc.),  */
 116:.\Generated_Source\PSoC5/cyfitter_cfg.c ****     /* we will end up here to allow the customer to implement something to  */
 117:.\Generated_Source\PSoC5/cyfitter_cfg.c ****     /* deal with the clock condition.                                       */
 118:.\Generated_Source\PSoC5/cyfitter_cfg.c **** 
 119:.\Generated_Source\PSoC5/cyfitter_cfg.c ****     /* `#END` */
 120:.\Generated_Source\PSoC5/cyfitter_cfg.c **** 
 121:.\Generated_Source\PSoC5/cyfitter_cfg.c ****     /* If nothing else, stop here since the clocks have not started         */
 122:.\Generated_Source\PSoC5/cyfitter_cfg.c ****     /* correctly.                                                           */
 123:.\Generated_Source\PSoC5/cyfitter_cfg.c ****     while(1) {}
 151              		.loc 1 123 0 discriminator 1
 152 000a FEE7     		b	.L5
 153              		.cfi_endproc
 154              	.LFE3:
 155              		.size	CyClockStartupError, .-CyClockStartupError
 156              		.section	.text.cfg_write_bytes32,"ax",%progbits
 157              		.align	2
 158              		.thumb
 159              		.thumb_func
 160              		.type	cfg_write_bytes32, %function
 161              	cfg_write_bytes32:
 162              	.LFB4:
ARM GAS  C:\USERS\LUKAS\APPDATA\LOCAL\TEMP\cctz5fJI.s 			page 6


 124:.\Generated_Source\PSoC5/cyfitter_cfg.c **** }
 125:.\Generated_Source\PSoC5/cyfitter_cfg.c **** #endif
 126:.\Generated_Source\PSoC5/cyfitter_cfg.c **** 
 127:.\Generated_Source\PSoC5/cyfitter_cfg.c **** #define CY_CFG_BASE_ADDR_COUNT 41u
 128:.\Generated_Source\PSoC5/cyfitter_cfg.c **** CYPACKED typedef struct
 129:.\Generated_Source\PSoC5/cyfitter_cfg.c **** {
 130:.\Generated_Source\PSoC5/cyfitter_cfg.c **** 	uint8 offset;
 131:.\Generated_Source\PSoC5/cyfitter_cfg.c **** 	uint8 value;
 132:.\Generated_Source\PSoC5/cyfitter_cfg.c **** } CYPACKED_ATTR cy_cfg_addrvalue_t;
 133:.\Generated_Source\PSoC5/cyfitter_cfg.c **** 
 134:.\Generated_Source\PSoC5/cyfitter_cfg.c **** #define cy_cfg_addr_table ((const uint32 CYFAR *)0x48000000u)
 135:.\Generated_Source\PSoC5/cyfitter_cfg.c **** #define cy_cfg_data_table ((const cy_cfg_addrvalue_t CYFAR *)0x480000A4u)
 136:.\Generated_Source\PSoC5/cyfitter_cfg.c **** 
 137:.\Generated_Source\PSoC5/cyfitter_cfg.c **** /* IDMUX Address: CYREG_IDMUX_DRQ_CTL0 Size (bytes): 6 */
 138:.\Generated_Source\PSoC5/cyfitter_cfg.c **** #define BS_IDMUX_VAL ((const uint8 CYFAR *)0x4800124Cu)
 139:.\Generated_Source\PSoC5/cyfitter_cfg.c **** 
 140:.\Generated_Source\PSoC5/cyfitter_cfg.c **** /* IDMUX_IRQ Address: CYREG_IDMUX_IRQ_CTL0 Size (bytes): 8 */
 141:.\Generated_Source\PSoC5/cyfitter_cfg.c **** #define BS_IDMUX_IRQ_VAL ((const uint8 CYFAR *)0x48001254u)
 142:.\Generated_Source\PSoC5/cyfitter_cfg.c **** 
 143:.\Generated_Source\PSoC5/cyfitter_cfg.c **** /* UDB_1_1_1_CONFIG Address: CYDEV_UCFG_B1_P3_U0_BASE Size (bytes): 128 */
 144:.\Generated_Source\PSoC5/cyfitter_cfg.c **** #define BS_UDB_1_1_1_CONFIG_VAL ((const uint8 CYFAR *)0x4800125Cu)
 145:.\Generated_Source\PSoC5/cyfitter_cfg.c **** 
 146:.\Generated_Source\PSoC5/cyfitter_cfg.c **** /* UCFG_BCTL0 Address: CYREG_BCTL0_MDCLK_EN Size (bytes): 16 */
 147:.\Generated_Source\PSoC5/cyfitter_cfg.c **** #define BS_UCFG_BCTL0_VAL ((const uint8 CYFAR *)0x480012DCu)
 148:.\Generated_Source\PSoC5/cyfitter_cfg.c **** 
 149:.\Generated_Source\PSoC5/cyfitter_cfg.c **** /* IOPINS0_0 Address: CYREG_PRT0_DR Size (bytes): 10 */
 150:.\Generated_Source\PSoC5/cyfitter_cfg.c **** #define BS_IOPINS0_0_VAL ((const uint8 CYFAR *)0x480012ECu)
 151:.\Generated_Source\PSoC5/cyfitter_cfg.c **** 
 152:.\Generated_Source\PSoC5/cyfitter_cfg.c **** /* IOPINS0_7 Address: CYREG_PRT12_DM0 Size (bytes): 8 */
 153:.\Generated_Source\PSoC5/cyfitter_cfg.c **** #define BS_IOPINS0_7_VAL ((const uint8 CYFAR *)0x480012F8u)
 154:.\Generated_Source\PSoC5/cyfitter_cfg.c **** 
 155:.\Generated_Source\PSoC5/cyfitter_cfg.c **** /* IOPINS0_8 Address: CYREG_PRT15_DR Size (bytes): 10 */
 156:.\Generated_Source\PSoC5/cyfitter_cfg.c **** #define BS_IOPINS0_8_VAL ((const uint8 CYFAR *)0x48001300u)
 157:.\Generated_Source\PSoC5/cyfitter_cfg.c **** 
 158:.\Generated_Source\PSoC5/cyfitter_cfg.c **** /* IOPINS0_1 Address: CYREG_PRT1_DR Size (bytes): 10 */
 159:.\Generated_Source\PSoC5/cyfitter_cfg.c **** #define BS_IOPINS0_1_VAL ((const uint8 CYFAR *)0x4800130Cu)
 160:.\Generated_Source\PSoC5/cyfitter_cfg.c **** 
 161:.\Generated_Source\PSoC5/cyfitter_cfg.c **** /* IOPINS0_2 Address: CYREG_PRT2_DR Size (bytes): 10 */
 162:.\Generated_Source\PSoC5/cyfitter_cfg.c **** #define BS_IOPINS0_2_VAL ((const uint8 CYFAR *)0x48001318u)
 163:.\Generated_Source\PSoC5/cyfitter_cfg.c **** 
 164:.\Generated_Source\PSoC5/cyfitter_cfg.c **** /* IOPINS0_3 Address: CYREG_PRT3_DM0 Size (bytes): 8 */
 165:.\Generated_Source\PSoC5/cyfitter_cfg.c **** #define BS_IOPINS0_3_VAL ((const uint8 CYFAR *)0x48001324u)
 166:.\Generated_Source\PSoC5/cyfitter_cfg.c **** 
 167:.\Generated_Source\PSoC5/cyfitter_cfg.c **** /* PHUB_CFGMEM11 Address: CYREG_PHUB_CFGMEM11_CFG0 Size (bytes): 4 */
 168:.\Generated_Source\PSoC5/cyfitter_cfg.c **** #define BS_PHUB_CFGMEM11_VAL ((const uint8 CYFAR *)0x4800132Cu)
 169:.\Generated_Source\PSoC5/cyfitter_cfg.c **** 
 170:.\Generated_Source\PSoC5/cyfitter_cfg.c **** /* PHUB_CFGMEM12 Address: CYREG_PHUB_CFGMEM12_CFG0 Size (bytes): 4 */
 171:.\Generated_Source\PSoC5/cyfitter_cfg.c **** #define BS_PHUB_CFGMEM12_VAL ((const uint8 CYFAR *)0x48001330u)
 172:.\Generated_Source\PSoC5/cyfitter_cfg.c **** 
 173:.\Generated_Source\PSoC5/cyfitter_cfg.c **** /* PHUB_CFGMEM13 Address: CYREG_PHUB_CFGMEM13_CFG0 Size (bytes): 4 */
 174:.\Generated_Source\PSoC5/cyfitter_cfg.c **** #define BS_PHUB_CFGMEM13_VAL ((const uint8 CYFAR *)0x48001334u)
 175:.\Generated_Source\PSoC5/cyfitter_cfg.c **** 
 176:.\Generated_Source\PSoC5/cyfitter_cfg.c **** /* PHUB_CFGMEM14 Address: CYREG_PHUB_CFGMEM14_CFG0 Size (bytes): 4 */
 177:.\Generated_Source\PSoC5/cyfitter_cfg.c **** #define BS_PHUB_CFGMEM14_VAL ((const uint8 CYFAR *)0x48001338u)
 178:.\Generated_Source\PSoC5/cyfitter_cfg.c **** 
 179:.\Generated_Source\PSoC5/cyfitter_cfg.c **** /* PHUB_CFGMEM2 Address: CYREG_PHUB_CFGMEM2_CFG0 Size (bytes): 4 */
 180:.\Generated_Source\PSoC5/cyfitter_cfg.c **** #define BS_PHUB_CFGMEM2_VAL ((const uint8 CYFAR *)0x4800133Cu)
ARM GAS  C:\USERS\LUKAS\APPDATA\LOCAL\TEMP\cctz5fJI.s 			page 7


 181:.\Generated_Source\PSoC5/cyfitter_cfg.c **** 
 182:.\Generated_Source\PSoC5/cyfitter_cfg.c **** /* PHUB_CFGMEM4 Address: CYREG_PHUB_CFGMEM4_CFG0 Size (bytes): 4 */
 183:.\Generated_Source\PSoC5/cyfitter_cfg.c **** #define BS_PHUB_CFGMEM4_VAL ((const uint8 CYFAR *)0x48001340u)
 184:.\Generated_Source\PSoC5/cyfitter_cfg.c **** 
 185:.\Generated_Source\PSoC5/cyfitter_cfg.c **** /* PHUB_CFGMEM8 Address: CYREG_PHUB_CFGMEM8_CFG0 Size (bytes): 4 */
 186:.\Generated_Source\PSoC5/cyfitter_cfg.c **** #define BS_PHUB_CFGMEM8_VAL ((const uint8 CYFAR *)0x48001344u)
 187:.\Generated_Source\PSoC5/cyfitter_cfg.c **** 
 188:.\Generated_Source\PSoC5/cyfitter_cfg.c **** 
 189:.\Generated_Source\PSoC5/cyfitter_cfg.c **** /*******************************************************************************
 190:.\Generated_Source\PSoC5/cyfitter_cfg.c **** * Function Name: cfg_write_bytes32
 191:.\Generated_Source\PSoC5/cyfitter_cfg.c **** ********************************************************************************
 192:.\Generated_Source\PSoC5/cyfitter_cfg.c **** * Summary:
 193:.\Generated_Source\PSoC5/cyfitter_cfg.c **** *  This function is used for setting up the chip configuration areas that
 194:.\Generated_Source\PSoC5/cyfitter_cfg.c **** *  contain relatively sparse data.
 195:.\Generated_Source\PSoC5/cyfitter_cfg.c **** *
 196:.\Generated_Source\PSoC5/cyfitter_cfg.c **** * Parameters:
 197:.\Generated_Source\PSoC5/cyfitter_cfg.c **** *   void
 198:.\Generated_Source\PSoC5/cyfitter_cfg.c **** *
 199:.\Generated_Source\PSoC5/cyfitter_cfg.c **** * Return:
 200:.\Generated_Source\PSoC5/cyfitter_cfg.c **** *   void
 201:.\Generated_Source\PSoC5/cyfitter_cfg.c **** *
 202:.\Generated_Source\PSoC5/cyfitter_cfg.c **** *******************************************************************************/
 203:.\Generated_Source\PSoC5/cyfitter_cfg.c **** static void cfg_write_bytes32(const uint32 addr_table[], const cy_cfg_addrvalue_t data_table[]);
 204:.\Generated_Source\PSoC5/cyfitter_cfg.c **** static void cfg_write_bytes32(const uint32 addr_table[], const cy_cfg_addrvalue_t data_table[])
 205:.\Generated_Source\PSoC5/cyfitter_cfg.c **** {
 163              		.loc 1 205 0
 164              		.cfi_startproc
 165              		@ args = 0, pretend = 0, frame = 24
 166              		@ frame_needed = 1, uses_anonymous_args = 0
 167              		@ link register save eliminated.
 168 0000 80B4     		push	{r7}
 169              		.cfi_def_cfa_offset 4
 170              		.cfi_offset 7, -4
 171 0002 87B0     		sub	sp, sp, #28
 172              		.cfi_def_cfa_offset 32
 173 0004 00AF     		add	r7, sp, #0
 174              		.cfi_def_cfa_register 7
 175 0006 7860     		str	r0, [r7, #4]
 176 0008 3960     		str	r1, [r7]
 206:.\Generated_Source\PSoC5/cyfitter_cfg.c **** 	/* For 32-bit little-endian architectures */
 207:.\Generated_Source\PSoC5/cyfitter_cfg.c **** 	uint32 i, j = 0u;
 177              		.loc 1 207 0
 178 000a 0023     		movs	r3, #0
 179 000c 3B61     		str	r3, [r7, #16]
 208:.\Generated_Source\PSoC5/cyfitter_cfg.c **** 	for (i = 0u; i < CY_CFG_BASE_ADDR_COUNT; i++)
 180              		.loc 1 208 0
 181 000e 0023     		movs	r3, #0
 182 0010 7B61     		str	r3, [r7, #20]
 183 0012 27E0     		b	.L7
 184              	.L10:
 185              	.LBB2:
 209:.\Generated_Source\PSoC5/cyfitter_cfg.c **** 	{
 210:.\Generated_Source\PSoC5/cyfitter_cfg.c **** 		uint32 baseAddr = addr_table[i];
 186              		.loc 1 210 0
 187 0014 7B69     		ldr	r3, [r7, #20]
 188 0016 9B00     		lsls	r3, r3, #2
 189 0018 7A68     		ldr	r2, [r7, #4]
ARM GAS  C:\USERS\LUKAS\APPDATA\LOCAL\TEMP\cctz5fJI.s 			page 8


 190 001a 1344     		add	r3, r3, r2
 191 001c 1B68     		ldr	r3, [r3]
 192 001e BB60     		str	r3, [r7, #8]
 211:.\Generated_Source\PSoC5/cyfitter_cfg.c **** 		uint8 count = (uint8)baseAddr;
 193              		.loc 1 211 0
 194 0020 BB68     		ldr	r3, [r7, #8]
 195 0022 FB73     		strb	r3, [r7, #15]
 212:.\Generated_Source\PSoC5/cyfitter_cfg.c **** 		baseAddr &= 0xFFFFFF00u;
 196              		.loc 1 212 0
 197 0024 BB68     		ldr	r3, [r7, #8]
 198 0026 23F0FF03 		bic	r3, r3, #255
 199 002a BB60     		str	r3, [r7, #8]
 213:.\Generated_Source\PSoC5/cyfitter_cfg.c **** 		while (count != 0u)
 200              		.loc 1 213 0
 201 002c 14E0     		b	.L8
 202              	.L9:
 214:.\Generated_Source\PSoC5/cyfitter_cfg.c **** 		{
 215:.\Generated_Source\PSoC5/cyfitter_cfg.c **** 			CY_SET_XTND_REG8((void CYFAR *)(baseAddr + data_table[j].offset), data_table[j].value);
 203              		.loc 1 215 0
 204 002e 3B69     		ldr	r3, [r7, #16]
 205 0030 5B00     		lsls	r3, r3, #1
 206 0032 3A68     		ldr	r2, [r7]
 207 0034 1344     		add	r3, r3, r2
 208 0036 1B78     		ldrb	r3, [r3]	@ zero_extendqisi2
 209 0038 1A46     		mov	r2, r3
 210 003a BB68     		ldr	r3, [r7, #8]
 211 003c 1344     		add	r3, r3, r2
 212 003e 1946     		mov	r1, r3
 213 0040 3B69     		ldr	r3, [r7, #16]
 214 0042 5B00     		lsls	r3, r3, #1
 215 0044 3A68     		ldr	r2, [r7]
 216 0046 1344     		add	r3, r3, r2
 217 0048 5B78     		ldrb	r3, [r3, #1]	@ zero_extendqisi2
 218 004a 0B70     		strb	r3, [r1]
 216:.\Generated_Source\PSoC5/cyfitter_cfg.c **** 			j++;
 219              		.loc 1 216 0
 220 004c 3B69     		ldr	r3, [r7, #16]
 221 004e 0133     		adds	r3, r3, #1
 222 0050 3B61     		str	r3, [r7, #16]
 217:.\Generated_Source\PSoC5/cyfitter_cfg.c **** 			count--;
 223              		.loc 1 217 0
 224 0052 FB7B     		ldrb	r3, [r7, #15]	@ zero_extendqisi2
 225 0054 013B     		subs	r3, r3, #1
 226 0056 FB73     		strb	r3, [r7, #15]
 227              	.L8:
 213:.\Generated_Source\PSoC5/cyfitter_cfg.c **** 		{
 228              		.loc 1 213 0
 229 0058 FB7B     		ldrb	r3, [r7, #15]	@ zero_extendqisi2
 230 005a 002B     		cmp	r3, #0
 231 005c E7D1     		bne	.L9
 232              	.LBE2:
 208:.\Generated_Source\PSoC5/cyfitter_cfg.c **** 	{
 233              		.loc 1 208 0 discriminator 2
 234 005e 7B69     		ldr	r3, [r7, #20]
 235 0060 0133     		adds	r3, r3, #1
 236 0062 7B61     		str	r3, [r7, #20]
 237              	.L7:
ARM GAS  C:\USERS\LUKAS\APPDATA\LOCAL\TEMP\cctz5fJI.s 			page 9


 208:.\Generated_Source\PSoC5/cyfitter_cfg.c **** 	{
 238              		.loc 1 208 0 is_stmt 0 discriminator 1
 239 0064 7B69     		ldr	r3, [r7, #20]
 240 0066 282B     		cmp	r3, #40
 241 0068 D4D9     		bls	.L10
 218:.\Generated_Source\PSoC5/cyfitter_cfg.c **** 		}
 219:.\Generated_Source\PSoC5/cyfitter_cfg.c **** 	}
 220:.\Generated_Source\PSoC5/cyfitter_cfg.c **** }
 242              		.loc 1 220 0 is_stmt 1
 243 006a 1C37     		adds	r7, r7, #28
 244              		.cfi_def_cfa_offset 4
 245 006c BD46     		mov	sp, r7
 246              		.cfi_def_cfa_register 13
 247              		@ sp needed
 248 006e 5DF8047B 		ldr	r7, [sp], #4
 249              		.cfi_restore 7
 250              		.cfi_def_cfa_offset 0
 251 0072 7047     		bx	lr
 252              		.cfi_endproc
 253              	.LFE4:
 254              		.size	cfg_write_bytes32, .-cfg_write_bytes32
 255              		.section	.text.ClockSetup,"ax",%progbits
 256              		.align	2
 257              		.thumb
 258              		.thumb_func
 259              		.type	ClockSetup, %function
 260              	ClockSetup:
 261              	.LFB5:
 221:.\Generated_Source\PSoC5/cyfitter_cfg.c **** 
 222:.\Generated_Source\PSoC5/cyfitter_cfg.c **** /*******************************************************************************
 223:.\Generated_Source\PSoC5/cyfitter_cfg.c **** * Function Name: ClockSetup
 224:.\Generated_Source\PSoC5/cyfitter_cfg.c **** ********************************************************************************
 225:.\Generated_Source\PSoC5/cyfitter_cfg.c **** *
 226:.\Generated_Source\PSoC5/cyfitter_cfg.c **** * Summary:
 227:.\Generated_Source\PSoC5/cyfitter_cfg.c **** *  Performs the initialization of all of the clocks in the device based on the
 228:.\Generated_Source\PSoC5/cyfitter_cfg.c **** *  settings in the Clock tab of the DWR.  This includes enabling the requested
 229:.\Generated_Source\PSoC5/cyfitter_cfg.c **** *  clocks and setting the necessary dividers to produce the desired frequency. 
 230:.\Generated_Source\PSoC5/cyfitter_cfg.c **** *
 231:.\Generated_Source\PSoC5/cyfitter_cfg.c **** * Parameters:
 232:.\Generated_Source\PSoC5/cyfitter_cfg.c **** *  void
 233:.\Generated_Source\PSoC5/cyfitter_cfg.c **** *
 234:.\Generated_Source\PSoC5/cyfitter_cfg.c **** * Return:
 235:.\Generated_Source\PSoC5/cyfitter_cfg.c **** *  void
 236:.\Generated_Source\PSoC5/cyfitter_cfg.c **** *
 237:.\Generated_Source\PSoC5/cyfitter_cfg.c **** *******************************************************************************/
 238:.\Generated_Source\PSoC5/cyfitter_cfg.c **** static void ClockSetup(void);
 239:.\Generated_Source\PSoC5/cyfitter_cfg.c **** static void ClockSetup(void)
 240:.\Generated_Source\PSoC5/cyfitter_cfg.c **** {
 262              		.loc 1 240 0
 263              		.cfi_startproc
 264              		@ args = 0, pretend = 0, frame = 8
 265              		@ frame_needed = 1, uses_anonymous_args = 0
 266 0000 80B5     		push	{r7, lr}
 267              		.cfi_def_cfa_offset 8
 268              		.cfi_offset 7, -8
 269              		.cfi_offset 14, -4
 270 0002 82B0     		sub	sp, sp, #8
ARM GAS  C:\USERS\LUKAS\APPDATA\LOCAL\TEMP\cctz5fJI.s 			page 10


 271              		.cfi_def_cfa_offset 16
 272 0004 00AF     		add	r7, sp, #0
 273              		.cfi_def_cfa_register 7
 241:.\Generated_Source\PSoC5/cyfitter_cfg.c **** 	uint32 timeout;
 242:.\Generated_Source\PSoC5/cyfitter_cfg.c **** 	uint8 pllLock;
 243:.\Generated_Source\PSoC5/cyfitter_cfg.c **** 
 244:.\Generated_Source\PSoC5/cyfitter_cfg.c **** 
 245:.\Generated_Source\PSoC5/cyfitter_cfg.c **** 	/* Configure Digital Clocks based on settings from Clock DWR */
 246:.\Generated_Source\PSoC5/cyfitter_cfg.c **** 	CY_SET_XTND_REG16((void CYFAR *)(CYREG_CLKDIST_DCFG0_CFG0), 0x0001u);
 274              		.loc 1 246 0
 275 0006 394B     		ldr	r3, .L16
 276 0008 0122     		movs	r2, #1
 277 000a 1A80     		strh	r2, [r3]	@ movhi
 247:.\Generated_Source\PSoC5/cyfitter_cfg.c **** 	CY_SET_XTND_REG8((void CYFAR *)(CYREG_CLKDIST_DCFG0_CFG0 + 0x2u), 0x1Cu);
 278              		.loc 1 247 0
 279 000c 384B     		ldr	r3, .L16+4
 280 000e 1C22     		movs	r2, #28
 281 0010 1A70     		strb	r2, [r3]
 248:.\Generated_Source\PSoC5/cyfitter_cfg.c **** 	CY_SET_XTND_REG16((void CYFAR *)(CYREG_CLKDIST_DCFG1_CFG0), 0x0003u);
 282              		.loc 1 248 0
 283 0012 384B     		ldr	r3, .L16+8
 284 0014 0322     		movs	r2, #3
 285 0016 1A80     		strh	r2, [r3]	@ movhi
 249:.\Generated_Source\PSoC5/cyfitter_cfg.c **** 	CY_SET_XTND_REG8((void CYFAR *)(CYREG_CLKDIST_DCFG1_CFG0 + 0x2u), 0x1Cu);
 286              		.loc 1 249 0
 287 0018 374B     		ldr	r3, .L16+12
 288 001a 1C22     		movs	r2, #28
 289 001c 1A70     		strb	r2, [r3]
 250:.\Generated_Source\PSoC5/cyfitter_cfg.c **** 	CY_SET_XTND_REG16((void CYFAR *)(CYREG_CLKDIST_DCFG2_CFG0), 0x0007u);
 290              		.loc 1 250 0
 291 001e 374B     		ldr	r3, .L16+16
 292 0020 0722     		movs	r2, #7
 293 0022 1A80     		strh	r2, [r3]	@ movhi
 251:.\Generated_Source\PSoC5/cyfitter_cfg.c **** 	CY_SET_XTND_REG8((void CYFAR *)(CYREG_CLKDIST_DCFG2_CFG0 + 0x2u), 0x1Cu);
 294              		.loc 1 251 0
 295 0024 364B     		ldr	r3, .L16+20
 296 0026 1C22     		movs	r2, #28
 297 0028 1A70     		strb	r2, [r3]
 252:.\Generated_Source\PSoC5/cyfitter_cfg.c **** 	CY_SET_XTND_REG16((void CYFAR *)(CYREG_CLKDIST_DCFG3_CFG0), 0x0000u);
 298              		.loc 1 252 0
 299 002a 364B     		ldr	r3, .L16+24
 300 002c 0022     		movs	r2, #0
 301 002e 1A80     		strh	r2, [r3]	@ movhi
 253:.\Generated_Source\PSoC5/cyfitter_cfg.c **** 	CY_SET_XTND_REG8((void CYFAR *)(CYREG_CLKDIST_DCFG3_CFG0 + 0x2u), 0x11u);
 302              		.loc 1 253 0
 303 0030 354B     		ldr	r3, .L16+28
 304 0032 1122     		movs	r2, #17
 305 0034 1A70     		strb	r2, [r3]
 254:.\Generated_Source\PSoC5/cyfitter_cfg.c **** 
 255:.\Generated_Source\PSoC5/cyfitter_cfg.c **** 	/* Configure ILO based on settings from Clock DWR */
 256:.\Generated_Source\PSoC5/cyfitter_cfg.c **** 	CY_SET_XTND_REG8((void CYFAR *)(CYREG_SLOWCLK_ILO_CR0), 0x06u);
 306              		.loc 1 256 0
 307 0036 354B     		ldr	r3, .L16+32
 308 0038 0622     		movs	r2, #6
 309 003a 1A70     		strb	r2, [r3]
 257:.\Generated_Source\PSoC5/cyfitter_cfg.c **** 
 258:.\Generated_Source\PSoC5/cyfitter_cfg.c **** 	/* Configure IMO based on settings from Clock DWR */
ARM GAS  C:\USERS\LUKAS\APPDATA\LOCAL\TEMP\cctz5fJI.s 			page 11


 259:.\Generated_Source\PSoC5/cyfitter_cfg.c **** 	CY_SET_XTND_REG8((void CYFAR *)(CYREG_FASTCLK_IMO_CR), 0x52u);
 310              		.loc 1 259 0
 311 003c 344B     		ldr	r3, .L16+36
 312 003e 5222     		movs	r2, #82
 313 0040 1A70     		strb	r2, [r3]
 260:.\Generated_Source\PSoC5/cyfitter_cfg.c **** 	CY_SET_XTND_REG8((void CYFAR *)(CYREG_IMO_TR1), (CY_GET_XTND_REG8((void CYFAR *)CYREG_FLSHID_CUST_
 314              		.loc 1 260 0
 315 0042 344B     		ldr	r3, .L16+40
 316 0044 344A     		ldr	r2, .L16+44
 317 0046 1278     		ldrb	r2, [r2]
 318 0048 D2B2     		uxtb	r2, r2
 319 004a 1A70     		strb	r2, [r3]
 261:.\Generated_Source\PSoC5/cyfitter_cfg.c **** 
 262:.\Generated_Source\PSoC5/cyfitter_cfg.c **** 	/* Configure PLL based on settings from Clock DWR */
 263:.\Generated_Source\PSoC5/cyfitter_cfg.c **** 	CY_SET_XTND_REG16((void CYFAR *)(CYREG_FASTCLK_PLL_P), 0x070Fu);
 320              		.loc 1 263 0
 321 004c 334B     		ldr	r3, .L16+48
 322 004e 40F20F72 		movw	r2, #1807
 323 0052 1A80     		strh	r2, [r3]	@ movhi
 264:.\Generated_Source\PSoC5/cyfitter_cfg.c **** 	CY_SET_XTND_REG16((void CYFAR *)(CYREG_FASTCLK_PLL_CFG0), 0x1251u);
 324              		.loc 1 264 0
 325 0054 324B     		ldr	r3, .L16+52
 326 0056 41F25122 		movw	r2, #4689
 327 005a 1A80     		strh	r2, [r3]	@ movhi
 265:.\Generated_Source\PSoC5/cyfitter_cfg.c **** 	/* Wait up to 250us for the PLL to lock */
 266:.\Generated_Source\PSoC5/cyfitter_cfg.c **** 	pllLock = 0u;
 328              		.loc 1 266 0
 329 005c 0023     		movs	r3, #0
 330 005e FB70     		strb	r3, [r7, #3]
 267:.\Generated_Source\PSoC5/cyfitter_cfg.c **** 	for (timeout = 250u / 10u; (timeout > 0u) && (pllLock != 0x03u); timeout--)
 331              		.loc 1 267 0
 332 0060 1923     		movs	r3, #25
 333 0062 7B60     		str	r3, [r7, #4]
 334 0064 14E0     		b	.L12
 335              	.L14:
 268:.\Generated_Source\PSoC5/cyfitter_cfg.c **** 	{ 
 269:.\Generated_Source\PSoC5/cyfitter_cfg.c **** 		pllLock = 0x03u & ((uint8)((uint8)pllLock << 1) | ((CY_GET_XTND_REG8((void CYFAR *)CYREG_FASTCLK_
 336              		.loc 1 269 0 discriminator 4
 337 0066 FB78     		ldrb	r3, [r7, #3]
 338 0068 5B00     		lsls	r3, r3, #1
 339 006a DAB2     		uxtb	r2, r3
 340 006c 2D4B     		ldr	r3, .L16+56
 341 006e 1B78     		ldrb	r3, [r3]
 342 0070 DBB2     		uxtb	r3, r3
 343 0072 03F00103 		and	r3, r3, #1
 344 0076 DBB2     		uxtb	r3, r3
 345 0078 1343     		orrs	r3, r3, r2
 346 007a DBB2     		uxtb	r3, r3
 347 007c 03F00303 		and	r3, r3, #3
 348 0080 FB70     		strb	r3, [r7, #3]
 270:.\Generated_Source\PSoC5/cyfitter_cfg.c **** 		CyDelayCycles(10u * 48u); /* Delay 10us based on 48MHz clock */
 349              		.loc 1 270 0 discriminator 4
 350 0082 4FF4F070 		mov	r0, #480
 351 0086 FFF7FEFF 		bl	CyDelayCycles
 267:.\Generated_Source\PSoC5/cyfitter_cfg.c **** 	for (timeout = 250u / 10u; (timeout > 0u) && (pllLock != 0x03u); timeout--)
 352              		.loc 1 267 0 discriminator 4
 353 008a 7B68     		ldr	r3, [r7, #4]
ARM GAS  C:\USERS\LUKAS\APPDATA\LOCAL\TEMP\cctz5fJI.s 			page 12


 354 008c 013B     		subs	r3, r3, #1
 355 008e 7B60     		str	r3, [r7, #4]
 356              	.L12:
 267:.\Generated_Source\PSoC5/cyfitter_cfg.c **** 	for (timeout = 250u / 10u; (timeout > 0u) && (pllLock != 0x03u); timeout--)
 357              		.loc 1 267 0 is_stmt 0 discriminator 1
 358 0090 7B68     		ldr	r3, [r7, #4]
 359 0092 002B     		cmp	r3, #0
 360 0094 02D0     		beq	.L13
 267:.\Generated_Source\PSoC5/cyfitter_cfg.c **** 	for (timeout = 250u / 10u; (timeout > 0u) && (pllLock != 0x03u); timeout--)
 361              		.loc 1 267 0 discriminator 3
 362 0096 FB78     		ldrb	r3, [r7, #3]	@ zero_extendqisi2
 363 0098 032B     		cmp	r3, #3
 364 009a E4D1     		bne	.L14
 365              	.L13:
 271:.\Generated_Source\PSoC5/cyfitter_cfg.c **** 	}
 272:.\Generated_Source\PSoC5/cyfitter_cfg.c **** 	/* If we ran out of time the PLL didn't lock so go to the error function */
 273:.\Generated_Source\PSoC5/cyfitter_cfg.c **** 	if (timeout == 0u)
 366              		.loc 1 273 0 is_stmt 1
 367 009c 7B68     		ldr	r3, [r7, #4]
 368 009e 002B     		cmp	r3, #0
 369 00a0 02D1     		bne	.L15
 274:.\Generated_Source\PSoC5/cyfitter_cfg.c **** 	{
 275:.\Generated_Source\PSoC5/cyfitter_cfg.c **** 		CyClockStartupError(CYCLOCKSTART_PLL_ERROR);
 370              		.loc 1 275 0
 371 00a2 0320     		movs	r0, #3
 372 00a4 FFF7FEFF 		bl	CyClockStartupError
 373              	.L15:
 276:.\Generated_Source\PSoC5/cyfitter_cfg.c **** 	}
 277:.\Generated_Source\PSoC5/cyfitter_cfg.c **** 
 278:.\Generated_Source\PSoC5/cyfitter_cfg.c **** 	/* Configure Bus/Master Clock based on settings from Clock DWR */
 279:.\Generated_Source\PSoC5/cyfitter_cfg.c **** 	CY_SET_XTND_REG16((void CYFAR *)(CYREG_CLKDIST_MSTR0), 0x0100u);
 374              		.loc 1 279 0
 375 00a8 1F4B     		ldr	r3, .L16+60
 376 00aa 4FF48072 		mov	r2, #256
 377 00ae 1A80     		strh	r2, [r3]	@ movhi
 280:.\Generated_Source\PSoC5/cyfitter_cfg.c **** 	CY_SET_XTND_REG8((void CYFAR *)(CYREG_CLKDIST_MSTR0), 0x07u);
 378              		.loc 1 280 0
 379 00b0 1D4B     		ldr	r3, .L16+60
 380 00b2 0722     		movs	r2, #7
 381 00b4 1A70     		strb	r2, [r3]
 281:.\Generated_Source\PSoC5/cyfitter_cfg.c **** 	CY_SET_XTND_REG8((void CYFAR *)(CYREG_CLKDIST_BCFG0), 0x00u);
 382              		.loc 1 281 0
 383 00b6 1D4B     		ldr	r3, .L16+64
 384 00b8 0022     		movs	r2, #0
 385 00ba 1A70     		strb	r2, [r3]
 282:.\Generated_Source\PSoC5/cyfitter_cfg.c **** 	CY_SET_XTND_REG8((void CYFAR *)(CYREG_CLKDIST_BCFG2), 0x48u);
 386              		.loc 1 282 0
 387 00bc 1C4B     		ldr	r3, .L16+68
 388 00be 4822     		movs	r2, #72
 389 00c0 1A70     		strb	r2, [r3]
 283:.\Generated_Source\PSoC5/cyfitter_cfg.c **** 	CY_SET_XTND_REG8((void CYFAR *)(CYREG_CLKDIST_MSTR0), 0x00u);
 390              		.loc 1 283 0
 391 00c2 194B     		ldr	r3, .L16+60
 392 00c4 0022     		movs	r2, #0
 393 00c6 1A70     		strb	r2, [r3]
 284:.\Generated_Source\PSoC5/cyfitter_cfg.c **** 
 285:.\Generated_Source\PSoC5/cyfitter_cfg.c **** 	/* Configure USB Clock based on settings from Clock DWR */
ARM GAS  C:\USERS\LUKAS\APPDATA\LOCAL\TEMP\cctz5fJI.s 			page 13


 286:.\Generated_Source\PSoC5/cyfitter_cfg.c **** 	CY_SET_XTND_REG8((void CYFAR *)(CYREG_CLKDIST_UCFG), 0x00u);
 394              		.loc 1 286 0
 395 00c8 1A4B     		ldr	r3, .L16+72
 396 00ca 0022     		movs	r2, #0
 397 00cc 1A70     		strb	r2, [r3]
 287:.\Generated_Source\PSoC5/cyfitter_cfg.c **** 	CY_SET_XTND_REG8((void CYFAR *)(CYREG_CLKDIST_LD), 0x02u);
 398              		.loc 1 287 0
 399 00ce 1A4B     		ldr	r3, .L16+76
 400 00d0 0222     		movs	r2, #2
 401 00d2 1A70     		strb	r2, [r3]
 288:.\Generated_Source\PSoC5/cyfitter_cfg.c **** 
 289:.\Generated_Source\PSoC5/cyfitter_cfg.c **** 	CY_SET_XTND_REG8((void CYFAR *)(CYREG_PM_ACT_CFG2), ((CY_GET_XTND_REG8((void CYFAR *)CYREG_PM_ACT_
 402              		.loc 1 289 0
 403 00d4 194A     		ldr	r2, .L16+80
 404 00d6 194B     		ldr	r3, .L16+80
 405 00d8 1B78     		ldrb	r3, [r3]
 406 00da DBB2     		uxtb	r3, r3
 407 00dc 43F00F03 		orr	r3, r3, #15
 408 00e0 DBB2     		uxtb	r3, r3
 409 00e2 1370     		strb	r3, [r2]
 290:.\Generated_Source\PSoC5/cyfitter_cfg.c **** }
 410              		.loc 1 290 0
 411 00e4 0837     		adds	r7, r7, #8
 412              		.cfi_def_cfa_offset 8
 413 00e6 BD46     		mov	sp, r7
 414              		.cfi_def_cfa_register 13
 415              		@ sp needed
 416 00e8 80BD     		pop	{r7, pc}
 417              	.L17:
 418 00ea 00BF     		.align	2
 419              	.L16:
 420 00ec 80400040 		.word	1073758336
 421 00f0 82400040 		.word	1073758338
 422 00f4 84400040 		.word	1073758340
 423 00f8 86400040 		.word	1073758342
 424 00fc 88400040 		.word	1073758344
 425 0100 8A400040 		.word	1073758346
 426 0104 8C400040 		.word	1073758348
 427 0108 8E400040 		.word	1073758350
 428 010c 00430040 		.word	1073758976
 429 0110 00420040 		.word	1073758720
 430 0114 A1460040 		.word	1073759905
 431 0118 0F010049 		.word	1224737039
 432 011c 22420040 		.word	1073758754
 433 0120 20420040 		.word	1073758752
 434 0124 25420040 		.word	1073758757
 435 0128 04400040 		.word	1073758212
 436 012c 06400040 		.word	1073758214
 437 0130 08400040 		.word	1073758216
 438 0134 09400040 		.word	1073758217
 439 0138 01400040 		.word	1073758209
 440 013c A2430040 		.word	1073759138
 441              		.cfi_endproc
 442              	.LFE5:
 443              		.size	ClockSetup, .-ClockSetup
 444              		.section	.text.AnalogSetDefault,"ax",%progbits
 445              		.align	2
ARM GAS  C:\USERS\LUKAS\APPDATA\LOCAL\TEMP\cctz5fJI.s 			page 14


 446              		.thumb
 447              		.thumb_func
 448              		.type	AnalogSetDefault, %function
 449              	AnalogSetDefault:
 450              	.LFB6:
 291:.\Generated_Source\PSoC5/cyfitter_cfg.c **** 
 292:.\Generated_Source\PSoC5/cyfitter_cfg.c **** 
 293:.\Generated_Source\PSoC5/cyfitter_cfg.c **** /* Analog API Functions */
 294:.\Generated_Source\PSoC5/cyfitter_cfg.c **** 
 295:.\Generated_Source\PSoC5/cyfitter_cfg.c **** 
 296:.\Generated_Source\PSoC5/cyfitter_cfg.c **** /*******************************************************************************
 297:.\Generated_Source\PSoC5/cyfitter_cfg.c **** * Function Name: AnalogSetDefault
 298:.\Generated_Source\PSoC5/cyfitter_cfg.c **** ********************************************************************************
 299:.\Generated_Source\PSoC5/cyfitter_cfg.c **** *
 300:.\Generated_Source\PSoC5/cyfitter_cfg.c **** * Summary:
 301:.\Generated_Source\PSoC5/cyfitter_cfg.c **** *  Sets up the analog portions of the chip to default values based on chip
 302:.\Generated_Source\PSoC5/cyfitter_cfg.c **** *  configuration options from the project.
 303:.\Generated_Source\PSoC5/cyfitter_cfg.c **** *
 304:.\Generated_Source\PSoC5/cyfitter_cfg.c **** * Parameters:
 305:.\Generated_Source\PSoC5/cyfitter_cfg.c **** *  void
 306:.\Generated_Source\PSoC5/cyfitter_cfg.c **** *
 307:.\Generated_Source\PSoC5/cyfitter_cfg.c **** * Return:
 308:.\Generated_Source\PSoC5/cyfitter_cfg.c **** *  void
 309:.\Generated_Source\PSoC5/cyfitter_cfg.c **** *
 310:.\Generated_Source\PSoC5/cyfitter_cfg.c **** *******************************************************************************/
 311:.\Generated_Source\PSoC5/cyfitter_cfg.c **** static void AnalogSetDefault(void);
 312:.\Generated_Source\PSoC5/cyfitter_cfg.c **** static void AnalogSetDefault(void)
 313:.\Generated_Source\PSoC5/cyfitter_cfg.c **** {
 451              		.loc 1 313 0
 452              		.cfi_startproc
 453              		@ args = 0, pretend = 0, frame = 8
 454              		@ frame_needed = 1, uses_anonymous_args = 0
 455              		@ link register save eliminated.
 456 0000 80B4     		push	{r7}
 457              		.cfi_def_cfa_offset 4
 458              		.cfi_offset 7, -4
 459 0002 83B0     		sub	sp, sp, #12
 460              		.cfi_def_cfa_offset 16
 461 0004 00AF     		add	r7, sp, #0
 462              		.cfi_def_cfa_register 7
 314:.\Generated_Source\PSoC5/cyfitter_cfg.c **** 	uint8 bg_xover_inl_trim = CY_GET_XTND_REG8((void CYFAR *)(CYREG_FLSHID_MFG_CFG_BG_XOVER_INL_TRIM +
 463              		.loc 1 314 0
 464 0006 0B4B     		ldr	r3, .L19
 465 0008 1B78     		ldrb	r3, [r3]
 466 000a FB71     		strb	r3, [r7, #7]
 315:.\Generated_Source\PSoC5/cyfitter_cfg.c **** 	CY_SET_XTND_REG8((void CYFAR *)(CYREG_BG_DFT0), (bg_xover_inl_trim & 0x07u));
 467              		.loc 1 315 0
 468 000c 0A4A     		ldr	r2, .L19+4
 469 000e FB79     		ldrb	r3, [r7, #7]
 470 0010 03F00703 		and	r3, r3, #7
 471 0014 DBB2     		uxtb	r3, r3
 472 0016 1370     		strb	r3, [r2]
 316:.\Generated_Source\PSoC5/cyfitter_cfg.c **** 	CY_SET_XTND_REG8((void CYFAR *)(CYREG_BG_DFT1), ((bg_xover_inl_trim >> 4) & 0x0Fu));
 473              		.loc 1 316 0
 474 0018 084A     		ldr	r2, .L19+8
 475 001a FB79     		ldrb	r3, [r7, #7]	@ zero_extendqisi2
 476 001c 1B09     		lsrs	r3, r3, #4
ARM GAS  C:\USERS\LUKAS\APPDATA\LOCAL\TEMP\cctz5fJI.s 			page 15


 477 001e DBB2     		uxtb	r3, r3
 478 0020 1370     		strb	r3, [r2]
 317:.\Generated_Source\PSoC5/cyfitter_cfg.c **** 	CY_SET_XTND_REG8((void CYFAR *)CYREG_PUMP_CR0, 0x44u);
 479              		.loc 1 317 0
 480 0022 074B     		ldr	r3, .L19+12
 481 0024 4422     		movs	r2, #68
 482 0026 1A70     		strb	r2, [r3]
 318:.\Generated_Source\PSoC5/cyfitter_cfg.c **** }
 483              		.loc 1 318 0
 484 0028 0C37     		adds	r7, r7, #12
 485              		.cfi_def_cfa_offset 4
 486 002a BD46     		mov	sp, r7
 487              		.cfi_def_cfa_register 13
 488              		@ sp needed
 489 002c 5DF8047B 		ldr	r7, [sp], #4
 490              		.cfi_restore 7
 491              		.cfi_def_cfa_offset 0
 492 0030 7047     		bx	lr
 493              	.L20:
 494 0032 00BF     		.align	2
 495              	.L19:
 496 0034 CF010049 		.word	1224737231
 497 0038 6E580040 		.word	1073764462
 498 003c 6F580040 		.word	1073764463
 499 0040 76580040 		.word	1073764470
 500              		.cfi_endproc
 501              	.LFE6:
 502              		.size	AnalogSetDefault, .-AnalogSetDefault
 503              		.section	.text.SetAnalogRoutingPumps,"ax",%progbits
 504              		.align	2
 505              		.global	SetAnalogRoutingPumps
 506              		.thumb
 507              		.thumb_func
 508              		.type	SetAnalogRoutingPumps, %function
 509              	SetAnalogRoutingPumps:
 510              	.LFB7:
 319:.\Generated_Source\PSoC5/cyfitter_cfg.c **** 
 320:.\Generated_Source\PSoC5/cyfitter_cfg.c **** 
 321:.\Generated_Source\PSoC5/cyfitter_cfg.c **** /*******************************************************************************
 322:.\Generated_Source\PSoC5/cyfitter_cfg.c **** * Function Name: SetAnalogRoutingPumps
 323:.\Generated_Source\PSoC5/cyfitter_cfg.c **** ********************************************************************************
 324:.\Generated_Source\PSoC5/cyfitter_cfg.c **** *
 325:.\Generated_Source\PSoC5/cyfitter_cfg.c **** * Summary:
 326:.\Generated_Source\PSoC5/cyfitter_cfg.c **** * Enables or disables the analog pumps feeding analog routing switches.
 327:.\Generated_Source\PSoC5/cyfitter_cfg.c **** * Intended to be called at startup, based on the Vdda system configuration;
 328:.\Generated_Source\PSoC5/cyfitter_cfg.c **** * may be called during operation when the user informs us that the Vdda voltage
 329:.\Generated_Source\PSoC5/cyfitter_cfg.c **** * crossed the pump threshold.
 330:.\Generated_Source\PSoC5/cyfitter_cfg.c **** *
 331:.\Generated_Source\PSoC5/cyfitter_cfg.c **** * Parameters:
 332:.\Generated_Source\PSoC5/cyfitter_cfg.c **** *  enabled - 1 to enable the pumps, 0 to disable the pumps
 333:.\Generated_Source\PSoC5/cyfitter_cfg.c **** *
 334:.\Generated_Source\PSoC5/cyfitter_cfg.c **** * Return:
 335:.\Generated_Source\PSoC5/cyfitter_cfg.c **** *  void
 336:.\Generated_Source\PSoC5/cyfitter_cfg.c **** *
 337:.\Generated_Source\PSoC5/cyfitter_cfg.c **** *******************************************************************************/
 338:.\Generated_Source\PSoC5/cyfitter_cfg.c **** void SetAnalogRoutingPumps(uint8 enabled)
 339:.\Generated_Source\PSoC5/cyfitter_cfg.c **** {
ARM GAS  C:\USERS\LUKAS\APPDATA\LOCAL\TEMP\cctz5fJI.s 			page 16


 511              		.loc 1 339 0
 512              		.cfi_startproc
 513              		@ args = 0, pretend = 0, frame = 16
 514              		@ frame_needed = 1, uses_anonymous_args = 0
 515              		@ link register save eliminated.
 516 0000 80B4     		push	{r7}
 517              		.cfi_def_cfa_offset 4
 518              		.cfi_offset 7, -4
 519 0002 85B0     		sub	sp, sp, #20
 520              		.cfi_def_cfa_offset 24
 521 0004 00AF     		add	r7, sp, #0
 522              		.cfi_def_cfa_register 7
 523 0006 0346     		mov	r3, r0
 524 0008 FB71     		strb	r3, [r7, #7]
 340:.\Generated_Source\PSoC5/cyfitter_cfg.c **** 	uint8 regValue = CY_GET_XTND_REG8((void CYFAR *)CYREG_PUMP_CR0);
 525              		.loc 1 340 0
 526 000a 064B     		ldr	r3, .L24
 527 000c 1B78     		ldrb	r3, [r3]
 528 000e FB73     		strb	r3, [r7, #15]
 341:.\Generated_Source\PSoC5/cyfitter_cfg.c **** 	if (enabled != 0u)
 529              		.loc 1 341 0
 530 0010 FB79     		ldrb	r3, [r7, #7]	@ zero_extendqisi2
 531 0012 002B     		cmp	r3, #0
 342:.\Generated_Source\PSoC5/cyfitter_cfg.c **** 	{
 343:.\Generated_Source\PSoC5/cyfitter_cfg.c **** 		regValue |= 0x00u;
 344:.\Generated_Source\PSoC5/cyfitter_cfg.c **** 	}
 345:.\Generated_Source\PSoC5/cyfitter_cfg.c **** 	else
 346:.\Generated_Source\PSoC5/cyfitter_cfg.c **** 	{
 347:.\Generated_Source\PSoC5/cyfitter_cfg.c **** 		regValue &= (uint8)~0x00u;
 348:.\Generated_Source\PSoC5/cyfitter_cfg.c **** 	}
 349:.\Generated_Source\PSoC5/cyfitter_cfg.c **** 	CY_SET_XTND_REG8((void CYFAR *)CYREG_PUMP_CR0, regValue);
 532              		.loc 1 349 0
 533 0014 034A     		ldr	r2, .L24
 534 0016 FB7B     		ldrb	r3, [r7, #15]
 535 0018 1370     		strb	r3, [r2]
 350:.\Generated_Source\PSoC5/cyfitter_cfg.c **** }
 536              		.loc 1 350 0
 537 001a 1437     		adds	r7, r7, #20
 538              		.cfi_def_cfa_offset 4
 539 001c BD46     		mov	sp, r7
 540              		.cfi_def_cfa_register 13
 541              		@ sp needed
 542 001e 5DF8047B 		ldr	r7, [sp], #4
 543              		.cfi_restore 7
 544              		.cfi_def_cfa_offset 0
 545 0022 7047     		bx	lr
 546              	.L25:
 547              		.align	2
 548              	.L24:
 549 0024 76580040 		.word	1073764470
 550              		.cfi_endproc
 551              	.LFE7:
 552              		.size	SetAnalogRoutingPumps, .-SetAnalogRoutingPumps
 553              		.section	.text.cyfitter_cfg,"ax",%progbits
 554              		.align	2
 555              		.global	cyfitter_cfg
 556              		.thumb
ARM GAS  C:\USERS\LUKAS\APPDATA\LOCAL\TEMP\cctz5fJI.s 			page 17


 557              		.thumb_func
 558              		.type	cyfitter_cfg, %function
 559              	cyfitter_cfg:
 560              	.LFB8:
 351:.\Generated_Source\PSoC5/cyfitter_cfg.c **** 
 352:.\Generated_Source\PSoC5/cyfitter_cfg.c **** #define CY_AMUX_UNUSED CYREG_BOOST_SR
 353:.\Generated_Source\PSoC5/cyfitter_cfg.c **** 
 354:.\Generated_Source\PSoC5/cyfitter_cfg.c **** 
 355:.\Generated_Source\PSoC5/cyfitter_cfg.c **** /*******************************************************************************
 356:.\Generated_Source\PSoC5/cyfitter_cfg.c **** * Function Name: cyfitter_cfg
 357:.\Generated_Source\PSoC5/cyfitter_cfg.c **** ********************************************************************************
 358:.\Generated_Source\PSoC5/cyfitter_cfg.c **** * Summary:
 359:.\Generated_Source\PSoC5/cyfitter_cfg.c **** *  This function is called by the start-up code for the selected device. It
 360:.\Generated_Source\PSoC5/cyfitter_cfg.c **** *  performs all of the necessary device configuration based on the design
 361:.\Generated_Source\PSoC5/cyfitter_cfg.c **** *  settings.  This includes settings from the Design Wide Resources (DWR) such
 362:.\Generated_Source\PSoC5/cyfitter_cfg.c **** *  as Clocks and Pins as well as any component configuration that is necessary.
 363:.\Generated_Source\PSoC5/cyfitter_cfg.c **** *
 364:.\Generated_Source\PSoC5/cyfitter_cfg.c **** * Parameters:  
 365:.\Generated_Source\PSoC5/cyfitter_cfg.c **** *   void
 366:.\Generated_Source\PSoC5/cyfitter_cfg.c **** *
 367:.\Generated_Source\PSoC5/cyfitter_cfg.c **** * Return:
 368:.\Generated_Source\PSoC5/cyfitter_cfg.c **** *   void
 369:.\Generated_Source\PSoC5/cyfitter_cfg.c **** *
 370:.\Generated_Source\PSoC5/cyfitter_cfg.c **** *******************************************************************************/
 371:.\Generated_Source\PSoC5/cyfitter_cfg.c **** 
 372:.\Generated_Source\PSoC5/cyfitter_cfg.c **** void cyfitter_cfg(void)
 373:.\Generated_Source\PSoC5/cyfitter_cfg.c **** {
 561              		.loc 1 373 0
 562              		.cfi_startproc
 563              		@ args = 0, pretend = 0, frame = 24
 564              		@ frame_needed = 1, uses_anonymous_args = 0
 565 0000 80B5     		push	{r7, lr}
 566              		.cfi_def_cfa_offset 8
 567              		.cfi_offset 7, -8
 568              		.cfi_offset 14, -4
 569 0002 86B0     		sub	sp, sp, #24
 570              		.cfi_def_cfa_offset 32
 571 0004 00AF     		add	r7, sp, #0
 572              		.cfi_def_cfa_register 7
 374:.\Generated_Source\PSoC5/cyfitter_cfg.c **** #ifdef CYGlobalIntDisable
 375:.\Generated_Source\PSoC5/cyfitter_cfg.c **** 	/* Disable interrupts by default. Let user enable if/when they want. */
 376:.\Generated_Source\PSoC5/cyfitter_cfg.c **** 	CYGlobalIntDisable
 573              		.loc 1 376 0
 574              	@ 376 ".\Generated_Source\PSoC5\cyfitter_cfg.c" 1
 575 0006 72B6     		CPSID   i
 576              	@ 0 "" 2
 577              		.thumb
 578              	.LBB3:
 377:.\Generated_Source\PSoC5/cyfitter_cfg.c **** #endif
 378:.\Generated_Source\PSoC5/cyfitter_cfg.c **** 
 379:.\Generated_Source\PSoC5/cyfitter_cfg.c **** 	{
 380:.\Generated_Source\PSoC5/cyfitter_cfg.c **** 
 381:.\Generated_Source\PSoC5/cyfitter_cfg.c **** 		CYPACKED typedef struct {
 382:.\Generated_Source\PSoC5/cyfitter_cfg.c **** 			void CYFAR *address;
 383:.\Generated_Source\PSoC5/cyfitter_cfg.c **** 			uint16 size;
 384:.\Generated_Source\PSoC5/cyfitter_cfg.c **** 		} CYPACKED_ATTR cfg_memset_t;
 385:.\Generated_Source\PSoC5/cyfitter_cfg.c **** 
ARM GAS  C:\USERS\LUKAS\APPDATA\LOCAL\TEMP\cctz5fJI.s 			page 18


 386:.\Generated_Source\PSoC5/cyfitter_cfg.c **** 
 387:.\Generated_Source\PSoC5/cyfitter_cfg.c **** 		CYPACKED typedef struct {
 388:.\Generated_Source\PSoC5/cyfitter_cfg.c **** 			void CYFAR *dest;
 389:.\Generated_Source\PSoC5/cyfitter_cfg.c **** 			const void CYFAR *src;
 390:.\Generated_Source\PSoC5/cyfitter_cfg.c **** 			uint16 size;
 391:.\Generated_Source\PSoC5/cyfitter_cfg.c **** 		} CYPACKED_ATTR cfg_memcpy_t;
 392:.\Generated_Source\PSoC5/cyfitter_cfg.c **** 
 393:.\Generated_Source\PSoC5/cyfitter_cfg.c **** 		static const cfg_memset_t CYCODE cfg_memset_list [] = {
 394:.\Generated_Source\PSoC5/cyfitter_cfg.c **** 			/* address, size */
 395:.\Generated_Source\PSoC5/cyfitter_cfg.c **** 			{(void CYFAR *)(CYREG_I2C_XCFG), 25u},
 396:.\Generated_Source\PSoC5/cyfitter_cfg.c **** 			{(void CYFAR *)(CYREG_PRT4_DR), 48u},
 397:.\Generated_Source\PSoC5/cyfitter_cfg.c **** 			{(void CYFAR *)(CYDEV_UCFG_B0_P0_U0_BASE), 4096u},
 398:.\Generated_Source\PSoC5/cyfitter_cfg.c **** 			{(void CYFAR *)(CYDEV_UCFG_B1_P2_U0_BASE), 512u},
 399:.\Generated_Source\PSoC5/cyfitter_cfg.c **** 			{(void CYFAR *)(CYDEV_UCFG_B1_P3_U1_BASE), 1408u},
 400:.\Generated_Source\PSoC5/cyfitter_cfg.c **** 			{(void CYFAR *)(CYDEV_UCFG_DSI0_BASE), 2560u},
 401:.\Generated_Source\PSoC5/cyfitter_cfg.c **** 			{(void CYFAR *)(CYDEV_UCFG_DSI12_BASE), 512u},
 402:.\Generated_Source\PSoC5/cyfitter_cfg.c **** 			{(void CYFAR *)(CYREG_BCTL1_MDCLK_EN), 16u},
 403:.\Generated_Source\PSoC5/cyfitter_cfg.c **** 		};
 404:.\Generated_Source\PSoC5/cyfitter_cfg.c **** 
 405:.\Generated_Source\PSoC5/cyfitter_cfg.c **** 		static const cfg_memcpy_t CYCODE cfg_memcpy_list [] = {
 406:.\Generated_Source\PSoC5/cyfitter_cfg.c **** 			/* dest, src, size */
 407:.\Generated_Source\PSoC5/cyfitter_cfg.c **** 			{(void CYFAR *)(CYREG_IDMUX_DRQ_CTL0), BS_IDMUX_VAL, 6u},
 408:.\Generated_Source\PSoC5/cyfitter_cfg.c **** 			{(void CYFAR *)(CYREG_IDMUX_IRQ_CTL0), BS_IDMUX_IRQ_VAL, 8u},
 409:.\Generated_Source\PSoC5/cyfitter_cfg.c **** 			{(void CYFAR *)(CYDEV_UCFG_B1_P3_U0_BASE), BS_UDB_1_1_1_CONFIG_VAL, 128u},
 410:.\Generated_Source\PSoC5/cyfitter_cfg.c **** 			{(void CYFAR *)(CYREG_BCTL0_MDCLK_EN), BS_UCFG_BCTL0_VAL, 16u},
 411:.\Generated_Source\PSoC5/cyfitter_cfg.c **** 		};
 412:.\Generated_Source\PSoC5/cyfitter_cfg.c **** 
 413:.\Generated_Source\PSoC5/cyfitter_cfg.c **** 		uint8 CYDATA i;
 414:.\Generated_Source\PSoC5/cyfitter_cfg.c **** 
 415:.\Generated_Source\PSoC5/cyfitter_cfg.c **** 		/* Zero out critical memory blocks before beginning configuration */
 416:.\Generated_Source\PSoC5/cyfitter_cfg.c **** 		for (i = 0u; i < (sizeof(cfg_memset_list)/sizeof(cfg_memset_list[0])); i++)
 579              		.loc 1 416 0
 580 0008 0023     		movs	r3, #0
 581 000a FB75     		strb	r3, [r7, #23]
 582 000c 13E0     		b	.L27
 583              	.L28:
 584              	.LBB4:
 417:.\Generated_Source\PSoC5/cyfitter_cfg.c **** 		{
 418:.\Generated_Source\PSoC5/cyfitter_cfg.c **** 			const cfg_memset_t CYCODE * CYDATA ms = &cfg_memset_list[i];
 585              		.loc 1 418 0 discriminator 3
 586 000e FA7D     		ldrb	r2, [r7, #23]	@ zero_extendqisi2
 587 0010 1346     		mov	r3, r2
 588 0012 5B00     		lsls	r3, r3, #1
 589 0014 1344     		add	r3, r3, r2
 590 0016 5B00     		lsls	r3, r3, #1
 591 0018 7A4A     		ldr	r2, .L31
 592 001a 1344     		add	r3, r3, r2
 593 001c 3B61     		str	r3, [r7, #16]
 419:.\Generated_Source\PSoC5/cyfitter_cfg.c **** 			CYMEMZERO(ms->address, (size_t)(uint32)(ms->size));
 594              		.loc 1 419 0 discriminator 3
 595 001e 3B69     		ldr	r3, [r7, #16]
 596 0020 1A68     		ldr	r2, [r3]	@ unaligned
 597 0022 3B69     		ldr	r3, [r7, #16]
 598 0024 9B88     		ldrh	r3, [r3, #4]	@ unaligned
 599 0026 9BB2     		uxth	r3, r3
 600 0028 1046     		mov	r0, r2
 601 002a 1946     		mov	r1, r3
ARM GAS  C:\USERS\LUKAS\APPDATA\LOCAL\TEMP\cctz5fJI.s 			page 19


 602 002c FFF7FEFF 		bl	CYMEMZERO
 603              	.LBE4:
 416:.\Generated_Source\PSoC5/cyfitter_cfg.c **** 		{
 604              		.loc 1 416 0 discriminator 3
 605 0030 FB7D     		ldrb	r3, [r7, #23]	@ zero_extendqisi2
 606 0032 0133     		adds	r3, r3, #1
 607 0034 FB75     		strb	r3, [r7, #23]
 608              	.L27:
 416:.\Generated_Source\PSoC5/cyfitter_cfg.c **** 		{
 609              		.loc 1 416 0 is_stmt 0 discriminator 1
 610 0036 FB7D     		ldrb	r3, [r7, #23]	@ zero_extendqisi2
 611 0038 072B     		cmp	r3, #7
 612 003a E8D9     		bls	.L28
 420:.\Generated_Source\PSoC5/cyfitter_cfg.c **** 		}
 421:.\Generated_Source\PSoC5/cyfitter_cfg.c **** 
 422:.\Generated_Source\PSoC5/cyfitter_cfg.c **** 		/* Copy device configuration data into registers */
 423:.\Generated_Source\PSoC5/cyfitter_cfg.c **** 		for (i = 0u; i < (sizeof(cfg_memcpy_list)/sizeof(cfg_memcpy_list[0])); i++)
 613              		.loc 1 423 0 is_stmt 1
 614 003c 0023     		movs	r3, #0
 615 003e FB75     		strb	r3, [r7, #23]
 616 0040 1CE0     		b	.L29
 617              	.L30:
 618              	.LBB5:
 424:.\Generated_Source\PSoC5/cyfitter_cfg.c **** 		{
 425:.\Generated_Source\PSoC5/cyfitter_cfg.c **** 			const cfg_memcpy_t CYCODE * CYDATA mc = &cfg_memcpy_list[i];
 619              		.loc 1 425 0 discriminator 3
 620 0042 FA7D     		ldrb	r2, [r7, #23]	@ zero_extendqisi2
 621 0044 1346     		mov	r3, r2
 622 0046 9B00     		lsls	r3, r3, #2
 623 0048 1344     		add	r3, r3, r2
 624 004a 5B00     		lsls	r3, r3, #1
 625 004c 6E4A     		ldr	r2, .L31+4
 626 004e 1344     		add	r3, r3, r2
 627 0050 FB60     		str	r3, [r7, #12]
 426:.\Generated_Source\PSoC5/cyfitter_cfg.c **** 			void * CYDATA destPtr = mc->dest;
 628              		.loc 1 426 0 discriminator 3
 629 0052 FB68     		ldr	r3, [r7, #12]
 630 0054 1B68     		ldr	r3, [r3]	@ unaligned
 631 0056 BB60     		str	r3, [r7, #8]
 427:.\Generated_Source\PSoC5/cyfitter_cfg.c **** 			const void * CYDATA srcPtr = mc->src;
 632              		.loc 1 427 0 discriminator 3
 633 0058 FB68     		ldr	r3, [r7, #12]
 634 005a 5B68     		ldr	r3, [r3, #4]	@ unaligned
 635 005c 7B60     		str	r3, [r7, #4]
 428:.\Generated_Source\PSoC5/cyfitter_cfg.c **** 			uint16 CYDATA numBytes = mc->size;
 636              		.loc 1 428 0 discriminator 3
 637 005e FB68     		ldr	r3, [r7, #12]
 638 0060 1A7A     		ldrb	r2, [r3, #8]	@ zero_extendqisi2
 639 0062 5B7A     		ldrb	r3, [r3, #9]	@ zero_extendqisi2
 640 0064 1B02     		lsls	r3, r3, #8
 641 0066 1343     		orrs	r3, r3, r2
 642 0068 7B80     		strh	r3, [r7, #2]	@ movhi
 429:.\Generated_Source\PSoC5/cyfitter_cfg.c **** 			CYCONFIGCPY(destPtr, srcPtr, numBytes);
 643              		.loc 1 429 0 discriminator 3
 644 006a 7B88     		ldrh	r3, [r7, #2]
 645 006c B868     		ldr	r0, [r7, #8]
 646 006e 7968     		ldr	r1, [r7, #4]
ARM GAS  C:\USERS\LUKAS\APPDATA\LOCAL\TEMP\cctz5fJI.s 			page 20


 647 0070 1A46     		mov	r2, r3
 648 0072 FFF7FEFF 		bl	CYCONFIGCPY
 649              	.LBE5:
 423:.\Generated_Source\PSoC5/cyfitter_cfg.c **** 		{
 650              		.loc 1 423 0 discriminator 3
 651 0076 FB7D     		ldrb	r3, [r7, #23]	@ zero_extendqisi2
 652 0078 0133     		adds	r3, r3, #1
 653 007a FB75     		strb	r3, [r7, #23]
 654              	.L29:
 423:.\Generated_Source\PSoC5/cyfitter_cfg.c **** 		{
 655              		.loc 1 423 0 is_stmt 0 discriminator 1
 656 007c FB7D     		ldrb	r3, [r7, #23]	@ zero_extendqisi2
 657 007e 032B     		cmp	r3, #3
 658 0080 DFD9     		bls	.L30
 430:.\Generated_Source\PSoC5/cyfitter_cfg.c **** 		}
 431:.\Generated_Source\PSoC5/cyfitter_cfg.c **** 
 432:.\Generated_Source\PSoC5/cyfitter_cfg.c **** 		cfg_write_bytes32(cy_cfg_addr_table, cy_cfg_data_table);
 659              		.loc 1 432 0 is_stmt 1
 660 0082 4FF09040 		mov	r0, #1207959552
 661 0086 6149     		ldr	r1, .L31+8
 662 0088 FFF7FEFF 		bl	cfg_write_bytes32
 433:.\Generated_Source\PSoC5/cyfitter_cfg.c **** 
 434:.\Generated_Source\PSoC5/cyfitter_cfg.c **** 		/* Perform normal device configuration. Order is not critical for these items. */
 435:.\Generated_Source\PSoC5/cyfitter_cfg.c **** 		CYMEMZERO((void CYFAR *)(CYREG_PHUB_CFGMEM0_CFG0), 4u);
 663              		.loc 1 435 0
 664 008c 6048     		ldr	r0, .L31+12
 665 008e 0421     		movs	r1, #4
 666 0090 FFF7FEFF 		bl	CYMEMZERO
 436:.\Generated_Source\PSoC5/cyfitter_cfg.c **** 		CYMEMZERO((void CYFAR *)(CYREG_PHUB_CFGMEM10_CFG0), 4u);
 667              		.loc 1 436 0
 668 0094 5F48     		ldr	r0, .L31+16
 669 0096 0421     		movs	r1, #4
 670 0098 FFF7FEFF 		bl	CYMEMZERO
 437:.\Generated_Source\PSoC5/cyfitter_cfg.c **** 		CYCONFIGCPY((void CYFAR *)(CYREG_PHUB_CFGMEM11_CFG0), (const void CYFAR *)(BS_PHUB_CFGMEM11_VAL),
 671              		.loc 1 437 0
 672 009c 5E48     		ldr	r0, .L31+20
 673 009e 5F49     		ldr	r1, .L31+24
 674 00a0 0422     		movs	r2, #4
 675 00a2 FFF7FEFF 		bl	CYCONFIGCPY
 438:.\Generated_Source\PSoC5/cyfitter_cfg.c **** 		CYCONFIGCPY((void CYFAR *)(CYREG_PHUB_CFGMEM12_CFG0), (const void CYFAR *)(BS_PHUB_CFGMEM12_VAL),
 676              		.loc 1 438 0
 677 00a6 5E48     		ldr	r0, .L31+28
 678 00a8 5E49     		ldr	r1, .L31+32
 679 00aa 0422     		movs	r2, #4
 680 00ac FFF7FEFF 		bl	CYCONFIGCPY
 439:.\Generated_Source\PSoC5/cyfitter_cfg.c **** 		CYCONFIGCPY((void CYFAR *)(CYREG_PHUB_CFGMEM13_CFG0), (const void CYFAR *)(BS_PHUB_CFGMEM13_VAL),
 681              		.loc 1 439 0
 682 00b0 5D48     		ldr	r0, .L31+36
 683 00b2 5E49     		ldr	r1, .L31+40
 684 00b4 0422     		movs	r2, #4
 685 00b6 FFF7FEFF 		bl	CYCONFIGCPY
 440:.\Generated_Source\PSoC5/cyfitter_cfg.c **** 		CYCONFIGCPY((void CYFAR *)(CYREG_PHUB_CFGMEM14_CFG0), (const void CYFAR *)(BS_PHUB_CFGMEM14_VAL),
 686              		.loc 1 440 0
 687 00ba 5D48     		ldr	r0, .L31+44
 688 00bc 5D49     		ldr	r1, .L31+48
 689 00be 0422     		movs	r2, #4
 690 00c0 FFF7FEFF 		bl	CYCONFIGCPY
ARM GAS  C:\USERS\LUKAS\APPDATA\LOCAL\TEMP\cctz5fJI.s 			page 21


 441:.\Generated_Source\PSoC5/cyfitter_cfg.c **** 		CYMEMZERO((void CYFAR *)(CYREG_PHUB_CFGMEM1_CFG0), 4u);
 691              		.loc 1 441 0
 692 00c4 5C48     		ldr	r0, .L31+52
 693 00c6 0421     		movs	r1, #4
 694 00c8 FFF7FEFF 		bl	CYMEMZERO
 442:.\Generated_Source\PSoC5/cyfitter_cfg.c **** 		CYCONFIGCPY((void CYFAR *)(CYREG_PHUB_CFGMEM2_CFG0), (const void CYFAR *)(BS_PHUB_CFGMEM2_VAL), 4
 695              		.loc 1 442 0
 696 00cc 5B48     		ldr	r0, .L31+56
 697 00ce 5C49     		ldr	r1, .L31+60
 698 00d0 0422     		movs	r2, #4
 699 00d2 FFF7FEFF 		bl	CYCONFIGCPY
 443:.\Generated_Source\PSoC5/cyfitter_cfg.c **** 		CYMEMZERO((void CYFAR *)(CYREG_PHUB_CFGMEM3_CFG0), 4u);
 700              		.loc 1 443 0
 701 00d6 5B48     		ldr	r0, .L31+64
 702 00d8 0421     		movs	r1, #4
 703 00da FFF7FEFF 		bl	CYMEMZERO
 444:.\Generated_Source\PSoC5/cyfitter_cfg.c **** 		CYCONFIGCPY((void CYFAR *)(CYREG_PHUB_CFGMEM4_CFG0), (const void CYFAR *)(BS_PHUB_CFGMEM4_VAL), 4
 704              		.loc 1 444 0
 705 00de 5A48     		ldr	r0, .L31+68
 706 00e0 5A49     		ldr	r1, .L31+72
 707 00e2 0422     		movs	r2, #4
 708 00e4 FFF7FEFF 		bl	CYCONFIGCPY
 445:.\Generated_Source\PSoC5/cyfitter_cfg.c **** 		CYMEMZERO((void CYFAR *)(CYREG_PHUB_CFGMEM5_CFG0), 4u);
 709              		.loc 1 445 0
 710 00e8 5948     		ldr	r0, .L31+76
 711 00ea 0421     		movs	r1, #4
 712 00ec FFF7FEFF 		bl	CYMEMZERO
 446:.\Generated_Source\PSoC5/cyfitter_cfg.c **** 		CYMEMZERO((void CYFAR *)(CYREG_PHUB_CFGMEM6_CFG0), 4u);
 713              		.loc 1 446 0
 714 00f0 5848     		ldr	r0, .L31+80
 715 00f2 0421     		movs	r1, #4
 716 00f4 FFF7FEFF 		bl	CYMEMZERO
 447:.\Generated_Source\PSoC5/cyfitter_cfg.c **** 		CYMEMZERO((void CYFAR *)(CYREG_PHUB_CFGMEM7_CFG0), 4u);
 717              		.loc 1 447 0
 718 00f8 5748     		ldr	r0, .L31+84
 719 00fa 0421     		movs	r1, #4
 720 00fc FFF7FEFF 		bl	CYMEMZERO
 448:.\Generated_Source\PSoC5/cyfitter_cfg.c **** 		CYCONFIGCPY((void CYFAR *)(CYREG_PHUB_CFGMEM8_CFG0), (const void CYFAR *)(BS_PHUB_CFGMEM8_VAL), 4
 721              		.loc 1 448 0
 722 0100 5648     		ldr	r0, .L31+88
 723 0102 5749     		ldr	r1, .L31+92
 724 0104 0422     		movs	r2, #4
 725 0106 FFF7FEFF 		bl	CYCONFIGCPY
 449:.\Generated_Source\PSoC5/cyfitter_cfg.c **** 		CYMEMZERO((void CYFAR *)(CYREG_PHUB_CFGMEM9_CFG0), 4u);
 726              		.loc 1 449 0
 727 010a 5648     		ldr	r0, .L31+96
 728 010c 0421     		movs	r1, #4
 729 010e FFF7FEFF 		bl	CYMEMZERO
 450:.\Generated_Source\PSoC5/cyfitter_cfg.c **** 
 451:.\Generated_Source\PSoC5/cyfitter_cfg.c **** 		/* Enable digital routing */
 452:.\Generated_Source\PSoC5/cyfitter_cfg.c **** 		CY_SET_XTND_REG8((void CYFAR *)CYREG_BCTL0_BANK_CTL, CY_GET_XTND_REG8((void CYFAR *)CYREG_BCTL0_B
 730              		.loc 1 452 0
 731 0112 554A     		ldr	r2, .L31+100
 732 0114 544B     		ldr	r3, .L31+100
 733 0116 1B78     		ldrb	r3, [r3]
 734 0118 DBB2     		uxtb	r3, r3
 735 011a 43F00203 		orr	r3, r3, #2
ARM GAS  C:\USERS\LUKAS\APPDATA\LOCAL\TEMP\cctz5fJI.s 			page 22


 736 011e DBB2     		uxtb	r3, r3
 737 0120 1370     		strb	r3, [r2]
 453:.\Generated_Source\PSoC5/cyfitter_cfg.c **** 		CY_SET_XTND_REG8((void CYFAR *)CYREG_BCTL1_BANK_CTL, CY_GET_XTND_REG8((void CYFAR *)CYREG_BCTL1_B
 738              		.loc 1 453 0
 739 0122 524A     		ldr	r2, .L31+104
 740 0124 514B     		ldr	r3, .L31+104
 741 0126 1B78     		ldrb	r3, [r3]
 742 0128 DBB2     		uxtb	r3, r3
 743 012a 43F00203 		orr	r3, r3, #2
 744 012e DBB2     		uxtb	r3, r3
 745 0130 1370     		strb	r3, [r2]
 454:.\Generated_Source\PSoC5/cyfitter_cfg.c **** 
 455:.\Generated_Source\PSoC5/cyfitter_cfg.c **** 		/* Enable UDB array */
 456:.\Generated_Source\PSoC5/cyfitter_cfg.c **** 		CY_SET_XTND_REG8((void CYFAR *)CYREG_PM_ACT_CFG0, CY_GET_XTND_REG8((void CYFAR *)CYREG_PM_ACT_CFG
 746              		.loc 1 456 0
 747 0132 4F4A     		ldr	r2, .L31+108
 748 0134 4E4B     		ldr	r3, .L31+108
 749 0136 1B78     		ldrb	r3, [r3]
 750 0138 DBB2     		uxtb	r3, r3
 751 013a 43F04003 		orr	r3, r3, #64
 752 013e DBB2     		uxtb	r3, r3
 753 0140 1370     		strb	r3, [r2]
 457:.\Generated_Source\PSoC5/cyfitter_cfg.c **** 		CY_SET_XTND_REG8((void CYFAR *)CYREG_PM_AVAIL_CR2, CY_GET_XTND_REG8((void CYFAR *)CYREG_PM_AVAIL_
 754              		.loc 1 457 0
 755 0142 4C4A     		ldr	r2, .L31+112
 756 0144 4B4B     		ldr	r3, .L31+112
 757 0146 1B78     		ldrb	r3, [r3]
 758 0148 DBB2     		uxtb	r3, r3
 759 014a 43F01003 		orr	r3, r3, #16
 760 014e DBB2     		uxtb	r3, r3
 761 0150 1370     		strb	r3, [r2]
 762              	.LBE3:
 458:.\Generated_Source\PSoC5/cyfitter_cfg.c **** 	}
 459:.\Generated_Source\PSoC5/cyfitter_cfg.c **** 
 460:.\Generated_Source\PSoC5/cyfitter_cfg.c **** 
 461:.\Generated_Source\PSoC5/cyfitter_cfg.c **** 	/* Perform second pass device configuration. These items must be configured in specific order afte
 462:.\Generated_Source\PSoC5/cyfitter_cfg.c **** 	CYCONFIGCPY((void CYFAR *)(CYREG_PRT0_DR), (const void CYFAR *)(BS_IOPINS0_0_VAL), 10u);
 763              		.loc 1 462 0
 764 0152 4948     		ldr	r0, .L31+116
 765 0154 4949     		ldr	r1, .L31+120
 766 0156 0A22     		movs	r2, #10
 767 0158 FFF7FEFF 		bl	CYCONFIGCPY
 463:.\Generated_Source\PSoC5/cyfitter_cfg.c **** 	CYCONFIGCPY((void CYFAR *)(CYREG_PRT12_DM0), (const void CYFAR *)(BS_IOPINS0_7_VAL), 8u);
 768              		.loc 1 463 0
 769 015c 4848     		ldr	r0, .L31+124
 770 015e 4949     		ldr	r1, .L31+128
 771 0160 0822     		movs	r2, #8
 772 0162 FFF7FEFF 		bl	CYCONFIGCPY
 464:.\Generated_Source\PSoC5/cyfitter_cfg.c **** 	CYCONFIGCPY((void CYFAR *)(CYREG_PRT15_DR), (const void CYFAR *)(BS_IOPINS0_8_VAL), 10u);
 773              		.loc 1 464 0
 774 0166 4848     		ldr	r0, .L31+132
 775 0168 4849     		ldr	r1, .L31+136
 776 016a 0A22     		movs	r2, #10
 777 016c FFF7FEFF 		bl	CYCONFIGCPY
 465:.\Generated_Source\PSoC5/cyfitter_cfg.c **** 	CYCONFIGCPY((void CYFAR *)(CYREG_PRT1_DR), (const void CYFAR *)(BS_IOPINS0_1_VAL), 10u);
 778              		.loc 1 465 0
 779 0170 4748     		ldr	r0, .L31+140
ARM GAS  C:\USERS\LUKAS\APPDATA\LOCAL\TEMP\cctz5fJI.s 			page 23


 780 0172 4849     		ldr	r1, .L31+144
 781 0174 0A22     		movs	r2, #10
 782 0176 FFF7FEFF 		bl	CYCONFIGCPY
 466:.\Generated_Source\PSoC5/cyfitter_cfg.c **** 	CYCONFIGCPY((void CYFAR *)(CYREG_PRT2_DR), (const void CYFAR *)(BS_IOPINS0_2_VAL), 10u);
 783              		.loc 1 466 0
 784 017a 4748     		ldr	r0, .L31+148
 785 017c 4749     		ldr	r1, .L31+152
 786 017e 0A22     		movs	r2, #10
 787 0180 FFF7FEFF 		bl	CYCONFIGCPY
 467:.\Generated_Source\PSoC5/cyfitter_cfg.c **** 	CYCONFIGCPY((void CYFAR *)(CYREG_PRT3_DM0), (const void CYFAR *)(BS_IOPINS0_3_VAL), 8u);
 788              		.loc 1 467 0
 789 0184 4648     		ldr	r0, .L31+156
 790 0186 4749     		ldr	r1, .L31+160
 791 0188 0822     		movs	r2, #8
 792 018a FFF7FEFF 		bl	CYCONFIGCPY
 468:.\Generated_Source\PSoC5/cyfitter_cfg.c **** 	CY_SET_XTND_REG8((void CYFAR *)(CYREG_B0_P4_U0_CFG24), 0xC4u);
 793              		.loc 1 468 0
 794 018e 464B     		ldr	r3, .L31+164
 795 0190 C422     		movs	r2, #196
 796 0192 1A70     		strb	r2, [r3]
 469:.\Generated_Source\PSoC5/cyfitter_cfg.c **** 	CY_SET_XTND_REG8((void CYFAR *)(CYREG_B0_P4_U1_CFG24), 0xC4u);
 797              		.loc 1 469 0
 798 0194 454B     		ldr	r3, .L31+168
 799 0196 C422     		movs	r2, #196
 800 0198 1A70     		strb	r2, [r3]
 470:.\Generated_Source\PSoC5/cyfitter_cfg.c **** 	CY_SET_XTND_REG8((void CYFAR *)(CYREG_B0_P5_U0_CFG24), 0xC4u);
 801              		.loc 1 470 0
 802 019a 454B     		ldr	r3, .L31+172
 803 019c C422     		movs	r2, #196
 804 019e 1A70     		strb	r2, [r3]
 471:.\Generated_Source\PSoC5/cyfitter_cfg.c **** 	CY_SET_XTND_REG8((void CYFAR *)(CYREG_B0_P5_U1_CFG24), 0xC4u);
 805              		.loc 1 471 0
 806 01a0 444B     		ldr	r3, .L31+176
 807 01a2 C422     		movs	r2, #196
 808 01a4 1A70     		strb	r2, [r3]
 472:.\Generated_Source\PSoC5/cyfitter_cfg.c **** 	CY_SET_XTND_REG8((void CYFAR *)(CYREG_B0_P6_U0_CFG24), 0xC4u);
 809              		.loc 1 472 0
 810 01a6 444B     		ldr	r3, .L31+180
 811 01a8 C422     		movs	r2, #196
 812 01aa 1A70     		strb	r2, [r3]
 473:.\Generated_Source\PSoC5/cyfitter_cfg.c **** 	CY_SET_XTND_REG8((void CYFAR *)(CYREG_B0_P6_U1_CFG24), 0xC4u);
 813              		.loc 1 473 0
 814 01ac 434B     		ldr	r3, .L31+184
 815 01ae C422     		movs	r2, #196
 816 01b0 1A70     		strb	r2, [r3]
 474:.\Generated_Source\PSoC5/cyfitter_cfg.c **** 	CY_SET_XTND_REG8((void CYFAR *)(CYREG_B0_P7_U0_CFG24), 0xC0u);
 817              		.loc 1 474 0
 818 01b2 434B     		ldr	r3, .L31+188
 819 01b4 C022     		movs	r2, #192
 820 01b6 1A70     		strb	r2, [r3]
 475:.\Generated_Source\PSoC5/cyfitter_cfg.c **** 	CY_SET_XTND_REG8((void CYFAR *)(CYREG_B0_P7_U1_CFG24), 0xC4u);
 821              		.loc 1 475 0
 822 01b8 424B     		ldr	r3, .L31+192
 823 01ba C422     		movs	r2, #196
 824 01bc 1A70     		strb	r2, [r3]
 476:.\Generated_Source\PSoC5/cyfitter_cfg.c **** 	CY_SET_XTND_REG8((void CYFAR *)(CYREG_B1_P4_U0_CFG24), 0xC4u);
 825              		.loc 1 476 0
ARM GAS  C:\USERS\LUKAS\APPDATA\LOCAL\TEMP\cctz5fJI.s 			page 24


 826 01be 424B     		ldr	r3, .L31+196
 827 01c0 C422     		movs	r2, #196
 828 01c2 1A70     		strb	r2, [r3]
 477:.\Generated_Source\PSoC5/cyfitter_cfg.c **** 	CY_SET_XTND_REG8((void CYFAR *)(CYREG_B1_P5_U1_CFG24), 0xC4u);
 829              		.loc 1 477 0
 830 01c4 414B     		ldr	r3, .L31+200
 831 01c6 C422     		movs	r2, #196
 832 01c8 1A70     		strb	r2, [r3]
 478:.\Generated_Source\PSoC5/cyfitter_cfg.c **** 	CY_SET_XTND_REG8((void CYFAR *)(CYREG_B1_P5_U1_CFG27), 0xC4u);
 833              		.loc 1 478 0
 834 01ca 414B     		ldr	r3, .L31+204
 835 01cc C422     		movs	r2, #196
 836 01ce 1A70     		strb	r2, [r3]
 479:.\Generated_Source\PSoC5/cyfitter_cfg.c **** 	/* Switch Boost to the precision bandgap reference from its internal reference */
 480:.\Generated_Source\PSoC5/cyfitter_cfg.c **** 	CY_SET_REG8((void CYXDATA *)CYREG_BOOST_CR2, (CY_GET_REG8((void CYXDATA *)CYREG_BOOST_CR2) | 0x08u
 837              		.loc 1 480 0
 838 01d0 404A     		ldr	r2, .L31+208
 839 01d2 404B     		ldr	r3, .L31+208
 840 01d4 1B78     		ldrb	r3, [r3]
 841 01d6 DBB2     		uxtb	r3, r3
 842 01d8 43F00803 		orr	r3, r3, #8
 843 01dc DBB2     		uxtb	r3, r3
 844 01de 1370     		strb	r3, [r2]
 481:.\Generated_Source\PSoC5/cyfitter_cfg.c **** 
 482:.\Generated_Source\PSoC5/cyfitter_cfg.c **** 	/* Set Flash Cycles based on max possible frequency in case a glitch occurs during ClockSetup(). *
 483:.\Generated_Source\PSoC5/cyfitter_cfg.c **** 	CY_SET_XTND_REG8((void CYFAR *)(CYREG_CACHE_CC_CTL), (((CYDEV_INSTRUCT_CACHE_ENABLED) != 0) ? 0x61
 845              		.loc 1 483 0
 846 01e0 3D4B     		ldr	r3, .L31+212
 847 01e2 6122     		movs	r2, #97
 848 01e4 1A70     		strb	r2, [r3]
 484:.\Generated_Source\PSoC5/cyfitter_cfg.c **** 	/* Setup clocks based on selections from Clock DWR */
 485:.\Generated_Source\PSoC5/cyfitter_cfg.c **** 	ClockSetup();
 849              		.loc 1 485 0
 850 01e6 FFF7FEFF 		bl	ClockSetup
 486:.\Generated_Source\PSoC5/cyfitter_cfg.c **** 	/* Set Flash Cycles based on newly configured 45.00MHz Bus Clock. */
 487:.\Generated_Source\PSoC5/cyfitter_cfg.c **** 	CY_SET_XTND_REG8((void CYFAR *)(CYREG_CACHE_CC_CTL), (((CYDEV_INSTRUCT_CACHE_ENABLED) != 0) ? 0xC1
 851              		.loc 1 487 0
 852 01ea 3B4B     		ldr	r3, .L31+212
 853 01ec C122     		movs	r2, #193
 854 01ee 1A70     		strb	r2, [r3]
 488:.\Generated_Source\PSoC5/cyfitter_cfg.c **** 
 489:.\Generated_Source\PSoC5/cyfitter_cfg.c **** 	/* Perform basic analog initialization to defaults */
 490:.\Generated_Source\PSoC5/cyfitter_cfg.c **** 	AnalogSetDefault();
 855              		.loc 1 490 0
 856 01f0 FFF7FEFF 		bl	AnalogSetDefault
 491:.\Generated_Source\PSoC5/cyfitter_cfg.c **** 
 492:.\Generated_Source\PSoC5/cyfitter_cfg.c **** 	/* Configure alternate active mode */
 493:.\Generated_Source\PSoC5/cyfitter_cfg.c **** 	CYCONFIGCPY((void CYFAR *)CYDEV_PM_STBY_BASE, (const void CYFAR *)CYDEV_PM_ACT_BASE, 14u);
 857              		.loc 1 493 0
 858 01f4 3948     		ldr	r0, .L31+216
 859 01f6 1E49     		ldr	r1, .L31+108
 860 01f8 0E22     		movs	r2, #14
 861 01fa FFF7FEFF 		bl	CYCONFIGCPY
 494:.\Generated_Source\PSoC5/cyfitter_cfg.c **** }
 862              		.loc 1 494 0
 863 01fe 1837     		adds	r7, r7, #24
 864              		.cfi_def_cfa_offset 8
ARM GAS  C:\USERS\LUKAS\APPDATA\LOCAL\TEMP\cctz5fJI.s 			page 25


 865 0200 BD46     		mov	sp, r7
 866              		.cfi_def_cfa_register 13
 867              		@ sp needed
 868 0202 80BD     		pop	{r7, pc}
 869              	.L32:
 870              		.align	2
 871              	.L31:
 872 0204 00000000 		.word	cfg_memset_list.4841
 873 0208 30000000 		.word	cfg_memcpy_list.4842
 874 020c A4000048 		.word	1207959716
 875 0210 00760040 		.word	1073772032
 876 0214 50760040 		.word	1073772112
 877 0218 58760040 		.word	1073772120
 878 021c 2C130048 		.word	1207964460
 879 0220 60760040 		.word	1073772128
 880 0224 30130048 		.word	1207964464
 881 0228 68760040 		.word	1073772136
 882 022c 34130048 		.word	1207964468
 883 0230 70760040 		.word	1073772144
 884 0234 38130048 		.word	1207964472
 885 0238 08760040 		.word	1073772040
 886 023c 10760040 		.word	1073772048
 887 0240 3C130048 		.word	1207964476
 888 0244 18760040 		.word	1073772056
 889 0248 20760040 		.word	1073772064
 890 024c 40130048 		.word	1207964480
 891 0250 28760040 		.word	1073772072
 892 0254 30760040 		.word	1073772080
 893 0258 38760040 		.word	1073772088
 894 025c 40760040 		.word	1073772096
 895 0260 44130048 		.word	1207964484
 896 0264 48760040 		.word	1073772104
 897 0268 03500140 		.word	1073827843
 898 026c 13500140 		.word	1073827859
 899 0270 A0430040 		.word	1073759136
 900 0274 C2430040 		.word	1073759170
 901 0278 00510040 		.word	1073762560
 902 027c EC120048 		.word	1207964396
 903 0280 C2510040 		.word	1073762754
 904 0284 F8120048 		.word	1207964408
 905 0288 F0510040 		.word	1073762800
 906 028c 00130048 		.word	1207964416
 907 0290 10510040 		.word	1073762576
 908 0294 0C130048 		.word	1207964428
 909 0298 20510040 		.word	1073762592
 910 029c 18130048 		.word	1207964440
 911 02a0 32510040 		.word	1073762610
 912 02a4 24130048 		.word	1207964452
 913 02a8 58080140 		.word	1073809496
 914 02ac D8080140 		.word	1073809624
 915 02b0 580A0140 		.word	1073810008
 916 02b4 D80A0140 		.word	1073810136
 917 02b8 580C0140 		.word	1073810520
 918 02bc D80C0140 		.word	1073810648
 919 02c0 580E0140 		.word	1073811032
 920 02c4 D80E0140 		.word	1073811160
 921 02c8 58180140 		.word	1073813592
ARM GAS  C:\USERS\LUKAS\APPDATA\LOCAL\TEMP\cctz5fJI.s 			page 26


 922 02cc D81A0140 		.word	1073814232
 923 02d0 DB1A0140 		.word	1073814235
 924 02d4 22430040 		.word	1073759010
 925 02d8 00480040 		.word	1073760256
 926 02dc B0430040 		.word	1073759152
 927              		.cfi_endproc
 928              	.LFE8:
 929              		.size	cyfitter_cfg, .-cyfitter_cfg
 930              		.section	.rodata
 931              		.align	2
 932              		.type	cfg_memset_list.4841, %object
 933              		.size	cfg_memset_list.4841, 48
 934              	cfg_memset_list.4841:
 935 0000 C8490040 		.word	1073760712
 936 0004 1900     		.short	25
 937 0006 40510040 		.4byte	1073762624
 938 000a 3000     		.short	48
 939 000c 00000140 		.word	1073807360
 940 0010 0010     		.short	4096
 941 0012 00140140 		.4byte	1073812480
 942 0016 0002     		.short	512
 943 0018 80160140 		.word	1073813120
 944 001c 8005     		.short	1408
 945 001e 00400140 		.4byte	1073823744
 946 0022 000A     		.short	2560
 947 0024 004C0140 		.word	1073826816
 948 0028 0002     		.short	512
 949 002a 10500140 		.4byte	1073827856
 950 002e 1000     		.short	16
 951              		.align	2
 952              		.type	cfg_memcpy_list.4842, %object
 953              		.size	cfg_memcpy_list.4842, 40
 954              	cfg_memcpy_list.4842:
 955 0030 10510140 		.word	1073828112
 956 0034 4C120048 		.word	1207964236
 957 0038 0600     		.short	6
 958 003a 00510140 		.4byte	1073828096
 959 003e 54120048 		.4byte	1207964244
 960 0042 0800     		.short	8
 961 0044 00160140 		.word	1073812992
 962 0048 5C120048 		.word	1207964252
 963 004c 8000     		.short	128
 964 004e 00500140 		.4byte	1073827840
 965 0052 DC120048 		.4byte	1207964380
 966 0056 1000     		.short	16
 967              		.text
 968              	.Letext0:
 969              		.file 2 "c:\\program files (x86)\\cypress\\psoc creator\\3.3\\psoc creator\\import\\gnu\\arm\\4.9.
 970              		.file 3 ".\\Generated_Source\\PSoC5\\cytypes.h"
 971              		.section	.debug_info,"",%progbits
 972              	.Ldebug_info0:
 973 0000 42040000 		.4byte	0x442
 974 0004 0400     		.2byte	0x4
 975 0006 00000000 		.4byte	.Ldebug_abbrev0
 976 000a 04       		.byte	0x4
 977 000b 01       		.uleb128 0x1
 978 000c 53010000 		.4byte	.LASF49
ARM GAS  C:\USERS\LUKAS\APPDATA\LOCAL\TEMP\cctz5fJI.s 			page 27


 979 0010 01       		.byte	0x1
 980 0011 D5020000 		.4byte	.LASF50
 981 0015 06000000 		.4byte	.LASF51
 982 0019 00000000 		.4byte	.Ldebug_ranges0+0
 983 001d 00000000 		.4byte	0
 984 0021 00000000 		.4byte	.Ldebug_line0
 985 0025 02       		.uleb128 0x2
 986 0026 04       		.byte	0x4
 987 0027 05       		.byte	0x5
 988 0028 696E7400 		.ascii	"int\000"
 989 002c 03       		.uleb128 0x3
 990 002d 5E000000 		.4byte	.LASF11
 991 0031 02       		.byte	0x2
 992 0032 D4       		.byte	0xd4
 993 0033 37000000 		.4byte	0x37
 994 0037 04       		.uleb128 0x4
 995 0038 04       		.byte	0x4
 996 0039 07       		.byte	0x7
 997 003a 43020000 		.4byte	.LASF0
 998 003e 04       		.uleb128 0x4
 999 003f 01       		.byte	0x1
 1000 0040 06       		.byte	0x6
 1001 0041 13030000 		.4byte	.LASF1
 1002 0045 04       		.uleb128 0x4
 1003 0046 01       		.byte	0x1
 1004 0047 08       		.byte	0x8
 1005 0048 35020000 		.4byte	.LASF2
 1006 004c 04       		.uleb128 0x4
 1007 004d 02       		.byte	0x2
 1008 004e 05       		.byte	0x5
 1009 004f BE020000 		.4byte	.LASF3
 1010 0053 04       		.uleb128 0x4
 1011 0054 02       		.byte	0x2
 1012 0055 07       		.byte	0x7
 1013 0056 9D000000 		.4byte	.LASF4
 1014 005a 04       		.uleb128 0x4
 1015 005b 04       		.byte	0x4
 1016 005c 05       		.byte	0x5
 1017 005d 05030000 		.4byte	.LASF5
 1018 0061 04       		.uleb128 0x4
 1019 0062 04       		.byte	0x4
 1020 0063 07       		.byte	0x7
 1021 0064 13010000 		.4byte	.LASF6
 1022 0068 04       		.uleb128 0x4
 1023 0069 08       		.byte	0x8
 1024 006a 05       		.byte	0x5
 1025 006b 8E020000 		.4byte	.LASF7
 1026 006f 04       		.uleb128 0x4
 1027 0070 08       		.byte	0x8
 1028 0071 07       		.byte	0x7
 1029 0072 58020000 		.4byte	.LASF8
 1030 0076 04       		.uleb128 0x4
 1031 0077 04       		.byte	0x4
 1032 0078 07       		.byte	0x7
 1033 0079 85020000 		.4byte	.LASF9
 1034 007d 05       		.uleb128 0x5
 1035 007e 04       		.byte	0x4
ARM GAS  C:\USERS\LUKAS\APPDATA\LOCAL\TEMP\cctz5fJI.s 			page 28


 1036 007f 04       		.uleb128 0x4
 1037 0080 01       		.byte	0x1
 1038 0081 08       		.byte	0x8
 1039 0082 0E030000 		.4byte	.LASF10
 1040 0086 03       		.uleb128 0x3
 1041 0087 25010000 		.4byte	.LASF12
 1042 008b 03       		.byte	0x3
 1043 008c 5B       		.byte	0x5b
 1044 008d 45000000 		.4byte	0x45
 1045 0091 03       		.uleb128 0x3
 1046 0092 12020000 		.4byte	.LASF13
 1047 0096 03       		.byte	0x3
 1048 0097 5C       		.byte	0x5c
 1049 0098 53000000 		.4byte	0x53
 1050 009c 03       		.uleb128 0x3
 1051 009d 2E020000 		.4byte	.LASF14
 1052 00a1 03       		.byte	0x3
 1053 00a2 5D       		.byte	0x5d
 1054 00a3 61000000 		.4byte	0x61
 1055 00a7 04       		.uleb128 0x4
 1056 00a8 04       		.byte	0x4
 1057 00a9 04       		.byte	0x4
 1058 00aa DA000000 		.4byte	.LASF15
 1059 00ae 04       		.uleb128 0x4
 1060 00af 08       		.byte	0x8
 1061 00b0 04       		.byte	0x4
 1062 00b1 E1010000 		.4byte	.LASF16
 1063 00b5 03       		.uleb128 0x3
 1064 00b6 0E010000 		.4byte	.LASF17
 1065 00ba 03       		.byte	0x3
 1066 00bb F0       		.byte	0xf0
 1067 00bc C0000000 		.4byte	0xc0
 1068 00c0 06       		.uleb128 0x6
 1069 00c1 86000000 		.4byte	0x86
 1070 00c5 03       		.uleb128 0x3
 1071 00c6 00000000 		.4byte	.LASF18
 1072 00ca 03       		.byte	0x3
 1073 00cb F1       		.byte	0xf1
 1074 00cc D0000000 		.4byte	0xd0
 1075 00d0 06       		.uleb128 0x6
 1076 00d1 91000000 		.4byte	0x91
 1077 00d5 07       		.uleb128 0x7
 1078 00d6 02       		.byte	0x2
 1079 00d7 01       		.byte	0x1
 1080 00d8 80       		.byte	0x80
 1081 00d9 F6000000 		.4byte	0xf6
 1082 00dd 08       		.uleb128 0x8
 1083 00de B7020000 		.4byte	.LASF19
 1084 00e2 01       		.byte	0x1
 1085 00e3 82       		.byte	0x82
 1086 00e4 86000000 		.4byte	0x86
 1087 00e8 00       		.byte	0
 1088 00e9 08       		.uleb128 0x8
 1089 00ea 76000000 		.4byte	.LASF20
 1090 00ee 01       		.byte	0x1
 1091 00ef 83       		.byte	0x83
 1092 00f0 86000000 		.4byte	0x86
ARM GAS  C:\USERS\LUKAS\APPDATA\LOCAL\TEMP\cctz5fJI.s 			page 29


 1093 00f4 01       		.byte	0x1
 1094 00f5 00       		.byte	0
 1095 00f6 03       		.uleb128 0x3
 1096 00f7 A4020000 		.4byte	.LASF21
 1097 00fb 01       		.byte	0x1
 1098 00fc 84       		.byte	0x84
 1099 00fd D5000000 		.4byte	0xd5
 1100 0101 09       		.uleb128 0x9
 1101 0102 2B010000 		.4byte	.LASF22
 1102 0106 01       		.byte	0x1
 1103 0107 3E       		.byte	0x3e
 1104 0108 00000000 		.4byte	.LFB0
 1105 010c 1A000000 		.4byte	.LFE0-.LFB0
 1106 0110 01       		.uleb128 0x1
 1107 0111 9C       		.byte	0x9c
 1108 0112 2F010000 		.4byte	0x12f
 1109 0116 0A       		.uleb128 0xa
 1110 0117 7300     		.ascii	"s\000"
 1111 0119 01       		.byte	0x1
 1112 011a 3E       		.byte	0x3e
 1113 011b 7D000000 		.4byte	0x7d
 1114 011f 02       		.uleb128 0x2
 1115 0120 91       		.byte	0x91
 1116 0121 74       		.sleb128 -12
 1117 0122 0A       		.uleb128 0xa
 1118 0123 6E00     		.ascii	"n\000"
 1119 0125 01       		.byte	0x1
 1120 0126 3E       		.byte	0x3e
 1121 0127 2C000000 		.4byte	0x2c
 1122 012b 02       		.uleb128 0x2
 1123 012c 91       		.byte	0x91
 1124 012d 70       		.sleb128 -16
 1125 012e 00       		.byte	0
 1126 012f 09       		.uleb128 0x9
 1127 0130 38030000 		.4byte	.LASF23
 1128 0134 01       		.byte	0x1
 1129 0135 45       		.byte	0x45
 1130 0136 00000000 		.4byte	.LFB1
 1131 013a 1C000000 		.4byte	.LFE1-.LFB1
 1132 013e 01       		.uleb128 0x1
 1133 013f 9C       		.byte	0x9c
 1134 0140 6D010000 		.4byte	0x16d
 1135 0144 0B       		.uleb128 0xb
 1136 0145 F4000000 		.4byte	.LASF24
 1137 0149 01       		.byte	0x1
 1138 014a 45       		.byte	0x45
 1139 014b 7D000000 		.4byte	0x7d
 1140 014f 02       		.uleb128 0x2
 1141 0150 91       		.byte	0x91
 1142 0151 74       		.sleb128 -12
 1143 0152 0A       		.uleb128 0xa
 1144 0153 73726300 		.ascii	"src\000"
 1145 0157 01       		.byte	0x1
 1146 0158 45       		.byte	0x45
 1147 0159 6D010000 		.4byte	0x16d
 1148 015d 02       		.uleb128 0x2
 1149 015e 91       		.byte	0x91
ARM GAS  C:\USERS\LUKAS\APPDATA\LOCAL\TEMP\cctz5fJI.s 			page 30


 1150 015f 70       		.sleb128 -16
 1151 0160 0A       		.uleb128 0xa
 1152 0161 6E00     		.ascii	"n\000"
 1153 0163 01       		.byte	0x1
 1154 0164 45       		.byte	0x45
 1155 0165 2C000000 		.4byte	0x2c
 1156 0169 02       		.uleb128 0x2
 1157 016a 91       		.byte	0x91
 1158 016b 6C       		.sleb128 -20
 1159 016c 00       		.byte	0
 1160 016d 0C       		.uleb128 0xc
 1161 016e 04       		.byte	0x4
 1162 016f 73010000 		.4byte	0x173
 1163 0173 0D       		.uleb128 0xd
 1164 0174 09       		.uleb128 0x9
 1165 0175 B0000000 		.4byte	.LASF25
 1166 0179 01       		.byte	0x1
 1167 017a 4C       		.byte	0x4c
 1168 017b 00000000 		.4byte	.LFB2
 1169 017f 1C000000 		.4byte	.LFE2-.LFB2
 1170 0183 01       		.uleb128 0x1
 1171 0184 9C       		.byte	0x9c
 1172 0185 B2010000 		.4byte	0x1b2
 1173 0189 0B       		.uleb128 0xb
 1174 018a F4000000 		.4byte	.LASF24
 1175 018e 01       		.byte	0x1
 1176 018f 4C       		.byte	0x4c
 1177 0190 7D000000 		.4byte	0x7d
 1178 0194 02       		.uleb128 0x2
 1179 0195 91       		.byte	0x91
 1180 0196 74       		.sleb128 -12
 1181 0197 0A       		.uleb128 0xa
 1182 0198 73726300 		.ascii	"src\000"
 1183 019c 01       		.byte	0x1
 1184 019d 4C       		.byte	0x4c
 1185 019e 6D010000 		.4byte	0x16d
 1186 01a2 02       		.uleb128 0x2
 1187 01a3 91       		.byte	0x91
 1188 01a4 70       		.sleb128 -16
 1189 01a5 0A       		.uleb128 0xa
 1190 01a6 6E00     		.ascii	"n\000"
 1191 01a8 01       		.byte	0x1
 1192 01a9 4C       		.byte	0x4c
 1193 01aa 2C000000 		.4byte	0x2c
 1194 01ae 02       		.uleb128 0x2
 1195 01af 91       		.byte	0x91
 1196 01b0 6C       		.sleb128 -20
 1197 01b1 00       		.byte	0
 1198 01b2 0E       		.uleb128 0xe
 1199 01b3 E0000000 		.4byte	.LASF26
 1200 01b7 01       		.byte	0x1
 1201 01b8 6C       		.byte	0x6c
 1202 01b9 00000000 		.4byte	.LFB3
 1203 01bd 0C000000 		.4byte	.LFE3-.LFB3
 1204 01c1 01       		.uleb128 0x1
 1205 01c2 9C       		.byte	0x9c
 1206 01c3 D6010000 		.4byte	0x1d6
ARM GAS  C:\USERS\LUKAS\APPDATA\LOCAL\TEMP\cctz5fJI.s 			page 31


 1207 01c7 0B       		.uleb128 0xb
 1208 01c8 24020000 		.4byte	.LASF27
 1209 01cc 01       		.byte	0x1
 1210 01cd 6C       		.byte	0x6c
 1211 01ce 86000000 		.4byte	0x86
 1212 01d2 02       		.uleb128 0x2
 1213 01d3 91       		.byte	0x91
 1214 01d4 77       		.sleb128 -9
 1215 01d5 00       		.byte	0
 1216 01d6 0E       		.uleb128 0xe
 1217 01d7 E8010000 		.4byte	.LASF28
 1218 01db 01       		.byte	0x1
 1219 01dc CC       		.byte	0xcc
 1220 01dd 00000000 		.4byte	.LFB4
 1221 01e1 74000000 		.4byte	.LFE4-.LFB4
 1222 01e5 01       		.uleb128 0x1
 1223 01e6 9C       		.byte	0x9c
 1224 01e7 46020000 		.4byte	0x246
 1225 01eb 0B       		.uleb128 0xb
 1226 01ec 07020000 		.4byte	.LASF29
 1227 01f0 01       		.byte	0x1
 1228 01f1 CC       		.byte	0xcc
 1229 01f2 46020000 		.4byte	0x246
 1230 01f6 02       		.uleb128 0x2
 1231 01f7 91       		.byte	0x91
 1232 01f8 64       		.sleb128 -28
 1233 01f9 0B       		.uleb128 0xb
 1234 01fa 19020000 		.4byte	.LASF30
 1235 01fe 01       		.byte	0x1
 1236 01ff CC       		.byte	0xcc
 1237 0200 51020000 		.4byte	0x251
 1238 0204 02       		.uleb128 0x2
 1239 0205 91       		.byte	0x91
 1240 0206 60       		.sleb128 -32
 1241 0207 0F       		.uleb128 0xf
 1242 0208 6900     		.ascii	"i\000"
 1243 020a 01       		.byte	0x1
 1244 020b CF       		.byte	0xcf
 1245 020c 9C000000 		.4byte	0x9c
 1246 0210 02       		.uleb128 0x2
 1247 0211 91       		.byte	0x91
 1248 0212 74       		.sleb128 -12
 1249 0213 0F       		.uleb128 0xf
 1250 0214 6A00     		.ascii	"j\000"
 1251 0216 01       		.byte	0x1
 1252 0217 CF       		.byte	0xcf
 1253 0218 9C000000 		.4byte	0x9c
 1254 021c 02       		.uleb128 0x2
 1255 021d 91       		.byte	0x91
 1256 021e 70       		.sleb128 -16
 1257 021f 10       		.uleb128 0x10
 1258 0220 14000000 		.4byte	.LBB2
 1259 0224 4A000000 		.4byte	.LBE2-.LBB2
 1260 0228 11       		.uleb128 0x11
 1261 0229 7C020000 		.4byte	.LASF31
 1262 022d 01       		.byte	0x1
 1263 022e D2       		.byte	0xd2
ARM GAS  C:\USERS\LUKAS\APPDATA\LOCAL\TEMP\cctz5fJI.s 			page 32


 1264 022f 9C000000 		.4byte	0x9c
 1265 0233 02       		.uleb128 0x2
 1266 0234 91       		.byte	0x91
 1267 0235 68       		.sleb128 -24
 1268 0236 11       		.uleb128 0x11
 1269 0237 7C000000 		.4byte	.LASF32
 1270 023b 01       		.byte	0x1
 1271 023c D3       		.byte	0xd3
 1272 023d 86000000 		.4byte	0x86
 1273 0241 02       		.uleb128 0x2
 1274 0242 91       		.byte	0x91
 1275 0243 6F       		.sleb128 -17
 1276 0244 00       		.byte	0
 1277 0245 00       		.byte	0
 1278 0246 0C       		.uleb128 0xc
 1279 0247 04       		.byte	0x4
 1280 0248 4C020000 		.4byte	0x24c
 1281 024c 12       		.uleb128 0x12
 1282 024d 9C000000 		.4byte	0x9c
 1283 0251 0C       		.uleb128 0xc
 1284 0252 04       		.byte	0x4
 1285 0253 57020000 		.4byte	0x257
 1286 0257 12       		.uleb128 0x12
 1287 0258 F6000000 		.4byte	0xf6
 1288 025c 09       		.uleb128 0x9
 1289 025d 82000000 		.4byte	.LASF33
 1290 0261 01       		.byte	0x1
 1291 0262 EF       		.byte	0xef
 1292 0263 00000000 		.4byte	.LFB5
 1293 0267 40010000 		.4byte	.LFE5-.LFB5
 1294 026b 01       		.uleb128 0x1
 1295 026c 9C       		.byte	0x9c
 1296 026d 8E020000 		.4byte	0x28e
 1297 0271 11       		.uleb128 0x11
 1298 0272 9C020000 		.4byte	.LASF34
 1299 0276 01       		.byte	0x1
 1300 0277 F1       		.byte	0xf1
 1301 0278 9C000000 		.4byte	0x9c
 1302 027c 02       		.uleb128 0x2
 1303 027d 91       		.byte	0x91
 1304 027e 74       		.sleb128 -12
 1305 027f 11       		.uleb128 0x11
 1306 0280 C0000000 		.4byte	.LASF35
 1307 0284 01       		.byte	0x1
 1308 0285 F2       		.byte	0xf2
 1309 0286 86000000 		.4byte	0x86
 1310 028a 02       		.uleb128 0x2
 1311 028b 91       		.byte	0x91
 1312 028c 73       		.sleb128 -13
 1313 028d 00       		.byte	0
 1314 028e 13       		.uleb128 0x13
 1315 028f 65000000 		.4byte	.LASF36
 1316 0293 01       		.byte	0x1
 1317 0294 3801     		.2byte	0x138
 1318 0296 00000000 		.4byte	.LFB6
 1319 029a 44000000 		.4byte	.LFE6-.LFB6
 1320 029e 01       		.uleb128 0x1
ARM GAS  C:\USERS\LUKAS\APPDATA\LOCAL\TEMP\cctz5fJI.s 			page 33


 1321 029f 9C       		.byte	0x9c
 1322 02a0 B4020000 		.4byte	0x2b4
 1323 02a4 14       		.uleb128 0x14
 1324 02a5 C8000000 		.4byte	.LASF37
 1325 02a9 01       		.byte	0x1
 1326 02aa 3A01     		.2byte	0x13a
 1327 02ac 86000000 		.4byte	0x86
 1328 02b0 02       		.uleb128 0x2
 1329 02b1 91       		.byte	0x91
 1330 02b2 77       		.sleb128 -9
 1331 02b3 00       		.byte	0
 1332 02b4 15       		.uleb128 0x15
 1333 02b5 35010000 		.4byte	.LASF52
 1334 02b9 01       		.byte	0x1
 1335 02ba 5201     		.2byte	0x152
 1336 02bc 00000000 		.4byte	.LFB7
 1337 02c0 28000000 		.4byte	.LFE7-.LFB7
 1338 02c4 01       		.uleb128 0x1
 1339 02c5 9C       		.byte	0x9c
 1340 02c6 E9020000 		.4byte	0x2e9
 1341 02ca 16       		.uleb128 0x16
 1342 02cb FD020000 		.4byte	.LASF38
 1343 02cf 01       		.byte	0x1
 1344 02d0 5201     		.2byte	0x152
 1345 02d2 86000000 		.4byte	0x86
 1346 02d6 02       		.uleb128 0x2
 1347 02d7 91       		.byte	0x91
 1348 02d8 6F       		.sleb128 -17
 1349 02d9 14       		.uleb128 0x14
 1350 02da 2F030000 		.4byte	.LASF39
 1351 02de 01       		.byte	0x1
 1352 02df 5401     		.2byte	0x154
 1353 02e1 86000000 		.4byte	0x86
 1354 02e5 02       		.uleb128 0x2
 1355 02e6 91       		.byte	0x91
 1356 02e7 77       		.sleb128 -9
 1357 02e8 00       		.byte	0
 1358 02e9 17       		.uleb128 0x17
 1359 02ea FA010000 		.4byte	.LASF53
 1360 02ee 01       		.byte	0x1
 1361 02ef 7401     		.2byte	0x174
 1362 02f1 00000000 		.4byte	.LFB8
 1363 02f5 E0020000 		.4byte	.LFE8-.LFB8
 1364 02f9 01       		.uleb128 0x1
 1365 02fa 9C       		.byte	0x9c
 1366 02fb 10       		.uleb128 0x10
 1367 02fc 08000000 		.4byte	.LBB3
 1368 0300 4A010000 		.4byte	.LBE3-.LBB3
 1369 0304 18       		.uleb128 0x18
 1370 0305 06       		.byte	0x6
 1371 0306 01       		.byte	0x1
 1372 0307 7D01     		.2byte	0x17d
 1373 0309 28030000 		.4byte	0x328
 1374 030d 19       		.uleb128 0x19
 1375 030e 50020000 		.4byte	.LASF40
 1376 0312 01       		.byte	0x1
 1377 0313 7E01     		.2byte	0x17e
ARM GAS  C:\USERS\LUKAS\APPDATA\LOCAL\TEMP\cctz5fJI.s 			page 34


 1378 0315 7D000000 		.4byte	0x7d
 1379 0319 00       		.byte	0
 1380 031a 19       		.uleb128 0x19
 1381 031b 09010000 		.4byte	.LASF41
 1382 031f 01       		.byte	0x1
 1383 0320 7F01     		.2byte	0x17f
 1384 0322 91000000 		.4byte	0x91
 1385 0326 04       		.byte	0x4
 1386 0327 00       		.byte	0
 1387 0328 1A       		.uleb128 0x1a
 1388 0329 6F020000 		.4byte	.LASF42
 1389 032d 01       		.byte	0x1
 1390 032e 8001     		.2byte	0x180
 1391 0330 04030000 		.4byte	0x304
 1392 0334 18       		.uleb128 0x18
 1393 0335 0A       		.byte	0xa
 1394 0336 01       		.byte	0x1
 1395 0337 8301     		.2byte	0x183
 1396 0339 65030000 		.4byte	0x365
 1397 033d 19       		.uleb128 0x19
 1398 033e F4000000 		.4byte	.LASF24
 1399 0342 01       		.byte	0x1
 1400 0343 8401     		.2byte	0x184
 1401 0345 7D000000 		.4byte	0x7d
 1402 0349 00       		.byte	0
 1403 034a 1B       		.uleb128 0x1b
 1404 034b 73726300 		.ascii	"src\000"
 1405 034f 01       		.byte	0x1
 1406 0350 8501     		.2byte	0x185
 1407 0352 6D010000 		.4byte	0x16d
 1408 0356 04       		.byte	0x4
 1409 0357 19       		.uleb128 0x19
 1410 0358 09010000 		.4byte	.LASF41
 1411 035c 01       		.byte	0x1
 1412 035d 8601     		.2byte	0x186
 1413 035f 91000000 		.4byte	0x91
 1414 0363 08       		.byte	0x8
 1415 0364 00       		.byte	0
 1416 0365 1A       		.uleb128 0x1a
 1417 0366 C8020000 		.4byte	.LASF43
 1418 036a 01       		.byte	0x1
 1419 036b 8701     		.2byte	0x187
 1420 036d 34030000 		.4byte	0x334
 1421 0371 1C       		.uleb128 0x1c
 1422 0372 28030000 		.4byte	0x328
 1423 0376 81030000 		.4byte	0x381
 1424 037a 1D       		.uleb128 0x1d
 1425 037b 76000000 		.4byte	0x76
 1426 037f 07       		.byte	0x7
 1427 0380 00       		.byte	0
 1428 0381 14       		.uleb128 0x14
 1429 0382 F9000000 		.4byte	.LASF44
 1430 0386 01       		.byte	0x1
 1431 0387 8901     		.2byte	0x189
 1432 0389 93030000 		.4byte	0x393
 1433 038d 05       		.uleb128 0x5
 1434 038e 03       		.byte	0x3
ARM GAS  C:\USERS\LUKAS\APPDATA\LOCAL\TEMP\cctz5fJI.s 			page 35


 1435 038f 00000000 		.4byte	cfg_memset_list.4841
 1436 0393 12       		.uleb128 0x12
 1437 0394 71030000 		.4byte	0x371
 1438 0398 1C       		.uleb128 0x1c
 1439 0399 65030000 		.4byte	0x365
 1440 039d A8030000 		.4byte	0x3a8
 1441 03a1 1D       		.uleb128 0x1d
 1442 03a2 76000000 		.4byte	0x76
 1443 03a6 03       		.byte	0x3
 1444 03a7 00       		.byte	0
 1445 03a8 14       		.uleb128 0x14
 1446 03a9 1F030000 		.4byte	.LASF45
 1447 03ad 01       		.byte	0x1
 1448 03ae 9501     		.2byte	0x195
 1449 03b0 BA030000 		.4byte	0x3ba
 1450 03b4 05       		.uleb128 0x5
 1451 03b5 03       		.byte	0x3
 1452 03b6 30000000 		.4byte	cfg_memcpy_list.4842
 1453 03ba 12       		.uleb128 0x12
 1454 03bb 98030000 		.4byte	0x398
 1455 03bf 1E       		.uleb128 0x1e
 1456 03c0 6900     		.ascii	"i\000"
 1457 03c2 01       		.byte	0x1
 1458 03c3 9D01     		.2byte	0x19d
 1459 03c5 86000000 		.4byte	0x86
 1460 03c9 02       		.uleb128 0x2
 1461 03ca 91       		.byte	0x91
 1462 03cb 77       		.sleb128 -9
 1463 03cc 1F       		.uleb128 0x1f
 1464 03cd 0E000000 		.4byte	.LBB4
 1465 03d1 22000000 		.4byte	.LBE4-.LBB4
 1466 03d5 F3030000 		.4byte	0x3f3
 1467 03d9 1E       		.uleb128 0x1e
 1468 03da 6D7300   		.ascii	"ms\000"
 1469 03dd 01       		.byte	0x1
 1470 03de A201     		.2byte	0x1a2
 1471 03e0 E7030000 		.4byte	0x3e7
 1472 03e4 02       		.uleb128 0x2
 1473 03e5 91       		.byte	0x91
 1474 03e6 70       		.sleb128 -16
 1475 03e7 0C       		.uleb128 0xc
 1476 03e8 04       		.byte	0x4
 1477 03e9 ED030000 		.4byte	0x3ed
 1478 03ed 12       		.uleb128 0x12
 1479 03ee 28030000 		.4byte	0x328
 1480 03f2 00       		.byte	0
 1481 03f3 10       		.uleb128 0x10
 1482 03f4 42000000 		.4byte	.LBB5
 1483 03f8 34000000 		.4byte	.LBE5-.LBB5
 1484 03fc 1E       		.uleb128 0x1e
 1485 03fd 6D6300   		.ascii	"mc\000"
 1486 0400 01       		.byte	0x1
 1487 0401 A901     		.2byte	0x1a9
 1488 0403 0A040000 		.4byte	0x40a
 1489 0407 02       		.uleb128 0x2
 1490 0408 91       		.byte	0x91
 1491 0409 6C       		.sleb128 -20
ARM GAS  C:\USERS\LUKAS\APPDATA\LOCAL\TEMP\cctz5fJI.s 			page 36


 1492 040a 0C       		.uleb128 0xc
 1493 040b 04       		.byte	0x4
 1494 040c 10040000 		.4byte	0x410
 1495 0410 12       		.uleb128 0x12
 1496 0411 65030000 		.4byte	0x365
 1497 0415 14       		.uleb128 0x14
 1498 0416 4B010000 		.4byte	.LASF46
 1499 041a 01       		.byte	0x1
 1500 041b AA01     		.2byte	0x1aa
 1501 041d 7D000000 		.4byte	0x7d
 1502 0421 02       		.uleb128 0x2
 1503 0422 91       		.byte	0x91
 1504 0423 68       		.sleb128 -24
 1505 0424 14       		.uleb128 0x14
 1506 0425 8D000000 		.4byte	.LASF47
 1507 0429 01       		.byte	0x1
 1508 042a AB01     		.2byte	0x1ab
 1509 042c 6D010000 		.4byte	0x16d
 1510 0430 02       		.uleb128 0x2
 1511 0431 91       		.byte	0x91
 1512 0432 64       		.sleb128 -28
 1513 0433 14       		.uleb128 0x14
 1514 0434 94000000 		.4byte	.LASF48
 1515 0438 01       		.byte	0x1
 1516 0439 AC01     		.2byte	0x1ac
 1517 043b 91000000 		.4byte	0x91
 1518 043f 02       		.uleb128 0x2
 1519 0440 91       		.byte	0x91
 1520 0441 62       		.sleb128 -30
 1521 0442 00       		.byte	0
 1522 0443 00       		.byte	0
 1523 0444 00       		.byte	0
 1524 0445 00       		.byte	0
 1525              		.section	.debug_abbrev,"",%progbits
 1526              	.Ldebug_abbrev0:
 1527 0000 01       		.uleb128 0x1
 1528 0001 11       		.uleb128 0x11
 1529 0002 01       		.byte	0x1
 1530 0003 25       		.uleb128 0x25
 1531 0004 0E       		.uleb128 0xe
 1532 0005 13       		.uleb128 0x13
 1533 0006 0B       		.uleb128 0xb
 1534 0007 03       		.uleb128 0x3
 1535 0008 0E       		.uleb128 0xe
 1536 0009 1B       		.uleb128 0x1b
 1537 000a 0E       		.uleb128 0xe
 1538 000b 55       		.uleb128 0x55
 1539 000c 17       		.uleb128 0x17
 1540 000d 11       		.uleb128 0x11
 1541 000e 01       		.uleb128 0x1
 1542 000f 10       		.uleb128 0x10
 1543 0010 17       		.uleb128 0x17
 1544 0011 00       		.byte	0
 1545 0012 00       		.byte	0
 1546 0013 02       		.uleb128 0x2
 1547 0014 24       		.uleb128 0x24
 1548 0015 00       		.byte	0
ARM GAS  C:\USERS\LUKAS\APPDATA\LOCAL\TEMP\cctz5fJI.s 			page 37


 1549 0016 0B       		.uleb128 0xb
 1550 0017 0B       		.uleb128 0xb
 1551 0018 3E       		.uleb128 0x3e
 1552 0019 0B       		.uleb128 0xb
 1553 001a 03       		.uleb128 0x3
 1554 001b 08       		.uleb128 0x8
 1555 001c 00       		.byte	0
 1556 001d 00       		.byte	0
 1557 001e 03       		.uleb128 0x3
 1558 001f 16       		.uleb128 0x16
 1559 0020 00       		.byte	0
 1560 0021 03       		.uleb128 0x3
 1561 0022 0E       		.uleb128 0xe
 1562 0023 3A       		.uleb128 0x3a
 1563 0024 0B       		.uleb128 0xb
 1564 0025 3B       		.uleb128 0x3b
 1565 0026 0B       		.uleb128 0xb
 1566 0027 49       		.uleb128 0x49
 1567 0028 13       		.uleb128 0x13
 1568 0029 00       		.byte	0
 1569 002a 00       		.byte	0
 1570 002b 04       		.uleb128 0x4
 1571 002c 24       		.uleb128 0x24
 1572 002d 00       		.byte	0
 1573 002e 0B       		.uleb128 0xb
 1574 002f 0B       		.uleb128 0xb
 1575 0030 3E       		.uleb128 0x3e
 1576 0031 0B       		.uleb128 0xb
 1577 0032 03       		.uleb128 0x3
 1578 0033 0E       		.uleb128 0xe
 1579 0034 00       		.byte	0
 1580 0035 00       		.byte	0
 1581 0036 05       		.uleb128 0x5
 1582 0037 0F       		.uleb128 0xf
 1583 0038 00       		.byte	0
 1584 0039 0B       		.uleb128 0xb
 1585 003a 0B       		.uleb128 0xb
 1586 003b 00       		.byte	0
 1587 003c 00       		.byte	0
 1588 003d 06       		.uleb128 0x6
 1589 003e 35       		.uleb128 0x35
 1590 003f 00       		.byte	0
 1591 0040 49       		.uleb128 0x49
 1592 0041 13       		.uleb128 0x13
 1593 0042 00       		.byte	0
 1594 0043 00       		.byte	0
 1595 0044 07       		.uleb128 0x7
 1596 0045 13       		.uleb128 0x13
 1597 0046 01       		.byte	0x1
 1598 0047 0B       		.uleb128 0xb
 1599 0048 0B       		.uleb128 0xb
 1600 0049 3A       		.uleb128 0x3a
 1601 004a 0B       		.uleb128 0xb
 1602 004b 3B       		.uleb128 0x3b
 1603 004c 0B       		.uleb128 0xb
 1604 004d 01       		.uleb128 0x1
 1605 004e 13       		.uleb128 0x13
ARM GAS  C:\USERS\LUKAS\APPDATA\LOCAL\TEMP\cctz5fJI.s 			page 38


 1606 004f 00       		.byte	0
 1607 0050 00       		.byte	0
 1608 0051 08       		.uleb128 0x8
 1609 0052 0D       		.uleb128 0xd
 1610 0053 00       		.byte	0
 1611 0054 03       		.uleb128 0x3
 1612 0055 0E       		.uleb128 0xe
 1613 0056 3A       		.uleb128 0x3a
 1614 0057 0B       		.uleb128 0xb
 1615 0058 3B       		.uleb128 0x3b
 1616 0059 0B       		.uleb128 0xb
 1617 005a 49       		.uleb128 0x49
 1618 005b 13       		.uleb128 0x13
 1619 005c 38       		.uleb128 0x38
 1620 005d 0B       		.uleb128 0xb
 1621 005e 00       		.byte	0
 1622 005f 00       		.byte	0
 1623 0060 09       		.uleb128 0x9
 1624 0061 2E       		.uleb128 0x2e
 1625 0062 01       		.byte	0x1
 1626 0063 03       		.uleb128 0x3
 1627 0064 0E       		.uleb128 0xe
 1628 0065 3A       		.uleb128 0x3a
 1629 0066 0B       		.uleb128 0xb
 1630 0067 3B       		.uleb128 0x3b
 1631 0068 0B       		.uleb128 0xb
 1632 0069 27       		.uleb128 0x27
 1633 006a 19       		.uleb128 0x19
 1634 006b 11       		.uleb128 0x11
 1635 006c 01       		.uleb128 0x1
 1636 006d 12       		.uleb128 0x12
 1637 006e 06       		.uleb128 0x6
 1638 006f 40       		.uleb128 0x40
 1639 0070 18       		.uleb128 0x18
 1640 0071 9642     		.uleb128 0x2116
 1641 0073 19       		.uleb128 0x19
 1642 0074 01       		.uleb128 0x1
 1643 0075 13       		.uleb128 0x13
 1644 0076 00       		.byte	0
 1645 0077 00       		.byte	0
 1646 0078 0A       		.uleb128 0xa
 1647 0079 05       		.uleb128 0x5
 1648 007a 00       		.byte	0
 1649 007b 03       		.uleb128 0x3
 1650 007c 08       		.uleb128 0x8
 1651 007d 3A       		.uleb128 0x3a
 1652 007e 0B       		.uleb128 0xb
 1653 007f 3B       		.uleb128 0x3b
 1654 0080 0B       		.uleb128 0xb
 1655 0081 49       		.uleb128 0x49
 1656 0082 13       		.uleb128 0x13
 1657 0083 02       		.uleb128 0x2
 1658 0084 18       		.uleb128 0x18
 1659 0085 00       		.byte	0
 1660 0086 00       		.byte	0
 1661 0087 0B       		.uleb128 0xb
 1662 0088 05       		.uleb128 0x5
ARM GAS  C:\USERS\LUKAS\APPDATA\LOCAL\TEMP\cctz5fJI.s 			page 39


 1663 0089 00       		.byte	0
 1664 008a 03       		.uleb128 0x3
 1665 008b 0E       		.uleb128 0xe
 1666 008c 3A       		.uleb128 0x3a
 1667 008d 0B       		.uleb128 0xb
 1668 008e 3B       		.uleb128 0x3b
 1669 008f 0B       		.uleb128 0xb
 1670 0090 49       		.uleb128 0x49
 1671 0091 13       		.uleb128 0x13
 1672 0092 02       		.uleb128 0x2
 1673 0093 18       		.uleb128 0x18
 1674 0094 00       		.byte	0
 1675 0095 00       		.byte	0
 1676 0096 0C       		.uleb128 0xc
 1677 0097 0F       		.uleb128 0xf
 1678 0098 00       		.byte	0
 1679 0099 0B       		.uleb128 0xb
 1680 009a 0B       		.uleb128 0xb
 1681 009b 49       		.uleb128 0x49
 1682 009c 13       		.uleb128 0x13
 1683 009d 00       		.byte	0
 1684 009e 00       		.byte	0
 1685 009f 0D       		.uleb128 0xd
 1686 00a0 26       		.uleb128 0x26
 1687 00a1 00       		.byte	0
 1688 00a2 00       		.byte	0
 1689 00a3 00       		.byte	0
 1690 00a4 0E       		.uleb128 0xe
 1691 00a5 2E       		.uleb128 0x2e
 1692 00a6 01       		.byte	0x1
 1693 00a7 03       		.uleb128 0x3
 1694 00a8 0E       		.uleb128 0xe
 1695 00a9 3A       		.uleb128 0x3a
 1696 00aa 0B       		.uleb128 0xb
 1697 00ab 3B       		.uleb128 0x3b
 1698 00ac 0B       		.uleb128 0xb
 1699 00ad 27       		.uleb128 0x27
 1700 00ae 19       		.uleb128 0x19
 1701 00af 11       		.uleb128 0x11
 1702 00b0 01       		.uleb128 0x1
 1703 00b1 12       		.uleb128 0x12
 1704 00b2 06       		.uleb128 0x6
 1705 00b3 40       		.uleb128 0x40
 1706 00b4 18       		.uleb128 0x18
 1707 00b5 9742     		.uleb128 0x2117
 1708 00b7 19       		.uleb128 0x19
 1709 00b8 01       		.uleb128 0x1
 1710 00b9 13       		.uleb128 0x13
 1711 00ba 00       		.byte	0
 1712 00bb 00       		.byte	0
 1713 00bc 0F       		.uleb128 0xf
 1714 00bd 34       		.uleb128 0x34
 1715 00be 00       		.byte	0
 1716 00bf 03       		.uleb128 0x3
 1717 00c0 08       		.uleb128 0x8
 1718 00c1 3A       		.uleb128 0x3a
 1719 00c2 0B       		.uleb128 0xb
ARM GAS  C:\USERS\LUKAS\APPDATA\LOCAL\TEMP\cctz5fJI.s 			page 40


 1720 00c3 3B       		.uleb128 0x3b
 1721 00c4 0B       		.uleb128 0xb
 1722 00c5 49       		.uleb128 0x49
 1723 00c6 13       		.uleb128 0x13
 1724 00c7 02       		.uleb128 0x2
 1725 00c8 18       		.uleb128 0x18
 1726 00c9 00       		.byte	0
 1727 00ca 00       		.byte	0
 1728 00cb 10       		.uleb128 0x10
 1729 00cc 0B       		.uleb128 0xb
 1730 00cd 01       		.byte	0x1
 1731 00ce 11       		.uleb128 0x11
 1732 00cf 01       		.uleb128 0x1
 1733 00d0 12       		.uleb128 0x12
 1734 00d1 06       		.uleb128 0x6
 1735 00d2 00       		.byte	0
 1736 00d3 00       		.byte	0
 1737 00d4 11       		.uleb128 0x11
 1738 00d5 34       		.uleb128 0x34
 1739 00d6 00       		.byte	0
 1740 00d7 03       		.uleb128 0x3
 1741 00d8 0E       		.uleb128 0xe
 1742 00d9 3A       		.uleb128 0x3a
 1743 00da 0B       		.uleb128 0xb
 1744 00db 3B       		.uleb128 0x3b
 1745 00dc 0B       		.uleb128 0xb
 1746 00dd 49       		.uleb128 0x49
 1747 00de 13       		.uleb128 0x13
 1748 00df 02       		.uleb128 0x2
 1749 00e0 18       		.uleb128 0x18
 1750 00e1 00       		.byte	0
 1751 00e2 00       		.byte	0
 1752 00e3 12       		.uleb128 0x12
 1753 00e4 26       		.uleb128 0x26
 1754 00e5 00       		.byte	0
 1755 00e6 49       		.uleb128 0x49
 1756 00e7 13       		.uleb128 0x13
 1757 00e8 00       		.byte	0
 1758 00e9 00       		.byte	0
 1759 00ea 13       		.uleb128 0x13
 1760 00eb 2E       		.uleb128 0x2e
 1761 00ec 01       		.byte	0x1
 1762 00ed 03       		.uleb128 0x3
 1763 00ee 0E       		.uleb128 0xe
 1764 00ef 3A       		.uleb128 0x3a
 1765 00f0 0B       		.uleb128 0xb
 1766 00f1 3B       		.uleb128 0x3b
 1767 00f2 05       		.uleb128 0x5
 1768 00f3 27       		.uleb128 0x27
 1769 00f4 19       		.uleb128 0x19
 1770 00f5 11       		.uleb128 0x11
 1771 00f6 01       		.uleb128 0x1
 1772 00f7 12       		.uleb128 0x12
 1773 00f8 06       		.uleb128 0x6
 1774 00f9 40       		.uleb128 0x40
 1775 00fa 18       		.uleb128 0x18
 1776 00fb 9742     		.uleb128 0x2117
ARM GAS  C:\USERS\LUKAS\APPDATA\LOCAL\TEMP\cctz5fJI.s 			page 41


 1777 00fd 19       		.uleb128 0x19
 1778 00fe 01       		.uleb128 0x1
 1779 00ff 13       		.uleb128 0x13
 1780 0100 00       		.byte	0
 1781 0101 00       		.byte	0
 1782 0102 14       		.uleb128 0x14
 1783 0103 34       		.uleb128 0x34
 1784 0104 00       		.byte	0
 1785 0105 03       		.uleb128 0x3
 1786 0106 0E       		.uleb128 0xe
 1787 0107 3A       		.uleb128 0x3a
 1788 0108 0B       		.uleb128 0xb
 1789 0109 3B       		.uleb128 0x3b
 1790 010a 05       		.uleb128 0x5
 1791 010b 49       		.uleb128 0x49
 1792 010c 13       		.uleb128 0x13
 1793 010d 02       		.uleb128 0x2
 1794 010e 18       		.uleb128 0x18
 1795 010f 00       		.byte	0
 1796 0110 00       		.byte	0
 1797 0111 15       		.uleb128 0x15
 1798 0112 2E       		.uleb128 0x2e
 1799 0113 01       		.byte	0x1
 1800 0114 3F       		.uleb128 0x3f
 1801 0115 19       		.uleb128 0x19
 1802 0116 03       		.uleb128 0x3
 1803 0117 0E       		.uleb128 0xe
 1804 0118 3A       		.uleb128 0x3a
 1805 0119 0B       		.uleb128 0xb
 1806 011a 3B       		.uleb128 0x3b
 1807 011b 05       		.uleb128 0x5
 1808 011c 27       		.uleb128 0x27
 1809 011d 19       		.uleb128 0x19
 1810 011e 11       		.uleb128 0x11
 1811 011f 01       		.uleb128 0x1
 1812 0120 12       		.uleb128 0x12
 1813 0121 06       		.uleb128 0x6
 1814 0122 40       		.uleb128 0x40
 1815 0123 18       		.uleb128 0x18
 1816 0124 9742     		.uleb128 0x2117
 1817 0126 19       		.uleb128 0x19
 1818 0127 01       		.uleb128 0x1
 1819 0128 13       		.uleb128 0x13
 1820 0129 00       		.byte	0
 1821 012a 00       		.byte	0
 1822 012b 16       		.uleb128 0x16
 1823 012c 05       		.uleb128 0x5
 1824 012d 00       		.byte	0
 1825 012e 03       		.uleb128 0x3
 1826 012f 0E       		.uleb128 0xe
 1827 0130 3A       		.uleb128 0x3a
 1828 0131 0B       		.uleb128 0xb
 1829 0132 3B       		.uleb128 0x3b
 1830 0133 05       		.uleb128 0x5
 1831 0134 49       		.uleb128 0x49
 1832 0135 13       		.uleb128 0x13
 1833 0136 02       		.uleb128 0x2
ARM GAS  C:\USERS\LUKAS\APPDATA\LOCAL\TEMP\cctz5fJI.s 			page 42


 1834 0137 18       		.uleb128 0x18
 1835 0138 00       		.byte	0
 1836 0139 00       		.byte	0
 1837 013a 17       		.uleb128 0x17
 1838 013b 2E       		.uleb128 0x2e
 1839 013c 01       		.byte	0x1
 1840 013d 3F       		.uleb128 0x3f
 1841 013e 19       		.uleb128 0x19
 1842 013f 03       		.uleb128 0x3
 1843 0140 0E       		.uleb128 0xe
 1844 0141 3A       		.uleb128 0x3a
 1845 0142 0B       		.uleb128 0xb
 1846 0143 3B       		.uleb128 0x3b
 1847 0144 05       		.uleb128 0x5
 1848 0145 27       		.uleb128 0x27
 1849 0146 19       		.uleb128 0x19
 1850 0147 11       		.uleb128 0x11
 1851 0148 01       		.uleb128 0x1
 1852 0149 12       		.uleb128 0x12
 1853 014a 06       		.uleb128 0x6
 1854 014b 40       		.uleb128 0x40
 1855 014c 18       		.uleb128 0x18
 1856 014d 9642     		.uleb128 0x2116
 1857 014f 19       		.uleb128 0x19
 1858 0150 00       		.byte	0
 1859 0151 00       		.byte	0
 1860 0152 18       		.uleb128 0x18
 1861 0153 13       		.uleb128 0x13
 1862 0154 01       		.byte	0x1
 1863 0155 0B       		.uleb128 0xb
 1864 0156 0B       		.uleb128 0xb
 1865 0157 3A       		.uleb128 0x3a
 1866 0158 0B       		.uleb128 0xb
 1867 0159 3B       		.uleb128 0x3b
 1868 015a 05       		.uleb128 0x5
 1869 015b 01       		.uleb128 0x1
 1870 015c 13       		.uleb128 0x13
 1871 015d 00       		.byte	0
 1872 015e 00       		.byte	0
 1873 015f 19       		.uleb128 0x19
 1874 0160 0D       		.uleb128 0xd
 1875 0161 00       		.byte	0
 1876 0162 03       		.uleb128 0x3
 1877 0163 0E       		.uleb128 0xe
 1878 0164 3A       		.uleb128 0x3a
 1879 0165 0B       		.uleb128 0xb
 1880 0166 3B       		.uleb128 0x3b
 1881 0167 05       		.uleb128 0x5
 1882 0168 49       		.uleb128 0x49
 1883 0169 13       		.uleb128 0x13
 1884 016a 38       		.uleb128 0x38
 1885 016b 0B       		.uleb128 0xb
 1886 016c 00       		.byte	0
 1887 016d 00       		.byte	0
 1888 016e 1A       		.uleb128 0x1a
 1889 016f 16       		.uleb128 0x16
 1890 0170 00       		.byte	0
ARM GAS  C:\USERS\LUKAS\APPDATA\LOCAL\TEMP\cctz5fJI.s 			page 43


 1891 0171 03       		.uleb128 0x3
 1892 0172 0E       		.uleb128 0xe
 1893 0173 3A       		.uleb128 0x3a
 1894 0174 0B       		.uleb128 0xb
 1895 0175 3B       		.uleb128 0x3b
 1896 0176 05       		.uleb128 0x5
 1897 0177 49       		.uleb128 0x49
 1898 0178 13       		.uleb128 0x13
 1899 0179 00       		.byte	0
 1900 017a 00       		.byte	0
 1901 017b 1B       		.uleb128 0x1b
 1902 017c 0D       		.uleb128 0xd
 1903 017d 00       		.byte	0
 1904 017e 03       		.uleb128 0x3
 1905 017f 08       		.uleb128 0x8
 1906 0180 3A       		.uleb128 0x3a
 1907 0181 0B       		.uleb128 0xb
 1908 0182 3B       		.uleb128 0x3b
 1909 0183 05       		.uleb128 0x5
 1910 0184 49       		.uleb128 0x49
 1911 0185 13       		.uleb128 0x13
 1912 0186 38       		.uleb128 0x38
 1913 0187 0B       		.uleb128 0xb
 1914 0188 00       		.byte	0
 1915 0189 00       		.byte	0
 1916 018a 1C       		.uleb128 0x1c
 1917 018b 01       		.uleb128 0x1
 1918 018c 01       		.byte	0x1
 1919 018d 49       		.uleb128 0x49
 1920 018e 13       		.uleb128 0x13
 1921 018f 01       		.uleb128 0x1
 1922 0190 13       		.uleb128 0x13
 1923 0191 00       		.byte	0
 1924 0192 00       		.byte	0
 1925 0193 1D       		.uleb128 0x1d
 1926 0194 21       		.uleb128 0x21
 1927 0195 00       		.byte	0
 1928 0196 49       		.uleb128 0x49
 1929 0197 13       		.uleb128 0x13
 1930 0198 2F       		.uleb128 0x2f
 1931 0199 0B       		.uleb128 0xb
 1932 019a 00       		.byte	0
 1933 019b 00       		.byte	0
 1934 019c 1E       		.uleb128 0x1e
 1935 019d 34       		.uleb128 0x34
 1936 019e 00       		.byte	0
 1937 019f 03       		.uleb128 0x3
 1938 01a0 08       		.uleb128 0x8
 1939 01a1 3A       		.uleb128 0x3a
 1940 01a2 0B       		.uleb128 0xb
 1941 01a3 3B       		.uleb128 0x3b
 1942 01a4 05       		.uleb128 0x5
 1943 01a5 49       		.uleb128 0x49
 1944 01a6 13       		.uleb128 0x13
 1945 01a7 02       		.uleb128 0x2
 1946 01a8 18       		.uleb128 0x18
 1947 01a9 00       		.byte	0
ARM GAS  C:\USERS\LUKAS\APPDATA\LOCAL\TEMP\cctz5fJI.s 			page 44


 1948 01aa 00       		.byte	0
 1949 01ab 1F       		.uleb128 0x1f
 1950 01ac 0B       		.uleb128 0xb
 1951 01ad 01       		.byte	0x1
 1952 01ae 11       		.uleb128 0x11
 1953 01af 01       		.uleb128 0x1
 1954 01b0 12       		.uleb128 0x12
 1955 01b1 06       		.uleb128 0x6
 1956 01b2 01       		.uleb128 0x1
 1957 01b3 13       		.uleb128 0x13
 1958 01b4 00       		.byte	0
 1959 01b5 00       		.byte	0
 1960 01b6 00       		.byte	0
 1961              		.section	.debug_aranges,"",%progbits
 1962 0000 5C000000 		.4byte	0x5c
 1963 0004 0200     		.2byte	0x2
 1964 0006 00000000 		.4byte	.Ldebug_info0
 1965 000a 04       		.byte	0x4
 1966 000b 00       		.byte	0
 1967 000c 0000     		.2byte	0
 1968 000e 0000     		.2byte	0
 1969 0010 00000000 		.4byte	.LFB0
 1970 0014 1A000000 		.4byte	.LFE0-.LFB0
 1971 0018 00000000 		.4byte	.LFB1
 1972 001c 1C000000 		.4byte	.LFE1-.LFB1
 1973 0020 00000000 		.4byte	.LFB2
 1974 0024 1C000000 		.4byte	.LFE2-.LFB2
 1975 0028 00000000 		.4byte	.LFB3
 1976 002c 0C000000 		.4byte	.LFE3-.LFB3
 1977 0030 00000000 		.4byte	.LFB4
 1978 0034 74000000 		.4byte	.LFE4-.LFB4
 1979 0038 00000000 		.4byte	.LFB5
 1980 003c 40010000 		.4byte	.LFE5-.LFB5
 1981 0040 00000000 		.4byte	.LFB6
 1982 0044 44000000 		.4byte	.LFE6-.LFB6
 1983 0048 00000000 		.4byte	.LFB7
 1984 004c 28000000 		.4byte	.LFE7-.LFB7
 1985 0050 00000000 		.4byte	.LFB8
 1986 0054 E0020000 		.4byte	.LFE8-.LFB8
 1987 0058 00000000 		.4byte	0
 1988 005c 00000000 		.4byte	0
 1989              		.section	.debug_ranges,"",%progbits
 1990              	.Ldebug_ranges0:
 1991 0000 00000000 		.4byte	.LFB0
 1992 0004 1A000000 		.4byte	.LFE0
 1993 0008 00000000 		.4byte	.LFB1
 1994 000c 1C000000 		.4byte	.LFE1
 1995 0010 00000000 		.4byte	.LFB2
 1996 0014 1C000000 		.4byte	.LFE2
 1997 0018 00000000 		.4byte	.LFB3
 1998 001c 0C000000 		.4byte	.LFE3
 1999 0020 00000000 		.4byte	.LFB4
 2000 0024 74000000 		.4byte	.LFE4
 2001 0028 00000000 		.4byte	.LFB5
 2002 002c 40010000 		.4byte	.LFE5
 2003 0030 00000000 		.4byte	.LFB6
 2004 0034 44000000 		.4byte	.LFE6
ARM GAS  C:\USERS\LUKAS\APPDATA\LOCAL\TEMP\cctz5fJI.s 			page 45


 2005 0038 00000000 		.4byte	.LFB7
 2006 003c 28000000 		.4byte	.LFE7
 2007 0040 00000000 		.4byte	.LFB8
 2008 0044 E0020000 		.4byte	.LFE8
 2009 0048 00000000 		.4byte	0
 2010 004c 00000000 		.4byte	0
 2011              		.section	.debug_line,"",%progbits
 2012              	.Ldebug_line0:
 2013 0000 36020000 		.section	.debug_str,"MS",%progbits,1
 2013      0200CD00 
 2013      00000201 
 2013      FB0E0D00 
 2013      01010101 
 2014              	.LASF18:
 2015 0000 72656731 		.ascii	"reg16\000"
 2015      3600
 2016              	.LASF51:
 2017 0006 433A5C55 		.ascii	"C:\\Users\\lukas\\Desktop\\PioneerKit_P5LP_USB_Audi"
 2017      73657273 
 2017      5C6C756B 
 2017      61735C44 
 2017      65736B74 
 2018 0035 6F2D6D61 		.ascii	"o-master\\PioneerKit_P5LP_USB_Audio.cydsn\000"
 2018      73746572 
 2018      5C50696F 
 2018      6E656572 
 2018      4B69745F 
 2019              	.LASF11:
 2020 005e 73697A65 		.ascii	"size_t\000"
 2020      5F7400
 2021              	.LASF36:
 2022 0065 416E616C 		.ascii	"AnalogSetDefault\000"
 2022      6F675365 
 2022      74446566 
 2022      61756C74 
 2022      00
 2023              	.LASF20:
 2024 0076 76616C75 		.ascii	"value\000"
 2024      6500
 2025              	.LASF32:
 2026 007c 636F756E 		.ascii	"count\000"
 2026      7400
 2027              	.LASF33:
 2028 0082 436C6F63 		.ascii	"ClockSetup\000"
 2028      6B536574 
 2028      757000
 2029              	.LASF47:
 2030 008d 73726350 		.ascii	"srcPtr\000"
 2030      747200
 2031              	.LASF48:
 2032 0094 6E756D42 		.ascii	"numBytes\000"
 2032      79746573 
 2032      00
 2033              	.LASF4:
 2034 009d 73686F72 		.ascii	"short unsigned int\000"
 2034      7420756E 
 2034      7369676E 
ARM GAS  C:\USERS\LUKAS\APPDATA\LOCAL\TEMP\cctz5fJI.s 			page 46


 2034      65642069 
 2034      6E7400
 2035              	.LASF25:
 2036 00b0 4359434F 		.ascii	"CYCONFIGCPYCODE\000"
 2036      4E464947 
 2036      43505943 
 2036      4F444500 
 2037              	.LASF35:
 2038 00c0 706C6C4C 		.ascii	"pllLock\000"
 2038      6F636B00 
 2039              	.LASF37:
 2040 00c8 62675F78 		.ascii	"bg_xover_inl_trim\000"
 2040      6F766572 
 2040      5F696E6C 
 2040      5F747269 
 2040      6D00
 2041              	.LASF15:
 2042 00da 666C6F61 		.ascii	"float\000"
 2042      7400
 2043              	.LASF26:
 2044 00e0 4379436C 		.ascii	"CyClockStartupError\000"
 2044      6F636B53 
 2044      74617274 
 2044      75704572 
 2044      726F7200 
 2045              	.LASF24:
 2046 00f4 64657374 		.ascii	"dest\000"
 2046      00
 2047              	.LASF44:
 2048 00f9 6366675F 		.ascii	"cfg_memset_list\000"
 2048      6D656D73 
 2048      65745F6C 
 2048      69737400 
 2049              	.LASF41:
 2050 0109 73697A65 		.ascii	"size\000"
 2050      00
 2051              	.LASF17:
 2052 010e 72656738 		.ascii	"reg8\000"
 2052      00
 2053              	.LASF6:
 2054 0113 6C6F6E67 		.ascii	"long unsigned int\000"
 2054      20756E73 
 2054      69676E65 
 2054      6420696E 
 2054      7400
 2055              	.LASF12:
 2056 0125 75696E74 		.ascii	"uint8\000"
 2056      3800
 2057              	.LASF22:
 2058 012b 43594D45 		.ascii	"CYMEMZERO\000"
 2058      4D5A4552 
 2058      4F00
 2059              	.LASF52:
 2060 0135 53657441 		.ascii	"SetAnalogRoutingPumps\000"
 2060      6E616C6F 
 2060      67526F75 
 2060      74696E67 
ARM GAS  C:\USERS\LUKAS\APPDATA\LOCAL\TEMP\cctz5fJI.s 			page 47


 2060      50756D70 
 2061              	.LASF46:
 2062 014b 64657374 		.ascii	"destPtr\000"
 2062      50747200 
 2063              	.LASF49:
 2064 0153 474E5520 		.ascii	"GNU C 4.9.3 20150303 (release) [ARM/embedded-4_9-br"
 2064      4320342E 
 2064      392E3320 
 2064      32303135 
 2064      30333033 
 2065 0186 616E6368 		.ascii	"anch revision 221220] -mcpu=cortex-m3 -mthumb -g -O"
 2065      20726576 
 2065      6973696F 
 2065      6E203232 
 2065      31323230 
 2066 01b9 30202D66 		.ascii	"0 -ffunction-sections -ffat-lto-objects\000"
 2066      66756E63 
 2066      74696F6E 
 2066      2D736563 
 2066      74696F6E 
 2067              	.LASF16:
 2068 01e1 646F7562 		.ascii	"double\000"
 2068      6C6500
 2069              	.LASF28:
 2070 01e8 6366675F 		.ascii	"cfg_write_bytes32\000"
 2070      77726974 
 2070      655F6279 
 2070      74657333 
 2070      3200
 2071              	.LASF53:
 2072 01fa 63796669 		.ascii	"cyfitter_cfg\000"
 2072      74746572 
 2072      5F636667 
 2072      00
 2073              	.LASF29:
 2074 0207 61646472 		.ascii	"addr_table\000"
 2074      5F746162 
 2074      6C6500
 2075              	.LASF13:
 2076 0212 75696E74 		.ascii	"uint16\000"
 2076      313600
 2077              	.LASF30:
 2078 0219 64617461 		.ascii	"data_table\000"
 2078      5F746162 
 2078      6C6500
 2079              	.LASF27:
 2080 0224 6572726F 		.ascii	"errorCode\000"
 2080      72436F64 
 2080      6500
 2081              	.LASF14:
 2082 022e 75696E74 		.ascii	"uint32\000"
 2082      333200
 2083              	.LASF2:
 2084 0235 756E7369 		.ascii	"unsigned char\000"
 2084      676E6564 
 2084      20636861 
 2084      7200
ARM GAS  C:\USERS\LUKAS\APPDATA\LOCAL\TEMP\cctz5fJI.s 			page 48


 2085              	.LASF0:
 2086 0243 756E7369 		.ascii	"unsigned int\000"
 2086      676E6564 
 2086      20696E74 
 2086      00
 2087              	.LASF40:
 2088 0250 61646472 		.ascii	"address\000"
 2088      65737300 
 2089              	.LASF8:
 2090 0258 6C6F6E67 		.ascii	"long long unsigned int\000"
 2090      206C6F6E 
 2090      6720756E 
 2090      7369676E 
 2090      65642069 
 2091              	.LASF42:
 2092 026f 6366675F 		.ascii	"cfg_memset_t\000"
 2092      6D656D73 
 2092      65745F74 
 2092      00
 2093              	.LASF31:
 2094 027c 62617365 		.ascii	"baseAddr\000"
 2094      41646472 
 2094      00
 2095              	.LASF9:
 2096 0285 73697A65 		.ascii	"sizetype\000"
 2096      74797065 
 2096      00
 2097              	.LASF7:
 2098 028e 6C6F6E67 		.ascii	"long long int\000"
 2098      206C6F6E 
 2098      6720696E 
 2098      7400
 2099              	.LASF34:
 2100 029c 74696D65 		.ascii	"timeout\000"
 2100      6F757400 
 2101              	.LASF21:
 2102 02a4 63795F63 		.ascii	"cy_cfg_addrvalue_t\000"
 2102      66675F61 
 2102      64647276 
 2102      616C7565 
 2102      5F7400
 2103              	.LASF19:
 2104 02b7 6F666673 		.ascii	"offset\000"
 2104      657400
 2105              	.LASF3:
 2106 02be 73686F72 		.ascii	"short int\000"
 2106      7420696E 
 2106      7400
 2107              	.LASF43:
 2108 02c8 6366675F 		.ascii	"cfg_memcpy_t\000"
 2108      6D656D63 
 2108      70795F74 
 2108      00
 2109              	.LASF50:
 2110 02d5 2E5C4765 		.ascii	".\\Generated_Source\\PSoC5\\cyfitter_cfg.c\000"
 2110      6E657261 
 2110      7465645F 
ARM GAS  C:\USERS\LUKAS\APPDATA\LOCAL\TEMP\cctz5fJI.s 			page 49


 2110      536F7572 
 2110      63655C50 
 2111              	.LASF38:
 2112 02fd 656E6162 		.ascii	"enabled\000"
 2112      6C656400 
 2113              	.LASF5:
 2114 0305 6C6F6E67 		.ascii	"long int\000"
 2114      20696E74 
 2114      00
 2115              	.LASF10:
 2116 030e 63686172 		.ascii	"char\000"
 2116      00
 2117              	.LASF1:
 2118 0313 7369676E 		.ascii	"signed char\000"
 2118      65642063 
 2118      68617200 
 2119              	.LASF45:
 2120 031f 6366675F 		.ascii	"cfg_memcpy_list\000"
 2120      6D656D63 
 2120      70795F6C 
 2120      69737400 
 2121              	.LASF39:
 2122 032f 72656756 		.ascii	"regValue\000"
 2122      616C7565 
 2122      00
 2123              	.LASF23:
 2124 0338 4359434F 		.ascii	"CYCONFIGCPY\000"
 2124      4E464947 
 2124      43505900 
 2125              		.ident	"GCC: (GNU Tools for ARM Embedded Processors) 4.9.3 20150303 (release) [ARM/embedded-4_9-br
