ARM GAS  C:\USERS\LUKAS\APPDATA\LOCAL\TEMP\cctz5fJI.s 			page 1


   1              		.syntax unified
   2              		.cpu cortex-m3
   3              		.fpu softvfp
   4              		.eabi_attribute 20, 1
   5              		.eabi_attribute 21, 1
   6              		.eabi_attribute 23, 3
   7              		.eabi_attribute 24, 1
   8              		.eabi_attribute 25, 1
   9              		.eabi_attribute 26, 1
  10              		.eabi_attribute 30, 6
  11              		.eabi_attribute 34, 1
  12              		.eabi_attribute 18, 4
  13              		.thumb
  14              		.file	"cyfitter_cfg.c"
  15              		.text
  16              	.Ltext0:
  17              		.cfi_sections	.debug_frame
  18              		.section	.text.CYMEMZERO,"ax",%progbits
  19              		.align	2
  20              		.thumb
  21              		.thumb_func
  22              		.type	CYMEMZERO, %function
  23              	CYMEMZERO:
  24              	.LFB0:
  25              		.file 1 ".\\Generated_Source\\PSoC5\\cyfitter_cfg.c"
   1:.\Generated_Source\PSoC5/cyfitter_cfg.c **** /*******************************************************************************
   2:.\Generated_Source\PSoC5/cyfitter_cfg.c **** * File Name: cyfitter_cfg.c
   3:.\Generated_Source\PSoC5/cyfitter_cfg.c **** * 
   4:.\Generated_Source\PSoC5/cyfitter_cfg.c **** * PSoC Creator  3.3 SP1
   5:.\Generated_Source\PSoC5/cyfitter_cfg.c **** *
   6:.\Generated_Source\PSoC5/cyfitter_cfg.c **** * Description:
   7:.\Generated_Source\PSoC5/cyfitter_cfg.c **** * This file contains device initialization code.
   8:.\Generated_Source\PSoC5/cyfitter_cfg.c **** * Except for the user defined sections in CyClockStartupError(), this file should not be modified.
   9:.\Generated_Source\PSoC5/cyfitter_cfg.c **** * This file is automatically generated by PSoC Creator.
  10:.\Generated_Source\PSoC5/cyfitter_cfg.c **** *
  11:.\Generated_Source\PSoC5/cyfitter_cfg.c **** ********************************************************************************
  12:.\Generated_Source\PSoC5/cyfitter_cfg.c **** * Copyright (c) 2007-2015 Cypress Semiconductor.  All rights reserved.
  13:.\Generated_Source\PSoC5/cyfitter_cfg.c **** * You may use this file only in accordance with the license, terms, conditions, 
  14:.\Generated_Source\PSoC5/cyfitter_cfg.c **** * disclaimers, and limitations in the end user license agreement accompanying 
  15:.\Generated_Source\PSoC5/cyfitter_cfg.c **** * the software package with which this file was provided.
  16:.\Generated_Source\PSoC5/cyfitter_cfg.c **** ********************************************************************************/
  17:.\Generated_Source\PSoC5/cyfitter_cfg.c **** 
  18:.\Generated_Source\PSoC5/cyfitter_cfg.c **** #include <string.h>
  19:.\Generated_Source\PSoC5/cyfitter_cfg.c **** #include "cytypes.h"
  20:.\Generated_Source\PSoC5/cyfitter_cfg.c **** #include "cydevice_trm.h"
  21:.\Generated_Source\PSoC5/cyfitter_cfg.c **** #include "cyfitter.h"
  22:.\Generated_Source\PSoC5/cyfitter_cfg.c **** #include "CyLib.h"
  23:.\Generated_Source\PSoC5/cyfitter_cfg.c **** #include "cyfitter_cfg.h"
  24:.\Generated_Source\PSoC5/cyfitter_cfg.c **** 
  25:.\Generated_Source\PSoC5/cyfitter_cfg.c **** #define CY_NEED_CYCLOCKSTARTUPERROR 1
  26:.\Generated_Source\PSoC5/cyfitter_cfg.c **** 
  27:.\Generated_Source\PSoC5/cyfitter_cfg.c **** 
  28:.\Generated_Source\PSoC5/cyfitter_cfg.c **** #if defined(__GNUC__) || defined(__ARMCC_VERSION)
  29:.\Generated_Source\PSoC5/cyfitter_cfg.c ****     #define CYPACKED 
  30:.\Generated_Source\PSoC5/cyfitter_cfg.c ****     #define CYPACKED_ATTR __attribute__ ((packed))
  31:.\Generated_Source\PSoC5/cyfitter_cfg.c ****     #define CYALIGNED __attribute__ ((aligned))
  32:.\Generated_Source\PSoC5/cyfitter_cfg.c ****     #define CY_CFG_UNUSED __attribute__ ((unused))
ARM GAS  C:\USERS\LUKAS\APPDATA\LOCAL\TEMP\cctz5fJI.s 			page 2


  33:.\Generated_Source\PSoC5/cyfitter_cfg.c ****     #ifndef CY_CFG_SECTION
  34:.\Generated_Source\PSoC5/cyfitter_cfg.c ****         #define CY_CFG_SECTION __attribute__ ((section(".psocinit")))
  35:.\Generated_Source\PSoC5/cyfitter_cfg.c ****     #endif
  36:.\Generated_Source\PSoC5/cyfitter_cfg.c ****     
  37:.\Generated_Source\PSoC5/cyfitter_cfg.c ****     #if defined(__ARMCC_VERSION)
  38:.\Generated_Source\PSoC5/cyfitter_cfg.c ****         #define CY_CFG_MEMORY_BARRIER() __memory_changed()
  39:.\Generated_Source\PSoC5/cyfitter_cfg.c ****     #else
  40:.\Generated_Source\PSoC5/cyfitter_cfg.c ****         #define CY_CFG_MEMORY_BARRIER() __sync_synchronize()
  41:.\Generated_Source\PSoC5/cyfitter_cfg.c ****     #endif
  42:.\Generated_Source\PSoC5/cyfitter_cfg.c ****     
  43:.\Generated_Source\PSoC5/cyfitter_cfg.c **** #elif defined(__ICCARM__)
  44:.\Generated_Source\PSoC5/cyfitter_cfg.c ****     #include <intrinsics.h>
  45:.\Generated_Source\PSoC5/cyfitter_cfg.c **** 
  46:.\Generated_Source\PSoC5/cyfitter_cfg.c ****     #define CYPACKED __packed
  47:.\Generated_Source\PSoC5/cyfitter_cfg.c ****     #define CYPACKED_ATTR 
  48:.\Generated_Source\PSoC5/cyfitter_cfg.c ****     #define CYALIGNED _Pragma("data_alignment=4")
  49:.\Generated_Source\PSoC5/cyfitter_cfg.c ****     #define CY_CFG_UNUSED _Pragma("diag_suppress=Pe177")
  50:.\Generated_Source\PSoC5/cyfitter_cfg.c ****     #define CY_CFG_SECTION _Pragma("location=\".psocinit\"")
  51:.\Generated_Source\PSoC5/cyfitter_cfg.c ****     
  52:.\Generated_Source\PSoC5/cyfitter_cfg.c ****     #define CY_CFG_MEMORY_BARRIER() __DMB()
  53:.\Generated_Source\PSoC5/cyfitter_cfg.c ****     
  54:.\Generated_Source\PSoC5/cyfitter_cfg.c **** #else
  55:.\Generated_Source\PSoC5/cyfitter_cfg.c ****     #error Unsupported toolchain
  56:.\Generated_Source\PSoC5/cyfitter_cfg.c **** #endif
  57:.\Generated_Source\PSoC5/cyfitter_cfg.c **** 
  58:.\Generated_Source\PSoC5/cyfitter_cfg.c **** 
  59:.\Generated_Source\PSoC5/cyfitter_cfg.c **** CY_CFG_UNUSED
  60:.\Generated_Source\PSoC5/cyfitter_cfg.c **** static void CYMEMZERO(void *s, size_t n);
  61:.\Generated_Source\PSoC5/cyfitter_cfg.c **** CY_CFG_UNUSED
  62:.\Generated_Source\PSoC5/cyfitter_cfg.c **** static void CYMEMZERO(void *s, size_t n)
  63:.\Generated_Source\PSoC5/cyfitter_cfg.c **** {
  26              		.loc 1 63 0
  27              		.cfi_startproc
  28              		@ args = 0, pretend = 0, frame = 8
  29              		@ frame_needed = 1, uses_anonymous_args = 0
  30 0000 80B5     		push	{r7, lr}
  31              		.cfi_def_cfa_offset 8
  32              		.cfi_offset 7, -8
  33              		.cfi_offset 14, -4
  34 0002 82B0     		sub	sp, sp, #8
  35              		.cfi_def_cfa_offset 16
  36 0004 00AF     		add	r7, sp, #0
  37              		.cfi_def_cfa_register 7
  38 0006 7860     		str	r0, [r7, #4]
  39 0008 3960     		str	r1, [r7]
  64:.\Generated_Source\PSoC5/cyfitter_cfg.c **** 	(void)memset(s, 0, n);
  40              		.loc 1 64 0
  41 000a 7868     		ldr	r0, [r7, #4]
  42 000c 0021     		movs	r1, #0
  43 000e 3A68     		ldr	r2, [r7]
  44 0010 FFF7FEFF 		bl	memset
  65:.\Generated_Source\PSoC5/cyfitter_cfg.c **** }
  45              		.loc 1 65 0
  46 0014 0837     		adds	r7, r7, #8
  47              		.cfi_def_cfa_offset 8
  48 0016 BD46     		mov	sp, r7
  49              		.cfi_def_cfa_register 13
ARM GAS  C:\USERS\LUKAS\APPDATA\LOCAL\TEMP\cctz5fJI.s 			page 3


  50              		@ sp needed
  51 0018 80BD     		pop	{r7, pc}
  52              		.cfi_endproc
  53              	.LFE0:
  54              		.size	CYMEMZERO, .-CYMEMZERO
  55 001a 00BF     		.section	.text.CYCONFIGCPY,"ax",%progbits
  56              		.align	2
  57              		.thumb
  58              		.thumb_func
  59              		.type	CYCONFIGCPY, %function
  60              	CYCONFIGCPY:
  61              	.LFB1:
  66:.\Generated_Source\PSoC5/cyfitter_cfg.c **** CY_CFG_UNUSED
  67:.\Generated_Source\PSoC5/cyfitter_cfg.c **** static void CYCONFIGCPY(void *dest, const void *src, size_t n);
  68:.\Generated_Source\PSoC5/cyfitter_cfg.c **** CY_CFG_UNUSED
  69:.\Generated_Source\PSoC5/cyfitter_cfg.c **** static void CYCONFIGCPY(void *dest, const void *src, size_t n)
  70:.\Generated_Source\PSoC5/cyfitter_cfg.c **** {
  62              		.loc 1 70 0
  63              		.cfi_startproc
  64              		@ args = 0, pretend = 0, frame = 16
  65              		@ frame_needed = 1, uses_anonymous_args = 0
  66 0000 80B5     		push	{r7, lr}
  67              		.cfi_def_cfa_offset 8
  68              		.cfi_offset 7, -8
  69              		.cfi_offset 14, -4
  70 0002 84B0     		sub	sp, sp, #16
  71              		.cfi_def_cfa_offset 24
  72 0004 00AF     		add	r7, sp, #0
  73              		.cfi_def_cfa_register 7
  74 0006 F860     		str	r0, [r7, #12]
  75 0008 B960     		str	r1, [r7, #8]
  76 000a 7A60     		str	r2, [r7, #4]
  71:.\Generated_Source\PSoC5/cyfitter_cfg.c **** 	(void)memcpy(dest, src, n);
  77              		.loc 1 71 0
  78 000c F868     		ldr	r0, [r7, #12]
  79 000e B968     		ldr	r1, [r7, #8]
  80 0010 7A68     		ldr	r2, [r7, #4]
  81 0012 FFF7FEFF 		bl	memcpy
  72:.\Generated_Source\PSoC5/cyfitter_cfg.c **** }
  82              		.loc 1 72 0
  83 0016 1037     		adds	r7, r7, #16
  84              		.cfi_def_cfa_offset 8
  85 0018 BD46     		mov	sp, r7
  86              		.cfi_def_cfa_register 13
  87              		@ sp needed
  88 001a 80BD     		pop	{r7, pc}
  89              		.cfi_endproc
  90              	.LFE1:
  91              		.size	CYCONFIGCPY, .-CYCONFIGCPY
  92              		.section	.text.CYCONFIGCPYCODE,"ax",%progbits
  93              		.align	2
  94              		.thumb
  95              		.thumb_func
  96              		.type	CYCONFIGCPYCODE, %function
  97              	CYCONFIGCPYCODE:
  98              	.LFB2:
  73:.\Generated_Source\PSoC5/cyfitter_cfg.c **** CY_CFG_UNUSED
ARM GAS  C:\USERS\LUKAS\APPDATA\LOCAL\TEMP\cctz5fJI.s 			page 4


  74:.\Generated_Source\PSoC5/cyfitter_cfg.c **** static void CYCONFIGCPYCODE(void *dest, const void *src, size_t n);
  75:.\Generated_Source\PSoC5/cyfitter_cfg.c **** CY_CFG_UNUSED
  76:.\Generated_Source\PSoC5/cyfitter_cfg.c **** static void CYCONFIGCPYCODE(void *dest, const void *src, size_t n)
  77:.\Generated_Source\PSoC5/cyfitter_cfg.c **** {
  99              		.loc 1 77 0
 100              		.cfi_startproc
 101              		@ args = 0, pretend = 0, frame = 16
 102              		@ frame_needed = 1, uses_anonymous_args = 0
 103 0000 80B5     		push	{r7, lr}
 104              		.cfi_def_cfa_offset 8
 105              		.cfi_offset 7, -8
 106              		.cfi_offset 14, -4
 107 0002 84B0     		sub	sp, sp, #16
 108              		.cfi_def_cfa_offset 24
 109 0004 00AF     		add	r7, sp, #0
 110              		.cfi_def_cfa_register 7
 111 0006 F860     		str	r0, [r7, #12]
 112 0008 B960     		str	r1, [r7, #8]
 113 000a 7A60     		str	r2, [r7, #4]
  78:.\Generated_Source\PSoC5/cyfitter_cfg.c **** 	(void)memcpy(dest, src, n);
 114              		.loc 1 78 0
 115 000c F868     		ldr	r0, [r7, #12]
 116 000e B968     		ldr	r1, [r7, #8]
 117 0010 7A68     		ldr	r2, [r7, #4]
 118 0012 FFF7FEFF 		bl	memcpy
  79:.\Generated_Source\PSoC5/cyfitter_cfg.c **** }
 119              		.loc 1 79 0
 120 0016 1037     		adds	r7, r7, #16
 121              		.cfi_def_cfa_offset 8
 122 0018 BD46     		mov	sp, r7
 123              		.cfi_def_cfa_register 13
 124              		@ sp needed
 125 001a 80BD     		pop	{r7, pc}
 126              		.cfi_endproc
 127              	.LFE2:
 128              		.size	CYCONFIGCPYCODE, .-CYCONFIGCPYCODE
 129              		.section	.text.CyClockStartupError,"ax",%progbits
 130              		.align	2
 131              		.thumb
 132              		.thumb_func
 133              		.type	CyClockStartupError, %function
 134              	CyClockStartupError:
 135              	.LFB3:
  80:.\Generated_Source\PSoC5/cyfitter_cfg.c **** 
  81:.\Generated_Source\PSoC5/cyfitter_cfg.c **** 
  82:.\Generated_Source\PSoC5/cyfitter_cfg.c **** 
  83:.\Generated_Source\PSoC5/cyfitter_cfg.c **** /* Clock startup error codes                                                   */
  84:.\Generated_Source\PSoC5/cyfitter_cfg.c **** #define CYCLOCKSTART_NO_ERROR    0u
  85:.\Generated_Source\PSoC5/cyfitter_cfg.c **** #define CYCLOCKSTART_XTAL_ERROR  1u
  86:.\Generated_Source\PSoC5/cyfitter_cfg.c **** #define CYCLOCKSTART_32KHZ_ERROR 2u
  87:.\Generated_Source\PSoC5/cyfitter_cfg.c **** #define CYCLOCKSTART_PLL_ERROR   3u
  88:.\Generated_Source\PSoC5/cyfitter_cfg.c **** 
  89:.\Generated_Source\PSoC5/cyfitter_cfg.c **** #ifdef CY_NEED_CYCLOCKSTARTUPERROR
  90:.\Generated_Source\PSoC5/cyfitter_cfg.c **** /*******************************************************************************
  91:.\Generated_Source\PSoC5/cyfitter_cfg.c **** * Function Name: CyClockStartupError
  92:.\Generated_Source\PSoC5/cyfitter_cfg.c **** ********************************************************************************
  93:.\Generated_Source\PSoC5/cyfitter_cfg.c **** * Summary:
ARM GAS  C:\USERS\LUKAS\APPDATA\LOCAL\TEMP\cctz5fJI.s 			page 5


  94:.\Generated_Source\PSoC5/cyfitter_cfg.c **** *  If an error is encountered during clock configuration (crystal startup error,
  95:.\Generated_Source\PSoC5/cyfitter_cfg.c **** *  PLL lock error, etc.), the system will end up here.  Unless reimplemented by
  96:.\Generated_Source\PSoC5/cyfitter_cfg.c **** *  the customer, this function will stop in an infinite loop.
  97:.\Generated_Source\PSoC5/cyfitter_cfg.c **** *
  98:.\Generated_Source\PSoC5/cyfitter_cfg.c **** * Parameters:
  99:.\Generated_Source\PSoC5/cyfitter_cfg.c **** *   void
 100:.\Generated_Source\PSoC5/cyfitter_cfg.c **** *
 101:.\Generated_Source\PSoC5/cyfitter_cfg.c **** * Return:
 102:.\Generated_Source\PSoC5/cyfitter_cfg.c **** *   void
 103:.\Generated_Source\PSoC5/cyfitter_cfg.c **** *
 104:.\Generated_Source\PSoC5/cyfitter_cfg.c **** *******************************************************************************/
 105:.\Generated_Source\PSoC5/cyfitter_cfg.c **** CY_CFG_UNUSED
 106:.\Generated_Source\PSoC5/cyfitter_cfg.c **** static void CyClockStartupError(uint8 errorCode);
 107:.\Generated_Source\PSoC5/cyfitter_cfg.c **** CY_CFG_UNUSED
 108:.\Generated_Source\PSoC5/cyfitter_cfg.c **** static void CyClockStartupError(uint8 errorCode)
 109:.\Generated_Source\PSoC5/cyfitter_cfg.c **** {
 136              		.loc 1 109 0
 137              		.cfi_startproc
 138              		@ args = 0, pretend = 0, frame = 8
 139              		@ frame_needed = 1, uses_anonymous_args = 0
 140              		@ link register save eliminated.
 141 0000 80B4     		push	{r7}
 142              		.cfi_def_cfa_offset 4
 143              		.cfi_offset 7, -4
 144 0002 83B0     		sub	sp, sp, #12
 145              		.cfi_def_cfa_offset 16
 146 0004 00AF     		add	r7, sp, #0
 147              		.cfi_def_cfa_register 7
 148 0006 0346     		mov	r3, r0
 149 0008 FB71     		strb	r3, [r7, #7]
 150              	.L5:
 110:.\Generated_Source\PSoC5/cyfitter_cfg.c ****     /* To remove the compiler warning if errorCode not used.                */
 111:.\Generated_Source\PSoC5/cyfitter_cfg.c ****     errorCode = errorCode;
 112:.\Generated_Source\PSoC5/cyfitter_cfg.c **** 
 113:.\Generated_Source\PSoC5/cyfitter_cfg.c ****     /* `#START CyClockStartupError` */
 114:.\Generated_Source\PSoC5/cyfitter_cfg.c **** 
 115:.\Generated_Source\PSoC5/cyfitter_cfg.c ****     /* If we have a clock startup error (bad MHz crystal, PLL lock, etc.),  */
 116:.\Generated_Source\PSoC5/cyfitter_cfg.c ****     /* we will end up here to allow the customer to implement something to  */
 117:.\Generated_Source\PSoC5/cyfitter_cfg.c ****     /* deal with the clock condition.                                       */
 118:.\Generated_Source\PSoC5/cyfitter_cfg.c **** 
 119:.\Generated_Source\PSoC5/cyfitter_cfg.c ****     /* `#END` */
 120:.\Generated_Source\PSoC5/cyfitter_cfg.c **** 
 121:.\Generated_Source\PSoC5/cyfitter_cfg.c ****     /* If nothing else, stop here since the clocks have not started         */
 122:.\Generated_Source\PSoC5/cyfitter_cfg.c ****     /* correctly.                                                           */
 123:.\Generated_Source\PSoC5/cyfitter_cfg.c ****     while(1) {}
 151              		.loc 1 123 0 discriminator 1
 152 000a FEE7     		b	.L5
 153              		.cfi_endproc
 154              	.LFE3:
 155              		.size	CyClockStartupError, .-CyClockStartupError
 156              		.section	.text.cfg_write_bytes32,"ax",%progbits
 157              		.align	2
 158              		.thumb
 159              		.thumb_func
 160              		.type	cfg_write_bytes32, %function
 161              	cfg_write_bytes32:
 162              	.LFB4:
ARM GAS  C:\USERS\LUKAS\APPDATA\LOCAL\TEMP\cctz5fJI.s 			page 6


 124:.\Generated_Source\PSoC5/cyfitter_cfg.c **** }
 125:.\Generated_Source\PSoC5/cyfitter_cfg.c **** #endif
 126:.\Generated_Source\PSoC5/cyfitter_cfg.c **** 
 127:.\Generated_Source\PSoC5/cyfitter_cfg.c **** #define CY_CFG_BASE_ADDR_COUNT 41u
 128:.\Generated_Source\PSoC5/cyfitter_cfg.c **** CYPACKED typedef struct
 129:.\Generated_Source\PSoC5/cyfitter_cfg.c **** {
 130:.\Generated_Source\PSoC5/cyfitter_cfg.c **** 	uint8 offset;
 131:.\Generated_Source\PSoC5/cyfitter_cfg.c **** 	uint8 value;
 132:.\Generated_Source\PSoC5/cyfitter_cfg.c **** } CYPACKED_ATTR cy_cfg_addrvalue_t;
 133:.\Generated_Source\PSoC5/cyfitter_cfg.c **** 
 134:.\Generated_Source\PSoC5/cyfitter_cfg.c **** #define cy_cfg_addr_table ((const uint32 CYFAR *)0x48000000u)
 135:.\Generated_Source\PSoC5/cyfitter_cfg.c **** #define cy_cfg_data_table ((const cy_cfg_addrvalue_t CYFAR *)0x480000A4u)
 136:.\Generated_Source\PSoC5/cyfitter_cfg.c **** 
 137:.\Generated_Source\PSoC5/cyfitter_cfg.c **** /* IDMUX Address: CYREG_IDMUX_DRQ_CTL0 Size (bytes): 6 */
 138:.\Generated_Source\PSoC5/cyfitter_cfg.c **** #define BS_IDMUX_VAL ((const uint8 CYFAR *)0x4800124Cu)
 139:.\Generated_Source\PSoC5/cyfitter_cfg.c **** 
 140:.\Generated_Source\PSoC5/cyfitter_cfg.c **** /* IDMUX_IRQ Address: CYREG_IDMUX_IRQ_CTL0 Size (bytes): 8 */
 141:.\Generated_Source\PSoC5/cyfitter_cfg.c **** #define BS_IDMUX_IRQ_VAL ((const uint8 CYFAR *)0x48001254u)
 142:.\Generated_Source\PSoC5/cyfitter_cfg.c **** 
 143:.\Generated_Source\PSoC5/cyfitter_cfg.c **** /* UDB_1_1_1_CONFIG Address: CYDEV_UCFG_B1_P3_U0_BASE Size (bytes): 128 */
 144:.\Generated_Source\PSoC5/cyfitter_cfg.c **** #define BS_UDB_1_1_1_CONFIG_VAL ((const uint8 CYFAR *)0x4800125Cu)
 145:.\Generated_Source\PSoC5/cyfitter_cfg.c **** 
 146:.\Generated_Source\PSoC5/cyfitter_cfg.c **** /* UCFG_BCTL0 Address: CYREG_BCTL0_MDCLK_EN Size (bytes): 16 */
 147:.\Generated_Source\PSoC5/cyfitter_cfg.c **** #define BS_UCFG_BCTL0_VAL ((const uint8 CYFAR *)0x480012DCu)
 148:.\Generated_Source\PSoC5/cyfitter_cfg.c **** 
 149:.\Generated_Source\PSoC5/cyfitter_cfg.c **** /* IOPINS0_0 Address: CYREG_PRT0_DR Size (bytes): 10 */
 150:.\Generated_Source\PSoC5/cyfitter_cfg.c **** #define BS_IOPINS0_0_VAL ((const uint8 CYFAR *)0x480012ECu)
 151:.\Generated_Source\PSoC5/cyfitter_cfg.c **** 
 152:.\Generated_Source\PSoC5/cyfitter_cfg.c **** /* IOPINS0_7 Address: CYREG_PRT12_DM0 Size (bytes): 8 */
 153:.\Generated_Source\PSoC5/cyfitter_cfg.c **** #define BS_IOPINS0_7_VAL ((const uint8 CYFAR *)0x480012F8u)
 154:.\Generated_Source\PSoC5/cyfitter_cfg.c **** 
 155:.\Generated_Source\PSoC5/cyfitter_cfg.c **** /* IOPINS0_8 Address: CYREG_PRT15_DR Size (bytes): 10 */
 156:.\Generated_Source\PSoC5/cyfitter_cfg.c **** #define BS_IOPINS0_8_VAL ((const uint8 CYFAR *)0x48001300u)
 157:.\Generated_Source\PSoC5/cyfitter_cfg.c **** 
 158:.\Generated_Source\PSoC5/cyfitter_cfg.c **** /* IOPINS0_1 Address: CYREG_PRT1_DR Size (bytes): 10 */
 159:.\Generated_Source\PSoC5/cyfitter_cfg.c **** #define BS_IOPINS0_1_VAL ((const uint8 CYFAR *)0x4800130Cu)
 160:.\Generated_Source\PSoC5/cyfitter_cfg.c **** 
 161:.\Generated_Source\PSoC5/cyfitter_cfg.c **** /* IOPINS0_2 Address: CYREG_PRT2_DR Size (bytes): 10 */
 162:.\Generated_Source\PSoC5/cyfitter_cfg.c **** #define BS_IOPINS0_2_VAL ((const uint8 CYFAR *)0x48001318u)
 163:.\Generated_Source\PSoC5/cyfitter_cfg.c **** 
 164:.\Generated_Source\PSoC5/cyfitter_cfg.c **** /* IOPINS0_3 Address: CYREG_PRT3_DM0 Size (bytes): 8 */
 165:.\Generated_Source\PSoC5/cyfitter_cfg.c **** #define BS_IOPINS0_3_VAL ((const uint8 CYFAR *)0x48001324u)
 166:.\Generated_Source\PSoC5/cyfitter_cfg.c **** 
 167:.\Generated_Source\PSoC5/cyfitter_cfg.c **** /* PHUB_CFGMEM11 Address: CYREG_PHUB_CFGMEM11_CFG0 Size (bytes): 4 */
 168:.\Generated_Source\PSoC5/cyfitter_cfg.c **** #define BS_PHUB_CFGMEM11_VAL ((const uint8 CYFAR *)0x4800132Cu)
 169:.\Generated_Source\PSoC5/cyfitter_cfg.c **** 
 170:.\Generated_Source\PSoC5/cyfitter_cfg.c **** /* PHUB_CFGMEM12 Address: CYREG_PHUB_CFGMEM12_CFG0 Size (bytes): 4 */
 171:.\Generated_Source\PSoC5/cyfitter_cfg.c **** #define BS_PHUB_CFGMEM12_VAL ((const uint8 CYFAR *)0x48001330u)
 172:.\Generated_Source\PSoC5/cyfitter_cfg.c **** 
 173:.\Generated_Source\PSoC5/cyfitter_cfg.c **** /* PHUB_CFGMEM13 Address: CYREG_PHUB_CFGMEM13_CFG0 Size (bytes): 4 */
 174:.\Generated_Source\PSoC5/cyfitter_cfg.c **** #define BS_PHUB_CFGMEM13_VAL ((const uint8 CYFAR *)0x48001334u)
 175:.\Generated_Source\PSoC5/cyfitter_cfg.c **** 
 176:.\Generated_Source\PSoC5/cyfitter_cfg.c **** /* PHUB_CFGMEM14 Address: CYREG_PHUB_CFGMEM14_CFG0 Size (bytes): 4 */
 177:.\Generated_Source\PSoC5/cyfitter_cfg.c **** #define BS_PHUB_CFGMEM14_VAL ((const uint8 CYFAR *)0x48001338u)
 178:.\Generated_Source\PSoC5/cyfitter_cfg.c **** 
 179:.\Generated_Source\PSoC5/cyfitter_cfg.c **** /* PHUB_CFGMEM2 Address: CYREG_PHUB_CFGMEM2_CFG0 Size (bytes): 4 */
 180:.\Generated_Source\PSoC5/cyfitter_cfg.c **** #define BS_PHUB_CFGMEM2_VAL ((const uint8 CYFAR *)0x4800133Cu)
ARM GAS  C:\USERS\LUKAS\APPDATA\LOCAL\TEMP\cctz5fJI.s 			page 7


 181:.\Generated_Source\PSoC5/cyfitter_cfg.c **** 
 182:.\Generated_Source\PSoC5/cyfitter_cfg.c **** /* PHUB_CFGMEM4 Address: CYREG_PHUB_CFGMEM4_CFG0 Size (bytes): 4 */
 183:.\Generated_Source\PSoC5/cyfitter_cfg.c **** #define BS_PHUB_CFGMEM4_VAL ((const uint8 CYFAR *)0x48001340u)
 184:.\Generated_Source\PSoC5/cyfitter_cfg.c **** 
 185:.\Generated_Source\PSoC5/cyfitter_cfg.c **** /* PHUB_CFGMEM8 Address: CYREG_PHUB_CFGMEM8_CFG0 Size (bytes): 4 */
 186:.\Generated_Source\PSoC5/cyfitter_cfg.c **** #define BS_PHUB_CFGMEM8_VAL ((const uint8 CYFAR *)0x48001344u)
 187:.\Generated_Source\PSoC5/cyfitter_cfg.c **** 
 188:.\Generated_Source\PSoC5/cyfitter_cfg.c **** 
 189:.\Generated_Source\PSoC5/cyfitter_cfg.c **** /*******************************************************************************
 190:.\Generated_Source\PSoC5/cyfitter_cfg.c **** * Function Name: cfg_write_bytes32
 191:.\Generated_Source\PSoC5/cyfitter_cfg.c **** ********************************************************************************
 192:.\Generated_Source\PSoC5/cyfitter_cfg.c **** * Summary:
 193:.\Generated_Source\PSoC5/cyfitter_cfg.c **** *  This function is used for setting up the chip configuration areas that
 194:.\Generated_Source\PSoC5/cyfitter_cfg.c **** *  contain relatively sparse data.
 195:.\Generated_Source\PSoC5/cyfitter_cfg.c **** *
 196:.\Generated_Source\PSoC5/cyfitter_cfg.c **** * Parameters:
 197:.\Generated_Source\PSoC5/cyfitter_cfg.c **** *   void
 198:.\Generated_Source\PSoC5/cyfitter_cfg.c **** *
 199:.\Generated_Source\PSoC5/cyfitter_cfg.c **** * Return:
 200:.\Generated_Source\PSoC5/cyfitter_cfg.c **** *   void
 201:.\Generated_Source\PSoC5/cyfitter_cfg.c **** *
 202:.\Generated_Source\PSoC5/cyfitter_cfg.c **** *******************************************************************************/
 203:.\Generated_Source\PSoC5/cyfitter_cfg.c **** static void cfg_write_bytes32(const uint32 addr_table[], const cy_cfg_addrvalue_t data_table[]);
 204:.\Generated_Source\PSoC5/cyfitter_cfg.c **** static void cfg_write_bytes32(const uint32 addr_table[], const cy_cfg_addrvalue_t data_table[])
 205:.\Generated_Source\PSoC5/cyfitter_cfg.c **** {
 163              		.loc 1 205 0
 164              		.cfi_startproc
 165              		@ args = 0, pretend = 0, frame = 24
 166              		@ frame_needed = 1, uses_anonymous_args = 0
 167              		@ link register save eliminated.
 168 0000 80B4     		push	{r7}
 169              		.cfi_def_cfa_offset 4
 170              		.cfi_offset 7, -4
 171 0002 87B0     		sub	sp, sp, #28
 172              		.cfi_def_cfa_offset 32
 173 0004 00AF     		add	r7, sp, #0
 174              		.cfi_def_cfa_register 7
 175 0006 7860     		str	r0, [r7, #4]
 176 0008 3960     		str	r1, [r7]
 206:.\Generated_Source\PSoC5/cyfitter_cfg.c **** 	/* For 32-bit little-endian architectures */
 207:.\Generated_Source\PSoC5/cyfitter_cfg.c **** 	uint32 i, j = 0u;
 177              		.loc 1 207 0
 178 000a 0023     		movs	r3, #0
 179 000c 3B61     		str	r3, [r7, #16]
 208:.\Generated_Source\PSoC5/cyfitter_cfg.c **** 	for (i = 0u; i < CY_CFG_BASE_ADDR_COUNT; i++)
 180              		.loc 1 208 0
 181 000e 0023     		movs	r3, #0
 182 0010 7B61     		str	r3, [r7, #20]
 183 0012 27E0     		b	.L7
 184              	.L10:
 185              	.LBB2:
 209:.\Generated_Source\PSoC5/cyfitter_cfg.c **** 	{
 210:.\Generated_Source\PSoC5/cyfitter_cfg.c **** 		uint32 baseAddr = addr_table[i];
 186              		.loc 1 210 0
 187 0014 7B69     		ldr	r3, [r7, #20]
 188 0016 9B00     		lsls	r3, r3, #2
 189 0018 7A68     		ldr	r2, [r7, #4]
ARM GAS  C:\USERS\LUKAS\APPDATA\LOCAL\TEMP\cctz5fJI.s 			page 8


 190 001a 1344     		add	r3, r3, r2
 191 001c 1B68     		ldr	r3, [r3]
 192 001e BB60     		str	r3, [r7, #8]
 211:.\Generated_Source\PSoC5/cyfitter_cfg.c **** 		uint8 count = (uint8)baseAddr;
 193              		.loc 1 211 0
 194 0020 BB68     		ldr	r3, [r7, #8]
 195 0022 FB73     		strb	r3, [r7, #15]
 212:.\Generated_Source\PSoC5/cyfitter_cfg.c **** 		baseAddr &= 0xFFFFFF00u;
 196              		.loc 1 212 0
 197 0024 BB68     		ldr	r3, [r7, #8]
 198 0026 23F0FF03 		bic	r3, r3, #255
 199 002a BB60     		str	r3, [r7, #8]
 213:.\Generated_Source\PSoC5/cyfitter_cfg.c **** 		while (count != 0u)
 200              		.loc 1 213 0
 201 002c 14E0     		b	.L8
 202              	.L9:
 214:.\Generated_Source\PSoC5/cyfitter_cfg.c **** 		{
 215:.\Generated_Source\PSoC5/cyfitter_cfg.c **** 			CY_SET_XTND_REG8((void CYFAR *)(baseAddr + data_table[j].offset), data_table[j].value);
 203              		.loc 1 215 0
 204 002e 3B69     		ldr	r3, [r7, #16]
 205 0030 5B00     		lsls	r3, r3, #1
 206 0032 3A68     		ldr	r2, [r7]
 207 0034 1344     		add	r3, r3, r2
 208 0036 1B78     		ldrb	r3, [r3]	@ zero_extendqisi2
 209 0038 1A46     		mov	r2, r3
 210 003a BB68     		ldr	r3, [r7, #8]
 211 003c 1344     		add	r3, r3, r2
 212 003e 1946     		mov	r1, r3
 213 0040 3B69     		ldr	r3, [r7, #16]
 214 0042 5B00     		lsls	r3, r3, #1
 215 0044 3A68     		ldr	r2, [r7]
 216 0046 1344     		add	r3, r3, r2
 217 0048 5B78     		ldrb	r3, [r3, #1]	@ zero_extendqisi2
 218 004a 0B70     		strb	r3, [r1]
 216:.\Generated_Source\PSoC5/cyfitter_cfg.c **** 			j++;
 219              		.loc 1 216 0
 220 004c 3B69     		ldr	r3, [r7, #16]
 221 004e 0133     		adds	r3, r3, #1
 222 0050 3B61     		str	r3, [r7, #16]
 217:.\Generated_Source\PSoC5/cyfitter_cfg.c **** 			count--;
 223              		.loc 1 217 0
 224 0052 FB7B     		ldrb	r3, [r7, #15]	@ zero_extendqisi2
 225 0054 013B     		subs	r3, r3, #1
 226 0056 FB73     		strb	r3, [r7, #15]
 227              	.L8:
 213:.\Generated_Source\PSoC5/cyfitter_cfg.c **** 		{
 228              		.loc 1 213 0
 229 0058 FB7B     		ldrb	r3, [r7, #15]	@ zero_extendqisi2
 230 005a 002B     		cmp	r3, #0
 231 005c E7D1     		bne	.L9
 232              	.LBE2:
 208:.\Generated_Source\PSoC5/cyfitter_cfg.c **** 	{
 233              		.loc 1 208 0 discriminator 2
 234 005e 7B69     		ldr	r3, [r7, #20]
 235 0060 0133     		adds	r3, r3, #1
 236 0062 7B61     		str	r3, [r7, #20]
 237              	.L7:
ARM GAS  C:\USERS\LUKAS\APPDATA\LOCAL\TEMP\cctz5fJI.s 			page 9


 208:.\Generated_Source\PSoC5/cyfitter_cfg.c **** 	{
 238              		.loc 1 208 0 is_stmt 0 discriminator 1
 239 0064 7B69     		ldr	r3, [r7, #20]
 240 0066 282B     		cmp	r3, #40
 241 0068 D4D9     		bls	.L10
 218:.\Generated_Source\PSoC5/cyfitter_cfg.c **** 		}
 219:.\Generated_Source\PSoC5/cyfitter_cfg.c **** 	}
 220:.\Generated_Source\PSoC5/cyfitter_cfg.c **** }
 242              		.loc 1 220 0 is_stmt 1
 243 006a 1C37     		adds	r7, r7, #28
 244              		.cfi_def_cfa_offset 4
 245 006c BD46     		mov	sp, r7
 246              		.cfi_def_cfa_register 13
 247              		@ sp needed
 248 006e 5DF8047B 		ldr	r7, [sp], #4
 249              		.cfi_restore 7
 250              		.cfi_def_cfa_offset 0
 251 0072 7047     		bx	lr
 252              		.cfi_endproc
 253              	.LFE4:
 254              		.size	cfg_write_bytes32, .-cfg_write_bytes32
 255              		.section	.text.ClockSetup,"ax",%progbits
 256              		.align	2
 257              		.thumb
 258              		.thumb_func
 259              		.type	ClockSetup, %function
 260              	ClockSetup:
 261              	.LFB5:
 221:.\Generated_Source\PSoC5/cyfitter_cfg.c **** 
 222:.\Generated_Source\PSoC5/cyfitter_cfg.c **** /*******************************************************************************
 223:.\Generated_Source\PSoC5/cyfitter_cfg.c **** * Function Name: ClockSetup
 224:.\Generated_Source\PSoC5/cyfitter_cfg.c **** ********************************************************************************
 225:.\Generated_Source\PSoC5/cyfitter_cfg.c **** *
 226:.\Generated_Source\PSoC5/cyfitter_cfg.c **** * Summary:
 227:.\Generated_Source\PSoC5/cyfitter_cfg.c **** *  Performs the initialization of all of the clocks in the device based on the
 228:.\Generated_Source\PSoC5/cyfitter_cfg.c **** *  settings in the Clock tab of the DWR.  This includes enabling the requested
 229:.\Generated_Source\PSoC5/cyfitter_cfg.c **** *  clocks and setting the necessary dividers to produce the desired frequency. 
 230:.\Generated_Source\PSoC5/cyfitter_cfg.c **** *
 231:.\Generated_Source\PSoC5/cyfitter_cfg.c **** * Parameters:
 232:.\Generated_Source\PSoC5/cyfitter_cfg.c **** *  void
 233:.\Generated_Source\PSoC5/cyfitter_cfg.c **** *
 234:.\Generated_Source\PSoC5/cyfitter_cfg.c **** * Return:
 235:.\Generated_Source\PSoC5/cyfitter_cfg.c **** *  void
 236:.\Generated_Source\PSoC5/cyfitter_cfg.c **** *
 237:.\Generated_Source\PSoC5/cyfitter_cfg.c **** *******************************************************************************/
 238:.\Generated_Source\PSoC5/cyfitter_cfg.c **** static void ClockSetup(void);
 239:.\Generated_Source\PSoC5/cyfitter_cfg.c **** static void ClockSetup(void)
 240:.\Generated_Source\PSoC5/cyfitter_cfg.c **** {
 262              		.loc 1 240 0
 263              		.cfi_startproc
 264              		@ args = 0, pretend = 0, frame = 8
 265              		@ frame_needed = 1, uses_anonymous_args = 0
 266 0000 80B5     		push	{r7, lr}
 267              		.cfi_def_cfa_offset 8
 268              		.cfi_offset 7, -8
 269              		.cfi_offset 14, -4
 270 0002 82B0     		sub	sp, sp, #8
ARM GAS  C:\USERS\LUKAS\APPDATA\LOCAL\TEMP\cctz5fJI.s 			page 10


 271              		.cfi_def_cfa_offset 16
 272 0004 00AF     		add	r7, sp, #0
 273              		.cfi_def_cfa_register 7
 241:.\Generated_Source\PSoC5/cyfitter_cfg.c **** 	uint32 timeout;
 242:.\Generated_Source\PSoC5/cyfitter_cfg.c **** 	uint8 pllLock;
 243:.\Generated_Source\PSoC5/cyfitter_cfg.c **** 
 244:.\Generated_Source\PSoC5/cyfitter_cfg.c **** 
 245:.\Generated_Source\PSoC5/cyfitter_cfg.c **** 	/* Configure Digital Clocks based on settings from Clock DWR */
 246:.\Generated_Source\PSoC5/cyfitter_cfg.c **** 	CY_SET_XTND_REG16((void CYFAR *)(CYREG_CLKDIST_DCFG0_CFG0), 0x0001u);
 274              		.loc 1 246 0
 275 0006 394B     		ldr	r3, .L16
 276 0008 0122     		movs	r2, #1
 277 000a 1A80     		strh	r2, [r3]	@ movhi
 247:.\Generated_Source\PSoC5/cyfitter_cfg.c **** 	CY_SET_XTND_REG8((void CYFAR *)(CYREG_CLKDIST_DCFG0_CFG0 + 0x2u), 0x1Cu);
 278              		.loc 1 247 0
 279 000c 384B     		ldr	r3, .L16+4
 280 000e 1C22     		movs	r2, #28
 281 0010 1A70     		strb	r2, [r3]
 248:.\Generated_Source\PSoC5/cyfitter_cfg.c **** 	CY_SET_XTND_REG16((void CYFAR *)(CYREG_CLKDIST_DCFG1_CFG0), 0x0003u);
 282              		.loc 1 248 0
 283 0012 384B     		ldr	r3, .L16+8
 284 0014 0322     		movs	r2, #3
 285 0016 1A80     		strh	r2, [r3]	@ movhi
 249:.\Generated_Source\PSoC5/cyfitter_cfg.c **** 	CY_SET_XTND_REG8((void CYFAR *)(CYREG_CLKDIST_DCFG1_CFG0 + 0x2u), 0x1Cu);
 286              		.loc 1 249 0
 287 0018 374B     		ldr	r3, .L16+12
 288 001a 1C22     		movs	r2, #28
 289 001c 1A70     		strb	r2, [r3]
 250:.\Generated_Source\PSoC5/cyfitter_cfg.c **** 	CY_SET_XTND_REG16((void CYFAR *)(CYREG_CLKDIST_DCFG2_CFG0), 0x0007u);
 290              		.loc 1 250 0
 291 001e 374B     		ldr	r3, .L16+16
 292 0020 0722     		movs	r2, #7
 293 0022 1A80     		strh	r2, [r3]	@ movhi
 251:.\Generated_Source\PSoC5/cyfitter_cfg.c **** 	CY_SET_XTND_REG8((void CYFAR *)(CYREG_CLKDIST_DCFG2_CFG0 + 0x2u), 0x1Cu);
 294              		.loc 1 251 0
 295 0024 364B     		ldr	r3, .L16+20
 296 0026 1C22     		movs	r2, #28
 297 0028 1A70     		strb	r2, [r3]
 252:.\Generated_Source\PSoC5/cyfitter_cfg.c **** 	CY_SET_XTND_REG16((void CYFAR *)(CYREG_CLKDIST_DCFG3_CFG0), 0x0000u);
 298              		.loc 1 252 0
 299 002a 364B     		ldr	r3, .L16+24
 300 002c 0022     		movs	r2, #0
 301 002e 1A80     		strh	r2, [r3]	@ movhi
 253:.\Generated_Source\PSoC5/cyfitter_cfg.c **** 	CY_SET_XTND_REG8((void CYFAR *)(CYREG_CLKDIST_DCFG3_CFG0 + 0x2u), 0x11u);
 302              		.loc 1 253 0
 303 0030 354B     		ldr	r3, .L16+28
 304 0032 1122     		movs	r2, #17
 305 0034 1A70     		strb	r2, [r3]
 254:.\Generated_Source\PSoC5/cyfitter_cfg.c **** 
 255:.\Generated_Source\PSoC5/cyfitter_cfg.c **** 	/* Configure ILO based on settings from Clock DWR */
 256:.\Generated_Source\PSoC5/cyfitter_cfg.c **** 	CY_SET_XTND_REG8((void CYFAR *)(CYREG_SLOWCLK_ILO_CR0), 0x06u);
 306              		.loc 1 256 0
 307 0036 354B     		ldr	r3, .L16+32
 308 0038 0622     		movs	r2, #6
 309 003a 1A70     		strb	r2, [r3]
 257:.\Generated_Source\PSoC5/cyfitter_cfg.c **** 
 258:.\Generated_Source\PSoC5/cyfitter_cfg.c **** 	/* Configure IMO based on settings from Clock DWR */
ARM GAS  C:\USERS\LUKAS\APPDATA\LOCAL\TEMP\cctz5fJI.s 			page 11


 259:.\Generated_Source\PSoC5/cyfitter_cfg.c **** 	CY_SET_XTND_REG8((void CYFAR *)(CYREG_FASTCLK_IMO_CR), 0x52u);
 310              		.loc 1 259 0
 311 003c 344B     		ldr	r3, .L16+36
 312 003e 5222     		movs	r2, #82
 313 0040 1A70     		strb	r2, [r3]
 260:.\Generated_Source\PSoC5/cyfitter_cfg.c **** 	CY_SET_XTND_REG8((void CYFAR *)(CYREG_IMO_TR1), (CY_GET_XTND_REG8((void CYFAR *)CYREG_FLSHID_CUST_
 314              		.loc 1 260 0
 315 0042 344B     		ldr	r3, .L16+40
 316 0044 344A     		ldr	r2, .L16+44
 317 0046 1278     		ldrb	r2, [r2]
 318 0048 D2B2     		uxtb	r2, r2
 319 004a 1A70     		strb	r2, [r3]
 261:.\Generated_Source\PSoC5/cyfitter_cfg.c **** 
 262:.\Generated_Source\PSoC5/cyfitter_cfg.c **** 	/* Configure PLL based on settings from Clock DWR */
 263:.\Generated_Source\PSoC5/cyfitter_cfg.c **** 	CY_SET_XTND_REG16((void CYFAR *)(CYREG_FASTCLK_PLL_P), 0x070Fu);
 320              		.loc 1 263 0
 321 004c 334B     		ldr	r3, .L16+48
 322 004e 40F20F72 		movw	r2, #1807
 323 0052 1A80     		strh	r2, [r3]	@ movhi
 264:.\Generated_Source\PSoC5/cyfitter_cfg.c **** 	CY_SET_XTND_REG16((void CYFAR *)(CYREG_FASTCLK_PLL_CFG0), 0x1251u);
 324              		.loc 1 264 0
 325 0054 324B     		ldr	r3, .L16+52
 326 0056 41F25122 		movw	r2, #4689
 327 005a 1A80     		strh	r2, [r3]	@ movhi
 265:.\Generated_Source\PSoC5/cyfitter_cfg.c **** 	/* Wait up to 250us for the PLL to lock */
 266:.\Generated_Source\PSoC5/cyfitter_cfg.c **** 	pllLock = 0u;
 328              		.loc 1 266 0
 329 005c 0023     		movs	r3, #0
 330 005e FB70     		strb	r3, [r7, #3]
 267:.\Generated_Source\PSoC5/cyfitter_cfg.c **** 	for (timeout = 250u / 10u; (timeout > 0u) && (pllLock != 0x03u); timeout--)
 331              		.loc 1 267 0
 332 0060 1923     		movs	r3, #25
 333 0062 7B60     		str	r3, [r7, #4]
 334 0064 14E0     		b	.L12
 335              	.L14:
 268:.\Generated_Source\PSoC5/cyfitter_cfg.c **** 	{ 
 269:.\Generated_Source\PSoC5/cyfitter_cfg.c **** 		pllLock = 0x03u & ((uint8)((uint8)pllLock << 1) | ((CY_GET_XTND_REG8((void CYFAR *)CYREG_FASTCLK_
 336              		.loc 1 269 0 discriminator 4
 337 0066 FB78     		ldrb	r3, [r7, #3]
 338 0068 5B00     		lsls	r3, r3, #1
 339 006a DAB2     		uxtb	r2, r3
 340 006c 2D4B     		ldr	r3, .L16+56
 341 006e 1B78     		ldrb	r3, [r3]
 342 0070 DBB2     		uxtb	r3, r3
 343 0072 03F00103 		and	r3, r3, #1
 344 0076 DBB2     		uxtb	r3, r3
 345 0078 1343     		orrs	r3, r3, r2
 346 007a DBB2     		uxtb	r3, r3
 347 007c 03F00303 		and	r3, r3, #3
 348 0080 FB70     		strb	r3, [r7, #3]
 270:.\Generated_Source\PSoC5/cyfitter_cfg.c **** 		CyDelayCycles(10u * 48u); /* Delay 10us based on 48MHz clock */
 349              		.loc 1 270 0 discriminator 4
 350 0082 4FF4F070 		mov	r0, #480
 351 0086 FFF7FEFF 		bl	CyDelayCycles
 267:.\Generated_Source\PSoC5/cyfitter_cfg.c **** 	for (timeout = 250u / 10u; (timeout > 0u) && (pllLock != 0x03u); timeout--)
 352              		.loc 1 267 0 discriminator 4
 353 008a 7B68     		ldr	r3, [r7, #4]
ARM GAS  C:\USERS\LUKAS\APPDATA\LOCAL\TEMP\cctz5fJI.s 			page 12


 354 008c 013B     		subs	r3, r3, #1
 355 008e 7B60     		str	r3, [r7, #4]
 356              	.L12:
 267:.\Generated_Source\PSoC5/cyfitter_cfg.c **** 	for (timeout = 250u / 10u; (timeout > 0u) && (pllLock != 0x03u); timeout--)
 357              		.loc 1 267 0 is_stmt 0 discriminator 1
 358 0090 7B68     		ldr	r3, [r7, #4]
 359 0092 002B     		cmp	r3, #0
 360 0094 02D0     		beq	.L13
 267:.\Generated_Source\PSoC5/cyfitter_cfg.c **** 	for (timeout = 250u / 10u; (timeout > 0u) && (pllLock != 0x03u); timeout--)
 361              		.loc 1 267 0 discriminator 3
 362 0096 FB78     		ldrb	r3, [r7, #3]	@ zero_extendqisi2
 363 0098 032B     		cmp	r3, #3
 364 009a E4D1     		bne	.L14
 365              	.L13:
 271:.\Generated_Source\PSoC5/cyfitter_cfg.c **** 	}
 272:.\Generated_Source\PSoC5/cyfitter_cfg.c **** 	/* If we ran out of time the PLL didn't lock so go to the error function */
 273:.\Generated_Source\PSoC5/cyfitter_cfg.c **** 	if (timeout == 0u)
 366              		.loc 1 273 0 is_stmt 1
 367 009c 7B68     		ldr	r3, [r7, #4]
 368 009e 002B     		cmp	r3, #0
 369 00a0 02D1     		bne	.L15
 274:.\Generated_Source\PSoC5/cyfitter_cfg.c **** 	{
 275:.\Generated_Source\PSoC5/cyfitter_cfg.c **** 		CyClockStartupError(CYCLOCKSTART_PLL_ERROR);
 370              		.loc 1 275 0
 371 00a2 0320     		movs	r0, #3
 372 00a4 FFF7FEFF 		bl	CyClockStartupError
 373              	.L15:
 276:.\Generated_Source\PSoC5/cyfitter_cfg.c **** 	}
 277:.\Generated_Source\PSoC5/cyfitter_cfg.c **** 
 278:.\Generated_Source\PSoC5/cyfitter_cfg.c **** 	/* Configure Bus/Master Clock based on settings from Clock DWR */
 279:.\Generated_Source\PSoC5/cyfitter_cfg.c **** 	CY_SET_XTND_REG16((void CYFAR *)(CYREG_CLKDIST_MSTR0), 0x0100u);
 374              		.loc 1 279 0
 375 00a8 1F4B     		ldr	r3, .L16+60
 376 00aa 4FF48072 		mov	r2, #256
 377 00ae 1A80     		strh	r2, [r3]	@ movhi
 280:.\Generated_Source\PSoC5/cyfitter_cfg.c **** 	CY_SET_XTND_REG8((void CYFAR *)(CYREG_CLKDIST_MSTR0), 0x07u);
 378              		.loc 1 280 0
 379 00b0 1D4B     		ldr	r3, .L16+60
 380 00b2 0722     		movs	r2, #7
 381 00b4 1A70     		strb	r2, [r3]
 281:.\Generated_Source\PSoC5/cyfitter_cfg.c **** 	CY_SET_XTND_REG8((void CYFAR *)(CYREG_CLKDIST_BCFG0), 0x00u);
 382              		.loc 1 281 0
 383 00b6 1D4B     		ldr	r3, .L16+64
 384 00b8 0022     		movs	r2, #0
 385 00ba 1A70     		strb	r2, [r3]
 282:.\Generated_Source\PSoC5/cyfitter_cfg.c **** 	CY_SET_XTND_REG8((void CYFAR *)(CYREG_CLKDIST_BCFG2), 0x48u);
 386              		.loc 1 282 0
 387 00bc 1C4B     		ldr	r3, .L16+68
 388 00be 4822     		movs	r2, #72
 389 00c0 1A70     		strb	r2, [r3]
 283:.\Generated_Source\PSoC5/cyfitter_cfg.c **** 	CY_SET_XTND_REG8((void CYFAR *)(CYREG_CLKDIST_MSTR0), 0x00u);
 390              		.loc 1 283 0
 391 00c2 194B     		ldr	r3, .L16+60
 392 00c4 0022     		movs	r2, #0
 393 00c6 1A70     		strb	r2, [r3]
 284:.\Generated_Source\PSoC5/cyfitter_cfg.c **** 
 285:.\Generated_Source\PSoC5/cyfitter_cfg.c **** 	/* Configure USB Clock based on settings from Clock DWR */
ARM GAS  C:\USERS\LUKAS\APPDATA\LOCAL\TEMP\cctz5fJI.s 			page 13


 286:.\Generated_Source\PSoC5/cyfitter_cfg.c **** 	CY_SET_XTND_REG8((void CYFAR *)(CYREG_CLKDIST_UCFG), 0x00u);
 394              		.loc 1 286 0
 395 00c8 1A4B     		ldr	r3, .L16+72
 396 00ca 0022     		movs	r2, #0
 397 00cc 1A70     		strb	r2, [r3]
 287:.\Generated_Source\PSoC5/cyfitter_cfg.c **** 	CY_SET_XTND_REG8((void CYFAR *)(CYREG_CLKDIST_LD), 0x02u);
 398              		.loc 1 287 0
 399 00ce 1A4B     		ldr	r3, .L16+76
 400 00d0 0222     		movs	r2, #2
 401 00d2 1A70     		strb	r2, [r3]
 288:.\Generated_Source\PSoC5/cyfitter_cfg.c **** 
 289:.\Generated_Source\PSoC5/cyfitter_cfg.c **** 	CY_SET_XTND_REG8((void CYFAR *)(CYREG_PM_ACT_CFG2), ((CY_GET_XTND_REG8((void CYFAR *)CYREG_PM_ACT_
 402              		.loc 1 289 0
 403 00d4 194A     		ldr	r2, .L16+80
 404 00d6 194B     		ldr	r3, .L16+80
 405 00d8 1B78     		ldrb	r3, [r3]
 406 00da DBB2     		uxtb	r3, r3
 407 00dc 43F00F03 		orr	r3, r3, #15
 408 00e0 DBB2     		uxtb	r3, r3
 409 00e2 1370     		strb	r3, [r2]
 290:.\Generated_Source\PSoC5/cyfitter_cfg.c **** }
 410              		.loc 1 290 0
 411 00e4 0837     		adds	r7, r7, #8
 412              		.cfi_def_cfa_offset 8
 413 00e6 BD46     		mov	sp, r7
 414              		.cfi_def_cfa_register 13
 415              		@ sp needed
 416 00e8 80BD     		pop	{r7, pc}
 417              	.L17:
 418 00ea 00BF     		.align	2
 419              	.L16:
 420 00ec 80400040 		.word	1073758336
 421 00f0 82400040 		.word	1073758338
 422 00f4 84400040 		.word	1073758340
 423 00f8 86400040 		.word	1073758342
 424 00fc 88400040 		.word	1073758344
 425 0100 8A400040 		.word	1073758346
 426 0104 8C400040 		.word	1073758348
 427 0108 8E400040 		.word	1073758350
 428 010c 00430040 		.word	1073758976
 429 0110 00420040 		.word	1073758720
 430 0114 A1460040 		.word	1073759905
 431 0118 0F010049 		.word	1224737039
 432 011c 22420040 		.word	1073758754
 433 0120 20420040 		.word	1073758752
 434 0124 25420040 		.word	1073758757
 435 0128 04400040 		.word	1073758212
 436 012c 06400040 		.word	1073758214
 437 0130 08400040 		.word	1073758216
 438 0134 09400040 		.word	1073758217
 439 0138 01400040 		.word	1073758209
 440 013c A2430040 		.word	1073759138
 441              		.cfi_endproc
 442              	.LFE5:
 443              		.size	ClockSetup, .-ClockSetup
 444              		.section	.text.AnalogSetDefault,"ax",%progbits
 445              		.align	2
ARM GAS  C:\USERS\LUKAS\APPDATA\LOCAL\TEMP\cctz5fJI.s 			page 14


 446              		.thumb
 447              		.thumb_func
 448              		.type	AnalogSetDefault, %function
 449              	AnalogSetDefault:
 450              	.LFB6:
 291:.\Generated_Source\PSoC5/cyfitter_cfg.c **** 
 292:.\Generated_Source\PSoC5/cyfitter_cfg.c **** 
 293:.\Generated_Source\PSoC5/cyfitter_cfg.c **** /* Analog API Functions */
 294:.\Generated_Source\PSoC5/cyfitter_cfg.c **** 
 295:.\Generated_Source\PSoC5/cyfitter_cfg.c **** 
 296:.\Generated_Source\PSoC5/cyfitter_cfg.c **** /*******************************************************************************
 297:.\Generated_Source\PSoC5/cyfitter_cfg.c **** * Function Name: AnalogSetDefault
 298:.\Generated_Source\PSoC5/cyfitter_cfg.c **** ********************************************************************************
 299:.\Generated_Source\PSoC5/cyfitter_cfg.c **** *
 300:.\Generated_Source\PSoC5/cyfitter_cfg.c **** * Summary:
 301:.\Generated_Source\PSoC5/cyfitter_cfg.c **** *  Sets up the analog portions of the chip to default values based on chip
 302:.\Generated_Source\PSoC5/cyfitter_cfg.c **** *  configuration options from the project.
 303:.\Generated_Source\PSoC5/cyfitter_cfg.c **** *
 304:.\Generated_Source\PSoC5/cyfitter_cfg.c **** * Parameters:
 305:.\Generated_Source\PSoC5/cyfitter_cfg.c **** *  void
 306:.\Generated_Source\PSoC5/cyfitter_cfg.c **** *
 307:.\Generated_Source\PSoC5/cyfitter_cfg.c **** * Return:
 308:.\Generated_Source\PSoC5/cyfitter_cfg.c **** *  void
 309:.\Generated_Source\PSoC5/cyfitter_cfg.c **** *
 310:.\Generated_Source\PSoC5/cyfitter_cfg.c **** *******************************************************************************/
 311:.\Generated_Source\PSoC5/cyfitter_cfg.c **** static void AnalogSetDefault(void);
 312:.\Generated_Source\PSoC5/cyfitter_cfg.c **** static void AnalogSetDefault(void)
 313:.\Generated_Source\PSoC5/cyfitter_cfg.c **** {
 451              		.loc 1 313 0
 452              		.cfi_startproc
 453              		@ args = 0, pretend = 0, frame = 8
 454              		@ frame_needed = 1, uses_anonymous_args = 0
 455              		@ link register save eliminated.
 456 0000 80B4     		push	{r7}
 457              		.cfi_def_cfa_offset 4
 458              		.cfi_offset 7, -4
 459 0002 83B0     		sub	sp, sp, #12
 460              		.cfi_def_cfa_offset 16
 461 0004 00AF     		add	r7, sp, #0
 462              		.cfi_def_cfa_register 7
 314:.\Generated_Source\PSoC5/cyfitter_cfg.c **** 	uint8 bg_xover_inl_trim = CY_GET_XTND_REG8((void CYFAR *)(CYREG_FLSHID_MFG_CFG_BG_XOVER_INL_TRIM +
 463              		.loc 1 314 0
 464 0006 0B4B     		ldr	r3, .L19
 465 0008 1B78     		ldrb	r3, [r3]
 466 000a FB71     		strb	r3, [r7, #7]
 315:.\Generated_Source\PSoC5/cyfitter_cfg.c **** 	CY_SET_XTND_REG8((void CYFAR *)(CYREG_BG_DFT0), (bg_xover_inl_trim & 0x07u));
 467              		.loc 1 315 0
 468 000c 0A4A     		ldr	r2, .L19+4
 469 000e FB79     		ldrb	r3, [r7, #7]
 470 0010 03F00703 		and	r3, r3, #7
 471 0014 DBB2     		uxtb	r3, r3
 472 0016 1370     		strb	r3, [r2]
 316:.\Generated_Source\PSoC5/cyfitter_cfg.c **** 	CY_SET_XTND_REG8((void CYFAR *)(CYREG_BG_DFT1), ((bg_xover_inl_trim >> 4) & 0x0Fu));
 473              		.loc 1 316 0
 474 0018 084A     		ldr	r2, .L19+8
 475 001a FB79     		ldrb	r3, [r7, #7]	@ zero_extendqisi2
 476 001c 1B09     		lsrs	r3, r3, #4
ARM GAS  C:\USERS\LUKAS\APPDATA\LOCAL\TEMP\cctz5fJI.s 			page 15


 477 001e DBB2     		uxtb	r3, r3
 478 0020 1370     		strb	r3, [r2]
 317:.\Generated_Source\PSoC5/cyfitter_cfg.c **** 	CY_SET_XTND_REG8((void CYFAR *)CYREG_PUMP_CR0, 0x44u);
 479              		.loc 1 317 0
 480 0022 074B     		ldr	r3, .L19+12
 481 0024 4422     		movs	r2, #68
 482 0026 1A70     		strb	r2, [r3]
 318:.\Generated_Source\PSoC5/cyfitter_cfg.c **** }
 483              		.loc 1 318 0
 484 0028 0C37     		adds	r7, r7, #12
 485              		.cfi_def_cfa_offset 4
 486 002a BD46     		mov	sp, r7
 487              		.cfi_def_cfa_register 13
 488              		@ sp needed
 489 002c 5DF8047B 		ldr	r7, [sp], #4
 490              		.cfi_restore 7
 491              		.cfi_def_cfa_offset 0
 492 0030 7047     		bx	lr
 493              	.L20:
 494 0032 00BF     		.align	2
 495              	.L19:
 496 0034 CF010049 		.word	1224737231
 497 0038 6E580040 		.word	1073764462
 498 003c 6F580040 		.word	1073764463
 499 0040 76580040 		.word	1073764470
 500              		.cfi_endproc
 501              	.LFE6:
 502              		.size	AnalogSetDefault, .-AnalogSetDefault
 503              		.section	.text.SetAnalogRoutingPumps,"ax",%progbits
 504              		.align	2
 505              		.global	SetAnalogRoutingPumps
 506              		.thumb
 507              		.thumb_func
 508              		.type	SetAnalogRoutingPumps, %function
 509              	SetAnalogRoutingPumps:
 510              	.LFB7:
 319:.\Generated_Source\PSoC5/cyfitter_cfg.c **** 
 320:.\Generated_Source\PSoC5/cyfitter_cfg.c **** 
 321:.\Generated_Source\PSoC5/cyfitter_cfg.c **** /*******************************************************************************
 322:.\Generated_Source\PSoC5/cyfitter_cfg.c **** * Function Name: SetAnalogRoutingPumps
 323:.\Generated_Source\PSoC5/cyfitter_cfg.c **** ********************************************************************************
 324:.\Generated_Source\PSoC5/cyfitter_cfg.c **** *
 325:.\Generated_Source\PSoC5/cyfitter_cfg.c **** * Summary:
 326:.\Generated_Source\PSoC5/cyfitter_cfg.c **** * Enables or disables the analog pumps feeding analog routing switches.
 327:.\Generated_Source\PSoC5/cyfitter_cfg.c **** * Intended to be called at startup, based on the Vdda system configuration;
 328:.\Generated_Source\PSoC5/cyfitter_cfg.c **** * may be called during operation when the user informs us that the Vdda voltage
 329:.\Generated_Source\PSoC5/cyfitter_cfg.c **** * crossed the pump threshold.
 330:.\Generated_Source\PSoC5/cyfitter_cfg.c **** *
 331:.\Generated_Source\PSoC5/cyfitter_cfg.c **** * Parameters:
 332:.\Generated_Source\PSoC5/cyfitter_cfg.c **** *  enabled - 1 to enable the pumps, 0 to disable the pumps
 333:.\Generated_Source\PSoC5/cyfitter_cfg.c **** *
 334:.\Generated_Source\PSoC5/cyfitter_cfg.c **** * Return:
 335:.\Generated_Source\PSoC5/cyfitter_cfg.c **** *  void
 336:.\Generated_Source\PSoC5/cyfitter_cfg.c **** *
 337:.\Generated_Source\PSoC5/cyfitter_cfg.c **** *******************************************************************************/
 338:.\Generated_Source\PSoC5/cyfitter_cfg.c **** void SetAnalogRoutingPumps(uint8 enabled)
 339:.\Generated_Source\PSoC5/cyfitter_cfg.c **** {
ARM GAS  C:\USERS\LUKAS\APPDATA\LOCAL\TEMP\cctz5fJI.s 			page 16


 511              		.loc 1 339 0
 512              		.cfi_startproc
 513              		@ args = 0, pretend = 0, frame = 16
 514              		@ frame_needed = 1, uses_anonymous_args = 0
 515              		@ link register save eliminated.
 516 0000 80B4     		push	{r7}
 517              		.cfi_def_cfa_offset 4
 518              		.cfi_offset 7, -4
 519 0002 85B0     		sub	sp, sp, #20
 520              		.cfi_def_cfa_offset 24
 521 0004 00AF     		add	r7, sp, #0
 522              		.cfi_def_cfa_register 7
 523 0006 0346     		mov	r3, r0
 524 0008 FB71     		strb	r3, [r7, #7]
 340:.\Generated_Source\PSoC5/cyfitter_cfg.c **** 	uint8 regValue = CY_GET_XTND_REG8((void CYFAR *)CYREG_PUMP_CR0);
 525              		.loc 1 340 0
 526 000a 064B     		ldr	r3, .L24
 527 000c 1B78     		ldrb	r3, [r3]
 528 000e FB73     		strb	r3, [r7, #15]
 341:.\Generated_Source\PSoC5/cyfitter_cfg.c **** 	if (enabled != 0u)
 529              		.loc 1 341 0
 530 0010 FB79     		ldrb	r3, [r7, #7]	@ zero_extendqisi2
 531 0012 002B     		cmp	r3, #0
 342:.\Generated_Source\PSoC5/cyfitter_cfg.c **** 	{
 343:.\Generated_Source\PSoC5/cyfitter_cfg.c **** 		regValue |= 0x00u;
 344:.\Generated_Source\PSoC5/cyfitter_cfg.c **** 	}
 345:.\Generated_Source\PSoC5/cyfitter_cfg.c **** 	else
 346:.\Generated_Source\PSoC5/cyfitter_cfg.c **** 	{
 347:.\Generated_Source\PSoC5/cyfitter_cfg.c **** 		regValue &= (uint8)~0x00u;
 348:.\Generated_Source\PSoC5/cyfitter_cfg.c **** 	}
 349:.\Generated_Source\PSoC5/cyfitter_cfg.c **** 	CY_SET_XTND_REG8((void CYFAR *)CYREG_PUMP_CR0, regValue);
 532              		.loc 1 349 0
 533 0014 034A     		ldr	r2, .L24
 534 0016 FB7B     		ldrb	r3, [r7, #15]
 535 0018 1370     		strb	r3, [r2]
 350:.\Generated_Source\PSoC5/cyfitter_cfg.c **** }
 536              		.loc 1 350 0
 537 001a 1437     		adds	r7, r7, #20
 538              		.cfi_def_cfa_offset 4
 539 001c BD46     		mov	sp, r7
 540              		.cfi_def_cfa_register 13
 541              		@ sp needed
 542 001e 5DF8047B 		ldr	r7, [sp], #4
 543              		.cfi_restore 7
 544              		.cfi_def_cfa_offset 0
 545 0022 7047     		bx	lr
 546              	.L25:
 547              		.align	2
 548              	.L24:
 549 0024 76580040 		.word	1073764470
 550              		.cfi_endproc
 551              	.LFE7:
 552              		.size	SetAnalogRoutingPumps, .-SetAnalogRoutingPumps
 553              		.section	.text.cyfitter_cfg,"ax",%progbits
 554              		.align	2
 555              		.global	cyfitter_cfg
 556              		.thumb
ARM GAS  C:\USERS\LUKAS\APPDATA\LOCAL\TEMP\cctz5fJI.s 			page 17


 557              		.thumb_func
 558              		.type	cyfitter_cfg, %function
 559              	cyfitter_cfg:
 560              	.LFB8:
 351:.\Generated_Source\PSoC5/cyfitter_cfg.c **** 
 352:.\Generated_Source\PSoC5/cyfitter_cfg.c **** #define CY_AMUX_UNUSED CYREG_BOOST_SR
 353:.\Generated_Source\PSoC5/cyfitter_cfg.c **** 
 354:.\Generated_Source\PSoC5/cyfitter_cfg.c **** 
 355:.\Generated_Source\PSoC5/cyfitter_cfg.c **** /*******************************************************************************
 356:.\Generated_Source\PSoC5/cyfitter_cfg.c **** * Function Name: cyfitter_cfg
 357:.\Generated_Source\PSoC5/cyfitter_cfg.c **** ********************************************************************************
 358:.\Generated_Source\PSoC5/cyfitter_cfg.c **** * Summary:
 359:.\Generated_Source\PSoC5/cyfitter_cfg.c **** *  This function is called by the start-up code for the selected device. It
 360:.\Generated_Source\PSoC5/cyfitter_cfg.c **** *  performs all of the necessary device configuration based on the design
 361:.\Generated_Source\PSoC5/cyfitter_cfg.c **** *  settings.  This includes settings from the Design Wide Resources (DWR) such
 362:.\Generated_Source\PSoC5/cyfitter_cfg.c **** *  as Clocks and Pins as well as any component configuration that is necessary.
 363:.\Generated_Source\PSoC5/cyfitter_cfg.c **** *
 364:.\Generated_Source\PSoC5/cyfitter_cfg.c **** * Parameters:  
 365:.\Generated_Source\PSoC5/cyfitter_cfg.c **** *   void
 366:.\Generated_Source\PSoC5/cyfitter_cfg.c **** *
 367:.\Generated_Source\PSoC5/cyfitter_cfg.c **** * Return:
 368:.\Generated_Source\PSoC5/cyfitter_cfg.c **** *   void
 369:.\Generated_Source\PSoC5/cyfitter_cfg.c **** *
 370:.\Generated_Source\PSoC5/cyfitter_cfg.c **** *******************************************************************************/
 371:.\Generated_Source\PSoC5/cyfitter_cfg.c **** 
 372:.\Generated_Source\PSoC5/cyfitter_cfg.c **** void cyfitter_cfg(void)
 373:.\Generated_Source\PSoC5/cyfitter_cfg.c **** {
 561              		.loc 1 373 0
 562              		.cfi_startproc
 563              		@ args = 0, pretend = 0, frame = 24
 564              		@ frame_needed = 1, uses_anonymous_args = 0
 565 0000 80B5     		push	{r7, lr}
 566              		.cfi_def_cfa_offset 8
 567              		.cfi_offset 7, -8
 568              		.cfi_offset 14, -4
 569 0002 86B0     		sub	sp, sp, #24
 570              		.cfi_def_cfa_offset 32
 571 0004 00AF     		add	r7, sp, #0
 572              		.cfi_def_cfa_register 7
 374:.\Generated_Source\PSoC5/cyfitter_cfg.c **** #ifdef CYGlobalIntDisable
 375:.\Generated_Source\PSoC5/cyfitter_cfg.c **** 	/* Disable interrupts by default. Let user enable if/when they want. */
 376:.\Generated_Source\PSoC5/cyfitter_cfg.c **** 	CYGlobalIntDisable
 573              		.loc 1 376 0
 574              	@ 376 ".\Generated_Source\PSoC5\cyfitter_cfg.c" 1
 575 0006 72B6     		CPSID   i
 576              	@ 0 "" 2
 577              		.thumb
 578              	.LBB3:
 377:.\Generated_Source\PSoC5/cyfitter_cfg.c **** #endif
 378:.\Generated_Source\PSoC5/cyfitter_cfg.c **** 
 379:.\Generated_Source\PSoC5/cyfitter_cfg.c **** 	{
 380:.\Generated_Source\PSoC5/cyfitter_cfg.c **** 
 381:.\Generated_Source\PSoC5/cyfitter_cfg.c **** 		CYPACKED typedef struct {
 382:.\Generated_Source\PSoC5/cyfitter_cfg.c **** 			void CYFAR *address;
 383:.\Generated_Source\PSoC5/cyfitter_cfg.c **** 			uint16 size;
 384:.\Generated_Source\PSoC5/cyfitter_cfg.c **** 		} CYPACKED_ATTR cfg_memset_t;
 385:.\Generated_Source\PSoC5/cyfitter_cfg.c **** 
ARM GAS  C:\USERS\LUKAS\APPDATA\LOCAL\TEMP\cctz5fJI.s 			page 18


 386:.\Generated_Source\PSoC5/cyfitter_cfg.c **** 
 387:.\Generated_Source\PSoC5/cyfitter_cfg.c **** 		CYPACKED typedef struct {
 388:.\Generated_Source\PSoC5/cyfitter_cfg.c **** 			void CYFAR *dest;
 389:.\Generated_Source\PSoC5/cyfitter_cfg.c **** 			const void CYFAR *src;
 390:.\Generated_Source\PSoC5/cyfitter_cfg.c **** 			uint16 size;
 391:.\Generated_Source\PSoC5/cyfitter_cfg.c **** 		} CYPACKED_ATTR cfg_memcpy_t;
 392:.\Generated_Source\PSoC5/cyfitter_cfg.c **** 
 393:.\Generated_Source\PSoC5/cyfitter_cfg.c **** 		static const cfg_memset_t CYCODE cfg_memset_list [] = {
 394:.\Generated_Source\PSoC5/cyfitter_cfg.c **** 			/* address, size */
 395:.\Generated_Source\PSoC5/cyfitter_cfg.c **** 			{(void CYFAR *)(CYREG_I2C_XCFG), 25u},
 396:.\Generated_Source\PSoC5/cyfitter_cfg.c **** 			{(void CYFAR *)(CYREG_PRT4_DR), 48u},
 397:.\Generated_Source\PSoC5/cyfitter_cfg.c **** 			{(void CYFAR *)(CYDEV_UCFG_B0_P0_U0_BASE), 4096u},
 398:.\Generated_Source\PSoC5/cyfitter_cfg.c **** 			{(void CYFAR *)(CYDEV_UCFG_B1_P2_U0_BASE), 512u},
 399:.\Generated_Source\PSoC5/cyfitter_cfg.c **** 			{(void CYFAR *)(CYDEV_UCFG_B1_P3_U1_BASE), 1408u},
 400:.\Generated_Source\PSoC5/cyfitter_cfg.c **** 			{(void CYFAR *)(CYDEV_UCFG_DSI0_BASE), 2560u},
 401:.\Generated_Source\PSoC5/cyfitter_cfg.c **** 			{(void CYFAR *)(CYDEV_UCFG_DSI12_BASE), 512u},
 402:.\Generated_Source\PSoC5/cyfitter_cfg.c **** 			{(void CYFAR *)(CYREG_BCTL1_MDCLK_EN), 16u},
 403:.\Generated_Source\PSoC5/cyfitter_cfg.c **** 		};
 404:.\Generated_Source\PSoC5/cyfitter_cfg.c **** 
 405:.\Generated_Source\PSoC5/cyfitter_cfg.c **** 		static const cfg_memcpy_t CYCODE cfg_memcpy_list [] = {
 406:.\Generated_Source\PSoC5/cyfitter_cfg.c **** 			/* dest, src, size */
 407:.\Generated_Source\PSoC5/cyfitter_cfg.c **** 			{(void CYFAR *)(CYREG_IDMUX_DRQ_CTL0), BS_IDMUX_VAL, 6u},
 408:.\Generated_Source\PSoC5/cyfitter_cfg.c **** 			{(void CYFAR *)(CYREG_IDMUX_IRQ_CTL0), BS_IDMUX_IRQ_VAL, 8u},
 409:.\Generated_Source\PSoC5/cyfitter_cfg.c **** 			{(void CYFAR *)(CYDEV_UCFG_B1_P3_U0_BASE), BS_UDB_1_1_1_CONFIG_VAL, 128u},
 410:.\Generated_Source\PSoC5/cyfitter_cfg.c **** 			{(void CYFAR *)(CYREG_BCTL0_MDCLK_EN), BS_UCFG_BCTL0_VAL, 16u},
 411:.\Generated_Source\PSoC5/cyfitter_cfg.c **** 		};
 412:.\Generated_Source\PSoC5/cyfitter_cfg.c **** 
 413:.\Generated_Source\PSoC5/cyfitter_cfg.c **** 		uint8 CYDATA i;
 414:.\Generated_Source\PSoC5/cyfitter_cfg.c **** 
 415:.\Generated_Source\PSoC5/cyfitter_cfg.c **** 		/* Zero out critical memory blocks before beginning configuration */
 416:.\Generated_Source\PSoC5/cyfitter_cfg.c **** 		for (i = 0u; i < (sizeof(cfg_memset_list)/sizeof(cfg_memset_list[0])); i++)
 579              		.loc 1 416 0
 580 0008 0023     		movs	r3, #0
 581 000a FB75     		strb	r3, [r7, #23]
 582 000c 13E0     		b	.L27
 583              	.L28:
 584              	.LBB4:
 417:.\Generated_Source\PSoC5/cyfitter_cfg.c **** 		{
 418:.\Generated_Source\PSoC5/cyfitter_cfg.c **** 			const cfg_memset_t CYCODE * CYDATA ms = &cfg_memset_list[i];
 585              		.loc 1 418 0 discriminator 3
 586 000e FA7D     		ldrb	r2, [r7, #23]	@ zero_extendqisi2
 587 0010 1346     		mov	r3, r2
 588 0012 5B00     		lsls	r3, r3, #1
 589 0014 1344     		add	r3, r3, r2
 590 0016 5B00     		lsls	r3, r3, #1
 591 0018 7A4A     		ldr	r2, .L31
 592 001a 1344     		add	r3, r3, r2
 593 001c 3B61     		str	r3, [r7, #16]
 419:.\Generated_Source\PSoC5/cyfitter_cfg.c **** 			CYMEMZERO(ms->address, (size_t)(uint32)(ms->size));
 594              		.loc 1 419 0 discriminator 3
 595 001e 3B69     		ldr	r3, [r7, #16]
 596 0020 1A68     		ldr	r2, [r3]	@ unaligned
 597 0022 3B69     		ldr	r3, [r7, #16]
 598 0024 9B88     		ldrh	r3, [r3, #4]	@ unaligned
 599 0026 9BB2     		uxth	r3, r3
 600 0028 1046     		mov	r0, r2
 601 002a 1946     		mov	r1, r3
ARM GAS  C:\USERS\LUKAS\APPDATA\LOCAL\TEMP\cctz5fJI.s 			page 19


 602 002c FFF7FEFF 		bl	CYMEMZERO
 603              	.LBE4:
 416:.\Generated_Source\PSoC5/cyfitter_cfg.c **** 		{
 604              		.loc 1 416 0 discriminator 3
 605 0030 FB7D     		ldrb	r3, [r7, #23]	@ zero_extendqisi2
 606 0032 0133     		adds	r3, r3, #1
 607 0034 FB75     		strb	r3, [r7, #23]
 608              	.L27:
 416:.\Generated_Source\PSoC5/cyfitter_cfg.c **** 		{
 609              		.loc 1 416 0 is_stmt 0 discriminator 1
 610 0036 FB7D     		ldrb	r3, [r7, #23]	@ zero_extendqisi2
 611 0038 072B     		cmp	r3, #7
 612 003a E8D9     		bls	.L28
 420:.\Generated_Source\PSoC5/cyfitter_cfg.c **** 		}
 421:.\Generated_Source\PSoC5/cyfitter_cfg.c **** 
 422:.\Generated_Source\PSoC5/cyfitter_cfg.c **** 		/* Copy device configuration data into registers */
 423:.\Generated_Source\PSoC5/cyfitter_cfg.c **** 		for (i = 0u; i < (sizeof(cfg_memcpy_list)/sizeof(cfg_memcpy_list[0])); i++)
 613              		.loc 1 423 0 is_stmt 1
 614 003c 0023     		movs	r3, #0
 615 003e FB75     		strb	r3, [r7, #23]
 616 0040 1CE0     		b	.L29
 617              	.L30:
 618              	.LBB5:
 424:.\Generated_Source\PSoC5/cyfitter_cfg.c **** 		{
 425:.\Generated_Source\PSoC5/cyfitter_cfg.c **** 			const cfg_memcpy_t CYCODE * CYDATA mc = &cfg_memcpy_list[i];
 619              		.loc 1 425 0 discriminator 3
 620 0042 FA7D     		ldrb	r2, [r7, #23]	@ zero_extendqisi2
 621 0044 1346     		mov	r3, r2
 622 0046 9B00     		lsls	r3, r3, #2
 623 0048 1344     		add	r3, r3, r2
 624 004a 5B00     		lsls	r3, r3, #1
 625 004c 6E4A     		ldr	r2, .L31+4
 626 004e 1344     		add	r3, r3, r2
 627 0050 FB60     		str	r3, [r7, #12]
 426:.\Generated_Source\PSoC5/cyfitter_cfg.c **** 			void * CYDATA destPtr = mc->dest;
 628              		.loc 1 426 0 discriminator 3
 629 0052 FB68     		ldr	r3, [r7, #12]
 630 0054 1B68     		ldr	r3, [r3]	@ unaligned
 631 0056 BB60     		str	r3, [r7, #8]
 427:.\Generated_Source\PSoC5/cyfitter_cfg.c **** 			const void * CYDATA srcPtr = mc->src;
 632              		.loc 1 427 0 discriminator 3
 633 0058 FB68     		ldr	r3, [r7, #12]
 634 005a 5B68     		ldr	r3, [r3, #4]	@ unaligned
 635 005c 7B60     		str	r3, [r7, #4]
 428:.\Generated_Source\PSoC5/cyfitter_cfg.c **** 			uint16 CYDATA numBytes = mc->size;
 636              		.loc 1 428 0 discriminator 3
 637 005e FB68     		ldr	r3, [r7, #12]
 638 0060 1A7A     		ldrb	r2, [r3, #8]	@ zero_extendqisi2
 639 0062 5B7A     		ldrb	r3, [r3, #9]	@ zero_extendqisi2
 640 0064 1B02     		lsls	r3, r3, #8
 641 0066 1343     		orrs	r3, r3, r2
 642 0068 7B80     		strh	r3, [r7, #2]	@ movhi
 429:.\Generated_Source\PSoC5/cyfitter_cfg.c **** 			CYCONFIGCPY(destPtr, srcPtr, numBytes);
 643              		.loc 1 429 0 discriminator 3
 644 006a 7B88     		ldrh	r3, [r7, #2]
 645 006c B868     		ldr	r0, [r7, #8]
 646 006e 7968     		ldr	r1, [r7, #4]
ARM GAS  C:\USERS\LUKAS\APPDATA\LOCAL\TEMP\cctz5fJI.s 			page 20


 647 0070 1A46     		mov	r2, r3
 648 0072 FFF7FEFF 		bl	CYCONFIGCPY
 649              	.LBE5:
 423:.\Generated_Source\PSoC5/cyfitter_cfg.c **** 		{
 650              		.loc 1 423 0 discriminator 3
 651 0076 FB7D     		ldrb	r3, [r7, #23]	@ zero_extendqisi2
 652 0078 0133     		adds	r3, r3, #1
 653 007a FB75     		strb	r3, [r7, #23]
 654              	.L29:
 423:.\Generated_Source\PSoC5/cyfitter_cfg.c **** 		{
 655              		.loc 1 423 0 is_stmt 0 discriminator 1
 656 007c FB7D     		ldrb	r3, [r7, #23]	@ zero_extendqisi2
 657 007e 032B     		cmp	r3, #3
 658 0080 DFD9     		bls	.L30
 430:.\Generated_Source\PSoC5/cyfitter_cfg.c **** 		}
 431:.\Generated_Source\PSoC5/cyfitter_cfg.c **** 
 432:.\Generated_Source\PSoC5/cyfitter_cfg.c **** 		cfg_write_bytes32(cy_cfg_addr_table, cy_cfg_data_table);
 659              		.loc 1 432 0 is_stmt 1
 660 0082 4FF09040 		mov	r0, #1207959552
 661 0086 6149     		ldr	r1, .L31+8
 662 0088 FFF7FEFF 		bl	cfg_write_bytes32
 433:.\Generated_Source\PSoC5/cyfitter_cfg.c **** 
 434:.\Generated_Source\PSoC5/cyfitter_cfg.c **** 		/* Perform normal device configuration. Order is not critical for these items. */
 435:.\Generated_Source\PSoC5/cyfitter_cfg.c **** 		CYMEMZERO((void CYFAR *)(CYREG_PHUB_CFGMEM0_CFG0), 4u);
 663              		.loc 1 435 0
 664 008c 6048     		ldr	r0, .L31+12
 665 008e 0421     		movs	r1, #4
 666 0090 FFF7FEFF 		bl	CYMEMZERO
 436:.\Generated_Source\PSoC5/cyfitter_cfg.c **** 		CYMEMZERO((void CYFAR *)(CYREG_PHUB_CFGMEM10_CFG0), 4u);
 667              		.loc 1 436 0
 668 0094 5F48     		ldr	r0, .L31+16
 669 0096 0421     		movs	r1, #4
 670 0098 FFF7FEFF 		bl	CYMEMZERO
 437:.\Generated_Source\PSoC5/cyfitter_cfg.c **** 		CYCONFIGCPY((void CYFAR *)(CYREG_PHUB_CFGMEM11_CFG0), (const void CYFAR *)(BS_PHUB_CFGMEM11_VAL),
 671              		.loc 1 437 0
 672 009c 5E48     		ldr	r0, .L31+20
 673 009e 5F49     		ldr	r1, .L31+24
 674 00a0 0422     		movs	r2, #4
 675 00a2 FFF7FEFF 		bl	CYCONFIGCPY
 438:.\Generated_Source\PSoC5/cyfitter_cfg.c **** 		CYCONFIGCPY((void CYFAR *)(CYREG_PHUB_CFGMEM12_CFG0), (const void CYFAR *)(BS_PHUB_CFGMEM12_VAL),
 676              		.loc 1 438 0
 677 00a6 5E48     		ldr	r0, .L31+28
 678 00a8 5E49     		ldr	r1, .L31+32
 679 00aa 0422     		movs	r2, #4
 680 00ac FFF7FEFF 		bl	CYCONFIGCPY
 439:.\Generated_Source\PSoC5/cyfitter_cfg.c **** 		CYCONFIGCPY((void CYFAR *)(CYREG_PHUB_CFGMEM13_CFG0), (const void CYFAR *)(BS_PHUB_CFGMEM13_VAL),
 681              		.loc 1 439 0
 682 00b0 5D48     		ldr	r0, .L31+36
 683 00b2 5E49     		ldr	r1, .L31+40
 684 00b4 0422     		movs	r2, #4
 685 00b6 FFF7FEFF 		bl	CYCONFIGCPY
 440:.\Generated_Source\PSoC5/cyfitter_cfg.c **** 		CYCONFIGCPY((void CYFAR *)(CYREG_PHUB_CFGMEM14_CFG0), (const void CYFAR *)(BS_PHUB_CFGMEM14_VAL),
 686              		.loc 1 440 0
 687 00ba 5D48     		ldr	r0, .L31+44
 688 00bc 5D49     		ldr	r1, .L31+48
 689 00be 0422     		movs	r2, #4
 690 00c0 FFF7FEFF 		bl	CYCONFIGCPY
ARM GAS  C:\USERS\LUKAS\APPDATA\LOCAL\TEMP\cctz5fJI.s 			page 21


 441:.\Generated_Source\PSoC5/cyfitter_cfg.c **** 		CYMEMZERO((void CYFAR *)(CYREG_PHUB_CFGMEM1_CFG0), 4u);
 691              		.loc 1 441 0
 692 00c4 5C48     		ldr	r0, .L31+52
 693 00c6 0421     		movs	r1, #4
 694 00c8 FFF7FEFF 		bl	CYMEMZERO
 442:.\Generated_Source\PSoC5/cyfitter_cfg.c **** 		CYCONFIGCPY((void CYFAR *)(CYREG_PHUB_CFGMEM2_CFG0), (const void CYFAR *)(BS_PHUB_CFGMEM2_VAL), 4
 695              		.loc 1 442 0
 696 00cc 5B48     		ldr	r0, .L31+56
 697 00ce 5C49     		ldr	r1, .L31+60
 698 00d0 0422     		movs	r2, #4
 699 00d2 FFF7FEFF 		bl	CYCONFIGCPY
 443:.\Generated_Source\PSoC5/cyfitter_cfg.c **** 		CYMEMZERO((void CYFAR *)(CYREG_PHUB_CFGMEM3_CFG0), 4u);
 700              		.loc 1 443 0
 701 00d6 5B48     		ldr	r0, .L31+64
 702 00d8 0421     		movs	r1, #4
 703 00da FFF7FEFF 		bl	CYMEMZERO
 444:.\Generated_Source\PSoC5/cyfitter_cfg.c **** 		CYCONFIGCPY((void CYFAR *)(CYREG_PHUB_CFGMEM4_CFG0), (const void CYFAR *)(BS_PHUB_CFGMEM4_VAL), 4
 704              		.loc 1 444 0
 705 00de 5A48     		ldr	r0, .L31+68
 706 00e0 5A49     		ldr	r1, .L31+72
 707 00e2 0422     		movs	r2, #4
 708 00e4 FFF7FEFF 		bl	CYCONFIGCPY
 445:.\Generated_Source\PSoC5/cyfitter_cfg.c **** 		CYMEMZERO((void CYFAR *)(CYREG_PHUB_CFGMEM5_CFG0), 4u);
 709              		.loc 1 445 0
 710 00e8 5948     		ldr	r0, .L31+76
 711 00ea 0421     		movs	r1, #4
 712 00ec FFF7FEFF 		bl	CYMEMZERO
 446:.\Generated_Source\PSoC5/cyfitter_cfg.c **** 		CYMEMZERO((void CYFAR *)(CYREG_PHUB_CFGMEM6_CFG0), 4u);
 713              		.loc 1 446 0
 714 00f0 5848     		ldr	r0, .L31+80
 715 00f2 0421     		movs	r1, #4
 716 00f4 FFF7FEFF 		bl	CYMEMZERO
 447:.\Generated_Source\PSoC5/cyfitter_cfg.c **** 		CYMEMZERO((void CYFAR *)(CYREG_PHUB_CFGMEM7_CFG0), 4u);
 717              		.loc 1 447 0
 718 00f8 5748     		ldr	r0, .L31+84
 719 00fa 0421     		movs	r1, #4
 720 00fc FFF7FEFF 		bl	CYMEMZERO
 448:.\Generated_Source\PSoC5/cyfitter_cfg.c **** 		CYCONFIGCPY((void CYFAR *)(CYREG_PHUB_CFGMEM8_CFG0), (const void CYFAR *)(BS_PHUB_CFGMEM8_VAL), 4
 721              		.loc 1 448 0
 722 0100 5648     		ldr	r0, .L31+88
 723 0102 5749     		ldr	r1, .L31+92
 724 0104 0422     		movs	r2, #4
 725 0106 FFF7FEFF 		bl	CYCONFIGCPY
 449:.\Generated_Source\PSoC5/cyfitter_cfg.c **** 		CYMEMZERO((void CYFAR *)(CYREG_PHUB_CFGMEM9_CFG0), 4u);
 726              		.loc 1 449 0
 727 010a 5648     		ldr	r0, .L31+96
 728 010c 0421     		movs	r1, #4
 729 010e FFF7FEFF 		bl	CYMEMZERO
 450:.\Generated_Source\PSoC5/cyfitter_cfg.c **** 
 451:.\Generated_Source\PSoC5/cyfitter_cfg.c **** 		/* Enable digital routing */
 452:.\Generated_Source\PSoC5/cyfitter_cfg.c **** 		CY_SET_XTND_REG8((void CYFAR *)CYREG_BCTL0_BANK_CTL, CY_GET_XTND_REG8((void CYFAR *)CYREG_BCTL0_B
 730              		.loc 1 452 0
 731 0112 554A     		ldr	r2, .L31+100
 732 0114 544B     		ldr	r3, .L31+100
 733 0116 1B78     		ldrb	r3, [r3]
 734 0118 DBB2     		uxtb	r3, r3
 735 011a 43F00203 		orr	r3, r3, #2
ARM GAS  C:\USERS\LUKAS\APPDATA\LOCAL\TEMP\cctz5fJI.s 			page 22


 736 011e DBB2     		uxtb	r3, r3
 737 0120 1370     		strb	r3, [r2]
 453:.\Generated_Source\PSoC5/cyfitter_cfg.c **** 		CY_SET_XTND_REG8((void CYFAR *)CYREG_BCTL1_BANK_CTL, CY_GET_XTND_REG8((void CYFAR *)CYREG_BCTL1_B
 738              		.loc 1 453 0
 739 0122 524A     		ldr	r2, .L31+104
 740 0124 514B     		ldr	r3, .L31+104
 741 0126 1B78     		ldrb	r3, [r3]
 742 0128 DBB2     		uxtb	r3, r3
 743 012a 43F00203 		orr	r3, r3, #2
 744 012e DBB2     		uxtb	r3, r3
 745 0130 1370     		strb	r3, [r2]
 454:.\Generated_Source\PSoC5/cyfitter_cfg.c **** 
 455:.\Generated_Source\PSoC5/cyfitter_cfg.c **** 		/* Enable UDB array */
 456:.\Generated_Source\PSoC5/cyfitter_cfg.c **** 		CY_SET_XTND_REG8((void CYFAR *)CYREG_PM_ACT_CFG0, CY_GET_XTND_REG8((void CYFAR *)CYREG_PM_ACT_CFG
 746              		.loc 1 456 0
 747 0132 4F4A     		ldr	r2, .L31+108
 748 0134 4E4B     		ldr	r3, .L31+108
 749 0136 1B78     		ldrb	r3, [r3]
 750 0138 DBB2     		uxtb	r3, r3
 751 013a 43F04003 		orr	r3, r3, #64
 752 013e DBB2     		uxtb	r3, r3
 753 0140 1370     		strb	r3, [r2]
 457:.\Generated_Source\PSoC5/cyfitter_cfg.c **** 		CY_SET_XTND_REG8((void CYFAR *)CYREG_PM_AVAIL_CR2, CY_GET_XTND_REG8((void CYFAR *)CYREG_PM_AVAIL_
 754              		.loc 1 457 0
 755 0142 4C4A     		ldr	r2, .L31+112
 756 0144 4B4B     		ldr	r3, .L31+112
 757 0146 1B78     		ldrb	r3, [r3]
 758 0148 DBB2     		uxtb	r3, r3
 759 014a 43F01003 		orr	r3, r3, #16
 760 014e DBB2     		uxtb	r3, r3
 761 0150 1370     		strb	r3, [r2]
 762              	.LBE3:
 458:.\Generated_Source\PSoC5/cyfitter_cfg.c **** 	}
 459:.\Generated_Source\PSoC5/cyfitter_cfg.c **** 
 460:.\Generated_Source\PSoC5/cyfitter_cfg.c **** 
 461:.\Generated_Source\PSoC5/cyfitter_cfg.c **** 	/* Perform second pass device configuration. These items must be configured in specific order afte
 462:.\Generated_Source\PSoC5/cyfitter_cfg.c **** 	CYCONFIGCPY((void CYFAR *)(CYREG_PRT0_DR), (const void CYFAR *)(BS_IOPINS0_0_VAL), 10u);
 763              		.loc 1 462 0
 764 0152 4948     		ldr	r0, .L31+116
 765 0154 4949     		ldr	r1, .L31+120
 766 0156 0A22     		movs	r2, #10
 767 0158 FFF7FEFF 		bl	CYCONFIGCPY
 463:.\Generated_Source\PSoC5/cyfitter_cfg.c **** 	CYCONFIGCPY((void CYFAR *)(CYREG_PRT12_DM0), (const void CYFAR *)(BS_IOPINS0_7_VAL), 8u);
 768              		.loc 1 463 0
 769 015c 4848     		ldr	r0, .L31+124
 770 015e 4949     		ldr	r1, .L31+128
 771 0160 0822     		movs	r2, #8
 772 0162 FFF7FEFF 		bl	CYCONFIGCPY
 464:.\Generated_Source\PSoC5/cyfitter_cfg.c **** 	CYCONFIGCPY((void CYFAR *)(CYREG_PRT15_DR), (const void CYFAR *)(BS_IOPINS0_8_VAL), 10u);
 773              		.loc 1 464 0
 774 0166 4848     		ldr	r0, .L31+132
 775 0168 4849     		ldr	r1, .L31+136
 776 016a 0A22     		movs	r2, #10
 777 016c FFF7FEFF 		bl	CYCONFIGCPY
 465:.\Generated_Source\PSoC5/cyfitter_cfg.c **** 	CYCONFIGCPY((void CYFAR *)(CYREG_PRT1_DR), (const void CYFAR *)(BS_IOPINS0_1_VAL), 10u);
 778              		.loc 1 465 0
 779 0170 4748     		ldr	r0, .L31+140
ARM GAS  C:\USERS\LUKAS\APPDATA\LOCAL\TEMP\cctz5fJI.s 			page 23


 780 0172 4849     		ldr	r1, .L31+144
 781 0174 0A22     		movs	r2, #10
 782 0176 FFF7FEFF 		bl	CYCONFIGCPY
 466:.\Generated_Source\PSoC5/cyfitter_cfg.c **** 	CYCONFIGCPY((void CYFAR *)(CYREG_PRT2_DR), (const void CYFAR *)(BS_IOPINS0_2_VAL), 10u);
 783              		.loc 1 466 0
 784 017a 4748     		ldr	r0, .L31+148
 785 017c 4749     		ldr	r1, .L31+152
 786 017e 0A22     		movs	r2, #10
 787 0180 FFF7FEFF 		bl	CYCONFIGCPY
 467:.\Generated_Source\PSoC5/cyfitter_cfg.c **** 	CYCONFIGCPY((void CYFAR *)(CYREG_PRT3_DM0), (const void CYFAR *)(BS_IOPINS0_3_VAL), 8u);
 788              		.loc 1 467 0
 789 0184 4648     		ldr	r0, .L31+156
 790 0186 4749     		ldr	r1, .L31+160
 791 0188 0822     		movs	r2, #8
 792 018a FFF7FEFF 		bl	CYCONFIGCPY
 468:.\Generated_Source\PSoC5/cyfitter_cfg.c **** 	CY_SET_XTND_REG8((void CYFAR *)(CYREG_B0_P4_U0_CFG24), 0xC4u);
 793              		.loc 1 468 0
 794 018e 464B     		ldr	r3, .L31+164
 795 0190 C422     		movs	r2, #196
 796 0192 1A70     		strb	r2, [r3]
 469:.\Generated_Source\PSoC5/cyfitter_cfg.c **** 	CY_SET_XTND_REG8((void CYFAR *)(CYREG_B0_P4_U1_CFG24), 0xC4u);
 797              		.loc 1 469 0
 798 0194 454B     		ldr	r3, .L31+168
 799 0196 C422     		movs	r2, #196
 800 0198 1A70     		strb	r2, [r3]
 470:.\Generated_Source\PSoC5/cyfitter_cfg.c **** 	CY_SET_XTND_REG8((void CYFAR *)(CYREG_B0_P5_U0_CFG24), 0xC4u);
 801              		.loc 1 470 0
 802 019a 454B     		ldr	r3, .L31+172
 803 019c C422     		movs	r2, #196
 804 019e 1A70     		strb	r2, [r3]
 471:.\Generated_Source\PSoC5/cyfitter_cfg.c **** 	CY_SET_XTND_REG8((void CYFAR *)(CYREG_B0_P5_U1_CFG24), 0xC4u);
 805              		.loc 1 471 0
 806 01a0 444B     		ldr	r3, .L31+176
 807 01a2 C422     		movs	r2, #196
 808 01a4 1A70     		strb	r2, [r3]
 472:.\Generated_Source\PSoC5/cyfitter_cfg.c **** 	CY_SET_XTND_REG8((void CYFAR *)(CYREG_B0_P6_U0_CFG24), 0xC4u);
 809              		.loc 1 472 0
 810 01a6 444B     		ldr	r3, .L31+180
 811 01a8 C422     		movs	r2, #196
 812 01aa 1A70     		strb	r2, [r3]
 473:.\Generated_Source\PSoC5/cyfitter_cfg.c **** 	CY_SET_XTND_REG8((void CYFAR *)(CYREG_B0_P6_U1_CFG24), 0xC4u);
 813              		.loc 1 473 0
 814 01ac 434B     		ldr	r3, .L31+184
 815 01ae C422     		movs	r2, #196
 816 01b0 1A70     		strb	r2, [r3]
 474:.\Generated_Source\PSoC5/cyfitter_cfg.c **** 	CY_SET_XTND_REG8((void CYFAR *)(CYREG_B0_P7_U0_CFG24), 0xC0u);
 817              		.loc 1 474 0
 818 01b2 434B     		ldr	r3, .L31+188
 819 01b4 C022     		movs	r2, #192
 820 01b6 1A70     		strb	r2, [r3]
 475:.\Generated_Source\PSoC5/cyfitter_cfg.c **** 	CY_SET_XTND_REG8((void CYFAR *)(CYREG_B0_P7_U1_CFG24), 0xC4u);
 821              		.loc 1 475 0
 822 01b8 424B     		ldr	r3, .L31+192
 823 01ba C422     		movs	r2, #196
 824 01bc 1A70     		strb	r2, [r3]
 476:.\Generated_Source\PSoC5/cyfitter_cfg.c **** 	CY_SET_XTND_REG8((void CYFAR *)(CYREG_B1_P4_U0_CFG24), 0xC4u);
 825              		.loc 1 476 0
ARM GAS  C:\USERS\LUKAS\APPDATA\LOCAL\TEMP\cctz5fJI.s 			page 24


 826 01be 424B     		ldr	r3, .L31+196
 827 01c0 C422     		movs	r2, #196
 828 01c2 1A70     		strb	r2, [r3]
 477:.\Generated_Source\PSoC5/cyfitter_cfg.c **** 	CY_SET_XTND_REG8((void CYFAR *)(CYREG_B1_P5_U1_CFG24), 0xC4u);
 829              		.loc 1 477 0
 830 01c4 414B     		ldr	r3, .L31+200
 831 01c6 C422     		movs	r2, #196
 832 01c8 1A70     		strb	r2, [r3]
 478:.\Generated_Source\PSoC5/cyfitter_cfg.c **** 	CY_SET_XTND_REG8((void CYFAR *)(CYREG_B1_P5_U1_CFG27), 0xC4u);
 833              		.loc 1 478 0
 834 01ca 414B     		ldr	r3, .L31+204
 835 01cc C422     		movs	r2, #196
 836 01ce 1A70     		strb	r2, [r3]
 479:.\Generated_Source\PSoC5/cyfitter_cfg.c **** 	/* Switch Boost to the precision bandgap reference from its internal reference */
 480:.\Generated_Source\PSoC5/cyfitter_cfg.c **** 	CY_SET_REG8((void CYXDATA *)CYREG_BOOST_CR2, (CY_GET_REG8((void CYXDATA *)CYREG_BOOST_CR2) | 0x08u
 837              		.loc 1 480 0
 838 01d0 404A     		ldr	r2, .L31+208
 839 01d2 404B     		ldr	r3, .L31+208
 840 01d4 1B78     		ldrb	r3, [r3]
 841 01d6 DBB2     		uxtb	r3, r3
 842 01d8 43F00803 		orr	r3, r3, #8
 843 01dc DBB2     		uxtb	r3, r3
 844 01de 1370     		strb	r3, [r2]
 481:.\Generated_Source\PSoC5/cyfitter_cfg.c **** 
 482:.\Generated_Source\PSoC5/cyfitter_cfg.c **** 	/* Set Flash Cycles based on max possible frequency in case a glitch occurs during ClockSetup(). *
 483:.\Generated_Source\PSoC5/cyfitter_cfg.c **** 	CY_SET_XTND_REG8((void CYFAR *)(CYREG_CACHE_CC_CTL), (((CYDEV_INSTRUCT_CACHE_ENABLED) != 0) ? 0x61
 845              		.loc 1 483 0
 846 01e0 3D4B     		ldr	r3, .L31+212
 847 01e2 6122     		movs	r2, #97
 848 01e4 1A70     		strb	r2, [r3]
 484:.\Generated_Source\PSoC5/cyfitter_cfg.c **** 	/* Setup clocks based on selections from Clock DWR */
 485:.\Generated_Source\PSoC5/cyfitter_cfg.c **** 	ClockSetup();
 849              		.loc 1 485 0
 850 01e6 FFF7FEFF 		bl	ClockSetup
 486:.\Generated_Source\PSoC5/cyfitter_cfg.c **** 	/* Set Flash Cycles based on newly configured 45.00MHz Bus Clock. */
 487:.\Generated_Source\PSoC5/cyfitter_cfg.c **** 	CY_SET_XTND_REG8((void CYFAR *)(CYREG_CACHE_CC_CTL), (((CYDEV_INSTRUCT_CACHE_ENABLED) != 0) ? 0xC1
 851              		.loc 1 487 0
 852 01ea 3B4B     		ldr	r3, .L31+212
 853 01ec C122     		movs	r2, #193
 854 01ee 1A70     		strb	r2, [r3]
 488:.\Generated_Source\PSoC5/cyfitter_cfg.c **** 
 489:.\Generated_Source\PSoC5/cyfitter_cfg.c **** 	/* Perform basic analog initialization to defaults */
 490:.\Generated_Source\PSoC5/cyfitter_cfg.c **** 	AnalogSetDefault();
 855              		.loc 1 490 0
 856 01f0 FFF7FEFF 		bl	AnalogSetDefault
 491:.\Generated_Source\PSoC5/cyfitter_cfg.c **** 
 492:.\Generated_Source\PSoC5/cyfitter_cfg.c **** 	/* Configure alternate active mode */
 493:.\Generated_Source\PSoC5/cyfitter_cfg.c **** 	CYCONFIGCPY((void CYFAR *)CYDEV_PM_STBY_BASE, (const void CYFAR *)CYDEV_PM_ACT_BASE, 14u);
 857              		.loc 1 493 0
 858 01f4 3948     		ldr	r0, .L31+216
 859 01f6 1E49     		ldr	r1, .L31+108
 860 01f8 0E22     		movs	r2, #14
 861 01fa FFF7FEFF 		bl	CYCONFIGCPY
 494:.\Generated_Source\PSoC5/cyfitter_cfg.c **** }
 862              		.loc 1 494 0
 863 01fe 1837     		adds	r7, r7, #24
 864              		.cfi_def_cfa_offset 8
ARM GAS  C:\USERS\LUKAS\APPDATA\LOCAL\TEMP\cctz5fJI.s 			page 25


 865 0200 BD46     		mov	sp, r7
 866              		.cfi_def_cfa_register 13
 867              		@ sp needed
 868 0202 80BD     		pop	{r7, pc}
 869              	.L32:
 870              		.align	2
 871              	.L31:
 872 0204 00000000 		.word	cfg_memset_list.4841
 873 0208 30000000 		.word	cfg_memcpy_list.4842
 874 020c A4000048 		.word	1207959716
 875 0210 00760040 		.word	1073772032
 876 0214 50760040 		.word	1073772112
 877 0218 58760040 		.word	1073772120
 878 021c 2C130048 		.word	1207964460
 879 0220 60760040 		.word	1073772128
 880 0224 30130048 		.word	1207964464
 881 0228 68760040 		.word	1073772136
 882 022c 34130048 		.word	1207964468
 883 0230 70760040 		.word	1073772144
 884 0234 38130048 		.word	1207964472
 885 0238 08760040 		.word	1073772040
 886 023c 10760040 		.word	1073772048
 887 0240 3C130048 		.word	1207964476
 888 0244 18760040 		.word	1073772056
 889 0248 20760040 		.word	1073772064
 890 024c 40130048 		.word	1207964480
 891 0250 28760040 		.word	1073772072
 892 0254 30760040 		.word	1073772080
 893 0258 38760040 		.word	1073772088
 894 025c 40760040 		.word	1073772096
 895 0260 44130048 		.word	1207964484
 896 0264 48760040 		.word	1073772104
 897 0268 03500140 		.word	1073827843
 898 026c 13500140 		.word	1073827859
 899 0270 A0430040 		.word	1073759136
 900 0274 C2430040 		.word	1073759170
 901 0278 00510040 		.word	1073762560
 902 027c EC120048 		.word	1207964396
 903 0280 C2510040 		.word	1073762754
 904 0284 F8120048 		.word	1207964408
 905 0288 F0510040 		.word	1073762800
 906 028c 00130048 		.word	1207964416
 907 0290 10510040 		.word	1073762576
 908 0294 0C130048 		.word	1207964428
 909 0298 20510040 		.word	1073762592
 910 029c 18130048 		.word	1207964440
 911 02a0 32510040 		.word	1073762610
 912 02a4 24130048 		.word	1207964452
 913 02a8 58080140 		.word	1073809496
 914 02ac D8080140 		.word	1073809624
 915 02b0 580A0140 		.word	1073810008
 916 02b4 D80A0140 		.word	1073810136
 917 02b8 580C0140 		.word	1073810520
 918 02bc D80C0140 		.word	1073810648
 919 02c0 580E0140 		.word	1073811032
 920 02c4 D80E0140 		.word	1073811160
 921 02c8 58180140 		.word	1073813592
ARM GAS  C:\USERS\LUKAS\APPDATA\LOCAL\TEMP\cctz5fJI.s 			page 26


 922 02cc D81A0140 		.word	1073814232
 923 02d0 DB1A0140 		.word	1073814235
 924 02d4 22430040 		.word	1073759010
 925 02d8 00480040 		.word	1073760256
 926 02dc B0430040 		.word	1073759152
 927              		.cfi_endproc
 928              	.LFE8:
 929              		.size	cyfitter_cfg, .-cyfitter_cfg
 930              		.section	.rodata
 931              		.align	2
 932              		.type	cfg_memset_list.4841, %object
 933              		.size	cfg_memset_list.4841, 48
 934              	cfg_memset_list.4841:
 935 0000 C8490040 		.word	1073760712
 936 0004 1900     		.short	25
 937 0006 40510040 		.4byte	1073762624
 938 000a 3000     		.short	48
 939 000c 00000140 		.word	1073807360
 940 0010 0010     		.short	4096
 941 0012 00140140 		.4byte	1073812480
 942 0016 0002     		.short	512
 943 0018 80160140 		.word	1073813120
 944 001c 8005     		.short	1408
 945 001e 00400140 		.4byte	1073823744
 946 0022 000A     		.short	2560
 947 0024 004C0140 		.word	1073826816
 948 0028 0002     		.short	512
 949 002a 10500140 		.4byte	1073827856
 950 002e 1000     		.short	16
 951              		.align	2
 952              		.type	cfg_memcpy_list.4842, %object
 953              		.size	cfg_memcpy_list.4842, 40
 954              	cfg_memcpy_list.4842:
 955 0030 10510140 		.word	1073828112
 956 0034 4C120048 		.word	1207964236
 957 0038 0600     		.short	6
 958 003a 00510140 		.4byte	1073828096
 959 003e 54120048 		.4byte	1207964244
 960 0042 0800     		.short	8
 961 0044 00160140 		.word	1073812992
 962 0048 5C120048 		.word	1207964252
 963 004c 8000     		.short	128
 964 004e 00500140 		.4byte	1073827840
 965 0052 DC120048 		.4byte	1207964380
 966 0056 1000     		.short	16
 967              		.text
 968              	.Letext0:
 969              		.file 2 "c:\\program files (x86)\\cypress\\psoc creator\\3.3\\psoc creator\\import\\gnu\\arm\\4.9.
 970              		.file 3 ".\\Generated_Source\\PSoC5\\cytypes.h"