ARM GAS  C:\USERS\LUKAS\APPDATA\LOCAL\TEMP\ccU0XATm.s 			page 1


   1              		.syntax unified
   2              		.cpu cortex-m3
   3              		.fpu softvfp
   4              		.eabi_attribute 20, 1
   5              		.eabi_attribute 21, 1
   6              		.eabi_attribute 23, 3
   7              		.eabi_attribute 24, 1
   8              		.eabi_attribute 25, 1
   9              		.eabi_attribute 26, 1
  10              		.eabi_attribute 30, 6
  11              		.eabi_attribute 34, 1
  12              		.eabi_attribute 18, 4
  13              		.thumb
  14              		.file	"Droop_Filter_PM.c"
  15              		.text
  16              	.Ltext0:
  17              		.cfi_sections	.debug_frame
  18              		.bss
  19              		.align	2
  20              	Droop_Filter_backup:
  21 0000 00       		.space	1
  22 0001 000000   		.section	.text.Droop_Filter_SaveConfig,"ax",%progbits
  23              		.align	2
  24              		.global	Droop_Filter_SaveConfig
  25              		.thumb
  26              		.thumb_func
  27              		.type	Droop_Filter_SaveConfig, %function
  28              	Droop_Filter_SaveConfig:
  29              	.LFB0:
  30              		.file 1 ".\\Generated_Source\\PSoC5\\Droop_Filter_PM.c"
   1:.\Generated_Source\PSoC5/Droop_Filter_PM.c **** /*******************************************************************************
   2:.\Generated_Source\PSoC5/Droop_Filter_PM.c **** * File Name: Droop_Filter_PM.c
   3:.\Generated_Source\PSoC5/Droop_Filter_PM.c **** * Version 1.20
   4:.\Generated_Source\PSoC5/Droop_Filter_PM.c **** *
   5:.\Generated_Source\PSoC5/Droop_Filter_PM.c **** * Description:
   6:.\Generated_Source\PSoC5/Droop_Filter_PM.c **** *  This file contains the setup, control and status commands to support
   7:.\Generated_Source\PSoC5/Droop_Filter_PM.c **** *  component operations in low power mode.
   8:.\Generated_Source\PSoC5/Droop_Filter_PM.c **** *
   9:.\Generated_Source\PSoC5/Droop_Filter_PM.c **** * Note:
  10:.\Generated_Source\PSoC5/Droop_Filter_PM.c **** *
  11:.\Generated_Source\PSoC5/Droop_Filter_PM.c **** ********************************************************************************
  12:.\Generated_Source\PSoC5/Droop_Filter_PM.c **** * Copyright 2011-2012, Cypress Semiconductor Corporation.  All rights reserved.
  13:.\Generated_Source\PSoC5/Droop_Filter_PM.c **** * You may use this file only in accordance with the license, terms, conditions,
  14:.\Generated_Source\PSoC5/Droop_Filter_PM.c **** * disclaimers, and limitations in the end user license agreement accompanying
  15:.\Generated_Source\PSoC5/Droop_Filter_PM.c **** * the software package with which this file was provided.
  16:.\Generated_Source\PSoC5/Droop_Filter_PM.c **** *******************************************************************************/
  17:.\Generated_Source\PSoC5/Droop_Filter_PM.c **** 
  18:.\Generated_Source\PSoC5/Droop_Filter_PM.c **** #include "Droop_Filter.h"
  19:.\Generated_Source\PSoC5/Droop_Filter_PM.c **** 
  20:.\Generated_Source\PSoC5/Droop_Filter_PM.c **** static Droop_Filter_BACKUP_STRUCT Droop_Filter_backup = { 0u };
  21:.\Generated_Source\PSoC5/Droop_Filter_PM.c **** 
  22:.\Generated_Source\PSoC5/Droop_Filter_PM.c **** 
  23:.\Generated_Source\PSoC5/Droop_Filter_PM.c **** /*******************************************************************************
  24:.\Generated_Source\PSoC5/Droop_Filter_PM.c **** * Function Name: Droop_Filter_SaveConfig
  25:.\Generated_Source\PSoC5/Droop_Filter_PM.c **** ********************************************************************************
  26:.\Generated_Source\PSoC5/Droop_Filter_PM.c **** *
  27:.\Generated_Source\PSoC5/Droop_Filter_PM.c **** * Summary:
ARM GAS  C:\USERS\LUKAS\APPDATA\LOCAL\TEMP\ccU0XATm.s 			page 2


  28:.\Generated_Source\PSoC5/Droop_Filter_PM.c **** *  Saves the user configuration of the DFB non-retention registers. This routine
  29:.\Generated_Source\PSoC5/Droop_Filter_PM.c **** *  is called by DFB_Sleep() to save the component configuration before entering
  30:.\Generated_Source\PSoC5/Droop_Filter_PM.c **** *  sleep.
  31:.\Generated_Source\PSoC5/Droop_Filter_PM.c **** *
  32:.\Generated_Source\PSoC5/Droop_Filter_PM.c **** * Parameters:
  33:.\Generated_Source\PSoC5/Droop_Filter_PM.c **** *  None.
  34:.\Generated_Source\PSoC5/Droop_Filter_PM.c **** *
  35:.\Generated_Source\PSoC5/Droop_Filter_PM.c **** * Return:
  36:.\Generated_Source\PSoC5/Droop_Filter_PM.c **** *  None.
  37:.\Generated_Source\PSoC5/Droop_Filter_PM.c **** *
  38:.\Generated_Source\PSoC5/Droop_Filter_PM.c **** *******************************************************************************/
  39:.\Generated_Source\PSoC5/Droop_Filter_PM.c **** void Droop_Filter_SaveConfig(void) 
  40:.\Generated_Source\PSoC5/Droop_Filter_PM.c **** {
  31              		.loc 1 40 0
  32              		.cfi_startproc
  33              		@ args = 0, pretend = 0, frame = 0
  34              		@ frame_needed = 1, uses_anonymous_args = 0
  35              		@ link register save eliminated.
  36 0000 80B4     		push	{r7}
  37              		.cfi_def_cfa_offset 4
  38              		.cfi_offset 7, -4
  39 0002 00AF     		add	r7, sp, #0
  40              		.cfi_def_cfa_register 7
  41:.\Generated_Source\PSoC5/Droop_Filter_PM.c ****     /* */
  42:.\Generated_Source\PSoC5/Droop_Filter_PM.c **** }
  41              		.loc 1 42 0
  42 0004 BD46     		mov	sp, r7
  43              		.cfi_def_cfa_register 13
  44              		@ sp needed
  45 0006 5DF8047B 		ldr	r7, [sp], #4
  46              		.cfi_restore 7
  47              		.cfi_def_cfa_offset 0
  48 000a 7047     		bx	lr
  49              		.cfi_endproc
  50              	.LFE0:
  51              		.size	Droop_Filter_SaveConfig, .-Droop_Filter_SaveConfig
  52              		.section	.text.Droop_Filter_RestoreConfig,"ax",%progbits
  53              		.align	2
  54              		.global	Droop_Filter_RestoreConfig
  55              		.thumb
  56              		.thumb_func
  57              		.type	Droop_Filter_RestoreConfig, %function
  58              	Droop_Filter_RestoreConfig:
  59              	.LFB1:
  43:.\Generated_Source\PSoC5/Droop_Filter_PM.c **** 
  44:.\Generated_Source\PSoC5/Droop_Filter_PM.c **** 
  45:.\Generated_Source\PSoC5/Droop_Filter_PM.c **** /*******************************************************************************
  46:.\Generated_Source\PSoC5/Droop_Filter_PM.c **** * Function Name: Droop_Filter_RestoreConfig
  47:.\Generated_Source\PSoC5/Droop_Filter_PM.c **** ********************************************************************************
  48:.\Generated_Source\PSoC5/Droop_Filter_PM.c **** *
  49:.\Generated_Source\PSoC5/Droop_Filter_PM.c **** * Summary:
  50:.\Generated_Source\PSoC5/Droop_Filter_PM.c **** *  Restores the user configuration of the DFB non-retention registers. This
  51:.\Generated_Source\PSoC5/Droop_Filter_PM.c **** *  routine is called by DFB_Wakeup() to restore the component configuration when
  52:.\Generated_Source\PSoC5/Droop_Filter_PM.c **** *  exiting sleep.
  53:.\Generated_Source\PSoC5/Droop_Filter_PM.c **** *
  54:.\Generated_Source\PSoC5/Droop_Filter_PM.c **** * Parameters:
  55:.\Generated_Source\PSoC5/Droop_Filter_PM.c **** *  None.
ARM GAS  C:\USERS\LUKAS\APPDATA\LOCAL\TEMP\ccU0XATm.s 			page 3


  56:.\Generated_Source\PSoC5/Droop_Filter_PM.c **** *
  57:.\Generated_Source\PSoC5/Droop_Filter_PM.c **** * Return:
  58:.\Generated_Source\PSoC5/Droop_Filter_PM.c **** *  None.
  59:.\Generated_Source\PSoC5/Droop_Filter_PM.c **** *
  60:.\Generated_Source\PSoC5/Droop_Filter_PM.c **** *******************************************************************************/
  61:.\Generated_Source\PSoC5/Droop_Filter_PM.c **** void Droop_Filter_RestoreConfig(void) 
  62:.\Generated_Source\PSoC5/Droop_Filter_PM.c **** {
  60              		.loc 1 62 0
  61              		.cfi_startproc
  62              		@ args = 0, pretend = 0, frame = 0
  63              		@ frame_needed = 1, uses_anonymous_args = 0
  64              		@ link register save eliminated.
  65 0000 80B4     		push	{r7}
  66              		.cfi_def_cfa_offset 4
  67              		.cfi_offset 7, -4
  68 0002 00AF     		add	r7, sp, #0
  69              		.cfi_def_cfa_register 7
  63:.\Generated_Source\PSoC5/Droop_Filter_PM.c ****     /* */
  64:.\Generated_Source\PSoC5/Droop_Filter_PM.c **** }
  70              		.loc 1 64 0
  71 0004 BD46     		mov	sp, r7
  72              		.cfi_def_cfa_register 13
  73              		@ sp needed
  74 0006 5DF8047B 		ldr	r7, [sp], #4
  75              		.cfi_restore 7
  76              		.cfi_def_cfa_offset 0
  77 000a 7047     		bx	lr
  78              		.cfi_endproc
  79              	.LFE1:
  80              		.size	Droop_Filter_RestoreConfig, .-Droop_Filter_RestoreConfig
  81              		.section	.text.Droop_Filter_Sleep,"ax",%progbits
  82              		.align	2
  83              		.global	Droop_Filter_Sleep
  84              		.thumb
  85              		.thumb_func
  86              		.type	Droop_Filter_Sleep, %function
  87              	Droop_Filter_Sleep:
  88              	.LFB2:
  65:.\Generated_Source\PSoC5/Droop_Filter_PM.c **** 
  66:.\Generated_Source\PSoC5/Droop_Filter_PM.c **** 
  67:.\Generated_Source\PSoC5/Droop_Filter_PM.c **** /*******************************************************************************
  68:.\Generated_Source\PSoC5/Droop_Filter_PM.c **** * Function Name: Droop_Filter_Sleep
  69:.\Generated_Source\PSoC5/Droop_Filter_PM.c **** ********************************************************************************
  70:.\Generated_Source\PSoC5/Droop_Filter_PM.c **** *
  71:.\Generated_Source\PSoC5/Droop_Filter_PM.c **** * Summary:
  72:.\Generated_Source\PSoC5/Droop_Filter_PM.c **** *  This is the preferred routine to prepare the component for sleep. The
  73:.\Generated_Source\PSoC5/Droop_Filter_PM.c **** *  Droop_Filter_Sleep() routine saves the current component state. Then it
  74:.\Generated_Source\PSoC5/Droop_Filter_PM.c **** *  calls the DFB_Stop() function and calls Droop_Filter_SaveConfig() to save
  75:.\Generated_Source\PSoC5/Droop_Filter_PM.c **** *  the hardware configuration. Call the Droop_Filter_Sleep() function before
  76:.\Generated_Source\PSoC5/Droop_Filter_PM.c **** *  calling the CyPmSleep() or the CyPmHibernate() function. Refer to the PSoC
  77:.\Generated_Source\PSoC5/Droop_Filter_PM.c **** *  Creator System Reference Guide for more information about power management
  78:.\Generated_Source\PSoC5/Droop_Filter_PM.c **** *  functions.
  79:.\Generated_Source\PSoC5/Droop_Filter_PM.c **** *
  80:.\Generated_Source\PSoC5/Droop_Filter_PM.c **** * Parameters:
  81:.\Generated_Source\PSoC5/Droop_Filter_PM.c **** *  None.
  82:.\Generated_Source\PSoC5/Droop_Filter_PM.c **** *
  83:.\Generated_Source\PSoC5/Droop_Filter_PM.c **** * Return:
ARM GAS  C:\USERS\LUKAS\APPDATA\LOCAL\TEMP\ccU0XATm.s 			page 4


  84:.\Generated_Source\PSoC5/Droop_Filter_PM.c **** *  None.
  85:.\Generated_Source\PSoC5/Droop_Filter_PM.c **** *
  86:.\Generated_Source\PSoC5/Droop_Filter_PM.c **** * Reentrant:
  87:.\Generated_Source\PSoC5/Droop_Filter_PM.c **** *  No.
  88:.\Generated_Source\PSoC5/Droop_Filter_PM.c **** *
  89:.\Generated_Source\PSoC5/Droop_Filter_PM.c **** *******************************************************************************/
  90:.\Generated_Source\PSoC5/Droop_Filter_PM.c **** void Droop_Filter_Sleep(void) 
  91:.\Generated_Source\PSoC5/Droop_Filter_PM.c **** {
  89              		.loc 1 91 0
  90              		.cfi_startproc
  91              		@ args = 0, pretend = 0, frame = 0
  92              		@ frame_needed = 1, uses_anonymous_args = 0
  93 0000 80B5     		push	{r7, lr}
  94              		.cfi_def_cfa_offset 8
  95              		.cfi_offset 7, -8
  96              		.cfi_offset 14, -4
  97 0002 00AF     		add	r7, sp, #0
  98              		.cfi_def_cfa_register 7
  92:.\Generated_Source\PSoC5/Droop_Filter_PM.c ****     if (0u != (Droop_Filter_CR_REG & Droop_Filter_RUN_MASK))
  99              		.loc 1 92 0
 100 0004 0C4B     		ldr	r3, .L6
 101 0006 1B78     		ldrb	r3, [r3]
 102 0008 DBB2     		uxtb	r3, r3
 103 000a 03F00103 		and	r3, r3, #1
 104 000e 002B     		cmp	r3, #0
 105 0010 03D0     		beq	.L4
  93:.\Generated_Source\PSoC5/Droop_Filter_PM.c ****     {
  94:.\Generated_Source\PSoC5/Droop_Filter_PM.c ****         Droop_Filter_backup.enableState = 1u;
 106              		.loc 1 94 0
 107 0012 0A4B     		ldr	r3, .L6+4
 108 0014 0122     		movs	r2, #1
 109 0016 1A70     		strb	r2, [r3]
 110 0018 02E0     		b	.L5
 111              	.L4:
  95:.\Generated_Source\PSoC5/Droop_Filter_PM.c ****     }
  96:.\Generated_Source\PSoC5/Droop_Filter_PM.c ****     else /* The DFB block is disabled */
  97:.\Generated_Source\PSoC5/Droop_Filter_PM.c ****     {
  98:.\Generated_Source\PSoC5/Droop_Filter_PM.c ****         Droop_Filter_backup.enableState = 0u;
 112              		.loc 1 98 0
 113 001a 084B     		ldr	r3, .L6+4
 114 001c 0022     		movs	r2, #0
 115 001e 1A70     		strb	r2, [r3]
 116              	.L5:
  99:.\Generated_Source\PSoC5/Droop_Filter_PM.c ****     }
 100:.\Generated_Source\PSoC5/Droop_Filter_PM.c **** 
 101:.\Generated_Source\PSoC5/Droop_Filter_PM.c ****     /* Disables the clock to the entire core of the block */
 102:.\Generated_Source\PSoC5/Droop_Filter_PM.c ****     Droop_Filter_CR_REG |= Droop_Filter_CORECLK_DISABLE;
 117              		.loc 1 102 0
 118 0020 054A     		ldr	r2, .L6
 119 0022 054B     		ldr	r3, .L6
 120 0024 1B78     		ldrb	r3, [r3]
 121 0026 DBB2     		uxtb	r3, r3
 122 0028 43F00403 		orr	r3, r3, #4
 123 002c DBB2     		uxtb	r3, r3
 124 002e 1370     		strb	r3, [r2]
 103:.\Generated_Source\PSoC5/Droop_Filter_PM.c **** 
 104:.\Generated_Source\PSoC5/Droop_Filter_PM.c ****     Droop_Filter_Pause();
ARM GAS  C:\USERS\LUKAS\APPDATA\LOCAL\TEMP\ccU0XATm.s 			page 5


 125              		.loc 1 104 0
 126 0030 FFF7FEFF 		bl	Droop_Filter_Pause
 105:.\Generated_Source\PSoC5/Droop_Filter_PM.c **** }
 127              		.loc 1 105 0
 128 0034 80BD     		pop	{r7, pc}
 129              	.L7:
 130 0036 00BF     		.align	2
 131              	.L6:
 132 0038 80C70040 		.word	1073792896
 133 003c 00000000 		.word	Droop_Filter_backup
 134              		.cfi_endproc
 135              	.LFE2:
 136              		.size	Droop_Filter_Sleep, .-Droop_Filter_Sleep
 137              		.section	.text.Droop_Filter_Wakeup,"ax",%progbits
 138              		.align	2
 139              		.global	Droop_Filter_Wakeup
 140              		.thumb
 141              		.thumb_func
 142              		.type	Droop_Filter_Wakeup, %function
 143              	Droop_Filter_Wakeup:
 144              	.LFB3:
 106:.\Generated_Source\PSoC5/Droop_Filter_PM.c **** 
 107:.\Generated_Source\PSoC5/Droop_Filter_PM.c **** 
 108:.\Generated_Source\PSoC5/Droop_Filter_PM.c **** /*******************************************************************************
 109:.\Generated_Source\PSoC5/Droop_Filter_PM.c **** * Function Name: Droop_Filter_Wakeup
 110:.\Generated_Source\PSoC5/Droop_Filter_PM.c **** ********************************************************************************
 111:.\Generated_Source\PSoC5/Droop_Filter_PM.c **** *
 112:.\Generated_Source\PSoC5/Droop_Filter_PM.c **** * Summary:
 113:.\Generated_Source\PSoC5/Droop_Filter_PM.c **** *  This is the preferred routine to restore the component to the state when
 114:.\Generated_Source\PSoC5/Droop_Filter_PM.c **** *  Droop_Filter_Sleep() was called. The Droop_Filter_Wakeup() function
 115:.\Generated_Source\PSoC5/Droop_Filter_PM.c **** *  calls the Droop_Filter_RestoreConfig() function to restore the
 116:.\Generated_Source\PSoC5/Droop_Filter_PM.c **** *  configuration. If the component was enabled before the
 117:.\Generated_Source\PSoC5/Droop_Filter_PM.c **** *  Droop_Filter_Sleep() function was called, the Droop_Filter_Wakeup()
 118:.\Generated_Source\PSoC5/Droop_Filter_PM.c **** *  function will also re-enable the component.
 119:.\Generated_Source\PSoC5/Droop_Filter_PM.c **** *
 120:.\Generated_Source\PSoC5/Droop_Filter_PM.c **** * Parameters:
 121:.\Generated_Source\PSoC5/Droop_Filter_PM.c **** *  None.
 122:.\Generated_Source\PSoC5/Droop_Filter_PM.c **** *
 123:.\Generated_Source\PSoC5/Droop_Filter_PM.c **** * Return:
 124:.\Generated_Source\PSoC5/Droop_Filter_PM.c **** *  None.
 125:.\Generated_Source\PSoC5/Droop_Filter_PM.c **** *
 126:.\Generated_Source\PSoC5/Droop_Filter_PM.c **** * Side Effects:
 127:.\Generated_Source\PSoC5/Droop_Filter_PM.c **** *  Calling the Droop_Filter_Wakeup() function without first calling the
 128:.\Generated_Source\PSoC5/Droop_Filter_PM.c **** *  Droop_Filter_Sleep() or Droop_Filter_SaveConfig() function may
 129:.\Generated_Source\PSoC5/Droop_Filter_PM.c **** *  produce unexpected behavior.
 130:.\Generated_Source\PSoC5/Droop_Filter_PM.c **** *
 131:.\Generated_Source\PSoC5/Droop_Filter_PM.c **** *******************************************************************************/
 132:.\Generated_Source\PSoC5/Droop_Filter_PM.c **** void Droop_Filter_Wakeup(void) 
 133:.\Generated_Source\PSoC5/Droop_Filter_PM.c **** {
 145              		.loc 1 133 0
 146              		.cfi_startproc
 147              		@ args = 0, pretend = 0, frame = 0
 148              		@ frame_needed = 1, uses_anonymous_args = 0
 149 0000 80B5     		push	{r7, lr}
 150              		.cfi_def_cfa_offset 8
 151              		.cfi_offset 7, -8
 152              		.cfi_offset 14, -4
ARM GAS  C:\USERS\LUKAS\APPDATA\LOCAL\TEMP\ccU0XATm.s 			page 6


 153 0002 00AF     		add	r7, sp, #0
 154              		.cfi_def_cfa_register 7
 134:.\Generated_Source\PSoC5/Droop_Filter_PM.c ****    Droop_Filter_RestoreConfig();
 155              		.loc 1 134 0
 156 0004 FFF7FEFF 		bl	Droop_Filter_RestoreConfig
 135:.\Generated_Source\PSoC5/Droop_Filter_PM.c **** 
 136:.\Generated_Source\PSoC5/Droop_Filter_PM.c ****     /* Enables the clock to the entire core of the block */
 137:.\Generated_Source\PSoC5/Droop_Filter_PM.c ****     Droop_Filter_CR_REG &= (uint8) (~Droop_Filter_CORECLK_DISABLE);
 157              		.loc 1 137 0
 158 0008 0A4A     		ldr	r2, .L11
 159 000a 0A4B     		ldr	r3, .L11
 160 000c 1B78     		ldrb	r3, [r3]
 161 000e DBB2     		uxtb	r3, r3
 162 0010 23F00403 		bic	r3, r3, #4
 163 0014 DBB2     		uxtb	r3, r3
 164 0016 1370     		strb	r3, [r2]
 138:.\Generated_Source\PSoC5/Droop_Filter_PM.c **** 
 139:.\Generated_Source\PSoC5/Droop_Filter_PM.c ****     if (Droop_Filter_backup.enableState != 0u)
 165              		.loc 1 139 0
 166 0018 074B     		ldr	r3, .L11+4
 167 001a 1B78     		ldrb	r3, [r3]	@ zero_extendqisi2
 168 001c 002B     		cmp	r3, #0
 169 001e 02D0     		beq	.L9
 140:.\Generated_Source\PSoC5/Droop_Filter_PM.c ****     {
 141:.\Generated_Source\PSoC5/Droop_Filter_PM.c ****         /* Enables component's operation */
 142:.\Generated_Source\PSoC5/Droop_Filter_PM.c ****         Droop_Filter_Resume();
 170              		.loc 1 142 0
 171 0020 FFF7FEFF 		bl	Droop_Filter_Resume
 172 0024 05E0     		b	.L8
 173              	.L9:
 143:.\Generated_Source\PSoC5/Droop_Filter_PM.c ****     } /* Left Run Bit in off state if component's block was disabled before */
 144:.\Generated_Source\PSoC5/Droop_Filter_PM.c ****     else
 145:.\Generated_Source\PSoC5/Droop_Filter_PM.c ****     {
 146:.\Generated_Source\PSoC5/Droop_Filter_PM.c ****         /* Takes DFB RAM off the bus */
 147:.\Generated_Source\PSoC5/Droop_Filter_PM.c ****         Droop_Filter_RAM_DIR_REG = Droop_Filter_RAM_DIR_DFB;
 174              		.loc 1 147 0
 175 0026 054B     		ldr	r3, .L11+8
 176 0028 0022     		movs	r2, #0
 177 002a 1A70     		strb	r2, [r3]
 148:.\Generated_Source\PSoC5/Droop_Filter_PM.c ****         /* Clears any pending interrupts */
 149:.\Generated_Source\PSoC5/Droop_Filter_PM.c ****         Droop_Filter_SR_REG = 0xFFu;
 178              		.loc 1 149 0
 179 002c 044B     		ldr	r3, .L11+12
 180 002e FF22     		movs	r2, #255
 181 0030 1A70     		strb	r2, [r3]
 182              	.L8:
 150:.\Generated_Source\PSoC5/Droop_Filter_PM.c ****     }
 151:.\Generated_Source\PSoC5/Droop_Filter_PM.c **** }
 183              		.loc 1 151 0
 184 0032 80BD     		pop	{r7, pc}
 185              	.L12:
 186              		.align	2
 187              	.L11:
 188 0034 80C70040 		.word	1073792896
 189 0038 00000000 		.word	Droop_Filter_backup
 190 003c 8CC70040 		.word	1073792908
 191 0040 84C70040 		.word	1073792900
ARM GAS  C:\USERS\LUKAS\APPDATA\LOCAL\TEMP\ccU0XATm.s 			page 7


 192              		.cfi_endproc
 193              	.LFE3:
 194              		.size	Droop_Filter_Wakeup, .-Droop_Filter_Wakeup
 195              		.text
 196              	.Letext0:
 197              		.file 2 ".\\Generated_Source\\PSoC5\\cytypes.h"
 198              		.file 3 ".\\Generated_Source\\PSoC5\\Droop_Filter.h"