ARM GAS  C:\USERS\LUKAS\APPDATA\LOCAL\TEMP\ccyiZQRk.s 			page 1


   1              		.syntax unified
   2              		.cpu cortex-m3
   3              		.fpu softvfp
   4              		.eabi_attribute 20, 1
   5              		.eabi_attribute 21, 1
   6              		.eabi_attribute 23, 3
   7              		.eabi_attribute 24, 1
   8              		.eabi_attribute 25, 1
   9              		.eabi_attribute 26, 1
  10              		.eabi_attribute 30, 6
  11              		.eabi_attribute 34, 1
  12              		.eabi_attribute 18, 4
  13              		.thumb
  14              		.file	"I2C_Master.c"
  15              		.text
  16              	.Ltext0:
  17              		.cfi_sections	.debug_frame
  18              		.global	I2C_Master_initVar
  19              		.bss
  20              		.type	I2C_Master_initVar, %object
  21              		.size	I2C_Master_initVar, 1
  22              	I2C_Master_initVar:
  23 0000 00       		.space	1
  24              		.comm	I2C_Master_state,1,1
  25              		.section	.text.I2C_Master_Init,"ax",%progbits
  26              		.align	2
  27              		.global	I2C_Master_Init
  28              		.thumb
  29              		.thumb_func
  30              		.type	I2C_Master_Init, %function
  31              	I2C_Master_Init:
  32              	.LFB0:
  33              		.file 1 ".\\Generated_Source\\PSoC5\\I2C_Master.c"
   1:.\Generated_Source\PSoC5/I2C_Master.c **** /*******************************************************************************
   2:.\Generated_Source\PSoC5/I2C_Master.c **** * File Name: I2C_Master.c
   3:.\Generated_Source\PSoC5/I2C_Master.c **** * Version 3.30
   4:.\Generated_Source\PSoC5/I2C_Master.c **** *
   5:.\Generated_Source\PSoC5/I2C_Master.c **** * Description:
   6:.\Generated_Source\PSoC5/I2C_Master.c **** *  This file provides the source code of APIs for the I2C component.
   7:.\Generated_Source\PSoC5/I2C_Master.c **** *  Actual protocol and operation code resides in the interrupt service routine
   8:.\Generated_Source\PSoC5/I2C_Master.c **** *  file.
   9:.\Generated_Source\PSoC5/I2C_Master.c **** *
  10:.\Generated_Source\PSoC5/I2C_Master.c **** * Note:
  11:.\Generated_Source\PSoC5/I2C_Master.c **** *
  12:.\Generated_Source\PSoC5/I2C_Master.c **** *******************************************************************************
  13:.\Generated_Source\PSoC5/I2C_Master.c **** * Copyright 2008-2012, Cypress Semiconductor Corporation. All rights reserved.
  14:.\Generated_Source\PSoC5/I2C_Master.c **** * You may use this file only in accordance with the license, terms, conditions,
  15:.\Generated_Source\PSoC5/I2C_Master.c **** * disclaimers, and limitations in the end user license agreement accompanying
  16:.\Generated_Source\PSoC5/I2C_Master.c **** * the software package with which this file was provided.
  17:.\Generated_Source\PSoC5/I2C_Master.c **** *******************************************************************************/
  18:.\Generated_Source\PSoC5/I2C_Master.c **** 
  19:.\Generated_Source\PSoC5/I2C_Master.c **** #include "I2C_Master_PVT.h"
  20:.\Generated_Source\PSoC5/I2C_Master.c **** 
  21:.\Generated_Source\PSoC5/I2C_Master.c **** 
  22:.\Generated_Source\PSoC5/I2C_Master.c **** /**********************************
  23:.\Generated_Source\PSoC5/I2C_Master.c **** *      System variables
  24:.\Generated_Source\PSoC5/I2C_Master.c **** **********************************/
ARM GAS  C:\USERS\LUKAS\APPDATA\LOCAL\TEMP\ccyiZQRk.s 			page 2


  25:.\Generated_Source\PSoC5/I2C_Master.c **** 
  26:.\Generated_Source\PSoC5/I2C_Master.c **** uint8 I2C_Master_initVar = 0u;    /* Defines if component was initialized */
  27:.\Generated_Source\PSoC5/I2C_Master.c **** 
  28:.\Generated_Source\PSoC5/I2C_Master.c **** volatile uint8 I2C_Master_state;  /* Current state of I2C FSM */
  29:.\Generated_Source\PSoC5/I2C_Master.c **** 
  30:.\Generated_Source\PSoC5/I2C_Master.c **** 
  31:.\Generated_Source\PSoC5/I2C_Master.c **** /*******************************************************************************
  32:.\Generated_Source\PSoC5/I2C_Master.c **** * Function Name: I2C_Master_Init
  33:.\Generated_Source\PSoC5/I2C_Master.c **** ********************************************************************************
  34:.\Generated_Source\PSoC5/I2C_Master.c **** *
  35:.\Generated_Source\PSoC5/I2C_Master.c **** * Summary:
  36:.\Generated_Source\PSoC5/I2C_Master.c **** *  Initializes I2C registers with initial values provided from customizer.
  37:.\Generated_Source\PSoC5/I2C_Master.c **** *
  38:.\Generated_Source\PSoC5/I2C_Master.c **** * Parameters:
  39:.\Generated_Source\PSoC5/I2C_Master.c **** *  None
  40:.\Generated_Source\PSoC5/I2C_Master.c **** *
  41:.\Generated_Source\PSoC5/I2C_Master.c **** * Return:
  42:.\Generated_Source\PSoC5/I2C_Master.c **** *  None
  43:.\Generated_Source\PSoC5/I2C_Master.c **** *
  44:.\Generated_Source\PSoC5/I2C_Master.c **** * Global variables:
  45:.\Generated_Source\PSoC5/I2C_Master.c **** *  None
  46:.\Generated_Source\PSoC5/I2C_Master.c **** *
  47:.\Generated_Source\PSoC5/I2C_Master.c **** * Reentrant:
  48:.\Generated_Source\PSoC5/I2C_Master.c **** *  No
  49:.\Generated_Source\PSoC5/I2C_Master.c **** *
  50:.\Generated_Source\PSoC5/I2C_Master.c **** *******************************************************************************/
  51:.\Generated_Source\PSoC5/I2C_Master.c **** void I2C_Master_Init(void) 
  52:.\Generated_Source\PSoC5/I2C_Master.c **** {
  34              		.loc 1 52 0
  35              		.cfi_startproc
  36              		@ args = 0, pretend = 0, frame = 0
  37              		@ frame_needed = 1, uses_anonymous_args = 0
  38 0000 80B5     		push	{r7, lr}
  39              		.cfi_def_cfa_offset 8
  40              		.cfi_offset 7, -8
  41              		.cfi_offset 14, -4
  42 0002 00AF     		add	r7, sp, #0
  43              		.cfi_def_cfa_register 7
  53:.\Generated_Source\PSoC5/I2C_Master.c ****     #if(I2C_Master_FF_IMPLEMENTED)
  54:.\Generated_Source\PSoC5/I2C_Master.c ****         I2C_Master_CFG_REG  = I2C_Master_DEFAULT_CFG;
  44              		.loc 1 54 0
  45 0004 104B     		ldr	r3, .L2
  46 0006 0222     		movs	r2, #2
  47 0008 1A70     		strb	r2, [r3]
  55:.\Generated_Source\PSoC5/I2C_Master.c ****         I2C_Master_XCFG_REG = I2C_Master_DEFAULT_XCFG;
  48              		.loc 1 55 0
  49 000a 104B     		ldr	r3, .L2+4
  50 000c 8122     		movs	r2, #129
  51 000e 1A70     		strb	r2, [r3]
  56:.\Generated_Source\PSoC5/I2C_Master.c **** 
  57:.\Generated_Source\PSoC5/I2C_Master.c ****         #if(CY_PSOC5A)
  58:.\Generated_Source\PSoC5/I2C_Master.c ****             I2C_Master_CLKDIV_REG  = LO8(I2C_Master_DEFAULT_DIVIDE_FACTOR);
  59:.\Generated_Source\PSoC5/I2C_Master.c ****         #else
  60:.\Generated_Source\PSoC5/I2C_Master.c ****             I2C_Master_CLKDIV1_REG = LO8(I2C_Master_DEFAULT_DIVIDE_FACTOR);
  52              		.loc 1 60 0
  53 0010 0F4B     		ldr	r3, .L2+8
  54 0012 0822     		movs	r2, #8
ARM GAS  C:\USERS\LUKAS\APPDATA\LOCAL\TEMP\ccyiZQRk.s 			page 3


  55 0014 1A70     		strb	r2, [r3]
  61:.\Generated_Source\PSoC5/I2C_Master.c ****             I2C_Master_CLKDIV2_REG = HI8(I2C_Master_DEFAULT_DIVIDE_FACTOR);
  56              		.loc 1 61 0
  57 0016 0F4B     		ldr	r3, .L2+12
  58 0018 0022     		movs	r2, #0
  59 001a 1A70     		strb	r2, [r3]
  62:.\Generated_Source\PSoC5/I2C_Master.c ****         #endif /* (CY_PSOC5A) */
  63:.\Generated_Source\PSoC5/I2C_Master.c **** 
  64:.\Generated_Source\PSoC5/I2C_Master.c ****     #else
  65:.\Generated_Source\PSoC5/I2C_Master.c ****         uint8 enableInterrupts;
  66:.\Generated_Source\PSoC5/I2C_Master.c **** 
  67:.\Generated_Source\PSoC5/I2C_Master.c ****         I2C_Master_CFG_REG      = I2C_Master_DEFAULT_CFG;      /* control  */
  68:.\Generated_Source\PSoC5/I2C_Master.c ****         I2C_Master_INT_MASK_REG = I2C_Master_DEFAULT_INT_MASK; /* int_mask */
  69:.\Generated_Source\PSoC5/I2C_Master.c **** 
  70:.\Generated_Source\PSoC5/I2C_Master.c ****         /* Enable interrupts from block */
  71:.\Generated_Source\PSoC5/I2C_Master.c ****         enableInterrupts = CyEnterCriticalSection();
  72:.\Generated_Source\PSoC5/I2C_Master.c ****         I2C_Master_INT_ENABLE_REG |= I2C_Master_INTR_ENABLE; /* aux_ctl */
  73:.\Generated_Source\PSoC5/I2C_Master.c ****         CyExitCriticalSection(enableInterrupts);
  74:.\Generated_Source\PSoC5/I2C_Master.c **** 
  75:.\Generated_Source\PSoC5/I2C_Master.c ****         #if(I2C_Master_MODE_MASTER_ENABLED)
  76:.\Generated_Source\PSoC5/I2C_Master.c ****             I2C_Master_MCLK_PRD_REG = I2C_Master_DEFAULT_MCLK_PRD;
  77:.\Generated_Source\PSoC5/I2C_Master.c ****             I2C_Master_MCLK_CMP_REG = I2C_Master_DEFAULT_MCLK_CMP;
  78:.\Generated_Source\PSoC5/I2C_Master.c ****          #endif /* (I2C_Master_MODE_MASTER_ENABLED) */
  79:.\Generated_Source\PSoC5/I2C_Master.c **** 
  80:.\Generated_Source\PSoC5/I2C_Master.c ****         #if(I2C_Master_MODE_SLAVE_ENABLED)
  81:.\Generated_Source\PSoC5/I2C_Master.c ****             I2C_Master_PERIOD_REG = I2C_Master_DEFAULT_PERIOD;
  82:.\Generated_Source\PSoC5/I2C_Master.c ****         #endif  /* (I2C_Master_MODE_SLAVE_ENABLED) */
  83:.\Generated_Source\PSoC5/I2C_Master.c **** 
  84:.\Generated_Source\PSoC5/I2C_Master.c ****     #endif /* (I2C_Master_FF_IMPLEMENTED) */
  85:.\Generated_Source\PSoC5/I2C_Master.c **** 
  86:.\Generated_Source\PSoC5/I2C_Master.c ****     #if(I2C_Master_TIMEOUT_ENABLED)
  87:.\Generated_Source\PSoC5/I2C_Master.c ****         I2C_Master_TimeoutInit();
  88:.\Generated_Source\PSoC5/I2C_Master.c ****     #endif /* (I2C_Master_TIMEOUT_ENABLED) */
  89:.\Generated_Source\PSoC5/I2C_Master.c **** 
  90:.\Generated_Source\PSoC5/I2C_Master.c ****     /* Disable Interrupt and set vector and priority */
  91:.\Generated_Source\PSoC5/I2C_Master.c ****     CyIntDisable    (I2C_Master_ISR_NUMBER);
  60              		.loc 1 91 0
  61 001c 0E4B     		ldr	r3, .L2+16
  62 001e 4FF40042 		mov	r2, #32768
  63 0022 1A60     		str	r2, [r3]
  92:.\Generated_Source\PSoC5/I2C_Master.c ****     CyIntSetPriority(I2C_Master_ISR_NUMBER, I2C_Master_ISR_PRIORITY);
  64              		.loc 1 92 0
  65 0024 0F20     		movs	r0, #15
  66 0026 0721     		movs	r1, #7
  67 0028 FFF7FEFF 		bl	CyIntSetPriority
  93:.\Generated_Source\PSoC5/I2C_Master.c ****     #if(I2C_Master_INTERN_I2C_INTR_HANDLER)
  94:.\Generated_Source\PSoC5/I2C_Master.c ****         (void) CyIntSetVector(I2C_Master_ISR_NUMBER, &I2C_Master_ISR);
  68              		.loc 1 94 0
  69 002c 0F20     		movs	r0, #15
  70 002e 0B49     		ldr	r1, .L2+20
  71 0030 FFF7FEFF 		bl	CyIntSetVector
  95:.\Generated_Source\PSoC5/I2C_Master.c ****     #endif /* (I2C_Master_INTERN_I2C_INTR_HANDLER) */
  96:.\Generated_Source\PSoC5/I2C_Master.c **** 
  97:.\Generated_Source\PSoC5/I2C_Master.c **** 
  98:.\Generated_Source\PSoC5/I2C_Master.c ****     /* Put state machine in idle state */
  99:.\Generated_Source\PSoC5/I2C_Master.c ****     I2C_Master_state = I2C_Master_SM_IDLE;
  72              		.loc 1 99 0
ARM GAS  C:\USERS\LUKAS\APPDATA\LOCAL\TEMP\ccyiZQRk.s 			page 4


  73 0034 0A4B     		ldr	r3, .L2+24
  74 0036 1022     		movs	r2, #16
  75 0038 1A70     		strb	r2, [r3]
 100:.\Generated_Source\PSoC5/I2C_Master.c **** 
 101:.\Generated_Source\PSoC5/I2C_Master.c ****     #if(I2C_Master_MODE_SLAVE_ENABLED)
 102:.\Generated_Source\PSoC5/I2C_Master.c ****         /* Reset status and buffers index */
 103:.\Generated_Source\PSoC5/I2C_Master.c ****         I2C_Master_SlaveClearReadBuf();
 104:.\Generated_Source\PSoC5/I2C_Master.c ****         I2C_Master_SlaveClearWriteBuf();
 105:.\Generated_Source\PSoC5/I2C_Master.c ****         I2C_Master_slStatus = 0u; /* Reset slave status */
 106:.\Generated_Source\PSoC5/I2C_Master.c **** 
 107:.\Generated_Source\PSoC5/I2C_Master.c ****         /* Set default address */
 108:.\Generated_Source\PSoC5/I2C_Master.c ****         I2C_Master_SlaveSetAddress(I2C_Master_DEFAULT_ADDR);
 109:.\Generated_Source\PSoC5/I2C_Master.c ****     #endif /* (I2C_Master_MODE_SLAVE_ENABLED) */
 110:.\Generated_Source\PSoC5/I2C_Master.c **** 
 111:.\Generated_Source\PSoC5/I2C_Master.c ****     #if(I2C_Master_MODE_MASTER_ENABLED)
 112:.\Generated_Source\PSoC5/I2C_Master.c ****         /* Reset status and buffers index */
 113:.\Generated_Source\PSoC5/I2C_Master.c ****         I2C_Master_MasterClearReadBuf();
  76              		.loc 1 113 0
  77 003a FFF7FEFF 		bl	I2C_Master_MasterClearReadBuf
 114:.\Generated_Source\PSoC5/I2C_Master.c ****         I2C_Master_MasterClearWriteBuf();
  78              		.loc 1 114 0
  79 003e FFF7FEFF 		bl	I2C_Master_MasterClearWriteBuf
 115:.\Generated_Source\PSoC5/I2C_Master.c ****         (void) I2C_Master_MasterClearStatus();
  80              		.loc 1 115 0
  81 0042 FFF7FEFF 		bl	I2C_Master_MasterClearStatus
 116:.\Generated_Source\PSoC5/I2C_Master.c ****     #endif /* (I2C_Master_MODE_MASTER_ENABLED) */
 117:.\Generated_Source\PSoC5/I2C_Master.c **** }
  82              		.loc 1 117 0
  83 0046 80BD     		pop	{r7, pc}
  84              	.L3:
  85              		.align	2
  86              	.L2:
  87 0048 D6490040 		.word	1073760726
  88 004c C8490040 		.word	1073760712
  89 0050 DB490040 		.word	1073760731
  90 0054 DC490040 		.word	1073760732
  91 0058 80E100E0 		.word	-536813184
  92 005c 00000000 		.word	I2C_Master_ISR
  93 0060 00000000 		.word	I2C_Master_state
  94              		.cfi_endproc
  95              	.LFE0:
  96              		.size	I2C_Master_Init, .-I2C_Master_Init
  97              		.section	.text.I2C_Master_Enable,"ax",%progbits
  98              		.align	2
  99              		.global	I2C_Master_Enable
 100              		.thumb
 101              		.thumb_func
 102              		.type	I2C_Master_Enable, %function
 103              	I2C_Master_Enable:
 104              	.LFB1:
 118:.\Generated_Source\PSoC5/I2C_Master.c **** 
 119:.\Generated_Source\PSoC5/I2C_Master.c **** 
 120:.\Generated_Source\PSoC5/I2C_Master.c **** /*******************************************************************************
 121:.\Generated_Source\PSoC5/I2C_Master.c **** * Function Name: I2C_Master_Enable
 122:.\Generated_Source\PSoC5/I2C_Master.c **** ********************************************************************************
 123:.\Generated_Source\PSoC5/I2C_Master.c **** *
 124:.\Generated_Source\PSoC5/I2C_Master.c **** * Summary:
ARM GAS  C:\USERS\LUKAS\APPDATA\LOCAL\TEMP\ccyiZQRk.s 			page 5


 125:.\Generated_Source\PSoC5/I2C_Master.c **** *  Enables I2C operations.
 126:.\Generated_Source\PSoC5/I2C_Master.c **** *
 127:.\Generated_Source\PSoC5/I2C_Master.c **** * Parameters:
 128:.\Generated_Source\PSoC5/I2C_Master.c **** *  None
 129:.\Generated_Source\PSoC5/I2C_Master.c **** *
 130:.\Generated_Source\PSoC5/I2C_Master.c **** * Return:
 131:.\Generated_Source\PSoC5/I2C_Master.c **** *  None
 132:.\Generated_Source\PSoC5/I2C_Master.c **** *
 133:.\Generated_Source\PSoC5/I2C_Master.c **** * Global variables:
 134:.\Generated_Source\PSoC5/I2C_Master.c **** *  None
 135:.\Generated_Source\PSoC5/I2C_Master.c **** *
 136:.\Generated_Source\PSoC5/I2C_Master.c **** *******************************************************************************/
 137:.\Generated_Source\PSoC5/I2C_Master.c **** void I2C_Master_Enable(void) 
 138:.\Generated_Source\PSoC5/I2C_Master.c **** {
 105              		.loc 1 138 0
 106              		.cfi_startproc
 107              		@ args = 0, pretend = 0, frame = 8
 108              		@ frame_needed = 1, uses_anonymous_args = 0
 109 0000 80B5     		push	{r7, lr}
 110              		.cfi_def_cfa_offset 8
 111              		.cfi_offset 7, -8
 112              		.cfi_offset 14, -4
 113 0002 82B0     		sub	sp, sp, #8
 114              		.cfi_def_cfa_offset 16
 115 0004 00AF     		add	r7, sp, #0
 116              		.cfi_def_cfa_register 7
 139:.\Generated_Source\PSoC5/I2C_Master.c ****     #if(I2C_Master_FF_IMPLEMENTED)
 140:.\Generated_Source\PSoC5/I2C_Master.c ****         uint8 enableInterrupts;
 141:.\Generated_Source\PSoC5/I2C_Master.c **** 
 142:.\Generated_Source\PSoC5/I2C_Master.c ****         /* Enable power to I2C FF block */
 143:.\Generated_Source\PSoC5/I2C_Master.c ****         enableInterrupts = CyEnterCriticalSection();
 117              		.loc 1 143 0
 118 0006 FFF7FEFF 		bl	CyEnterCriticalSection
 119 000a 0346     		mov	r3, r0
 120 000c FB71     		strb	r3, [r7, #7]
 144:.\Generated_Source\PSoC5/I2C_Master.c ****         I2C_Master_ACT_PWRMGR_REG  |= I2C_Master_ACT_PWR_EN;
 121              		.loc 1 144 0
 122 000e 0B4A     		ldr	r2, .L5
 123 0010 0A4B     		ldr	r3, .L5
 124 0012 1B78     		ldrb	r3, [r3]
 125 0014 DBB2     		uxtb	r3, r3
 126 0016 43F00403 		orr	r3, r3, #4
 127 001a DBB2     		uxtb	r3, r3
 128 001c 1370     		strb	r3, [r2]
 145:.\Generated_Source\PSoC5/I2C_Master.c ****         I2C_Master_STBY_PWRMGR_REG |= I2C_Master_STBY_PWR_EN;
 129              		.loc 1 145 0
 130 001e 084A     		ldr	r2, .L5+4
 131 0020 074B     		ldr	r3, .L5+4
 132 0022 1B78     		ldrb	r3, [r3]
 133 0024 DBB2     		uxtb	r3, r3
 134 0026 43F00403 		orr	r3, r3, #4
 135 002a DBB2     		uxtb	r3, r3
 136 002c 1370     		strb	r3, [r2]
 146:.\Generated_Source\PSoC5/I2C_Master.c ****         CyExitCriticalSection(enableInterrupts);
 137              		.loc 1 146 0
 138 002e FB79     		ldrb	r3, [r7, #7]	@ zero_extendqisi2
 139 0030 1846     		mov	r0, r3
ARM GAS  C:\USERS\LUKAS\APPDATA\LOCAL\TEMP\ccyiZQRk.s 			page 6


 140 0032 FFF7FEFF 		bl	CyExitCriticalSection
 147:.\Generated_Source\PSoC5/I2C_Master.c **** 
 148:.\Generated_Source\PSoC5/I2C_Master.c ****     #else
 149:.\Generated_Source\PSoC5/I2C_Master.c **** 
 150:.\Generated_Source\PSoC5/I2C_Master.c ****         #if(I2C_Master_MODE_SLAVE_ENABLED)
 151:.\Generated_Source\PSoC5/I2C_Master.c ****             uint8 enableInterrupts;
 152:.\Generated_Source\PSoC5/I2C_Master.c ****         #endif /* (I2C_Master_MODE_SLAVE_ENABLED) */
 153:.\Generated_Source\PSoC5/I2C_Master.c **** 
 154:.\Generated_Source\PSoC5/I2C_Master.c ****         #if(I2C_Master_MODE_SLAVE_ENABLED)
 155:.\Generated_Source\PSoC5/I2C_Master.c ****             /* Enable slave bit counter */
 156:.\Generated_Source\PSoC5/I2C_Master.c ****             enableInterrupts = CyEnterCriticalSection();
 157:.\Generated_Source\PSoC5/I2C_Master.c ****             I2C_Master_COUNTER_AUX_CTL_REG |= I2C_Master_CNT7_ENABLE;   /* aux_ctl */
 158:.\Generated_Source\PSoC5/I2C_Master.c ****             CyExitCriticalSection(enableInterrupts);
 159:.\Generated_Source\PSoC5/I2C_Master.c ****         #endif /* (I2C_Master_MODE_SLAVE_ENABLED) */
 160:.\Generated_Source\PSoC5/I2C_Master.c **** 
 161:.\Generated_Source\PSoC5/I2C_Master.c ****         I2C_Master_CFG_REG |= I2C_Master_ENABLE_MS;
 162:.\Generated_Source\PSoC5/I2C_Master.c **** 
 163:.\Generated_Source\PSoC5/I2C_Master.c ****     #endif /* (I2C_Master_FF_IMPLEMENTED) */
 164:.\Generated_Source\PSoC5/I2C_Master.c **** 
 165:.\Generated_Source\PSoC5/I2C_Master.c ****     #if(I2C_Master_TIMEOUT_ENABLED)
 166:.\Generated_Source\PSoC5/I2C_Master.c ****         I2C_Master_TimeoutEnable();
 167:.\Generated_Source\PSoC5/I2C_Master.c ****     #endif /* (I2C_Master_TIMEOUT_ENABLED) */
 168:.\Generated_Source\PSoC5/I2C_Master.c **** }
 141              		.loc 1 168 0
 142 0036 0837     		adds	r7, r7, #8
 143              		.cfi_def_cfa_offset 8
 144 0038 BD46     		mov	sp, r7
 145              		.cfi_def_cfa_register 13
 146              		@ sp needed
 147 003a 80BD     		pop	{r7, pc}
 148              	.L6:
 149              		.align	2
 150              	.L5:
 151 003c A5430040 		.word	1073759141
 152 0040 B5430040 		.word	1073759157
 153              		.cfi_endproc
 154              	.LFE1:
 155              		.size	I2C_Master_Enable, .-I2C_Master_Enable
 156              		.section	.text.I2C_Master_Start,"ax",%progbits
 157              		.align	2
 158              		.global	I2C_Master_Start
 159              		.thumb
 160              		.thumb_func
 161              		.type	I2C_Master_Start, %function
 162              	I2C_Master_Start:
 163              	.LFB2:
 169:.\Generated_Source\PSoC5/I2C_Master.c **** 
 170:.\Generated_Source\PSoC5/I2C_Master.c **** 
 171:.\Generated_Source\PSoC5/I2C_Master.c **** /*******************************************************************************
 172:.\Generated_Source\PSoC5/I2C_Master.c **** * Function Name: I2C_Master_Start
 173:.\Generated_Source\PSoC5/I2C_Master.c **** ********************************************************************************
 174:.\Generated_Source\PSoC5/I2C_Master.c **** *
 175:.\Generated_Source\PSoC5/I2C_Master.c **** * Summary:
 176:.\Generated_Source\PSoC5/I2C_Master.c **** *  Starts the I2C hardware. Enables Active mode power template bits or clock
 177:.\Generated_Source\PSoC5/I2C_Master.c **** *  gating as appropriate. It is required to be executed before I2C bus
 178:.\Generated_Source\PSoC5/I2C_Master.c **** *  operation.
 179:.\Generated_Source\PSoC5/I2C_Master.c **** *
ARM GAS  C:\USERS\LUKAS\APPDATA\LOCAL\TEMP\ccyiZQRk.s 			page 7


 180:.\Generated_Source\PSoC5/I2C_Master.c **** * Parameters:
 181:.\Generated_Source\PSoC5/I2C_Master.c **** *  None
 182:.\Generated_Source\PSoC5/I2C_Master.c **** *
 183:.\Generated_Source\PSoC5/I2C_Master.c **** * Return:
 184:.\Generated_Source\PSoC5/I2C_Master.c **** *  None
 185:.\Generated_Source\PSoC5/I2C_Master.c **** *
 186:.\Generated_Source\PSoC5/I2C_Master.c **** * Side Effects:
 187:.\Generated_Source\PSoC5/I2C_Master.c **** *  This component automatically enables it's interrupt.  If I2C is enabled
 188:.\Generated_Source\PSoC5/I2C_Master.c **** *  without the interrupt enabled, it could lock up the I2C bus.
 189:.\Generated_Source\PSoC5/I2C_Master.c **** *
 190:.\Generated_Source\PSoC5/I2C_Master.c **** * Global variables:
 191:.\Generated_Source\PSoC5/I2C_Master.c **** *  I2C_Master_initVar - used to check initial configuration, modified
 192:.\Generated_Source\PSoC5/I2C_Master.c **** *  on first function call.
 193:.\Generated_Source\PSoC5/I2C_Master.c **** *
 194:.\Generated_Source\PSoC5/I2C_Master.c **** * Reentrant:
 195:.\Generated_Source\PSoC5/I2C_Master.c **** *  No
 196:.\Generated_Source\PSoC5/I2C_Master.c **** *
 197:.\Generated_Source\PSoC5/I2C_Master.c **** *******************************************************************************/
 198:.\Generated_Source\PSoC5/I2C_Master.c **** void I2C_Master_Start(void) 
 199:.\Generated_Source\PSoC5/I2C_Master.c **** {
 164              		.loc 1 199 0
 165              		.cfi_startproc
 166              		@ args = 0, pretend = 0, frame = 0
 167              		@ frame_needed = 1, uses_anonymous_args = 0
 168 0000 80B5     		push	{r7, lr}
 169              		.cfi_def_cfa_offset 8
 170              		.cfi_offset 7, -8
 171              		.cfi_offset 14, -4
 172 0002 00AF     		add	r7, sp, #0
 173              		.cfi_def_cfa_register 7
 200:.\Generated_Source\PSoC5/I2C_Master.c ****     /* Initialize I2C registers, reset I2C buffer index and clears status */
 201:.\Generated_Source\PSoC5/I2C_Master.c ****     if(0u == I2C_Master_initVar)
 174              		.loc 1 201 0
 175 0004 074B     		ldr	r3, .L9
 176 0006 1B78     		ldrb	r3, [r3]	@ zero_extendqisi2
 177 0008 002B     		cmp	r3, #0
 178 000a 04D1     		bne	.L8
 202:.\Generated_Source\PSoC5/I2C_Master.c ****     {
 203:.\Generated_Source\PSoC5/I2C_Master.c ****         I2C_Master_Init();
 179              		.loc 1 203 0
 180 000c FFF7FEFF 		bl	I2C_Master_Init
 204:.\Generated_Source\PSoC5/I2C_Master.c ****         I2C_Master_initVar = 1u; /* Component initialized */
 181              		.loc 1 204 0
 182 0010 044B     		ldr	r3, .L9
 183 0012 0122     		movs	r2, #1
 184 0014 1A70     		strb	r2, [r3]
 185              	.L8:
 205:.\Generated_Source\PSoC5/I2C_Master.c ****     }
 206:.\Generated_Source\PSoC5/I2C_Master.c **** 
 207:.\Generated_Source\PSoC5/I2C_Master.c ****     I2C_Master_Enable();
 186              		.loc 1 207 0
 187 0016 FFF7FEFF 		bl	I2C_Master_Enable
 208:.\Generated_Source\PSoC5/I2C_Master.c ****     I2C_Master_EnableInt();
 188              		.loc 1 208 0
 189 001a 034B     		ldr	r3, .L9+4
 190 001c 4FF40042 		mov	r2, #32768
 191 0020 1A60     		str	r2, [r3]
ARM GAS  C:\USERS\LUKAS\APPDATA\LOCAL\TEMP\ccyiZQRk.s 			page 8


 209:.\Generated_Source\PSoC5/I2C_Master.c **** }
 192              		.loc 1 209 0
 193 0022 80BD     		pop	{r7, pc}
 194              	.L10:
 195              		.align	2
 196              	.L9:
 197 0024 00000000 		.word	I2C_Master_initVar
 198 0028 00E100E0 		.word	-536813312
 199              		.cfi_endproc
 200              	.LFE2:
 201              		.size	I2C_Master_Start, .-I2C_Master_Start
 202              		.section	.text.I2C_Master_Stop,"ax",%progbits
 203              		.align	2
 204              		.global	I2C_Master_Stop
 205              		.thumb
 206              		.thumb_func
 207              		.type	I2C_Master_Stop, %function
 208              	I2C_Master_Stop:
 209              	.LFB3:
 210:.\Generated_Source\PSoC5/I2C_Master.c **** 
 211:.\Generated_Source\PSoC5/I2C_Master.c **** 
 212:.\Generated_Source\PSoC5/I2C_Master.c **** /*******************************************************************************
 213:.\Generated_Source\PSoC5/I2C_Master.c **** * Function Name: I2C_Master_Stop
 214:.\Generated_Source\PSoC5/I2C_Master.c **** ********************************************************************************
 215:.\Generated_Source\PSoC5/I2C_Master.c **** *
 216:.\Generated_Source\PSoC5/I2C_Master.c **** * Summary:
 217:.\Generated_Source\PSoC5/I2C_Master.c **** *  Disables I2C hardware and disables I2C interrupt. Disables Active mode power
 218:.\Generated_Source\PSoC5/I2C_Master.c **** *  template bits or clock gating as appropriate.
 219:.\Generated_Source\PSoC5/I2C_Master.c **** *
 220:.\Generated_Source\PSoC5/I2C_Master.c **** * Parameters:
 221:.\Generated_Source\PSoC5/I2C_Master.c **** *  None
 222:.\Generated_Source\PSoC5/I2C_Master.c **** *
 223:.\Generated_Source\PSoC5/I2C_Master.c **** * Return:
 224:.\Generated_Source\PSoC5/I2C_Master.c **** *  None
 225:.\Generated_Source\PSoC5/I2C_Master.c **** *
 226:.\Generated_Source\PSoC5/I2C_Master.c **** *******************************************************************************/
 227:.\Generated_Source\PSoC5/I2C_Master.c **** void I2C_Master_Stop(void) 
 228:.\Generated_Source\PSoC5/I2C_Master.c **** {
 210              		.loc 1 228 0
 211              		.cfi_startproc
 212              		@ args = 0, pretend = 0, frame = 8
 213              		@ frame_needed = 1, uses_anonymous_args = 0
 214 0000 80B5     		push	{r7, lr}
 215              		.cfi_def_cfa_offset 8
 216              		.cfi_offset 7, -8
 217              		.cfi_offset 14, -4
 218 0002 82B0     		sub	sp, sp, #8
 219              		.cfi_def_cfa_offset 16
 220 0004 00AF     		add	r7, sp, #0
 221              		.cfi_def_cfa_register 7
 229:.\Generated_Source\PSoC5/I2C_Master.c ****     #if((I2C_Master_FF_IMPLEMENTED)  || \
 230:.\Generated_Source\PSoC5/I2C_Master.c ****         (I2C_Master_UDB_IMPLEMENTED && I2C_Master_MODE_SLAVE_ENABLED))
 231:.\Generated_Source\PSoC5/I2C_Master.c ****         uint8 enableInterrupts;
 232:.\Generated_Source\PSoC5/I2C_Master.c ****     #endif /* ((I2C_Master_FF_IMPLEMENTED)  || \
 233:.\Generated_Source\PSoC5/I2C_Master.c ****                (I2C_Master_UDB_IMPLEMENTED && I2C_Master_MODE_SLAVE_ENABLED)) */
 234:.\Generated_Source\PSoC5/I2C_Master.c **** 
 235:.\Generated_Source\PSoC5/I2C_Master.c ****     I2C_Master_DisableInt();
ARM GAS  C:\USERS\LUKAS\APPDATA\LOCAL\TEMP\ccyiZQRk.s 			page 9


 222              		.loc 1 235 0
 223 0006 2A4B     		ldr	r3, .L12
 224 0008 4FF40042 		mov	r2, #32768
 225 000c 1A60     		str	r2, [r3]
 236:.\Generated_Source\PSoC5/I2C_Master.c **** 
 237:.\Generated_Source\PSoC5/I2C_Master.c ****     I2C_Master_DISABLE_INT_ON_STOP;   /* Interrupt on Stop can be enabled by write */
 226              		.loc 1 237 0
 227 000e 294A     		ldr	r2, .L12+4
 228 0010 284B     		ldr	r3, .L12+4
 229 0012 1B78     		ldrb	r3, [r3]
 230 0014 DBB2     		uxtb	r3, r3
 231 0016 23F01003 		bic	r3, r3, #16
 232 001a DBB2     		uxtb	r3, r3
 233 001c 1370     		strb	r3, [r2]
 238:.\Generated_Source\PSoC5/I2C_Master.c ****     (void) I2C_Master_CSR_REG;        /* Clear CSR reg */
 234              		.loc 1 238 0
 235 001e 264B     		ldr	r3, .L12+8
 236 0020 1B78     		ldrb	r3, [r3]
 239:.\Generated_Source\PSoC5/I2C_Master.c ****     
 240:.\Generated_Source\PSoC5/I2C_Master.c ****     #if(I2C_Master_TIMEOUT_ENABLED)
 241:.\Generated_Source\PSoC5/I2C_Master.c ****         I2C_Master_TimeoutStop();
 242:.\Generated_Source\PSoC5/I2C_Master.c ****     #endif  /* End (I2C_Master_TIMEOUT_ENABLED) */
 243:.\Generated_Source\PSoC5/I2C_Master.c **** 
 244:.\Generated_Source\PSoC5/I2C_Master.c ****     #if(I2C_Master_FF_IMPLEMENTED)
 245:.\Generated_Source\PSoC5/I2C_Master.c ****         #if(CY_PSOC3 || CY_PSOC5LP)
 246:.\Generated_Source\PSoC5/I2C_Master.c ****             /* Store registers which are held in reset when Master and Slave bits are cleared */
 247:.\Generated_Source\PSoC5/I2C_Master.c ****             #if(I2C_Master_MODE_SLAVE_ENABLED)
 248:.\Generated_Source\PSoC5/I2C_Master.c ****                 I2C_Master_backup.addr = I2C_Master_ADDR_REG;
 249:.\Generated_Source\PSoC5/I2C_Master.c ****             #endif /* (I2C_Master_MODE_SLAVE_ENABLED) */
 250:.\Generated_Source\PSoC5/I2C_Master.c **** 
 251:.\Generated_Source\PSoC5/I2C_Master.c ****             I2C_Master_backup.clkDiv1  = I2C_Master_CLKDIV1_REG;
 237              		.loc 1 251 0
 238 0022 264B     		ldr	r3, .L12+12
 239 0024 1B78     		ldrb	r3, [r3]
 240 0026 DAB2     		uxtb	r2, r3
 241 0028 254B     		ldr	r3, .L12+16
 242 002a DA70     		strb	r2, [r3, #3]
 252:.\Generated_Source\PSoC5/I2C_Master.c ****             I2C_Master_backup.clkDiv2  = I2C_Master_CLKDIV2_REG;
 243              		.loc 1 252 0
 244 002c 254B     		ldr	r3, .L12+20
 245 002e 1B78     		ldrb	r3, [r3]
 246 0030 DAB2     		uxtb	r2, r3
 247 0032 234B     		ldr	r3, .L12+16
 248 0034 1A71     		strb	r2, [r3, #4]
 253:.\Generated_Source\PSoC5/I2C_Master.c **** 
 254:.\Generated_Source\PSoC5/I2C_Master.c **** 
 255:.\Generated_Source\PSoC5/I2C_Master.c ****             /* Reset FF block */
 256:.\Generated_Source\PSoC5/I2C_Master.c ****             I2C_Master_CFG_REG &= ((uint8) ~I2C_Master_ENABLE_MS);
 249              		.loc 1 256 0
 250 0036 1F4A     		ldr	r2, .L12+4
 251 0038 1E4B     		ldr	r3, .L12+4
 252 003a 1B78     		ldrb	r3, [r3]
 253 003c DBB2     		uxtb	r3, r3
 254 003e 23F00203 		bic	r3, r3, #2
 255 0042 DBB2     		uxtb	r3, r3
 256 0044 1370     		strb	r3, [r2]
 257:.\Generated_Source\PSoC5/I2C_Master.c ****             CyDelayUs(I2C_Master_FF_RESET_DELAY);
ARM GAS  C:\USERS\LUKAS\APPDATA\LOCAL\TEMP\ccyiZQRk.s 			page 10


 257              		.loc 1 257 0
 258 0046 0220     		movs	r0, #2
 259 0048 FFF7FEFF 		bl	CyDelayUs
 258:.\Generated_Source\PSoC5/I2C_Master.c ****             I2C_Master_CFG_REG |= ((uint8)  I2C_Master_ENABLE_MS);
 260              		.loc 1 258 0
 261 004c 194A     		ldr	r2, .L12+4
 262 004e 194B     		ldr	r3, .L12+4
 263 0050 1B78     		ldrb	r3, [r3]
 264 0052 DBB2     		uxtb	r3, r3
 265 0054 43F00203 		orr	r3, r3, #2
 266 0058 DBB2     		uxtb	r3, r3
 267 005a 1370     		strb	r3, [r2]
 259:.\Generated_Source\PSoC5/I2C_Master.c **** 
 260:.\Generated_Source\PSoC5/I2C_Master.c **** 
 261:.\Generated_Source\PSoC5/I2C_Master.c ****             /* Restore registers */
 262:.\Generated_Source\PSoC5/I2C_Master.c ****             #if(I2C_Master_MODE_SLAVE_ENABLED)
 263:.\Generated_Source\PSoC5/I2C_Master.c ****                 I2C_Master_ADDR_REG = I2C_Master_backup.addr;
 264:.\Generated_Source\PSoC5/I2C_Master.c ****             #endif /* (I2C_Master_MODE_SLAVE_ENABLED) */
 265:.\Generated_Source\PSoC5/I2C_Master.c **** 
 266:.\Generated_Source\PSoC5/I2C_Master.c ****             I2C_Master_CLKDIV1_REG = I2C_Master_backup.clkDiv1;
 268              		.loc 1 266 0
 269 005c 174B     		ldr	r3, .L12+12
 270 005e 184A     		ldr	r2, .L12+16
 271 0060 D278     		ldrb	r2, [r2, #3]	@ zero_extendqisi2
 272 0062 1A70     		strb	r2, [r3]
 267:.\Generated_Source\PSoC5/I2C_Master.c ****             I2C_Master_CLKDIV2_REG = I2C_Master_backup.clkDiv2;
 273              		.loc 1 267 0
 274 0064 174B     		ldr	r3, .L12+20
 275 0066 164A     		ldr	r2, .L12+16
 276 0068 1279     		ldrb	r2, [r2, #4]	@ zero_extendqisi2
 277 006a 1A70     		strb	r2, [r3]
 268:.\Generated_Source\PSoC5/I2C_Master.c **** 
 269:.\Generated_Source\PSoC5/I2C_Master.c ****         #endif /* (CY_PSOC3 || CY_PSOC5LP) */
 270:.\Generated_Source\PSoC5/I2C_Master.c **** 
 271:.\Generated_Source\PSoC5/I2C_Master.c ****         /* Disable power to I2C block */
 272:.\Generated_Source\PSoC5/I2C_Master.c ****         enableInterrupts = CyEnterCriticalSection();
 278              		.loc 1 272 0
 279 006c FFF7FEFF 		bl	CyEnterCriticalSection
 280 0070 0346     		mov	r3, r0
 281 0072 FB71     		strb	r3, [r7, #7]
 273:.\Generated_Source\PSoC5/I2C_Master.c ****         I2C_Master_ACT_PWRMGR_REG  &= ((uint8) ~I2C_Master_ACT_PWR_EN);
 282              		.loc 1 273 0
 283 0074 144A     		ldr	r2, .L12+24
 284 0076 144B     		ldr	r3, .L12+24
 285 0078 1B78     		ldrb	r3, [r3]
 286 007a DBB2     		uxtb	r3, r3
 287 007c 23F00403 		bic	r3, r3, #4
 288 0080 DBB2     		uxtb	r3, r3
 289 0082 1370     		strb	r3, [r2]
 274:.\Generated_Source\PSoC5/I2C_Master.c ****         I2C_Master_STBY_PWRMGR_REG &= ((uint8) ~I2C_Master_STBY_PWR_EN);
 290              		.loc 1 274 0
 291 0084 114A     		ldr	r2, .L12+28
 292 0086 114B     		ldr	r3, .L12+28
 293 0088 1B78     		ldrb	r3, [r3]
 294 008a DBB2     		uxtb	r3, r3
 295 008c 23F00403 		bic	r3, r3, #4
 296 0090 DBB2     		uxtb	r3, r3
ARM GAS  C:\USERS\LUKAS\APPDATA\LOCAL\TEMP\ccyiZQRk.s 			page 11


 297 0092 1370     		strb	r3, [r2]
 275:.\Generated_Source\PSoC5/I2C_Master.c ****         CyExitCriticalSection(enableInterrupts);
 298              		.loc 1 275 0
 299 0094 FB79     		ldrb	r3, [r7, #7]	@ zero_extendqisi2
 300 0096 1846     		mov	r0, r3
 301 0098 FFF7FEFF 		bl	CyExitCriticalSection
 276:.\Generated_Source\PSoC5/I2C_Master.c **** 
 277:.\Generated_Source\PSoC5/I2C_Master.c ****     #else
 278:.\Generated_Source\PSoC5/I2C_Master.c **** 
 279:.\Generated_Source\PSoC5/I2C_Master.c ****         #if(I2C_Master_MODE_SLAVE_ENABLED)
 280:.\Generated_Source\PSoC5/I2C_Master.c ****             /* Disable slave bit counter */
 281:.\Generated_Source\PSoC5/I2C_Master.c ****             enableInterrupts = CyEnterCriticalSection();
 282:.\Generated_Source\PSoC5/I2C_Master.c ****             I2C_Master_COUNTER_AUX_CTL_REG &= ((uint8) ~I2C_Master_CNT7_ENABLE);
 283:.\Generated_Source\PSoC5/I2C_Master.c ****             CyExitCriticalSection(enableInterrupts);
 284:.\Generated_Source\PSoC5/I2C_Master.c ****         #endif /* (I2C_Master_MODE_SLAVE_ENABLED) */
 285:.\Generated_Source\PSoC5/I2C_Master.c **** 
 286:.\Generated_Source\PSoC5/I2C_Master.c ****         I2C_Master_CFG_REG &= ((uint8) ~I2C_Master_ENABLE_MS);
 287:.\Generated_Source\PSoC5/I2C_Master.c **** 
 288:.\Generated_Source\PSoC5/I2C_Master.c ****     #endif /* (I2C_Master_FF_IMPLEMENTED) */
 289:.\Generated_Source\PSoC5/I2C_Master.c **** 
 290:.\Generated_Source\PSoC5/I2C_Master.c ****     I2C_Master_ClearPendingInt();  /* Clear interrupt triggers on reset */
 302              		.loc 1 290 0
 303 009c 0C4B     		ldr	r3, .L12+32
 304 009e 4FF40042 		mov	r2, #32768
 305 00a2 1A60     		str	r2, [r3]
 291:.\Generated_Source\PSoC5/I2C_Master.c **** 
 292:.\Generated_Source\PSoC5/I2C_Master.c ****     I2C_Master_state = I2C_Master_SM_IDLE;  /* Reset software FSM */
 306              		.loc 1 292 0
 307 00a4 0B4B     		ldr	r3, .L12+36
 308 00a6 1022     		movs	r2, #16
 309 00a8 1A70     		strb	r2, [r3]
 293:.\Generated_Source\PSoC5/I2C_Master.c **** }
 310              		.loc 1 293 0
 311 00aa 0837     		adds	r7, r7, #8
 312              		.cfi_def_cfa_offset 8
 313 00ac BD46     		mov	sp, r7
 314              		.cfi_def_cfa_register 13
 315              		@ sp needed
 316 00ae 80BD     		pop	{r7, pc}
 317              	.L13:
 318              		.align	2
 319              	.L12:
 320 00b0 80E100E0 		.word	-536813184
 321 00b4 D6490040 		.word	1073760726
 322 00b8 D7490040 		.word	1073760727
 323 00bc DB490040 		.word	1073760731
 324 00c0 00000000 		.word	I2C_Master_backup
 325 00c4 DC490040 		.word	1073760732
 326 00c8 A5430040 		.word	1073759141
 327 00cc B5430040 		.word	1073759157
 328 00d0 80E200E0 		.word	-536812928
 329 00d4 00000000 		.word	I2C_Master_state
 330              		.cfi_endproc
 331              	.LFE3:
 332              		.size	I2C_Master_Stop, .-I2C_Master_Stop
 333              		.text
 334              	.Letext0:
ARM GAS  C:\USERS\LUKAS\APPDATA\LOCAL\TEMP\ccyiZQRk.s 			page 12


 335              		.file 2 ".\\Generated_Source\\PSoC5\\cytypes.h"
 336              		.file 3 ".\\Generated_Source\\PSoC5\\I2C_Master.h"
 337              		.file 4 ".\\Generated_Source\\PSoC5\\I2C_Master_PVT.h"