ARM GAS  C:\USERS\LUKAS\APPDATA\LOCAL\TEMP\ccnSSr35.s 			page 1


   1              		.syntax unified
   2              		.cpu cortex-m3
   3              		.fpu softvfp
   4              		.eabi_attribute 20, 1
   5              		.eabi_attribute 21, 1
   6              		.eabi_attribute 23, 3
   7              		.eabi_attribute 24, 1
   8              		.eabi_attribute 25, 1
   9              		.eabi_attribute 26, 1
  10              		.eabi_attribute 30, 6
  11              		.eabi_attribute 34, 1
  12              		.eabi_attribute 18, 4
  13              		.thumb
  14              		.file	"I2S.c"
  15              		.text
  16              	.Ltext0:
  17              		.cfi_sections	.debug_frame
  18              		.global	I2S_initVar
  19              		.bss
  20              		.type	I2S_initVar, %object
  21              		.size	I2S_initVar, 1
  22              	I2S_initVar:
  23 0000 00       		.space	1
  24              		.section	.text.I2S_Enable,"ax",%progbits
  25              		.align	2
  26              		.global	I2S_Enable
  27              		.thumb
  28              		.thumb_func
  29              		.type	I2S_Enable, %function
  30              	I2S_Enable:
  31              	.LFB0:
  32              		.file 1 ".\\Generated_Source\\PSoC5\\I2S.c"
   1:.\Generated_Source\PSoC5/I2S.c **** /*******************************************************************************
   2:.\Generated_Source\PSoC5/I2S.c **** * File Name: I2S.c
   3:.\Generated_Source\PSoC5/I2S.c **** * Version 2.40
   4:.\Generated_Source\PSoC5/I2S.c **** *
   5:.\Generated_Source\PSoC5/I2S.c **** * Description:
   6:.\Generated_Source\PSoC5/I2S.c **** *  This file contains the setup, control and status commands for the I2S
   7:.\Generated_Source\PSoC5/I2S.c **** *  component.
   8:.\Generated_Source\PSoC5/I2S.c **** *
   9:.\Generated_Source\PSoC5/I2S.c **** * Note:
  10:.\Generated_Source\PSoC5/I2S.c **** *
  11:.\Generated_Source\PSoC5/I2S.c **** *******************************************************************************
  12:.\Generated_Source\PSoC5/I2S.c **** * Copyright 2008-2012, Cypress Semiconductor Corporation.  All rights reserved.
  13:.\Generated_Source\PSoC5/I2S.c **** * You may use this file only in accordance with the license, terms, conditions,
  14:.\Generated_Source\PSoC5/I2S.c **** * disclaimers, and limitations in the end user license agreement accompanying
  15:.\Generated_Source\PSoC5/I2S.c **** * the software package with which this file was provided.
  16:.\Generated_Source\PSoC5/I2S.c **** *******************************************************************************/
  17:.\Generated_Source\PSoC5/I2S.c **** 
  18:.\Generated_Source\PSoC5/I2S.c **** #include "I2S.h"
  19:.\Generated_Source\PSoC5/I2S.c **** 
  20:.\Generated_Source\PSoC5/I2S.c **** uint8 I2S_initVar = 0u;
  21:.\Generated_Source\PSoC5/I2S.c **** 
  22:.\Generated_Source\PSoC5/I2S.c **** 
  23:.\Generated_Source\PSoC5/I2S.c **** /*******************************************************************************
  24:.\Generated_Source\PSoC5/I2S.c **** * Function Name: I2S_Enable
  25:.\Generated_Source\PSoC5/I2S.c **** ********************************************************************************
ARM GAS  C:\USERS\LUKAS\APPDATA\LOCAL\TEMP\ccnSSr35.s 			page 2


  26:.\Generated_Source\PSoC5/I2S.c **** *
  27:.\Generated_Source\PSoC5/I2S.c **** * Summary:
  28:.\Generated_Source\PSoC5/I2S.c **** *  Enables I2S interface.
  29:.\Generated_Source\PSoC5/I2S.c **** *
  30:.\Generated_Source\PSoC5/I2S.c **** * Parameters:
  31:.\Generated_Source\PSoC5/I2S.c **** *  None.
  32:.\Generated_Source\PSoC5/I2S.c **** *
  33:.\Generated_Source\PSoC5/I2S.c **** * Return:
  34:.\Generated_Source\PSoC5/I2S.c **** *  None.
  35:.\Generated_Source\PSoC5/I2S.c **** *
  36:.\Generated_Source\PSoC5/I2S.c **** *******************************************************************************/
  37:.\Generated_Source\PSoC5/I2S.c **** void I2S_Enable(void) 
  38:.\Generated_Source\PSoC5/I2S.c **** {
  33              		.loc 1 38 0
  34              		.cfi_startproc
  35              		@ args = 0, pretend = 0, frame = 8
  36              		@ frame_needed = 1, uses_anonymous_args = 0
  37 0000 80B5     		push	{r7, lr}
  38              		.cfi_def_cfa_offset 8
  39              		.cfi_offset 7, -8
  40              		.cfi_offset 14, -4
  41 0002 82B0     		sub	sp, sp, #8
  42              		.cfi_def_cfa_offset 16
  43 0004 00AF     		add	r7, sp, #0
  44              		.cfi_def_cfa_register 7
  39:.\Generated_Source\PSoC5/I2S.c ****     uint8 enableInterrupts;
  40:.\Generated_Source\PSoC5/I2S.c **** 
  41:.\Generated_Source\PSoC5/I2S.c ****     enableInterrupts = CyEnterCriticalSection();
  45              		.loc 1 41 0
  46 0006 FFF7FEFF 		bl	CyEnterCriticalSection
  47 000a 0346     		mov	r3, r0
  48 000c FB71     		strb	r3, [r7, #7]
  42:.\Generated_Source\PSoC5/I2S.c ****     I2S_AUX_CONTROL_REG |= I2S_CNTR7_EN;
  49              		.loc 1 42 0
  50 000e 0B4A     		ldr	r2, .L2
  51 0010 0A4B     		ldr	r3, .L2
  52 0012 1B78     		ldrb	r3, [r3]
  53 0014 DBB2     		uxtb	r3, r3
  54 0016 43F02003 		orr	r3, r3, #32
  55 001a DBB2     		uxtb	r3, r3
  56 001c 1370     		strb	r3, [r2]
  43:.\Generated_Source\PSoC5/I2S.c ****     CyExitCriticalSection(enableInterrupts);
  57              		.loc 1 43 0
  58 001e FB79     		ldrb	r3, [r7, #7]	@ zero_extendqisi2
  59 0020 1846     		mov	r0, r3
  60 0022 FFF7FEFF 		bl	CyExitCriticalSection
  44:.\Generated_Source\PSoC5/I2S.c **** 
  45:.\Generated_Source\PSoC5/I2S.c ****     I2S_CONTROL_REG |= I2S_EN;
  61              		.loc 1 45 0
  62 0026 064A     		ldr	r2, .L2+4
  63 0028 054B     		ldr	r3, .L2+4
  64 002a 1B78     		ldrb	r3, [r3]
  65 002c DBB2     		uxtb	r3, r3
  66 002e 43F00403 		orr	r3, r3, #4
  67 0032 DBB2     		uxtb	r3, r3
  68 0034 1370     		strb	r3, [r2]
  46:.\Generated_Source\PSoC5/I2S.c **** }
ARM GAS  C:\USERS\LUKAS\APPDATA\LOCAL\TEMP\ccnSSr35.s 			page 3


  69              		.loc 1 46 0
  70 0036 0837     		adds	r7, r7, #8
  71              		.cfi_def_cfa_offset 8
  72 0038 BD46     		mov	sp, r7
  73              		.cfi_def_cfa_register 13
  74              		@ sp needed
  75 003a 80BD     		pop	{r7, pc}
  76              	.L3:
  77              		.align	2
  78              	.L2:
  79 003c 96640040 		.word	1073767574
  80 0040 75640040 		.word	1073767541
  81              		.cfi_endproc
  82              	.LFE0:
  83              		.size	I2S_Enable, .-I2S_Enable
  84              		.section	.text.I2S_Init,"ax",%progbits
  85              		.align	2
  86              		.global	I2S_Init
  87              		.thumb
  88              		.thumb_func
  89              		.type	I2S_Init, %function
  90              	I2S_Init:
  91              	.LFB1:
  47:.\Generated_Source\PSoC5/I2S.c **** 
  48:.\Generated_Source\PSoC5/I2S.c **** 
  49:.\Generated_Source\PSoC5/I2S.c **** /*******************************************************************************
  50:.\Generated_Source\PSoC5/I2S.c **** * Function Name: I2S_Init
  51:.\Generated_Source\PSoC5/I2S.c **** ********************************************************************************
  52:.\Generated_Source\PSoC5/I2S.c **** *
  53:.\Generated_Source\PSoC5/I2S.c **** * Summary:
  54:.\Generated_Source\PSoC5/I2S.c **** *  Initializes Tx and/or Rx interrupt sources with initial values.
  55:.\Generated_Source\PSoC5/I2S.c **** *
  56:.\Generated_Source\PSoC5/I2S.c **** * Parameters:
  57:.\Generated_Source\PSoC5/I2S.c **** *  None.
  58:.\Generated_Source\PSoC5/I2S.c **** *
  59:.\Generated_Source\PSoC5/I2S.c **** * Return:
  60:.\Generated_Source\PSoC5/I2S.c **** *  None.
  61:.\Generated_Source\PSoC5/I2S.c **** *
  62:.\Generated_Source\PSoC5/I2S.c **** *******************************************************************************/
  63:.\Generated_Source\PSoC5/I2S.c **** void I2S_Init(void) 
  64:.\Generated_Source\PSoC5/I2S.c **** {
  92              		.loc 1 64 0
  93              		.cfi_startproc
  94              		@ args = 0, pretend = 0, frame = 0
  95              		@ frame_needed = 1, uses_anonymous_args = 0
  96 0000 80B5     		push	{r7, lr}
  97              		.cfi_def_cfa_offset 8
  98              		.cfi_offset 7, -8
  99              		.cfi_offset 14, -4
 100 0002 00AF     		add	r7, sp, #0
 101              		.cfi_def_cfa_register 7
  65:.\Generated_Source\PSoC5/I2S.c ****     /* Writes Tx and/or Rx interrupt source values provided for customizer */
  66:.\Generated_Source\PSoC5/I2S.c ****     #if(I2S_TX_DIRECTION_ENABLE)
  67:.\Generated_Source\PSoC5/I2S.c ****         I2S_SetTxInterruptMode(I2S_DEFAULT_TX_INT_SOURCE);
 102              		.loc 1 67 0
 103 0004 0020     		movs	r0, #0
 104 0006 FFF7FEFF 		bl	I2S_SetTxInterruptMode
ARM GAS  C:\USERS\LUKAS\APPDATA\LOCAL\TEMP\ccnSSr35.s 			page 4


  68:.\Generated_Source\PSoC5/I2S.c ****     #endif /* (I2S_TX_DIRECTION_ENABLE) */
  69:.\Generated_Source\PSoC5/I2S.c ****     
  70:.\Generated_Source\PSoC5/I2S.c ****     #if(I2S_RX_DIRECTION_ENABLE)
  71:.\Generated_Source\PSoC5/I2S.c ****         I2S_SetRxInterruptMode(I2S_DEFAULT_RX_INT_SOURCE);
  72:.\Generated_Source\PSoC5/I2S.c ****     #endif /* (I2S_RX_DIRECTION_ENABLE) */
  73:.\Generated_Source\PSoC5/I2S.c **** }
 105              		.loc 1 73 0
 106 000a 80BD     		pop	{r7, pc}
 107              		.cfi_endproc
 108              	.LFE1:
 109              		.size	I2S_Init, .-I2S_Init
 110              		.section	.text.I2S_Start,"ax",%progbits
 111              		.align	2
 112              		.global	I2S_Start
 113              		.thumb
 114              		.thumb_func
 115              		.type	I2S_Start, %function
 116              	I2S_Start:
 117              	.LFB2:
  74:.\Generated_Source\PSoC5/I2S.c **** 
  75:.\Generated_Source\PSoC5/I2S.c **** 
  76:.\Generated_Source\PSoC5/I2S.c **** /*******************************************************************************
  77:.\Generated_Source\PSoC5/I2S.c **** * Function Name: I2S_Start
  78:.\Generated_Source\PSoC5/I2S.c **** ********************************************************************************
  79:.\Generated_Source\PSoC5/I2S.c **** *
  80:.\Generated_Source\PSoC5/I2S.c **** * Summary:
  81:.\Generated_Source\PSoC5/I2S.c **** *  Starts the I2S interface.
  82:.\Generated_Source\PSoC5/I2S.c **** *
  83:.\Generated_Source\PSoC5/I2S.c **** * Parameters:
  84:.\Generated_Source\PSoC5/I2S.c **** *  None.
  85:.\Generated_Source\PSoC5/I2S.c **** *
  86:.\Generated_Source\PSoC5/I2S.c **** * Return:
  87:.\Generated_Source\PSoC5/I2S.c **** *  None.
  88:.\Generated_Source\PSoC5/I2S.c **** *
  89:.\Generated_Source\PSoC5/I2S.c **** * Global Variables:
  90:.\Generated_Source\PSoC5/I2S.c **** *  I2S_initVar - used to check initial configuration, modified on
  91:.\Generated_Source\PSoC5/I2S.c **** *  first function call.
  92:.\Generated_Source\PSoC5/I2S.c **** *
  93:.\Generated_Source\PSoC5/I2S.c **** * Reentrant:
  94:.\Generated_Source\PSoC5/I2S.c **** *  No.
  95:.\Generated_Source\PSoC5/I2S.c **** *
  96:.\Generated_Source\PSoC5/I2S.c **** *******************************************************************************/
  97:.\Generated_Source\PSoC5/I2S.c **** void I2S_Start(void) 
  98:.\Generated_Source\PSoC5/I2S.c **** {
 118              		.loc 1 98 0
 119              		.cfi_startproc
 120              		@ args = 0, pretend = 0, frame = 0
 121              		@ frame_needed = 1, uses_anonymous_args = 0
 122 0000 80B5     		push	{r7, lr}
 123              		.cfi_def_cfa_offset 8
 124              		.cfi_offset 7, -8
 125              		.cfi_offset 14, -4
 126 0002 00AF     		add	r7, sp, #0
 127              		.cfi_def_cfa_register 7
  99:.\Generated_Source\PSoC5/I2S.c ****     /* Writes Tx and/or Rx interrupt source values provided for customizer */
 100:.\Generated_Source\PSoC5/I2S.c ****     if(0u == I2S_initVar)
 128              		.loc 1 100 0
ARM GAS  C:\USERS\LUKAS\APPDATA\LOCAL\TEMP\ccnSSr35.s 			page 5


 129 0004 054B     		ldr	r3, .L7
 130 0006 1B78     		ldrb	r3, [r3]	@ zero_extendqisi2
 131 0008 002B     		cmp	r3, #0
 132 000a 04D1     		bne	.L6
 101:.\Generated_Source\PSoC5/I2S.c ****     {
 102:.\Generated_Source\PSoC5/I2S.c ****         I2S_Init();
 133              		.loc 1 102 0
 134 000c FFF7FEFF 		bl	I2S_Init
 103:.\Generated_Source\PSoC5/I2S.c ****         I2S_initVar = 1u;
 135              		.loc 1 103 0
 136 0010 024B     		ldr	r3, .L7
 137 0012 0122     		movs	r2, #1
 138 0014 1A70     		strb	r2, [r3]
 139              	.L6:
 104:.\Generated_Source\PSoC5/I2S.c ****     }
 105:.\Generated_Source\PSoC5/I2S.c **** 
 106:.\Generated_Source\PSoC5/I2S.c ****     I2S_Enable();
 140              		.loc 1 106 0
 141 0016 FFF7FEFF 		bl	I2S_Enable
 107:.\Generated_Source\PSoC5/I2S.c **** }
 142              		.loc 1 107 0
 143 001a 80BD     		pop	{r7, pc}
 144              	.L8:
 145              		.align	2
 146              	.L7:
 147 001c 00000000 		.word	I2S_initVar
 148              		.cfi_endproc
 149              	.LFE2:
 150              		.size	I2S_Start, .-I2S_Start
 151              		.section	.text.I2S_Stop,"ax",%progbits
 152              		.align	2
 153              		.global	I2S_Stop
 154              		.thumb
 155              		.thumb_func
 156              		.type	I2S_Stop, %function
 157              	I2S_Stop:
 158              	.LFB3:
 108:.\Generated_Source\PSoC5/I2S.c **** 
 109:.\Generated_Source\PSoC5/I2S.c **** 
 110:.\Generated_Source\PSoC5/I2S.c **** /*******************************************************************************
 111:.\Generated_Source\PSoC5/I2S.c **** * Function Name: I2S_Stop
 112:.\Generated_Source\PSoC5/I2S.c **** ********************************************************************************
 113:.\Generated_Source\PSoC5/I2S.c **** *
 114:.\Generated_Source\PSoC5/I2S.c **** * Summary:
 115:.\Generated_Source\PSoC5/I2S.c **** *  Disables the I2S interface.
 116:.\Generated_Source\PSoC5/I2S.c **** *
 117:.\Generated_Source\PSoC5/I2S.c **** * Parameters:
 118:.\Generated_Source\PSoC5/I2S.c **** *  None.
 119:.\Generated_Source\PSoC5/I2S.c **** *
 120:.\Generated_Source\PSoC5/I2S.c **** * Return:
 121:.\Generated_Source\PSoC5/I2S.c **** *  None.
 122:.\Generated_Source\PSoC5/I2S.c **** *
 123:.\Generated_Source\PSoC5/I2S.c **** *******************************************************************************/
 124:.\Generated_Source\PSoC5/I2S.c **** void I2S_Stop(void) 
 125:.\Generated_Source\PSoC5/I2S.c **** {
 159              		.loc 1 125 0
 160              		.cfi_startproc
ARM GAS  C:\USERS\LUKAS\APPDATA\LOCAL\TEMP\ccnSSr35.s 			page 6


 161              		@ args = 0, pretend = 0, frame = 8
 162              		@ frame_needed = 1, uses_anonymous_args = 0
 163 0000 80B5     		push	{r7, lr}
 164              		.cfi_def_cfa_offset 8
 165              		.cfi_offset 7, -8
 166              		.cfi_offset 14, -4
 167 0002 82B0     		sub	sp, sp, #8
 168              		.cfi_def_cfa_offset 16
 169 0004 00AF     		add	r7, sp, #0
 170              		.cfi_def_cfa_register 7
 126:.\Generated_Source\PSoC5/I2S.c ****     uint8 enableInterrupts;
 127:.\Generated_Source\PSoC5/I2S.c **** 
 128:.\Generated_Source\PSoC5/I2S.c ****     I2S_CONTROL_REG &= ((uint8) ~I2S_EN);
 171              		.loc 1 128 0
 172 0006 114A     		ldr	r2, .L10
 173 0008 104B     		ldr	r3, .L10
 174 000a 1B78     		ldrb	r3, [r3]
 175 000c DBB2     		uxtb	r3, r3
 176 000e 23F00403 		bic	r3, r3, #4
 177 0012 DBB2     		uxtb	r3, r3
 178 0014 1370     		strb	r3, [r2]
 129:.\Generated_Source\PSoC5/I2S.c **** 
 130:.\Generated_Source\PSoC5/I2S.c ****     enableInterrupts = CyEnterCriticalSection();
 179              		.loc 1 130 0
 180 0016 FFF7FEFF 		bl	CyEnterCriticalSection
 181 001a 0346     		mov	r3, r0
 182 001c FB71     		strb	r3, [r7, #7]
 131:.\Generated_Source\PSoC5/I2S.c ****     I2S_AUX_CONTROL_REG &= ((uint8) ~I2S_CNTR7_EN);
 183              		.loc 1 131 0
 184 001e 0C4A     		ldr	r2, .L10+4
 185 0020 0B4B     		ldr	r3, .L10+4
 186 0022 1B78     		ldrb	r3, [r3]
 187 0024 DBB2     		uxtb	r3, r3
 188 0026 23F02003 		bic	r3, r3, #32
 189 002a DBB2     		uxtb	r3, r3
 190 002c 1370     		strb	r3, [r2]
 132:.\Generated_Source\PSoC5/I2S.c ****     CyExitCriticalSection(enableInterrupts);
 191              		.loc 1 132 0
 192 002e FB79     		ldrb	r3, [r7, #7]	@ zero_extendqisi2
 193 0030 1846     		mov	r0, r3
 194 0032 FFF7FEFF 		bl	CyExitCriticalSection
 133:.\Generated_Source\PSoC5/I2S.c **** 
 134:.\Generated_Source\PSoC5/I2S.c ****     /* Set counter to zero to force reload when component is enabled */
 135:.\Generated_Source\PSoC5/I2S.c ****     I2S_CNT7_COUNT_REG = I2S_CNTR7_COUNT_0;
 195              		.loc 1 135 0
 196 0036 074B     		ldr	r3, .L10+8
 197 0038 0022     		movs	r2, #0
 198 003a 1A70     		strb	r2, [r3]
 136:.\Generated_Source\PSoC5/I2S.c **** 
 137:.\Generated_Source\PSoC5/I2S.c ****     #if(I2S_TX_DIRECTION_ENABLE)
 138:.\Generated_Source\PSoC5/I2S.c ****         I2S_DisableTx();
 199              		.loc 1 138 0
 200 003c FFF7FEFF 		bl	I2S_DisableTx
 139:.\Generated_Source\PSoC5/I2S.c ****         I2S_ClearTxFIFO();
 201              		.loc 1 139 0
 202 0040 FFF7FEFF 		bl	I2S_ClearTxFIFO
 140:.\Generated_Source\PSoC5/I2S.c ****     #endif /* (I2S_TX_DIRECTION_ENABLE) */
ARM GAS  C:\USERS\LUKAS\APPDATA\LOCAL\TEMP\ccnSSr35.s 			page 7


 141:.\Generated_Source\PSoC5/I2S.c ****     
 142:.\Generated_Source\PSoC5/I2S.c ****     #if(I2S_RX_DIRECTION_ENABLE)
 143:.\Generated_Source\PSoC5/I2S.c ****         I2S_DisableRx();
 144:.\Generated_Source\PSoC5/I2S.c ****         I2S_ClearRxFIFO();
 145:.\Generated_Source\PSoC5/I2S.c ****     #endif /* (I2S_RX_DIRECTION_ENABLE) */
 146:.\Generated_Source\PSoC5/I2S.c **** }
 203              		.loc 1 146 0
 204 0044 0837     		adds	r7, r7, #8
 205              		.cfi_def_cfa_offset 8
 206 0046 BD46     		mov	sp, r7
 207              		.cfi_def_cfa_register 13
 208              		@ sp needed
 209 0048 80BD     		pop	{r7, pc}
 210              	.L11:
 211 004a 00BF     		.align	2
 212              	.L10:
 213 004c 75640040 		.word	1073767541
 214 0050 96640040 		.word	1073767574
 215 0054 76640040 		.word	1073767542
 216              		.cfi_endproc
 217              	.LFE3:
 218              		.size	I2S_Stop, .-I2S_Stop
 219              		.section	.text.I2S_EnableTx,"ax",%progbits
 220              		.align	2
 221              		.global	I2S_EnableTx
 222              		.thumb
 223              		.thumb_func
 224              		.type	I2S_EnableTx, %function
 225              	I2S_EnableTx:
 226              	.LFB4:
 147:.\Generated_Source\PSoC5/I2S.c **** 
 148:.\Generated_Source\PSoC5/I2S.c **** 
 149:.\Generated_Source\PSoC5/I2S.c **** #if(I2S_TX_DIRECTION_ENABLE)
 150:.\Generated_Source\PSoC5/I2S.c ****     /*******************************************************************************
 151:.\Generated_Source\PSoC5/I2S.c ****     * Function Name: I2S_EnableTx
 152:.\Generated_Source\PSoC5/I2S.c ****     ********************************************************************************
 153:.\Generated_Source\PSoC5/I2S.c ****     *
 154:.\Generated_Source\PSoC5/I2S.c ****     * Summary:
 155:.\Generated_Source\PSoC5/I2S.c ****     *  Enables the Tx direction of the I2S interface.  At the next word
 156:.\Generated_Source\PSoC5/I2S.c ****     *  select falling edge transmission will begin.
 157:.\Generated_Source\PSoC5/I2S.c ****     *
 158:.\Generated_Source\PSoC5/I2S.c ****     * Parameters:
 159:.\Generated_Source\PSoC5/I2S.c ****     *  None.
 160:.\Generated_Source\PSoC5/I2S.c ****     *
 161:.\Generated_Source\PSoC5/I2S.c ****     * Return:
 162:.\Generated_Source\PSoC5/I2S.c ****     *  None.
 163:.\Generated_Source\PSoC5/I2S.c ****     *
 164:.\Generated_Source\PSoC5/I2S.c ****     *******************************************************************************/
 165:.\Generated_Source\PSoC5/I2S.c ****     void I2S_EnableTx(void) 
 166:.\Generated_Source\PSoC5/I2S.c ****     {
 227              		.loc 1 166 0
 228              		.cfi_startproc
 229              		@ args = 0, pretend = 0, frame = 8
 230              		@ frame_needed = 1, uses_anonymous_args = 0
 231 0000 80B5     		push	{r7, lr}
 232              		.cfi_def_cfa_offset 8
 233              		.cfi_offset 7, -8
ARM GAS  C:\USERS\LUKAS\APPDATA\LOCAL\TEMP\ccnSSr35.s 			page 8


 234              		.cfi_offset 14, -4
 235 0002 82B0     		sub	sp, sp, #8
 236              		.cfi_def_cfa_offset 16
 237 0004 00AF     		add	r7, sp, #0
 238              		.cfi_def_cfa_register 7
 167:.\Generated_Source\PSoC5/I2S.c ****         uint8 enableInterrupts;
 168:.\Generated_Source\PSoC5/I2S.c **** 
 169:.\Generated_Source\PSoC5/I2S.c ****         I2S_CONTROL_REG |= I2S_TX_EN;
 239              		.loc 1 169 0
 240 0006 0D4A     		ldr	r2, .L13
 241 0008 0C4B     		ldr	r3, .L13
 242 000a 1B78     		ldrb	r3, [r3]
 243 000c DBB2     		uxtb	r3, r3
 244 000e 43F00103 		orr	r3, r3, #1
 245 0012 DBB2     		uxtb	r3, r3
 246 0014 1370     		strb	r3, [r2]
 170:.\Generated_Source\PSoC5/I2S.c **** 
 171:.\Generated_Source\PSoC5/I2S.c ****         enableInterrupts = CyEnterCriticalSection();
 247              		.loc 1 171 0
 248 0016 FFF7FEFF 		bl	CyEnterCriticalSection
 249 001a 0346     		mov	r3, r0
 250 001c FB71     		strb	r3, [r7, #7]
 172:.\Generated_Source\PSoC5/I2S.c ****         I2S_TX_STATUS_AUX_CONTROL_REG |= I2S_TX_INT_EN;
 251              		.loc 1 172 0
 252 001e 084A     		ldr	r2, .L13+4
 253 0020 074B     		ldr	r3, .L13+4
 254 0022 1B78     		ldrb	r3, [r3]
 255 0024 DBB2     		uxtb	r3, r3
 256 0026 43F01003 		orr	r3, r3, #16
 257 002a DBB2     		uxtb	r3, r3
 258 002c 1370     		strb	r3, [r2]
 173:.\Generated_Source\PSoC5/I2S.c ****         CyExitCriticalSection(enableInterrupts);
 259              		.loc 1 173 0
 260 002e FB79     		ldrb	r3, [r7, #7]	@ zero_extendqisi2
 261 0030 1846     		mov	r0, r3
 262 0032 FFF7FEFF 		bl	CyExitCriticalSection
 174:.\Generated_Source\PSoC5/I2S.c ****     }
 263              		.loc 1 174 0
 264 0036 0837     		adds	r7, r7, #8
 265              		.cfi_def_cfa_offset 8
 266 0038 BD46     		mov	sp, r7
 267              		.cfi_def_cfa_register 13
 268              		@ sp needed
 269 003a 80BD     		pop	{r7, pc}
 270              	.L14:
 271              		.align	2
 272              	.L13:
 273 003c 75640040 		.word	1073767541
 274 0040 92640040 		.word	1073767570
 275              		.cfi_endproc
 276              	.LFE4:
 277              		.size	I2S_EnableTx, .-I2S_EnableTx
 278              		.section	.text.I2S_DisableTx,"ax",%progbits
 279              		.align	2
 280              		.global	I2S_DisableTx
 281              		.thumb
 282              		.thumb_func
ARM GAS  C:\USERS\LUKAS\APPDATA\LOCAL\TEMP\ccnSSr35.s 			page 9


 283              		.type	I2S_DisableTx, %function
 284              	I2S_DisableTx:
 285              	.LFB5:
 175:.\Generated_Source\PSoC5/I2S.c **** 
 176:.\Generated_Source\PSoC5/I2S.c **** 
 177:.\Generated_Source\PSoC5/I2S.c ****     /*******************************************************************************
 178:.\Generated_Source\PSoC5/I2S.c ****     * Function Name: I2S_DisableTx
 179:.\Generated_Source\PSoC5/I2S.c ****     ********************************************************************************
 180:.\Generated_Source\PSoC5/I2S.c ****     *
 181:.\Generated_Source\PSoC5/I2S.c ****     * Summary:
 182:.\Generated_Source\PSoC5/I2S.c ****     *  Disables the Tx direction of the I2S interface.  At the next word
 183:.\Generated_Source\PSoC5/I2S.c ****     *  select falling edge transmission of data will stop and a constant 0 value
 184:.\Generated_Source\PSoC5/I2S.c ****     *  will be transmitted.
 185:.\Generated_Source\PSoC5/I2S.c ****     *
 186:.\Generated_Source\PSoC5/I2S.c ****     * Parameters:
 187:.\Generated_Source\PSoC5/I2S.c ****     *  None.
 188:.\Generated_Source\PSoC5/I2S.c ****     *
 189:.\Generated_Source\PSoC5/I2S.c ****     * Return:
 190:.\Generated_Source\PSoC5/I2S.c ****     *  None.
 191:.\Generated_Source\PSoC5/I2S.c ****     *
 192:.\Generated_Source\PSoC5/I2S.c ****     *******************************************************************************/
 193:.\Generated_Source\PSoC5/I2S.c ****     void I2S_DisableTx(void) 
 194:.\Generated_Source\PSoC5/I2S.c ****     {
 286              		.loc 1 194 0
 287              		.cfi_startproc
 288              		@ args = 0, pretend = 0, frame = 8
 289              		@ frame_needed = 1, uses_anonymous_args = 0
 290 0000 80B5     		push	{r7, lr}
 291              		.cfi_def_cfa_offset 8
 292              		.cfi_offset 7, -8
 293              		.cfi_offset 14, -4
 294 0002 82B0     		sub	sp, sp, #8
 295              		.cfi_def_cfa_offset 16
 296 0004 00AF     		add	r7, sp, #0
 297              		.cfi_def_cfa_register 7
 195:.\Generated_Source\PSoC5/I2S.c ****         uint8 enableInterrupts;
 196:.\Generated_Source\PSoC5/I2S.c **** 
 197:.\Generated_Source\PSoC5/I2S.c ****         I2S_CONTROL_REG &= ((uint8) ~I2S_TX_EN);
 298              		.loc 1 197 0
 299 0006 0D4A     		ldr	r2, .L16
 300 0008 0C4B     		ldr	r3, .L16
 301 000a 1B78     		ldrb	r3, [r3]
 302 000c DBB2     		uxtb	r3, r3
 303 000e 23F00103 		bic	r3, r3, #1
 304 0012 DBB2     		uxtb	r3, r3
 305 0014 1370     		strb	r3, [r2]
 198:.\Generated_Source\PSoC5/I2S.c **** 
 199:.\Generated_Source\PSoC5/I2S.c ****         enableInterrupts = CyEnterCriticalSection();
 306              		.loc 1 199 0
 307 0016 FFF7FEFF 		bl	CyEnterCriticalSection
 308 001a 0346     		mov	r3, r0
 309 001c FB71     		strb	r3, [r7, #7]
 200:.\Generated_Source\PSoC5/I2S.c ****         I2S_TX_STATUS_AUX_CONTROL_REG &= ((uint8) ~I2S_TX_INT_EN);
 310              		.loc 1 200 0
 311 001e 084A     		ldr	r2, .L16+4
 312 0020 074B     		ldr	r3, .L16+4
 313 0022 1B78     		ldrb	r3, [r3]
ARM GAS  C:\USERS\LUKAS\APPDATA\LOCAL\TEMP\ccnSSr35.s 			page 10


 314 0024 DBB2     		uxtb	r3, r3
 315 0026 23F01003 		bic	r3, r3, #16
 316 002a DBB2     		uxtb	r3, r3
 317 002c 1370     		strb	r3, [r2]
 201:.\Generated_Source\PSoC5/I2S.c ****         CyExitCriticalSection(enableInterrupts);
 318              		.loc 1 201 0
 319 002e FB79     		ldrb	r3, [r7, #7]	@ zero_extendqisi2
 320 0030 1846     		mov	r0, r3
 321 0032 FFF7FEFF 		bl	CyExitCriticalSection
 202:.\Generated_Source\PSoC5/I2S.c ****     }
 322              		.loc 1 202 0
 323 0036 0837     		adds	r7, r7, #8
 324              		.cfi_def_cfa_offset 8
 325 0038 BD46     		mov	sp, r7
 326              		.cfi_def_cfa_register 13
 327              		@ sp needed
 328 003a 80BD     		pop	{r7, pc}
 329              	.L17:
 330              		.align	2
 331              	.L16:
 332 003c 75640040 		.word	1073767541
 333 0040 92640040 		.word	1073767570
 334              		.cfi_endproc
 335              	.LFE5:
 336              		.size	I2S_DisableTx, .-I2S_DisableTx
 337              		.section	.text.I2S_SetTxInterruptMode,"ax",%progbits
 338              		.align	2
 339              		.global	I2S_SetTxInterruptMode
 340              		.thumb
 341              		.thumb_func
 342              		.type	I2S_SetTxInterruptMode, %function
 343              	I2S_SetTxInterruptMode:
 344              	.LFB6:
 203:.\Generated_Source\PSoC5/I2S.c **** 
 204:.\Generated_Source\PSoC5/I2S.c **** 
 205:.\Generated_Source\PSoC5/I2S.c ****     /*******************************************************************************
 206:.\Generated_Source\PSoC5/I2S.c ****     * Function Name: I2S_SetTxInterruptMode
 207:.\Generated_Source\PSoC5/I2S.c ****     ********************************************************************************
 208:.\Generated_Source\PSoC5/I2S.c ****     *
 209:.\Generated_Source\PSoC5/I2S.c ****     * Summary:
 210:.\Generated_Source\PSoC5/I2S.c ****     *  Sets the interrupt source for the I2S Tx direction interrupt.
 211:.\Generated_Source\PSoC5/I2S.c ****     *
 212:.\Generated_Source\PSoC5/I2S.c ****     * Parameters:
 213:.\Generated_Source\PSoC5/I2S.c ****     *  Byte containing the constant for the selected interrupt sources.
 214:.\Generated_Source\PSoC5/I2S.c ****     *   I2S_TX_FIFO_UNDEFLOW
 215:.\Generated_Source\PSoC5/I2S.c ****     *   I2S_TX_FIFO_0_NOT_FULL
 216:.\Generated_Source\PSoC5/I2S.c ****     *   I2S_TX_FIFO_1_NOT_FULL
 217:.\Generated_Source\PSoC5/I2S.c ****     *
 218:.\Generated_Source\PSoC5/I2S.c ****     * Return:
 219:.\Generated_Source\PSoC5/I2S.c ****     *  None
 220:.\Generated_Source\PSoC5/I2S.c ****     *
 221:.\Generated_Source\PSoC5/I2S.c ****     *******************************************************************************/
 222:.\Generated_Source\PSoC5/I2S.c ****     void I2S_SetTxInterruptMode(uint8 interruptSource)
 223:.\Generated_Source\PSoC5/I2S.c ****                                                                 
 224:.\Generated_Source\PSoC5/I2S.c ****     {
 345              		.loc 1 224 0
 346              		.cfi_startproc
ARM GAS  C:\USERS\LUKAS\APPDATA\LOCAL\TEMP\ccnSSr35.s 			page 11


 347              		@ args = 0, pretend = 0, frame = 8
 348              		@ frame_needed = 1, uses_anonymous_args = 0
 349              		@ link register save eliminated.
 350 0000 80B4     		push	{r7}
 351              		.cfi_def_cfa_offset 4
 352              		.cfi_offset 7, -4
 353 0002 83B0     		sub	sp, sp, #12
 354              		.cfi_def_cfa_offset 16
 355 0004 00AF     		add	r7, sp, #0
 356              		.cfi_def_cfa_register 7
 357 0006 0346     		mov	r3, r0
 358 0008 FB71     		strb	r3, [r7, #7]
 225:.\Generated_Source\PSoC5/I2S.c ****         I2S_TX_STATUS_MASK_REG = (interruptSource & I2S_TX_ST_MASK);
 359              		.loc 1 225 0
 360 000a 054A     		ldr	r2, .L19
 361 000c FB79     		ldrb	r3, [r7, #7]
 362 000e 03F00703 		and	r3, r3, #7
 363 0012 DBB2     		uxtb	r3, r3
 364 0014 1370     		strb	r3, [r2]
 226:.\Generated_Source\PSoC5/I2S.c ****     }
 365              		.loc 1 226 0
 366 0016 0C37     		adds	r7, r7, #12
 367              		.cfi_def_cfa_offset 4
 368 0018 BD46     		mov	sp, r7
 369              		.cfi_def_cfa_register 13
 370              		@ sp needed
 371 001a 5DF8047B 		ldr	r7, [sp], #4
 372              		.cfi_restore 7
 373              		.cfi_def_cfa_offset 0
 374 001e 7047     		bx	lr
 375              	.L20:
 376              		.align	2
 377              	.L19:
 378 0020 82640040 		.word	1073767554
 379              		.cfi_endproc
 380              	.LFE6:
 381              		.size	I2S_SetTxInterruptMode, .-I2S_SetTxInterruptMode
 382              		.section	.text.I2S_ReadTxStatus,"ax",%progbits
 383              		.align	2
 384              		.global	I2S_ReadTxStatus
 385              		.thumb
 386              		.thumb_func
 387              		.type	I2S_ReadTxStatus, %function
 388              	I2S_ReadTxStatus:
 389              	.LFB7:
 227:.\Generated_Source\PSoC5/I2S.c **** 
 228:.\Generated_Source\PSoC5/I2S.c **** 
 229:.\Generated_Source\PSoC5/I2S.c ****     /*******************************************************************************
 230:.\Generated_Source\PSoC5/I2S.c ****     * Function Name: I2S_ReadTxStatus
 231:.\Generated_Source\PSoC5/I2S.c ****     ********************************************************************************
 232:.\Generated_Source\PSoC5/I2S.c ****     *
 233:.\Generated_Source\PSoC5/I2S.c ****     * Summary:
 234:.\Generated_Source\PSoC5/I2S.c ****     *  Returns state in the I2S Tx status register.
 235:.\Generated_Source\PSoC5/I2S.c ****     *
 236:.\Generated_Source\PSoC5/I2S.c ****     * Parameters:
 237:.\Generated_Source\PSoC5/I2S.c ****     *  None.
 238:.\Generated_Source\PSoC5/I2S.c ****     *
ARM GAS  C:\USERS\LUKAS\APPDATA\LOCAL\TEMP\ccnSSr35.s 			page 12


 239:.\Generated_Source\PSoC5/I2S.c ****     * Return:
 240:.\Generated_Source\PSoC5/I2S.c ****     *  State of the I2S Tx status register
 241:.\Generated_Source\PSoC5/I2S.c ****     *   I2S_RET_TX_FIFO_UNDERFLOW (Clear on Read)
 242:.\Generated_Source\PSoC5/I2S.c ****     *   I2S_RET_TX_FIFO_0_NOT_FULL
 243:.\Generated_Source\PSoC5/I2S.c ****     *   I2S_RET_TX_FIFO_1_NOT_FULL
 244:.\Generated_Source\PSoC5/I2S.c ****     *
 245:.\Generated_Source\PSoC5/I2S.c ****     * Side Effects:
 246:.\Generated_Source\PSoC5/I2S.c ****     *  Clears the bits of I2S Tx status register that are Clear on Read.
 247:.\Generated_Source\PSoC5/I2S.c ****     *
 248:.\Generated_Source\PSoC5/I2S.c ****     *******************************************************************************/
 249:.\Generated_Source\PSoC5/I2S.c ****     uint8 I2S_ReadTxStatus(void) 
 250:.\Generated_Source\PSoC5/I2S.c ****     {
 390              		.loc 1 250 0
 391              		.cfi_startproc
 392              		@ args = 0, pretend = 0, frame = 0
 393              		@ frame_needed = 1, uses_anonymous_args = 0
 394              		@ link register save eliminated.
 395 0000 80B4     		push	{r7}
 396              		.cfi_def_cfa_offset 4
 397              		.cfi_offset 7, -4
 398 0002 00AF     		add	r7, sp, #0
 399              		.cfi_def_cfa_register 7
 251:.\Generated_Source\PSoC5/I2S.c ****         return(I2S_TX_STATUS_REG & I2S_TX_ST_MASK);
 400              		.loc 1 251 0
 401 0004 054B     		ldr	r3, .L23
 402 0006 1B78     		ldrb	r3, [r3]
 403 0008 DBB2     		uxtb	r3, r3
 404 000a 03F00703 		and	r3, r3, #7
 405 000e DBB2     		uxtb	r3, r3
 252:.\Generated_Source\PSoC5/I2S.c ****     }
 406              		.loc 1 252 0
 407 0010 1846     		mov	r0, r3
 408 0012 BD46     		mov	sp, r7
 409              		.cfi_def_cfa_register 13
 410              		@ sp needed
 411 0014 5DF8047B 		ldr	r7, [sp], #4
 412              		.cfi_restore 7
 413              		.cfi_def_cfa_offset 0
 414 0018 7047     		bx	lr
 415              	.L24:
 416 001a 00BF     		.align	2
 417              	.L23:
 418 001c 62640040 		.word	1073767522
 419              		.cfi_endproc
 420              	.LFE7:
 421              		.size	I2S_ReadTxStatus, .-I2S_ReadTxStatus
 422              		.section	.text.I2S_WriteByte,"ax",%progbits
 423              		.align	2
 424              		.global	I2S_WriteByte
 425              		.thumb
 426              		.thumb_func
 427              		.type	I2S_WriteByte, %function
 428              	I2S_WriteByte:
 429              	.LFB8:
 253:.\Generated_Source\PSoC5/I2S.c **** 
 254:.\Generated_Source\PSoC5/I2S.c **** 
 255:.\Generated_Source\PSoC5/I2S.c ****     /*******************************************************************************
ARM GAS  C:\USERS\LUKAS\APPDATA\LOCAL\TEMP\ccnSSr35.s 			page 13


 256:.\Generated_Source\PSoC5/I2S.c ****     * Function Name: I2S_WriteByte
 257:.\Generated_Source\PSoC5/I2S.c ****     ********************************************************************************
 258:.\Generated_Source\PSoC5/I2S.c ****     *
 259:.\Generated_Source\PSoC5/I2S.c ****     * Summary:
 260:.\Generated_Source\PSoC5/I2S.c ****     *  Writes a single byte into the Tx FIFO.
 261:.\Generated_Source\PSoC5/I2S.c ****     *
 262:.\Generated_Source\PSoC5/I2S.c ****     * Parameters:
 263:.\Generated_Source\PSoC5/I2S.c ****     *  wrData: Byte containing the data to transmit.
 264:.\Generated_Source\PSoC5/I2S.c ****     *  wordSelect: Indicates to write to the Left (0) or Right (1) channel.  In the
 265:.\Generated_Source\PSoC5/I2S.c ****     *              interleaved mode this parameter is ignored
 266:.\Generated_Source\PSoC5/I2S.c ****     *
 267:.\Generated_Source\PSoC5/I2S.c ****     * Return:
 268:.\Generated_Source\PSoC5/I2S.c ****     *  None.
 269:.\Generated_Source\PSoC5/I2S.c ****     *
 270:.\Generated_Source\PSoC5/I2S.c ****     * Reentrant:
 271:.\Generated_Source\PSoC5/I2S.c ****     *  No.
 272:.\Generated_Source\PSoC5/I2S.c ****     *
 273:.\Generated_Source\PSoC5/I2S.c ****     *******************************************************************************/
 274:.\Generated_Source\PSoC5/I2S.c ****     void I2S_WriteByte(uint8 wrData, uint8 wordSelect) 
 275:.\Generated_Source\PSoC5/I2S.c ****     {
 430              		.loc 1 275 0
 431              		.cfi_startproc
 432              		@ args = 0, pretend = 0, frame = 8
 433              		@ frame_needed = 1, uses_anonymous_args = 0
 434              		@ link register save eliminated.
 435 0000 80B4     		push	{r7}
 436              		.cfi_def_cfa_offset 4
 437              		.cfi_offset 7, -4
 438 0002 83B0     		sub	sp, sp, #12
 439              		.cfi_def_cfa_offset 16
 440 0004 00AF     		add	r7, sp, #0
 441              		.cfi_def_cfa_register 7
 442 0006 0346     		mov	r3, r0
 443 0008 0A46     		mov	r2, r1
 444 000a FB71     		strb	r3, [r7, #7]
 445 000c 1346     		mov	r3, r2
 446 000e BB71     		strb	r3, [r7, #6]
 276:.\Generated_Source\PSoC5/I2S.c ****         #if(I2S_TX_DATA_INTERLEAVED)
 277:.\Generated_Source\PSoC5/I2S.c ****             if(0u != wordSelect)
 278:.\Generated_Source\PSoC5/I2S.c ****             {
 279:.\Generated_Source\PSoC5/I2S.c ****                 /* Suppress compiler warning */
 280:.\Generated_Source\PSoC5/I2S.c ****             }
 281:.\Generated_Source\PSoC5/I2S.c ****             
 282:.\Generated_Source\PSoC5/I2S.c ****             I2S_TX_FIFO_0_REG = wrData;
 447              		.loc 1 282 0
 448 0010 034A     		ldr	r2, .L26
 449 0012 FB79     		ldrb	r3, [r7, #7]
 450 0014 1370     		strb	r3, [r2]
 283:.\Generated_Source\PSoC5/I2S.c ****             
 284:.\Generated_Source\PSoC5/I2S.c ****         #else
 285:.\Generated_Source\PSoC5/I2S.c ****             if(I2S_TX_LEFT_CHANNEL == wordSelect)
 286:.\Generated_Source\PSoC5/I2S.c ****             {
 287:.\Generated_Source\PSoC5/I2S.c ****                 I2S_TX_FIFO_0_REG = wrData;
 288:.\Generated_Source\PSoC5/I2S.c ****             }
 289:.\Generated_Source\PSoC5/I2S.c ****             else
 290:.\Generated_Source\PSoC5/I2S.c ****             {
 291:.\Generated_Source\PSoC5/I2S.c ****                 I2S_TX_FIFO_1_REG = wrData;
ARM GAS  C:\USERS\LUKAS\APPDATA\LOCAL\TEMP\ccnSSr35.s 			page 14


 292:.\Generated_Source\PSoC5/I2S.c ****             }
 293:.\Generated_Source\PSoC5/I2S.c ****             
 294:.\Generated_Source\PSoC5/I2S.c ****         #endif /* (I2S_TX_DATA_INTERLEAVED) */
 295:.\Generated_Source\PSoC5/I2S.c ****     }
 451              		.loc 1 295 0
 452 0016 0C37     		adds	r7, r7, #12
 453              		.cfi_def_cfa_offset 4
 454 0018 BD46     		mov	sp, r7
 455              		.cfi_def_cfa_register 13
 456              		@ sp needed
 457 001a 5DF8047B 		ldr	r7, [sp], #4
 458              		.cfi_restore 7
 459              		.cfi_def_cfa_offset 0
 460 001e 7047     		bx	lr
 461              	.L27:
 462              		.align	2
 463              	.L26:
 464 0020 41640040 		.word	1073767489
 465              		.cfi_endproc
 466              	.LFE8:
 467              		.size	I2S_WriteByte, .-I2S_WriteByte
 468              		.section	.text.I2S_ClearTxFIFO,"ax",%progbits
 469              		.align	2
 470              		.global	I2S_ClearTxFIFO
 471              		.thumb
 472              		.thumb_func
 473              		.type	I2S_ClearTxFIFO, %function
 474              	I2S_ClearTxFIFO:
 475              	.LFB9:
 296:.\Generated_Source\PSoC5/I2S.c **** 
 297:.\Generated_Source\PSoC5/I2S.c **** 
 298:.\Generated_Source\PSoC5/I2S.c ****     /*******************************************************************************
 299:.\Generated_Source\PSoC5/I2S.c ****     * Function Name: I2S_ClearTxFIFO
 300:.\Generated_Source\PSoC5/I2S.c ****     ********************************************************************************
 301:.\Generated_Source\PSoC5/I2S.c ****     *
 302:.\Generated_Source\PSoC5/I2S.c ****     * Summary:
 303:.\Generated_Source\PSoC5/I2S.c ****     *  Clears out the Tx FIFO.  Any data present in the FIFO will not be
 304:.\Generated_Source\PSoC5/I2S.c ****     *  sent. This call should be made only when the Tx direction is disabled.
 305:.\Generated_Source\PSoC5/I2S.c ****     *
 306:.\Generated_Source\PSoC5/I2S.c ****     * Parameters:
 307:.\Generated_Source\PSoC5/I2S.c ****     *  None.
 308:.\Generated_Source\PSoC5/I2S.c ****     *
 309:.\Generated_Source\PSoC5/I2S.c ****     * Return:
 310:.\Generated_Source\PSoC5/I2S.c ****     *  None.
 311:.\Generated_Source\PSoC5/I2S.c ****     *
 312:.\Generated_Source\PSoC5/I2S.c ****     *******************************************************************************/
 313:.\Generated_Source\PSoC5/I2S.c ****     void I2S_ClearTxFIFO(void) 
 314:.\Generated_Source\PSoC5/I2S.c ****     {
 476              		.loc 1 314 0
 477              		.cfi_startproc
 478              		@ args = 0, pretend = 0, frame = 8
 479              		@ frame_needed = 1, uses_anonymous_args = 0
 480 0000 80B5     		push	{r7, lr}
 481              		.cfi_def_cfa_offset 8
 482              		.cfi_offset 7, -8
 483              		.cfi_offset 14, -4
 484 0002 82B0     		sub	sp, sp, #8
ARM GAS  C:\USERS\LUKAS\APPDATA\LOCAL\TEMP\ccnSSr35.s 			page 15


 485              		.cfi_def_cfa_offset 16
 486 0004 00AF     		add	r7, sp, #0
 487              		.cfi_def_cfa_register 7
 315:.\Generated_Source\PSoC5/I2S.c ****         uint8 enableInterrupts;
 316:.\Generated_Source\PSoC5/I2S.c **** 
 317:.\Generated_Source\PSoC5/I2S.c ****         enableInterrupts = CyEnterCriticalSection();
 488              		.loc 1 317 0
 489 0006 FFF7FEFF 		bl	CyEnterCriticalSection
 490 000a 0346     		mov	r3, r0
 491 000c FB71     		strb	r3, [r7, #7]
 318:.\Generated_Source\PSoC5/I2S.c ****         I2S_TX_AUX_CONTROL_REG |= ((uint8)  I2S_TX_FIFO_0_CLR);
 492              		.loc 1 318 0
 493 000e 0B4A     		ldr	r2, .L29
 494 0010 0A4B     		ldr	r3, .L29
 495 0012 1B78     		ldrb	r3, [r3]
 496 0014 DBB2     		uxtb	r3, r3
 497 0016 43F00103 		orr	r3, r3, #1
 498 001a DBB2     		uxtb	r3, r3
 499 001c 1370     		strb	r3, [r2]
 319:.\Generated_Source\PSoC5/I2S.c ****         I2S_TX_AUX_CONTROL_REG &= ((uint8) ~I2S_TX_FIFO_0_CLR);
 500              		.loc 1 319 0
 501 001e 074A     		ldr	r2, .L29
 502 0020 064B     		ldr	r3, .L29
 503 0022 1B78     		ldrb	r3, [r3]
 504 0024 DBB2     		uxtb	r3, r3
 505 0026 23F00103 		bic	r3, r3, #1
 506 002a DBB2     		uxtb	r3, r3
 507 002c 1370     		strb	r3, [r2]
 320:.\Generated_Source\PSoC5/I2S.c **** 
 321:.\Generated_Source\PSoC5/I2S.c ****         #if(I2S_TX_DATA_SEPARATED)
 322:.\Generated_Source\PSoC5/I2S.c ****             I2S_TX_AUX_CONTROL_REG |= ((uint8)  I2S_TX_FIFO_1_CLR);
 323:.\Generated_Source\PSoC5/I2S.c ****             I2S_TX_AUX_CONTROL_REG &= ((uint8) ~I2S_TX_FIFO_1_CLR);
 324:.\Generated_Source\PSoC5/I2S.c ****         #endif /* (I2S_TX_DATA_SEPARATED) */
 325:.\Generated_Source\PSoC5/I2S.c ****         CyExitCriticalSection(enableInterrupts);
 508              		.loc 1 325 0
 509 002e FB79     		ldrb	r3, [r7, #7]	@ zero_extendqisi2
 510 0030 1846     		mov	r0, r3
 511 0032 FFF7FEFF 		bl	CyExitCriticalSection
 326:.\Generated_Source\PSoC5/I2S.c ****     }
 512              		.loc 1 326 0
 513 0036 0837     		adds	r7, r7, #8
 514              		.cfi_def_cfa_offset 8
 515 0038 BD46     		mov	sp, r7
 516              		.cfi_def_cfa_register 13
 517              		@ sp needed
 518 003a 80BD     		pop	{r7, pc}
 519              	.L30:
 520              		.align	2
 521              	.L29:
 522 003c 91640040 		.word	1073767569
 523              		.cfi_endproc
 524              	.LFE9:
 525              		.size	I2S_ClearTxFIFO, .-I2S_ClearTxFIFO
 526              		.text
 527              	.Letext0:
 528              		.file 2 ".\\Generated_Source\\PSoC5\\cytypes.h"