ARM GAS  C:\USERS\LUKAS\APPDATA\LOCAL\TEMP\ccORRIGj.s 			page 1


   1              		.syntax unified
   2              		.cpu cortex-m3
   3              		.fpu softvfp
   4              		.eabi_attribute 20, 1
   5              		.eabi_attribute 21, 1
   6              		.eabi_attribute 23, 3
   7              		.eabi_attribute 24, 1
   8              		.eabi_attribute 25, 1
   9              		.eabi_attribute 26, 1
  10              		.eabi_attribute 30, 6
  11              		.eabi_attribute 34, 1
  12              		.eabi_attribute 18, 4
  13              		.thumb
  14              		.file	"Interrupts.c"
  15              		.text
  16              	.Ltext0:
  17              		.cfi_sections	.debug_frame
  18              		.section	.text.InDMADone_Interrupt,"ax",%progbits
  19              		.align	2
  20              		.global	InDMADone_Interrupt
  21              		.thumb
  22              		.thumb_func
  23              		.type	InDMADone_Interrupt, %function
  24              	InDMADone_Interrupt:
  25              	.LFB56:
  26              		.file 1 ".\\Interrupts.c"
   1:.\Interrupts.c **** /*******************************************************************************
   2:.\Interrupts.c **** * File Name: Interrupts.c
   3:.\Interrupts.c **** *
   4:.\Interrupts.c **** * Version 1.0
   5:.\Interrupts.c **** *
   6:.\Interrupts.c **** *  Description: This file contains interrupt service routines for all the interrupts
   7:.\Interrupts.c **** *               in the system
   8:.\Interrupts.c **** *
   9:.\Interrupts.c **** ********************************************************************************
  10:.\Interrupts.c **** * Copyright (2008-2013), Cypress Semiconductor Corporation.
  11:.\Interrupts.c **** ********************************************************************************
  12:.\Interrupts.c **** * This software is owned by Cypress Semiconductor Corporation (Cypress) and is
  13:.\Interrupts.c **** * protected by and subject to worldwide patent protection (United States and
  14:.\Interrupts.c **** * foreign), United States copyright laws and international treaty provisions.
  15:.\Interrupts.c **** * Cypress hereby grants to licensee a personal, non-exclusive, non-transferable
  16:.\Interrupts.c **** * license to copy, use, modify, create derivative works of, and compile the
  17:.\Interrupts.c **** * Cypress Source Code and derivative works for the sole purpose of creating
  18:.\Interrupts.c **** * custom software in support of licensee product to be used only in conjunction
  19:.\Interrupts.c **** * with a Cypress integrated circuit as specified in the applicable agreement.
  20:.\Interrupts.c **** * Any reproduction, modification, translation, compilation, or representation of
  21:.\Interrupts.c **** * this software except as specified above is prohibited without the express
  22:.\Interrupts.c **** * written permission of Cypress.
  23:.\Interrupts.c **** *
  24:.\Interrupts.c **** * Disclaimer: CYPRESS MAKES NO WARRANTY OF ANY KIND, EXPRESS OR IMPLIED, WITH
  25:.\Interrupts.c **** * REGARD TO THIS MATERIAL, INCLUDING, BUT NOT LIMITED TO, THE IMPLIED
  26:.\Interrupts.c **** * WARRANTIES OF MERCHANTABILITY AND FITNESS FOR A PARTICULAR PURPOSE.
  27:.\Interrupts.c **** * Cypress reserves the right to make changes without further notice to the
  28:.\Interrupts.c **** * materials described herein. Cypress does not assume any liability arising out
  29:.\Interrupts.c **** * of the application or use of any product or circuit described herein. Cypress
  30:.\Interrupts.c **** * does not authorize its products for use as critical components in life-support
  31:.\Interrupts.c **** * systems where a malfunction or failure may reasonably be expected to result in
ARM GAS  C:\USERS\LUKAS\APPDATA\LOCAL\TEMP\ccORRIGj.s 			page 2


  32:.\Interrupts.c **** * significant injury to the user. The inclusion of Cypress' product in a life-
  33:.\Interrupts.c **** * support systems application implies that the manufacturer assumes all risk of
  34:.\Interrupts.c **** * such use and in doing so indemnifies Cypress against all charges. Use may be
  35:.\Interrupts.c **** * limited by and subject to the applicable Cypress software license agreement.
  36:.\Interrupts.c **** *******************************************************************************/
  37:.\Interrupts.c **** #include <Application.h>
  38:.\Interrupts.c **** #include <AudioControl.h>
  39:.\Interrupts.c **** #include <Configuration.h>
  40:.\Interrupts.c **** #include <device.h>
  41:.\Interrupts.c **** #include <Interrupts.h>
  42:.\Interrupts.c **** #include <USBInterface.h>
  43:.\Interrupts.c **** extern uint16 inCnt;
  44:.\Interrupts.c **** extern uint16 inLevel;
  45:.\Interrupts.c **** extern uint16 inUsbCount;
  46:.\Interrupts.c **** extern uint16 inUsbShadow;
  47:.\Interrupts.c **** extern CYBIT applicationTimerTick;
  48:.\Interrupts.c **** extern uint16 outLevel;
  49:.\Interrupts.c **** extern uint16 outUsbCount;
  50:.\Interrupts.c **** extern uint16 outUsbShadow;
  51:.\Interrupts.c **** 
  52:.\Interrupts.c **** extern volatile uint8 USBFS_device;
  53:.\Interrupts.c **** 
  54:.\Interrupts.c **** #ifndef ENABLE_DIGITAL_AUDIO_OUT_ONLY
  55:.\Interrupts.c **** extern CYBIT inPlaying;
  56:.\Interrupts.c **** #endif
  57:.\Interrupts.c **** 
  58:.\Interrupts.c **** #ifndef ENABLE_DIGITAL_AUDIO_IN_ONLY
  59:.\Interrupts.c **** extern CYBIT outPlaying;
  60:.\Interrupts.c **** #endif
  61:.\Interrupts.c **** 
  62:.\Interrupts.c **** /*******************************************************************************
  63:.\Interrupts.c **** * Function Name: InDMADone_Interrupt
  64:.\Interrupts.c **** ********************************************************************************
  65:.\Interrupts.c **** * Summary:
  66:.\Interrupts.c **** *   The Interrupt Service Routine for isr_InDMADone. Arms USB Audio In end-point
  67:.\Interrupts.c **** * 	for USB host to receive audio data.
  68:.\Interrupts.c **** *
  69:.\Interrupts.c **** * Parameters:  
  70:.\Interrupts.c **** *	InDMADone interrupt vector
  71:.\Interrupts.c **** *
  72:.\Interrupts.c **** * Return:
  73:.\Interrupts.c **** *   void.
  74:.\Interrupts.c **** *
  75:.\Interrupts.c **** *******************************************************************************/
  76:.\Interrupts.c **** CY_ISR(InDMADone_Interrupt)
  77:.\Interrupts.c **** {
  27              		.loc 1 77 0
  28              		.cfi_startproc
  29              		@ args = 0, pretend = 0, frame = 0
  30              		@ frame_needed = 1, uses_anonymous_args = 0
  31 0000 80B5     		push	{r7, lr}
  32              		.cfi_def_cfa_offset 8
  33              		.cfi_offset 7, -8
  34              		.cfi_offset 14, -4
  35 0002 00AF     		add	r7, sp, #0
  36              		.cfi_def_cfa_register 7
  78:.\Interrupts.c ****     #ifndef ENABLE_DIGITAL_AUDIO_OUT_ONLY
ARM GAS  C:\USERS\LUKAS\APPDATA\LOCAL\TEMP\ccORRIGj.s 			page 3


  79:.\Interrupts.c ****     /* Parameters to this API Call CHANGES DEPENDING ON DATA ENDPOINT MEMORY MODE */
  80:.\Interrupts.c ****     USBFS_LoadInEP(AUDIO_IN_ENDPOINT, USBFS_NULL, inCnt);
  37              		.loc 1 80 0
  38 0004 034B     		ldr	r3, .L2
  39 0006 1B88     		ldrh	r3, [r3]
  40 0008 0220     		movs	r0, #2
  41 000a 0021     		movs	r1, #0
  42 000c 1A46     		mov	r2, r3
  43 000e FFF7FEFF 		bl	USBFS_LoadInEP
  81:.\Interrupts.c **** 	#endif
  82:.\Interrupts.c ****     
  83:.\Interrupts.c ****     /* USER_CODE: [Audio IN EP loaded] This ISR is triggered once the required audio IN data for th
  84:.\Interrupts.c ****      * transfer is made available at the USB audio IN endpoint memory */
  85:.\Interrupts.c **** }
  44              		.loc 1 85 0
  45 0012 80BD     		pop	{r7, pc}
  46              	.L3:
  47              		.align	2
  48              	.L2:
  49 0014 00000000 		.word	inCnt
  50              		.cfi_endproc
  51              	.LFE56:
  52              		.size	InDMADone_Interrupt, .-InDMADone_Interrupt
  53              		.section	.text.RxDMADone_Interrupt,"ax",%progbits
  54              		.align	2
  55              		.global	RxDMADone_Interrupt
  56              		.thumb
  57              		.thumb_func
  58              		.type	RxDMADone_Interrupt, %function
  59              	RxDMADone_Interrupt:
  60              	.LFB57:
  86:.\Interrupts.c **** 
  87:.\Interrupts.c **** /*******************************************************************************
  88:.\Interrupts.c **** * Function Name: RxDMADone_Interrupt
  89:.\Interrupts.c **** ********************************************************************************
  90:.\Interrupts.c **** * Summary:
  91:.\Interrupts.c **** *   The Interrupt Service Routine for isr_RxDMADone. This handles the AUDIO In
  92:.\Interrupts.c **** *	buffer pointers and detects overflow of the buffer to stop AUDIO In. 
  93:.\Interrupts.c **** *
  94:.\Interrupts.c **** * Parameters:  
  95:.\Interrupts.c **** *	RxDMADone interrupt vector
  96:.\Interrupts.c **** *
  97:.\Interrupts.c **** * Return:
  98:.\Interrupts.c **** *   void.
  99:.\Interrupts.c **** *
 100:.\Interrupts.c **** *******************************************************************************/
 101:.\Interrupts.c **** CY_ISR(RxDMADone_Interrupt)
 102:.\Interrupts.c **** {
  61              		.loc 1 102 0
  62              		.cfi_startproc
  63              		@ args = 0, pretend = 0, frame = 8
  64              		@ frame_needed = 1, uses_anonymous_args = 0
  65 0000 80B5     		push	{r7, lr}
  66              		.cfi_def_cfa_offset 8
  67              		.cfi_offset 7, -8
  68              		.cfi_offset 14, -4
  69 0002 82B0     		sub	sp, sp, #8
ARM GAS  C:\USERS\LUKAS\APPDATA\LOCAL\TEMP\ccORRIGj.s 			page 4


  70              		.cfi_def_cfa_offset 16
  71 0004 00AF     		add	r7, sp, #0
  72              		.cfi_def_cfa_register 7
 103:.\Interrupts.c ****     #ifndef ENABLE_DIGITAL_AUDIO_OUT_ONLY 
 104:.\Interrupts.c ****     uint16 removed;
 105:.\Interrupts.c **** 	
 106:.\Interrupts.c **** 	/* Note: Care must be taken in the application code to update inUsbCount atomically */
 107:.\Interrupts.c **** 	removed = inUsbCount - inUsbShadow;
  73              		.loc 1 107 0
  74 0006 114B     		ldr	r3, .L7
  75 0008 1A88     		ldrh	r2, [r3]
  76 000a 114B     		ldr	r3, .L7+4
  77 000c 1B88     		ldrh	r3, [r3]
  78 000e D31A     		subs	r3, r2, r3
  79 0010 FB80     		strh	r3, [r7, #6]	@ movhi
 108:.\Interrupts.c **** 	inLevel -= removed;
  80              		.loc 1 108 0
  81 0012 104B     		ldr	r3, .L7+8
  82 0014 1A88     		ldrh	r2, [r3]
  83 0016 FB88     		ldrh	r3, [r7, #6]	@ movhi
  84 0018 D31A     		subs	r3, r2, r3
  85 001a 9AB2     		uxth	r2, r3
  86 001c 0D4B     		ldr	r3, .L7+8
  87 001e 1A80     		strh	r2, [r3]	@ movhi
 109:.\Interrupts.c ****     
 110:.\Interrupts.c ****     #if 0
 111:.\Interrupts.c **** 	if (inLevel <= IN_TRANS_SIZE) 
 112:.\Interrupts.c **** 		for(;;) ;		/* Underflow should not happen */
 113:.\Interrupts.c ****     #endif
 114:.\Interrupts.c ****     
 115:.\Interrupts.c **** 	inUsbShadow = inUsbCount;
  88              		.loc 1 115 0
  89 0020 0A4B     		ldr	r3, .L7
  90 0022 1A88     		ldrh	r2, [r3]
  91 0024 0A4B     		ldr	r3, .L7+4
  92 0026 1A80     		strh	r2, [r3]	@ movhi
 116:.\Interrupts.c **** 		
 117:.\Interrupts.c **** 	if (inLevel >= IN_BUFSIZE) 
  93              		.loc 1 117 0
  94 0028 0A4B     		ldr	r3, .L7+8
  95 002a 1B88     		ldrh	r3, [r3]
  96 002c B3F5407F 		cmp	r3, #768
  97 0030 02D3     		bcc	.L5
 118:.\Interrupts.c ****     {
 119:.\Interrupts.c ****        Stop_PDM_InPath();
  98              		.loc 1 119 0
  99 0032 FFF7FEFF 		bl	Stop_PDM_InPath
 100 0036 05E0     		b	.L4
 101              	.L5:
 120:.\Interrupts.c **** 	}
 121:.\Interrupts.c **** 	else 
 122:.\Interrupts.c ****     {
 123:.\Interrupts.c **** 		inLevel += IN_TRANS_SIZE;
 102              		.loc 1 123 0
 103 0038 064B     		ldr	r3, .L7+8
 104 003a 1B88     		ldrh	r3, [r3]
 105 003c 6033     		adds	r3, r3, #96
ARM GAS  C:\USERS\LUKAS\APPDATA\LOCAL\TEMP\ccORRIGj.s 			page 5


 106 003e 9AB2     		uxth	r2, r3
 107 0040 044B     		ldr	r3, .L7+8
 108 0042 1A80     		strh	r2, [r3]	@ movhi
 109              	.L4:
 124:.\Interrupts.c **** 	}
 125:.\Interrupts.c ****     #endif
 126:.\Interrupts.c ****     
 127:.\Interrupts.c ****     /* USER_CODE: [Audio IN buffer pointers] ISR triggered by audio IN data transfer DMA (see TopDe
 128:.\Interrupts.c ****      * the audio IN buffer pointers */
 129:.\Interrupts.c **** }
 110              		.loc 1 129 0
 111 0044 0837     		adds	r7, r7, #8
 112              		.cfi_def_cfa_offset 8
 113 0046 BD46     		mov	sp, r7
 114              		.cfi_def_cfa_register 13
 115              		@ sp needed
 116 0048 80BD     		pop	{r7, pc}
 117              	.L8:
 118 004a 00BF     		.align	2
 119              	.L7:
 120 004c 00000000 		.word	inUsbCount
 121 0050 00000000 		.word	inUsbShadow
 122 0054 00000000 		.word	inLevel
 123              		.cfi_endproc
 124              	.LFE57:
 125              		.size	RxDMADone_Interrupt, .-RxDMADone_Interrupt
 126              		.section	.text.Tick_Interrupt,"ax",%progbits
 127              		.align	2
 128              		.global	Tick_Interrupt
 129              		.thumb
 130              		.thumb_func
 131              		.type	Tick_Interrupt, %function
 132              	Tick_Interrupt:
 133              	.LFB58:
 130:.\Interrupts.c **** 
 131:.\Interrupts.c **** /*******************************************************************************
 132:.\Interrupts.c **** * Function Name: Tick_Interrupt
 133:.\Interrupts.c **** ********************************************************************************
 134:.\Interrupts.c **** * Summary:
 135:.\Interrupts.c **** *   The Interrupt Service Routine for isr_Tick. Sets flag for the timer function
 136:.\Interrupts.c **** *	to manage all counting operations
 137:.\Interrupts.c **** *
 138:.\Interrupts.c **** * Parameters:  
 139:.\Interrupts.c **** *	Sleep Timer tick interrupt vector
 140:.\Interrupts.c **** *
 141:.\Interrupts.c **** * Return:
 142:.\Interrupts.c **** *   void.
 143:.\Interrupts.c **** *
 144:.\Interrupts.c **** *******************************************************************************/
 145:.\Interrupts.c **** CY_ISR(Tick_Interrupt)
 146:.\Interrupts.c **** {
 134              		.loc 1 146 0
 135              		.cfi_startproc
 136              		@ args = 0, pretend = 0, frame = 0
 137              		@ frame_needed = 1, uses_anonymous_args = 0
 138              		@ link register save eliminated.
 139 0000 80B4     		push	{r7}
ARM GAS  C:\USERS\LUKAS\APPDATA\LOCAL\TEMP\ccORRIGj.s 			page 6


 140              		.cfi_def_cfa_offset 4
 141              		.cfi_offset 7, -4
 142 0002 00AF     		add	r7, sp, #0
 143              		.cfi_def_cfa_register 7
 147:.\Interrupts.c ****     applicationTimerTick = CY_PM_INT_SR_REG;	
 144              		.loc 1 147 0
 145 0004 054B     		ldr	r3, .L10
 146 0006 1B78     		ldrb	r3, [r3]
 147 0008 DAB2     		uxtb	r2, r3
 148 000a 054B     		ldr	r3, .L10+4
 149 000c 1A70     		strb	r2, [r3]
 148:.\Interrupts.c **** 	applicationTimerTick = TRUE;
 150              		.loc 1 148 0
 151 000e 044B     		ldr	r3, .L10+4
 152 0010 0122     		movs	r2, #1
 153 0012 1A70     		strb	r2, [r3]
 149:.\Interrupts.c **** }
 154              		.loc 1 149 0
 155 0014 BD46     		mov	sp, r7
 156              		.cfi_def_cfa_register 13
 157              		@ sp needed
 158 0016 5DF8047B 		ldr	r7, [sp], #4
 159              		.cfi_restore 7
 160              		.cfi_def_cfa_offset 0
 161 001a 7047     		bx	lr
 162              	.L11:
 163              		.align	2
 164              	.L10:
 165 001c 90430040 		.word	1073759120
 166 0020 00000000 		.word	applicationTimerTick
 167              		.cfi_endproc
 168              	.LFE58:
 169              		.size	Tick_Interrupt, .-Tick_Interrupt
 170              		.section	.text.TxDMADone_Interrupt,"ax",%progbits
 171              		.align	2
 172              		.global	TxDMADone_Interrupt
 173              		.thumb
 174              		.thumb_func
 175              		.type	TxDMADone_Interrupt, %function
 176              	TxDMADone_Interrupt:
 177              	.LFB59:
 150:.\Interrupts.c **** 
 151:.\Interrupts.c **** /*******************************************************************************
 152:.\Interrupts.c **** * Function Name: TxDMADone_Interrupt
 153:.\Interrupts.c **** ********************************************************************************
 154:.\Interrupts.c **** * Summary:
 155:.\Interrupts.c **** *   The Interrupt Service Routine for isr_TxDMADone. This handles the AUDIO Out
 156:.\Interrupts.c **** *	buffer pointers and detects underflow of the buffer to stop AUDIO out.
 157:.\Interrupts.c **** *
 158:.\Interrupts.c **** * Parameters:  
 159:.\Interrupts.c **** *	TxDMADone interrupt vector
 160:.\Interrupts.c **** *
 161:.\Interrupts.c **** * Return:
 162:.\Interrupts.c **** *   void.
 163:.\Interrupts.c **** *
 164:.\Interrupts.c **** *******************************************************************************/
 165:.\Interrupts.c **** CY_ISR(TxDMADone_Interrupt)
ARM GAS  C:\USERS\LUKAS\APPDATA\LOCAL\TEMP\ccORRIGj.s 			page 7


 166:.\Interrupts.c **** {
 178              		.loc 1 166 0
 179              		.cfi_startproc
 180              		@ args = 0, pretend = 0, frame = 8
 181              		@ frame_needed = 1, uses_anonymous_args = 0
 182 0000 80B5     		push	{r7, lr}
 183              		.cfi_def_cfa_offset 8
 184              		.cfi_offset 7, -8
 185              		.cfi_offset 14, -4
 186 0002 82B0     		sub	sp, sp, #8
 187              		.cfi_def_cfa_offset 16
 188 0004 00AF     		add	r7, sp, #0
 189              		.cfi_def_cfa_register 7
 167:.\Interrupts.c ****     #ifndef ENABLE_DIGITAL_AUDIO_IN_ONLY 
 168:.\Interrupts.c **** 	uint16 added;
 169:.\Interrupts.c **** 
 170:.\Interrupts.c **** 	/* Note: Care must be taken in the application code to update outUsbCount atomically
 171:.\Interrupts.c **** 	 * Code is currently implemented with both updaters of this value in interrupts that are
 172:.\Interrupts.c **** 	 * the same priority so the code will not execute at the same time, but the code
 173:.\Interrupts.c **** 	 * has been written so that this is not a requirement. */
 174:.\Interrupts.c ****     
 175:.\Interrupts.c **** 	added = outUsbCount - outUsbShadow;
 190              		.loc 1 175 0
 191 0006 114B     		ldr	r3, .L15
 192 0008 1A88     		ldrh	r2, [r3]
 193 000a 114B     		ldr	r3, .L15+4
 194 000c 1B88     		ldrh	r3, [r3]
 195 000e D31A     		subs	r3, r2, r3
 196 0010 FB80     		strh	r3, [r7, #6]	@ movhi
 176:.\Interrupts.c **** 	outLevel += added;
 197              		.loc 1 176 0
 198 0012 104B     		ldr	r3, .L15+8
 199 0014 1A88     		ldrh	r2, [r3]
 200 0016 FB88     		ldrh	r3, [r7, #6]	@ movhi
 201 0018 1344     		add	r3, r3, r2
 202 001a 9AB2     		uxth	r2, r3
 203 001c 0D4B     		ldr	r3, .L15+8
 204 001e 1A80     		strh	r2, [r3]	@ movhi
 177:.\Interrupts.c ****     
 178:.\Interrupts.c ****     #if 0
 179:.\Interrupts.c **** 	if (outLevel > OUT_BUFSIZE) 
 180:.\Interrupts.c **** 		for(;;) ;		/* Overflow should not happen */
 181:.\Interrupts.c ****     #endif
 182:.\Interrupts.c ****     
 183:.\Interrupts.c **** 	outUsbShadow = outUsbCount;
 205              		.loc 1 183 0
 206 0020 0A4B     		ldr	r3, .L15
 207 0022 1A88     		ldrh	r2, [r3]
 208 0024 0A4B     		ldr	r3, .L15+4
 209 0026 1A80     		strh	r2, [r3]	@ movhi
 184:.\Interrupts.c **** 	
 185:.\Interrupts.c **** 	if (outLevel <= OUT_AUDIOMAXPKT) 
 210              		.loc 1 185 0
 211 0028 0A4B     		ldr	r3, .L15+8
 212 002a 1B88     		ldrh	r3, [r3]
 213 002c B3F5907F 		cmp	r3, #288
 214 0030 02D8     		bhi	.L13
ARM GAS  C:\USERS\LUKAS\APPDATA\LOCAL\TEMP\ccORRIGj.s 			page 8


 186:.\Interrupts.c **** 	{
 187:.\Interrupts.c **** 		/* Underflow, so disable the DMA, mute and tell the main task to reset all its structures Stop DM
 188:.\Interrupts.c **** 		Stop_I2S_Tx();
 215              		.loc 1 188 0
 216 0032 FFF7FEFF 		bl	Stop_I2S_Tx
 217 0036 05E0     		b	.L12
 218              	.L13:
 189:.\Interrupts.c **** 	}
 190:.\Interrupts.c **** 	else
 191:.\Interrupts.c **** 	{
 192:.\Interrupts.c **** 		outLevel -= OUT_TRANS_SIZE;
 219              		.loc 1 192 0
 220 0038 064B     		ldr	r3, .L15+8
 221 003a 1B88     		ldrh	r3, [r3]
 222 003c 903B     		subs	r3, r3, #144
 223 003e 9AB2     		uxth	r2, r3
 224 0040 044B     		ldr	r3, .L15+8
 225 0042 1A80     		strh	r2, [r3]	@ movhi
 226              	.L12:
 193:.\Interrupts.c **** 	}
 194:.\Interrupts.c ****     #endif
 195:.\Interrupts.c ****     
 196:.\Interrupts.c ****     /* USER_CODE: [Audio OUT buffer pointers] ISR triggered by audio OUT data transfer DMA (see Top
 197:.\Interrupts.c ****      * the audio OUT buffer pointers */
 198:.\Interrupts.c **** }
 227              		.loc 1 198 0
 228 0044 0837     		adds	r7, r7, #8
 229              		.cfi_def_cfa_offset 8
 230 0046 BD46     		mov	sp, r7
 231              		.cfi_def_cfa_register 13
 232              		@ sp needed
 233 0048 80BD     		pop	{r7, pc}
 234              	.L16:
 235 004a 00BF     		.align	2
 236              	.L15:
 237 004c 00000000 		.word	outUsbCount
 238 0050 00000000 		.word	outUsbShadow
 239 0054 00000000 		.word	outLevel
 240              		.cfi_endproc
 241              	.LFE59:
 242              		.size	TxDMADone_Interrupt, .-TxDMADone_Interrupt
 243              		.section	.text.cicOverflow_Interrupt,"ax",%progbits
 244              		.align	2
 245              		.global	cicOverflow_Interrupt
 246              		.thumb
 247              		.thumb_func
 248              		.type	cicOverflow_Interrupt, %function
 249              	cicOverflow_Interrupt:
 250              	.LFB60:
 199:.\Interrupts.c **** 
 200:.\Interrupts.c **** /*******************************************************************************
 201:.\Interrupts.c **** * Function Name: cicOverflow_Interrupt
 202:.\Interrupts.c **** ********************************************************************************
 203:.\Interrupts.c **** *
 204:.\Interrupts.c **** * Summary:
 205:.\Interrupts.c **** *  ISR for the PDM CIC FIFO OVerflow interrupt
 206:.\Interrupts.c **** *
ARM GAS  C:\USERS\LUKAS\APPDATA\LOCAL\TEMP\ccORRIGj.s 			page 9


 207:.\Interrupts.c **** * Parameters:
 208:.\Interrupts.c **** *  None
 209:.\Interrupts.c **** *
 210:.\Interrupts.c **** * Return:
 211:.\Interrupts.c **** *  None
 212:.\Interrupts.c **** *
 213:.\Interrupts.c **** * Global Variables:
 214:.\Interrupts.c **** *  None
 215:.\Interrupts.c **** *******************************************************************************/
 216:.\Interrupts.c **** CY_ISR(cicOverflow_Interrupt)
 217:.\Interrupts.c **** {
 251              		.loc 1 217 0
 252              		.cfi_startproc
 253              		@ args = 0, pretend = 0, frame = 8
 254              		@ frame_needed = 1, uses_anonymous_args = 0
 255 0000 80B5     		push	{r7, lr}
 256              		.cfi_def_cfa_offset 8
 257              		.cfi_offset 7, -8
 258              		.cfi_offset 14, -4
 259 0002 82B0     		sub	sp, sp, #8
 260              		.cfi_def_cfa_offset 16
 261 0004 00AF     		add	r7, sp, #0
 262              		.cfi_def_cfa_register 7
 218:.\Interrupts.c **** 	uint8 cic_overflow_status;	
 219:.\Interrupts.c **** 	
 220:.\Interrupts.c **** 	/* Read the status register to know the cause and clear the interrupt */
 221:.\Interrupts.c **** 	cic_overflow_status = PDM_CIC_ReadInterruptStatus(); 
 263              		.loc 1 221 0
 264 0006 FFF7FEFF 		bl	PDM_CIC_ReadInterruptStatus
 265 000a 0346     		mov	r3, r0
 266 000c FB71     		strb	r3, [r7, #7]
 222:.\Interrupts.c **** 
 223:.\Interrupts.c **** 	/* USER CODE: Add your code to be executed when the overflow occurs */	
 224:.\Interrupts.c **** }
 267              		.loc 1 224 0
 268 000e 0837     		adds	r7, r7, #8
 269              		.cfi_def_cfa_offset 8
 270 0010 BD46     		mov	sp, r7
 271              		.cfi_def_cfa_register 13
 272              		@ sp needed
 273 0012 80BD     		pop	{r7, pc}
 274              		.cfi_endproc
 275              	.LFE60:
 276              		.size	cicOverflow_Interrupt, .-cicOverflow_Interrupt
 277              		.text
 278              	.Letext0:
 279              		.file 2 "c:\\program files (x86)\\cypress\\psoc creator\\3.3\\psoc creator\\import\\gnu\\arm\\4.9.
 280              		.file 3 "c:\\program files (x86)\\cypress\\psoc creator\\3.3\\psoc creator\\import\\gnu\\arm\\4.9.
 281              		.file 4 "Generated_Source\\PSoC5/cytypes.h"
 282              		.file 5 "Generated_Source\\PSoC5/core_cm3.h"