ARM GAS  C:\USERS\LUKAS\APPDATA\LOCAL\TEMP\ccfjovFM.s 			page 1


   1              		.syntax unified
   2              		.cpu cortex-m3
   3              		.fpu softvfp
   4              		.eabi_attribute 20, 1
   5              		.eabi_attribute 21, 1
   6              		.eabi_attribute 23, 3
   7              		.eabi_attribute 24, 1
   8              		.eabi_attribute 25, 1
   9              		.eabi_attribute 26, 1
  10              		.eabi_attribute 30, 6
  11              		.eabi_attribute 34, 1
  12              		.eabi_attribute 18, 4
  13              		.thumb
  14              		.file	"USBFS_episr.c"
  15              		.text
  16              	.Ltext0:
  17              		.cfi_sections	.debug_frame
  18              		.section	.text.USBFS_EP_1_ISR,"ax",%progbits
  19              		.align	2
  20              		.global	USBFS_EP_1_ISR
  21              		.thumb
  22              		.thumb_func
  23              		.type	USBFS_EP_1_ISR, %function
  24              	USBFS_EP_1_ISR:
  25              	.LFB56:
  26              		.file 1 ".\\Generated_Source\\PSoC5\\USBFS_episr.c"
   1:.\Generated_Source\PSoC5/USBFS_episr.c **** /*******************************************************************************
   2:.\Generated_Source\PSoC5/USBFS_episr.c **** * File Name: USBFS_episr.c
   3:.\Generated_Source\PSoC5/USBFS_episr.c **** * Version 2.50
   4:.\Generated_Source\PSoC5/USBFS_episr.c **** *
   5:.\Generated_Source\PSoC5/USBFS_episr.c **** * Description:
   6:.\Generated_Source\PSoC5/USBFS_episr.c **** *  Data endpoint Interrupt Service Routines
   7:.\Generated_Source\PSoC5/USBFS_episr.c **** *
   8:.\Generated_Source\PSoC5/USBFS_episr.c **** * Note:
   9:.\Generated_Source\PSoC5/USBFS_episr.c **** *
  10:.\Generated_Source\PSoC5/USBFS_episr.c **** ********************************************************************************
  11:.\Generated_Source\PSoC5/USBFS_episr.c **** * Copyright 2008-2012, Cypress Semiconductor Corporation.  All rights reserved.
  12:.\Generated_Source\PSoC5/USBFS_episr.c **** * You may use this file only in accordance with the license, terms, conditions,
  13:.\Generated_Source\PSoC5/USBFS_episr.c **** * disclaimers, and limitations in the end user license agreement accompanying
  14:.\Generated_Source\PSoC5/USBFS_episr.c **** * the software package with which this file was provided.
  15:.\Generated_Source\PSoC5/USBFS_episr.c **** *******************************************************************************/
  16:.\Generated_Source\PSoC5/USBFS_episr.c **** 
  17:.\Generated_Source\PSoC5/USBFS_episr.c **** #include "USBFS.h"
  18:.\Generated_Source\PSoC5/USBFS_episr.c **** 
  19:.\Generated_Source\PSoC5/USBFS_episr.c **** 
  20:.\Generated_Source\PSoC5/USBFS_episr.c **** /***************************************
  21:.\Generated_Source\PSoC5/USBFS_episr.c **** * Custom Declarations
  22:.\Generated_Source\PSoC5/USBFS_episr.c **** ***************************************/
  23:.\Generated_Source\PSoC5/USBFS_episr.c **** /* `#START CUSTOM_DECLARATIONS` Place your declaration here */
  24:.\Generated_Source\PSoC5/USBFS_episr.c **** #include <Configuration.h>
  25:.\Generated_Source\PSoC5/USBFS_episr.c **** #include <Application.h>
  26:.\Generated_Source\PSoC5/USBFS_episr.c **** #include <AudioControl.h>
  27:.\Generated_Source\PSoC5/USBFS_episr.c **** #include <device.h>
  28:.\Generated_Source\PSoC5/USBFS_episr.c **** #include <USBInterface.h>
  29:.\Generated_Source\PSoC5/USBFS_episr.c **** 
  30:.\Generated_Source\PSoC5/USBFS_episr.c **** #ifndef ENABLE_DIGITAL_AUDIO_OUT_ONLY
  31:.\Generated_Source\PSoC5/USBFS_episr.c **** extern CYBIT inPlaying;
ARM GAS  C:\USERS\LUKAS\APPDATA\LOCAL\TEMP\ccfjovFM.s 			page 2


  32:.\Generated_Source\PSoC5/USBFS_episr.c **** #endif
  33:.\Generated_Source\PSoC5/USBFS_episr.c **** /* `#END` */
  34:.\Generated_Source\PSoC5/USBFS_episr.c **** 
  35:.\Generated_Source\PSoC5/USBFS_episr.c **** 
  36:.\Generated_Source\PSoC5/USBFS_episr.c **** /***************************************
  37:.\Generated_Source\PSoC5/USBFS_episr.c **** * External function references
  38:.\Generated_Source\PSoC5/USBFS_episr.c **** ***************************************/
  39:.\Generated_Source\PSoC5/USBFS_episr.c **** 
  40:.\Generated_Source\PSoC5/USBFS_episr.c **** void USBFS_InitComponent(uint8 device, uint8 mode) ;
  41:.\Generated_Source\PSoC5/USBFS_episr.c **** void USBFS_ReInitComponent(void) ;
  42:.\Generated_Source\PSoC5/USBFS_episr.c **** #if defined(USBFS_ENABLE_MIDI_STREAMING) && (USBFS_ENABLE_MIDI_API != 0u)
  43:.\Generated_Source\PSoC5/USBFS_episr.c ****     void USBFS_MIDI_OUT_EP_Service(void) ;
  44:.\Generated_Source\PSoC5/USBFS_episr.c **** #endif /* End USBFS_ENABLE_MIDI_STREAMING*/
  45:.\Generated_Source\PSoC5/USBFS_episr.c **** 
  46:.\Generated_Source\PSoC5/USBFS_episr.c **** 
  47:.\Generated_Source\PSoC5/USBFS_episr.c **** /***************************************
  48:.\Generated_Source\PSoC5/USBFS_episr.c **** * External references
  49:.\Generated_Source\PSoC5/USBFS_episr.c **** ***************************************/
  50:.\Generated_Source\PSoC5/USBFS_episr.c **** 
  51:.\Generated_Source\PSoC5/USBFS_episr.c **** extern volatile T_USBFS_EP_CTL_BLOCK USBFS_EP[];
  52:.\Generated_Source\PSoC5/USBFS_episr.c **** extern volatile uint8 USBFS_device;
  53:.\Generated_Source\PSoC5/USBFS_episr.c **** #if defined(USBFS_ENABLE_MIDI_STREAMING) && (USBFS_ENABLE_MIDI_API != 0u)
  54:.\Generated_Source\PSoC5/USBFS_episr.c ****     extern volatile uint8 USBFS_midi_out_ep;
  55:.\Generated_Source\PSoC5/USBFS_episr.c ****     extern volatile uint8 USBFS_midi_in_ep;
  56:.\Generated_Source\PSoC5/USBFS_episr.c ****     #if USBFS_MIDI_IN_BUFF_SIZE >= 256
  57:.\Generated_Source\PSoC5/USBFS_episr.c ****         extern volatile uint16 USBFS_midiInPointer;     /* Input endpoint buffer pointer */
  58:.\Generated_Source\PSoC5/USBFS_episr.c ****     #else
  59:.\Generated_Source\PSoC5/USBFS_episr.c ****         extern volatile uint8 USBFS_midiInPointer;      /* Input endpoint buffer pointer */
  60:.\Generated_Source\PSoC5/USBFS_episr.c ****     #endif /* End USBFS_MIDI_IN_BUFF_SIZE >=256 */    
  61:.\Generated_Source\PSoC5/USBFS_episr.c **** #endif /* End USBFS_ENABLE_MIDI_STREAMING*/
  62:.\Generated_Source\PSoC5/USBFS_episr.c **** 
  63:.\Generated_Source\PSoC5/USBFS_episr.c **** #if(USBFS_EP1_ISR_REMOVE == 0u)
  64:.\Generated_Source\PSoC5/USBFS_episr.c **** 
  65:.\Generated_Source\PSoC5/USBFS_episr.c **** 
  66:.\Generated_Source\PSoC5/USBFS_episr.c ****     /******************************************************************************
  67:.\Generated_Source\PSoC5/USBFS_episr.c ****     * Function Name: USBFS_EP_1_ISR
  68:.\Generated_Source\PSoC5/USBFS_episr.c ****     *******************************************************************************
  69:.\Generated_Source\PSoC5/USBFS_episr.c ****     *
  70:.\Generated_Source\PSoC5/USBFS_episr.c ****     * Summary:
  71:.\Generated_Source\PSoC5/USBFS_episr.c ****     *  Endpoint 1 Interrupt Service Routine
  72:.\Generated_Source\PSoC5/USBFS_episr.c ****     *
  73:.\Generated_Source\PSoC5/USBFS_episr.c ****     * Parameters:
  74:.\Generated_Source\PSoC5/USBFS_episr.c ****     *  None.
  75:.\Generated_Source\PSoC5/USBFS_episr.c ****     *
  76:.\Generated_Source\PSoC5/USBFS_episr.c ****     * Return:
  77:.\Generated_Source\PSoC5/USBFS_episr.c ****     *  None.
  78:.\Generated_Source\PSoC5/USBFS_episr.c ****     *
  79:.\Generated_Source\PSoC5/USBFS_episr.c ****     ******************************************************************************/
  80:.\Generated_Source\PSoC5/USBFS_episr.c ****     CY_ISR(USBFS_EP_1_ISR)
  81:.\Generated_Source\PSoC5/USBFS_episr.c ****     {
  27              		.loc 1 81 0
  28              		.cfi_startproc
  29              		@ args = 0, pretend = 0, frame = 0
  30              		@ frame_needed = 1, uses_anonymous_args = 0
  31 0000 80B5     		push	{r7, lr}
  32              		.cfi_def_cfa_offset 8
  33              		.cfi_offset 7, -8
ARM GAS  C:\USERS\LUKAS\APPDATA\LOCAL\TEMP\ccfjovFM.s 			page 3


  34              		.cfi_offset 14, -4
  35 0002 00AF     		add	r7, sp, #0
  36              		.cfi_def_cfa_register 7
  82:.\Generated_Source\PSoC5/USBFS_episr.c ****         #if defined(USBFS_ENABLE_MIDI_STREAMING) && (USBFS_ENABLE_MIDI_API != 0u) && \
  83:.\Generated_Source\PSoC5/USBFS_episr.c ****             (USBFS_EP_MM == USBFS__EP_DMAAUTO) && (CY_PSOC3)
  84:.\Generated_Source\PSoC5/USBFS_episr.c ****             uint8 int_en;
  85:.\Generated_Source\PSoC5/USBFS_episr.c ****         #endif /* CY_PSOC3 & ENABLE_MIDI_STREAMING */
  86:.\Generated_Source\PSoC5/USBFS_episr.c ****     
  87:.\Generated_Source\PSoC5/USBFS_episr.c ****         /* `#START EP1_USER_CODE` Place your code here */
  88:.\Generated_Source\PSoC5/USBFS_episr.c **** 		#ifndef ENABLE_DIGITAL_AUDIO_IN_ONLY
  89:.\Generated_Source\PSoC5/USBFS_episr.c **** 		ProcessAudioOut();
  37              		.loc 1 89 0
  38 0004 FFF7FEFF 		bl	ProcessAudioOut
  90:.\Generated_Source\PSoC5/USBFS_episr.c **** 		#endif
  91:.\Generated_Source\PSoC5/USBFS_episr.c ****         /* `#END` */
  92:.\Generated_Source\PSoC5/USBFS_episr.c **** 
  93:.\Generated_Source\PSoC5/USBFS_episr.c ****         #if defined(USBFS_ENABLE_MIDI_STREAMING) && (USBFS_ENABLE_MIDI_API != 0u) && \
  94:.\Generated_Source\PSoC5/USBFS_episr.c ****             (USBFS_EP_MM == USBFS__EP_DMAAUTO) && (CY_PSOC3)
  95:.\Generated_Source\PSoC5/USBFS_episr.c ****             int_en = EA;
  96:.\Generated_Source\PSoC5/USBFS_episr.c ****             CyGlobalIntEnable;  /* Make sure nested interrupt is enabled */
  97:.\Generated_Source\PSoC5/USBFS_episr.c ****         #endif /* CY_PSOC3 & ENABLE_MIDI_STREAMING */
  98:.\Generated_Source\PSoC5/USBFS_episr.c **** 
  99:.\Generated_Source\PSoC5/USBFS_episr.c ****         CY_GET_REG8(USBFS_SIE_EP1_CR0_PTR); /* Must read the mode reg */
  39              		.loc 1 99 0
  40 0008 0E4B     		ldr	r3, .L3
  41 000a 1B78     		ldrb	r3, [r3]
 100:.\Generated_Source\PSoC5/USBFS_episr.c ****         /* Do not toggle ISOC endpoint */
 101:.\Generated_Source\PSoC5/USBFS_episr.c ****         if((USBFS_EP[USBFS_EP1].attrib & USBFS_EP_TYPE_MASK) !=
  42              		.loc 1 101 0
  43 000c 0E4B     		ldr	r3, .L3+4
  44 000e 1B7B     		ldrb	r3, [r3, #12]
  45 0010 DBB2     		uxtb	r3, r3
  46 0012 03F00303 		and	r3, r3, #3
  47 0016 012B     		cmp	r3, #1
  48 0018 08D0     		beq	.L2
 102:.\Generated_Source\PSoC5/USBFS_episr.c ****                                                                                     USBFS_EP_TYPE_I
 103:.\Generated_Source\PSoC5/USBFS_episr.c ****         {
 104:.\Generated_Source\PSoC5/USBFS_episr.c ****             USBFS_EP[USBFS_EP1].epToggle ^= USBFS_EPX_CNT_DATA_TOGGLE;
  49              		.loc 1 104 0
  50 001a 0B4B     		ldr	r3, .L3+4
  51 001c DB7B     		ldrb	r3, [r3, #15]
  52 001e DBB2     		uxtb	r3, r3
  53 0020 83F07F03 		eor	r3, r3, #127
  54 0024 DB43     		mvns	r3, r3
  55 0026 DAB2     		uxtb	r2, r3
  56 0028 074B     		ldr	r3, .L3+4
  57 002a DA73     		strb	r2, [r3, #15]
  58              	.L2:
 105:.\Generated_Source\PSoC5/USBFS_episr.c ****         }
 106:.\Generated_Source\PSoC5/USBFS_episr.c ****         USBFS_EP[USBFS_EP1].apiEpState = USBFS_EVENT_PENDING;
  59              		.loc 1 106 0
  60 002c 064B     		ldr	r3, .L3+4
  61 002e 0122     		movs	r2, #1
  62 0030 5A73     		strb	r2, [r3, #13]
 107:.\Generated_Source\PSoC5/USBFS_episr.c ****         CY_SET_REG8(USBFS_SIE_EP_INT_SR_PTR, CY_GET_REG8(USBFS_SIE_EP_INT_SR_PTR)
  63              		.loc 1 107 0
  64 0032 064A     		ldr	r2, .L3+8
ARM GAS  C:\USERS\LUKAS\APPDATA\LOCAL\TEMP\ccfjovFM.s 			page 4


  65 0034 054B     		ldr	r3, .L3+8
  66 0036 1B78     		ldrb	r3, [r3]
  67 0038 DBB2     		uxtb	r3, r3
  68 003a 23F00103 		bic	r3, r3, #1
  69 003e DBB2     		uxtb	r3, r3
  70 0040 1370     		strb	r3, [r2]
 108:.\Generated_Source\PSoC5/USBFS_episr.c ****                                                                             & ~USBFS_SIE_EP_INT_EP1
 109:.\Generated_Source\PSoC5/USBFS_episr.c **** 
 110:.\Generated_Source\PSoC5/USBFS_episr.c ****         #if defined(USBFS_ENABLE_MIDI_STREAMING) && (USBFS_ENABLE_MIDI_API != 0u) && \
 111:.\Generated_Source\PSoC5/USBFS_episr.c ****             (USBFS_EP_MM == USBFS__EP_DMAAUTO) 
 112:.\Generated_Source\PSoC5/USBFS_episr.c ****             if(USBFS_midi_out_ep == USBFS_EP1)
 113:.\Generated_Source\PSoC5/USBFS_episr.c ****             {
 114:.\Generated_Source\PSoC5/USBFS_episr.c ****                 USBFS_MIDI_OUT_EP_Service();
 115:.\Generated_Source\PSoC5/USBFS_episr.c ****             }   
 116:.\Generated_Source\PSoC5/USBFS_episr.c ****         #endif /* End USBFS_ENABLE_MIDI_STREAMING*/
 117:.\Generated_Source\PSoC5/USBFS_episr.c **** 
 118:.\Generated_Source\PSoC5/USBFS_episr.c ****         /* `#START EP1_END_USER_CODE` Place your code here */
 119:.\Generated_Source\PSoC5/USBFS_episr.c **** 
 120:.\Generated_Source\PSoC5/USBFS_episr.c ****         /* `#END` */
 121:.\Generated_Source\PSoC5/USBFS_episr.c **** 
 122:.\Generated_Source\PSoC5/USBFS_episr.c ****         #if defined(USBFS_ENABLE_MIDI_STREAMING) && (USBFS_ENABLE_MIDI_API != 0u) && \
 123:.\Generated_Source\PSoC5/USBFS_episr.c ****             (USBFS_EP_MM == USBFS__EP_DMAAUTO) && (CY_PSOC3)
 124:.\Generated_Source\PSoC5/USBFS_episr.c ****             EA = int_en;
 125:.\Generated_Source\PSoC5/USBFS_episr.c ****         #endif /* CY_PSOC3 & ENABLE_MIDI_STREAMING */
 126:.\Generated_Source\PSoC5/USBFS_episr.c ****     }
  71              		.loc 1 126 0
  72 0042 80BD     		pop	{r7, pc}
  73              	.L4:
  74              		.align	2
  75              	.L3:
  76 0044 0E600040 		.word	1073766414
  77 0048 00000000 		.word	USBFS_EP
  78 004c 0B600040 		.word	1073766411
  79              		.cfi_endproc
  80              	.LFE56:
  81              		.size	USBFS_EP_1_ISR, .-USBFS_EP_1_ISR
  82              		.section	.text.USBFS_EP_2_ISR,"ax",%progbits
  83              		.align	2
  84              		.global	USBFS_EP_2_ISR
  85              		.thumb
  86              		.thumb_func
  87              		.type	USBFS_EP_2_ISR, %function
  88              	USBFS_EP_2_ISR:
  89              	.LFB57:
 127:.\Generated_Source\PSoC5/USBFS_episr.c **** 
 128:.\Generated_Source\PSoC5/USBFS_episr.c **** #endif   /* End USBFS_EP1_ISR_REMOVE */
 129:.\Generated_Source\PSoC5/USBFS_episr.c **** 
 130:.\Generated_Source\PSoC5/USBFS_episr.c **** 
 131:.\Generated_Source\PSoC5/USBFS_episr.c **** #if(USBFS_EP2_ISR_REMOVE == 0u)
 132:.\Generated_Source\PSoC5/USBFS_episr.c **** 
 133:.\Generated_Source\PSoC5/USBFS_episr.c ****     /*******************************************************************************
 134:.\Generated_Source\PSoC5/USBFS_episr.c ****     * Function Name: USBFS_EP_2_ISR
 135:.\Generated_Source\PSoC5/USBFS_episr.c ****     ********************************************************************************
 136:.\Generated_Source\PSoC5/USBFS_episr.c ****     *
 137:.\Generated_Source\PSoC5/USBFS_episr.c ****     * Summary:
 138:.\Generated_Source\PSoC5/USBFS_episr.c ****     *  Endpoint 2 Interrupt Service Routine
 139:.\Generated_Source\PSoC5/USBFS_episr.c ****     *
ARM GAS  C:\USERS\LUKAS\APPDATA\LOCAL\TEMP\ccfjovFM.s 			page 5


 140:.\Generated_Source\PSoC5/USBFS_episr.c ****     * Parameters:
 141:.\Generated_Source\PSoC5/USBFS_episr.c ****     *  None.
 142:.\Generated_Source\PSoC5/USBFS_episr.c ****     *
 143:.\Generated_Source\PSoC5/USBFS_episr.c ****     * Return:
 144:.\Generated_Source\PSoC5/USBFS_episr.c ****     *  None.
 145:.\Generated_Source\PSoC5/USBFS_episr.c ****     *
 146:.\Generated_Source\PSoC5/USBFS_episr.c ****     *******************************************************************************/
 147:.\Generated_Source\PSoC5/USBFS_episr.c ****     CY_ISR(USBFS_EP_2_ISR)
 148:.\Generated_Source\PSoC5/USBFS_episr.c ****     {
  90              		.loc 1 148 0
  91              		.cfi_startproc
  92              		@ args = 0, pretend = 0, frame = 0
  93              		@ frame_needed = 1, uses_anonymous_args = 0
  94 0000 80B5     		push	{r7, lr}
  95              		.cfi_def_cfa_offset 8
  96              		.cfi_offset 7, -8
  97              		.cfi_offset 14, -4
  98 0002 00AF     		add	r7, sp, #0
  99              		.cfi_def_cfa_register 7
 149:.\Generated_Source\PSoC5/USBFS_episr.c ****         #if defined(USBFS_ENABLE_MIDI_STREAMING) && (USBFS_ENABLE_MIDI_API != 0u) && \
 150:.\Generated_Source\PSoC5/USBFS_episr.c ****             (USBFS_EP_MM == USBFS__EP_DMAAUTO) && (CY_PSOC3)
 151:.\Generated_Source\PSoC5/USBFS_episr.c ****             uint8 int_en;
 152:.\Generated_Source\PSoC5/USBFS_episr.c ****         #endif /* CY_PSOC3 & ENABLE_MIDI_STREAMING */
 153:.\Generated_Source\PSoC5/USBFS_episr.c ****     
 154:.\Generated_Source\PSoC5/USBFS_episr.c ****         /* `#START EP2_USER_CODE` Place your code here */
 155:.\Generated_Source\PSoC5/USBFS_episr.c ****         #ifndef ENABLE_DIGITAL_AUDIO_OUT_ONLY
 156:.\Generated_Source\PSoC5/USBFS_episr.c **** 		ProcessAudioIn();
 100              		.loc 1 156 0
 101 0004 FFF7FEFF 		bl	ProcessAudioIn
 157:.\Generated_Source\PSoC5/USBFS_episr.c ****         #endif
 158:.\Generated_Source\PSoC5/USBFS_episr.c ****         /* `#END` */
 159:.\Generated_Source\PSoC5/USBFS_episr.c **** 
 160:.\Generated_Source\PSoC5/USBFS_episr.c ****         #if defined(USBFS_ENABLE_MIDI_STREAMING) && (USBFS_ENABLE_MIDI_API != 0u) && \
 161:.\Generated_Source\PSoC5/USBFS_episr.c ****             (USBFS_EP_MM == USBFS__EP_DMAAUTO) && (CY_PSOC3)
 162:.\Generated_Source\PSoC5/USBFS_episr.c ****             int_en = EA;
 163:.\Generated_Source\PSoC5/USBFS_episr.c ****             CyGlobalIntEnable;  /* Make sure nested interrupt is enabled */
 164:.\Generated_Source\PSoC5/USBFS_episr.c ****         #endif /* CY_PSOC3 & ENABLE_MIDI_STREAMING */
 165:.\Generated_Source\PSoC5/USBFS_episr.c **** 
 166:.\Generated_Source\PSoC5/USBFS_episr.c ****         CY_GET_REG8(USBFS_SIE_EP2_CR0_PTR); /* Must read the mode reg */
 102              		.loc 1 166 0
 103 0008 0E4B     		ldr	r3, .L7
 104 000a 1B78     		ldrb	r3, [r3]
 167:.\Generated_Source\PSoC5/USBFS_episr.c ****         /* Do not toggle ISOC endpoint */
 168:.\Generated_Source\PSoC5/USBFS_episr.c ****         if((USBFS_EP[USBFS_EP2].attrib & USBFS_EP_TYPE_MASK) !=
 105              		.loc 1 168 0
 106 000c 0E4B     		ldr	r3, .L7+4
 107 000e 1B7E     		ldrb	r3, [r3, #24]
 108 0010 DBB2     		uxtb	r3, r3
 109 0012 03F00303 		and	r3, r3, #3
 110 0016 012B     		cmp	r3, #1
 111 0018 08D0     		beq	.L6
 169:.\Generated_Source\PSoC5/USBFS_episr.c ****                                                                                     USBFS_EP_TYPE_I
 170:.\Generated_Source\PSoC5/USBFS_episr.c ****         {
 171:.\Generated_Source\PSoC5/USBFS_episr.c ****             USBFS_EP[USBFS_EP2].epToggle ^= USBFS_EPX_CNT_DATA_TOGGLE;
 112              		.loc 1 171 0
 113 001a 0B4B     		ldr	r3, .L7+4
 114 001c DB7E     		ldrb	r3, [r3, #27]
ARM GAS  C:\USERS\LUKAS\APPDATA\LOCAL\TEMP\ccfjovFM.s 			page 6


 115 001e DBB2     		uxtb	r3, r3
 116 0020 83F07F03 		eor	r3, r3, #127
 117 0024 DB43     		mvns	r3, r3
 118 0026 DAB2     		uxtb	r2, r3
 119 0028 074B     		ldr	r3, .L7+4
 120 002a DA76     		strb	r2, [r3, #27]
 121              	.L6:
 172:.\Generated_Source\PSoC5/USBFS_episr.c ****         }
 173:.\Generated_Source\PSoC5/USBFS_episr.c ****         USBFS_EP[USBFS_EP2].apiEpState = USBFS_EVENT_PENDING;
 122              		.loc 1 173 0
 123 002c 064B     		ldr	r3, .L7+4
 124 002e 0122     		movs	r2, #1
 125 0030 5A76     		strb	r2, [r3, #25]
 174:.\Generated_Source\PSoC5/USBFS_episr.c ****         CY_SET_REG8(USBFS_SIE_EP_INT_SR_PTR, CY_GET_REG8(USBFS_SIE_EP_INT_SR_PTR)
 126              		.loc 1 174 0
 127 0032 064A     		ldr	r2, .L7+8
 128 0034 054B     		ldr	r3, .L7+8
 129 0036 1B78     		ldrb	r3, [r3]
 130 0038 DBB2     		uxtb	r3, r3
 131 003a 23F00203 		bic	r3, r3, #2
 132 003e DBB2     		uxtb	r3, r3
 133 0040 1370     		strb	r3, [r2]
 175:.\Generated_Source\PSoC5/USBFS_episr.c ****                                                                         & ~USBFS_SIE_EP_INT_EP2_MAS
 176:.\Generated_Source\PSoC5/USBFS_episr.c **** 
 177:.\Generated_Source\PSoC5/USBFS_episr.c ****         #if defined(USBFS_ENABLE_MIDI_STREAMING) && (USBFS_ENABLE_MIDI_API != 0u) && \
 178:.\Generated_Source\PSoC5/USBFS_episr.c ****             (USBFS_EP_MM == USBFS__EP_DMAAUTO)
 179:.\Generated_Source\PSoC5/USBFS_episr.c ****             if(USBFS_midi_out_ep == USBFS_EP2)
 180:.\Generated_Source\PSoC5/USBFS_episr.c ****             {
 181:.\Generated_Source\PSoC5/USBFS_episr.c ****                 USBFS_MIDI_OUT_EP_Service();
 182:.\Generated_Source\PSoC5/USBFS_episr.c ****             }   
 183:.\Generated_Source\PSoC5/USBFS_episr.c ****         #endif /* End USBFS_ENABLE_MIDI_STREAMING*/
 184:.\Generated_Source\PSoC5/USBFS_episr.c **** 
 185:.\Generated_Source\PSoC5/USBFS_episr.c ****         /* `#START EP2_END_USER_CODE` Place your code here */
 186:.\Generated_Source\PSoC5/USBFS_episr.c **** 
 187:.\Generated_Source\PSoC5/USBFS_episr.c ****         /* `#END` */
 188:.\Generated_Source\PSoC5/USBFS_episr.c **** 
 189:.\Generated_Source\PSoC5/USBFS_episr.c ****         #if defined(USBFS_ENABLE_MIDI_STREAMING) && (USBFS_ENABLE_MIDI_API != 0u) && \
 190:.\Generated_Source\PSoC5/USBFS_episr.c ****             (USBFS_EP_MM == USBFS__EP_DMAAUTO) && (CY_PSOC3)
 191:.\Generated_Source\PSoC5/USBFS_episr.c ****             EA = int_en;
 192:.\Generated_Source\PSoC5/USBFS_episr.c ****         #endif /* CY_PSOC3 & ENABLE_MIDI_STREAMING */
 193:.\Generated_Source\PSoC5/USBFS_episr.c ****     }
 134              		.loc 1 193 0
 135 0042 80BD     		pop	{r7, pc}
 136              	.L8:
 137              		.align	2
 138              	.L7:
 139 0044 1E600040 		.word	1073766430
 140 0048 00000000 		.word	USBFS_EP
 141 004c 0B600040 		.word	1073766411
 142              		.cfi_endproc
 143              	.LFE57:
 144              		.size	USBFS_EP_2_ISR, .-USBFS_EP_2_ISR
 145              		.section	.text.USBFS_EP_4_ISR,"ax",%progbits
 146              		.align	2
 147              		.global	USBFS_EP_4_ISR
 148              		.thumb
 149              		.thumb_func
ARM GAS  C:\USERS\LUKAS\APPDATA\LOCAL\TEMP\ccfjovFM.s 			page 7


 150              		.type	USBFS_EP_4_ISR, %function
 151              	USBFS_EP_4_ISR:
 152              	.LFB58:
 194:.\Generated_Source\PSoC5/USBFS_episr.c **** 
 195:.\Generated_Source\PSoC5/USBFS_episr.c **** #endif   /* End USBFS_EP2_ISR_REMOVE */
 196:.\Generated_Source\PSoC5/USBFS_episr.c **** 
 197:.\Generated_Source\PSoC5/USBFS_episr.c **** 
 198:.\Generated_Source\PSoC5/USBFS_episr.c **** #if(USBFS_EP3_ISR_REMOVE == 0u)
 199:.\Generated_Source\PSoC5/USBFS_episr.c **** 
 200:.\Generated_Source\PSoC5/USBFS_episr.c ****     /*******************************************************************************
 201:.\Generated_Source\PSoC5/USBFS_episr.c ****     * Function Name: USBFS_EP_3_ISR
 202:.\Generated_Source\PSoC5/USBFS_episr.c ****     ********************************************************************************
 203:.\Generated_Source\PSoC5/USBFS_episr.c ****     *
 204:.\Generated_Source\PSoC5/USBFS_episr.c ****     * Summary:
 205:.\Generated_Source\PSoC5/USBFS_episr.c ****     *  Endpoint 3 Interrupt Service Routine
 206:.\Generated_Source\PSoC5/USBFS_episr.c ****     *
 207:.\Generated_Source\PSoC5/USBFS_episr.c ****     * Parameters:
 208:.\Generated_Source\PSoC5/USBFS_episr.c ****     *  None.
 209:.\Generated_Source\PSoC5/USBFS_episr.c ****     *
 210:.\Generated_Source\PSoC5/USBFS_episr.c ****     * Return:
 211:.\Generated_Source\PSoC5/USBFS_episr.c ****     *  None.
 212:.\Generated_Source\PSoC5/USBFS_episr.c ****     *
 213:.\Generated_Source\PSoC5/USBFS_episr.c ****     *******************************************************************************/
 214:.\Generated_Source\PSoC5/USBFS_episr.c ****     CY_ISR(USBFS_EP_3_ISR)
 215:.\Generated_Source\PSoC5/USBFS_episr.c ****     {
 216:.\Generated_Source\PSoC5/USBFS_episr.c ****         #if defined(USBFS_ENABLE_MIDI_STREAMING) && (USBFS_ENABLE_MIDI_API != 0u) && \
 217:.\Generated_Source\PSoC5/USBFS_episr.c ****             (USBFS_EP_MM == USBFS__EP_DMAAUTO) && (CY_PSOC3)
 218:.\Generated_Source\PSoC5/USBFS_episr.c ****             uint8 int_en;
 219:.\Generated_Source\PSoC5/USBFS_episr.c ****         #endif /* CY_PSOC3 & ENABLE_MIDI_STREAMING */
 220:.\Generated_Source\PSoC5/USBFS_episr.c ****     
 221:.\Generated_Source\PSoC5/USBFS_episr.c ****         /* `#START EP3_USER_CODE` Place your code here */
 222:.\Generated_Source\PSoC5/USBFS_episr.c **** 
 223:.\Generated_Source\PSoC5/USBFS_episr.c ****         /* `#END` */
 224:.\Generated_Source\PSoC5/USBFS_episr.c **** 
 225:.\Generated_Source\PSoC5/USBFS_episr.c ****         #if defined(USBFS_ENABLE_MIDI_STREAMING) && (USBFS_ENABLE_MIDI_API != 0u) && \
 226:.\Generated_Source\PSoC5/USBFS_episr.c ****             (USBFS_EP_MM == USBFS__EP_DMAAUTO) && (CY_PSOC3)
 227:.\Generated_Source\PSoC5/USBFS_episr.c ****             int_en = EA;
 228:.\Generated_Source\PSoC5/USBFS_episr.c ****             CyGlobalIntEnable;  /* Make sure nested interrupt is enabled */
 229:.\Generated_Source\PSoC5/USBFS_episr.c ****         #endif /* CY_PSOC3 & ENABLE_MIDI_STREAMING */
 230:.\Generated_Source\PSoC5/USBFS_episr.c **** 
 231:.\Generated_Source\PSoC5/USBFS_episr.c ****         CY_GET_REG8(USBFS_SIE_EP3_CR0_PTR); /* Must read the mode reg */
 232:.\Generated_Source\PSoC5/USBFS_episr.c ****         /* Do not toggle ISOC endpoint */
 233:.\Generated_Source\PSoC5/USBFS_episr.c ****         if((USBFS_EP[USBFS_EP3].attrib & USBFS_EP_TYPE_MASK) !=
 234:.\Generated_Source\PSoC5/USBFS_episr.c ****                                                                                     USBFS_EP_TYPE_I
 235:.\Generated_Source\PSoC5/USBFS_episr.c ****         {
 236:.\Generated_Source\PSoC5/USBFS_episr.c ****             USBFS_EP[USBFS_EP3].epToggle ^= USBFS_EPX_CNT_DATA_TOGGLE;
 237:.\Generated_Source\PSoC5/USBFS_episr.c ****         }
 238:.\Generated_Source\PSoC5/USBFS_episr.c ****         USBFS_EP[USBFS_EP3].apiEpState = USBFS_EVENT_PENDING;
 239:.\Generated_Source\PSoC5/USBFS_episr.c ****         CY_SET_REG8(USBFS_SIE_EP_INT_SR_PTR, CY_GET_REG8(USBFS_SIE_EP_INT_SR_PTR)
 240:.\Generated_Source\PSoC5/USBFS_episr.c ****                                                                         & ~USBFS_SIE_EP_INT_EP3_MAS
 241:.\Generated_Source\PSoC5/USBFS_episr.c **** 
 242:.\Generated_Source\PSoC5/USBFS_episr.c ****         #if defined(USBFS_ENABLE_MIDI_STREAMING) && (USBFS_ENABLE_MIDI_API != 0u) && \
 243:.\Generated_Source\PSoC5/USBFS_episr.c ****             (USBFS_EP_MM == USBFS__EP_DMAAUTO) 
 244:.\Generated_Source\PSoC5/USBFS_episr.c ****             if(USBFS_midi_out_ep == USBFS_EP3)
 245:.\Generated_Source\PSoC5/USBFS_episr.c ****             {
 246:.\Generated_Source\PSoC5/USBFS_episr.c ****                 USBFS_MIDI_OUT_EP_Service();
 247:.\Generated_Source\PSoC5/USBFS_episr.c ****             }   
ARM GAS  C:\USERS\LUKAS\APPDATA\LOCAL\TEMP\ccfjovFM.s 			page 8


 248:.\Generated_Source\PSoC5/USBFS_episr.c ****         #endif /* End USBFS_ENABLE_MIDI_STREAMING*/
 249:.\Generated_Source\PSoC5/USBFS_episr.c **** 
 250:.\Generated_Source\PSoC5/USBFS_episr.c ****         /* `#START EP3_END_USER_CODE` Place your code here */
 251:.\Generated_Source\PSoC5/USBFS_episr.c **** 
 252:.\Generated_Source\PSoC5/USBFS_episr.c ****         /* `#END` */
 253:.\Generated_Source\PSoC5/USBFS_episr.c **** 
 254:.\Generated_Source\PSoC5/USBFS_episr.c ****         #if defined(USBFS_ENABLE_MIDI_STREAMING) && (USBFS_ENABLE_MIDI_API != 0u) && \
 255:.\Generated_Source\PSoC5/USBFS_episr.c ****             (USBFS_EP_MM == USBFS__EP_DMAAUTO) && (CY_PSOC3)
 256:.\Generated_Source\PSoC5/USBFS_episr.c ****             EA = int_en;
 257:.\Generated_Source\PSoC5/USBFS_episr.c ****         #endif /* CY_PSOC3 & ENABLE_MIDI_STREAMING */
 258:.\Generated_Source\PSoC5/USBFS_episr.c ****     }
 259:.\Generated_Source\PSoC5/USBFS_episr.c **** 
 260:.\Generated_Source\PSoC5/USBFS_episr.c **** #endif   /* End USBFS_EP3_ISR_REMOVE */
 261:.\Generated_Source\PSoC5/USBFS_episr.c **** 
 262:.\Generated_Source\PSoC5/USBFS_episr.c **** 
 263:.\Generated_Source\PSoC5/USBFS_episr.c **** #if(USBFS_EP4_ISR_REMOVE == 0u)
 264:.\Generated_Source\PSoC5/USBFS_episr.c **** 
 265:.\Generated_Source\PSoC5/USBFS_episr.c ****     /*******************************************************************************
 266:.\Generated_Source\PSoC5/USBFS_episr.c ****     * Function Name: USBFS_EP_4_ISR
 267:.\Generated_Source\PSoC5/USBFS_episr.c ****     ********************************************************************************
 268:.\Generated_Source\PSoC5/USBFS_episr.c ****     *
 269:.\Generated_Source\PSoC5/USBFS_episr.c ****     * Summary:
 270:.\Generated_Source\PSoC5/USBFS_episr.c ****     *  Endpoint 4 Interrupt Service Routine
 271:.\Generated_Source\PSoC5/USBFS_episr.c ****     *
 272:.\Generated_Source\PSoC5/USBFS_episr.c ****     * Parameters:
 273:.\Generated_Source\PSoC5/USBFS_episr.c ****     *  None.
 274:.\Generated_Source\PSoC5/USBFS_episr.c ****     *
 275:.\Generated_Source\PSoC5/USBFS_episr.c ****     * Return:
 276:.\Generated_Source\PSoC5/USBFS_episr.c ****     *  None.
 277:.\Generated_Source\PSoC5/USBFS_episr.c ****     *
 278:.\Generated_Source\PSoC5/USBFS_episr.c ****     *******************************************************************************/
 279:.\Generated_Source\PSoC5/USBFS_episr.c ****     CY_ISR(USBFS_EP_4_ISR)
 280:.\Generated_Source\PSoC5/USBFS_episr.c ****     {
 153              		.loc 1 280 0
 154              		.cfi_startproc
 155              		@ args = 0, pretend = 0, frame = 0
 156              		@ frame_needed = 1, uses_anonymous_args = 0
 157              		@ link register save eliminated.
 158 0000 80B4     		push	{r7}
 159              		.cfi_def_cfa_offset 4
 160              		.cfi_offset 7, -4
 161 0002 00AF     		add	r7, sp, #0
 162              		.cfi_def_cfa_register 7
 281:.\Generated_Source\PSoC5/USBFS_episr.c ****         #if defined(USBFS_ENABLE_MIDI_STREAMING) && (USBFS_ENABLE_MIDI_API != 0u) && \
 282:.\Generated_Source\PSoC5/USBFS_episr.c ****             (USBFS_EP_MM == USBFS__EP_DMAAUTO) && (CY_PSOC3)
 283:.\Generated_Source\PSoC5/USBFS_episr.c ****             uint8 int_en;
 284:.\Generated_Source\PSoC5/USBFS_episr.c ****         #endif /* CY_PSOC3 & ENABLE_MIDI_STREAMING */
 285:.\Generated_Source\PSoC5/USBFS_episr.c ****     
 286:.\Generated_Source\PSoC5/USBFS_episr.c ****         /* `#START EP4_USER_CODE` Place your code here */
 287:.\Generated_Source\PSoC5/USBFS_episr.c **** 
 288:.\Generated_Source\PSoC5/USBFS_episr.c ****         /* `#END` */
 289:.\Generated_Source\PSoC5/USBFS_episr.c **** 
 290:.\Generated_Source\PSoC5/USBFS_episr.c ****         #if defined(USBFS_ENABLE_MIDI_STREAMING) && (USBFS_ENABLE_MIDI_API != 0u) && \
 291:.\Generated_Source\PSoC5/USBFS_episr.c ****             (USBFS_EP_MM == USBFS__EP_DMAAUTO) && (CY_PSOC3)
 292:.\Generated_Source\PSoC5/USBFS_episr.c ****             int_en = EA;
 293:.\Generated_Source\PSoC5/USBFS_episr.c ****             CyGlobalIntEnable;  /* Make sure nested interrupt is enabled */
 294:.\Generated_Source\PSoC5/USBFS_episr.c ****         #endif /* CY_PSOC3 & ENABLE_MIDI_STREAMING */
ARM GAS  C:\USERS\LUKAS\APPDATA\LOCAL\TEMP\ccfjovFM.s 			page 9


 295:.\Generated_Source\PSoC5/USBFS_episr.c **** 
 296:.\Generated_Source\PSoC5/USBFS_episr.c ****         CY_GET_REG8(USBFS_SIE_EP4_CR0_PTR); /* Must read the mode reg */
 163              		.loc 1 296 0
 164 0004 124B     		ldr	r3, .L11
 165 0006 1B78     		ldrb	r3, [r3]
 297:.\Generated_Source\PSoC5/USBFS_episr.c ****         /* Do not toggle ISOC endpoint */
 298:.\Generated_Source\PSoC5/USBFS_episr.c ****         if((USBFS_EP[USBFS_EP4].attrib & USBFS_EP_TYPE_MASK) !=
 166              		.loc 1 298 0
 167 0008 124B     		ldr	r3, .L11+4
 168 000a 93F83030 		ldrb	r3, [r3, #48]
 169 000e DBB2     		uxtb	r3, r3
 170 0010 03F00303 		and	r3, r3, #3
 171 0014 012B     		cmp	r3, #1
 172 0016 0AD0     		beq	.L10
 299:.\Generated_Source\PSoC5/USBFS_episr.c ****                                                                                     USBFS_EP_TYPE_I
 300:.\Generated_Source\PSoC5/USBFS_episr.c ****         {
 301:.\Generated_Source\PSoC5/USBFS_episr.c ****             USBFS_EP[USBFS_EP4].epToggle ^= USBFS_EPX_CNT_DATA_TOGGLE;
 173              		.loc 1 301 0
 174 0018 0E4B     		ldr	r3, .L11+4
 175 001a 93F83330 		ldrb	r3, [r3, #51]
 176 001e DBB2     		uxtb	r3, r3
 177 0020 83F07F03 		eor	r3, r3, #127
 178 0024 DB43     		mvns	r3, r3
 179 0026 DAB2     		uxtb	r2, r3
 180 0028 0A4B     		ldr	r3, .L11+4
 181 002a 83F83320 		strb	r2, [r3, #51]
 182              	.L10:
 302:.\Generated_Source\PSoC5/USBFS_episr.c ****         }
 303:.\Generated_Source\PSoC5/USBFS_episr.c ****         USBFS_EP[USBFS_EP4].apiEpState = USBFS_EVENT_PENDING;
 183              		.loc 1 303 0
 184 002e 094B     		ldr	r3, .L11+4
 185 0030 0122     		movs	r2, #1
 186 0032 83F83120 		strb	r2, [r3, #49]
 304:.\Generated_Source\PSoC5/USBFS_episr.c ****         CY_SET_REG8(USBFS_SIE_EP_INT_SR_PTR, CY_GET_REG8(USBFS_SIE_EP_INT_SR_PTR)
 187              		.loc 1 304 0
 188 0036 084A     		ldr	r2, .L11+8
 189 0038 074B     		ldr	r3, .L11+8
 190 003a 1B78     		ldrb	r3, [r3]
 191 003c DBB2     		uxtb	r3, r3
 192 003e 23F00803 		bic	r3, r3, #8
 193 0042 DBB2     		uxtb	r3, r3
 194 0044 1370     		strb	r3, [r2]
 305:.\Generated_Source\PSoC5/USBFS_episr.c ****                                                                         & ~USBFS_SIE_EP_INT_EP4_MAS
 306:.\Generated_Source\PSoC5/USBFS_episr.c **** 
 307:.\Generated_Source\PSoC5/USBFS_episr.c ****         #if defined(USBFS_ENABLE_MIDI_STREAMING) && (USBFS_ENABLE_MIDI_API != 0u) && \
 308:.\Generated_Source\PSoC5/USBFS_episr.c ****             (USBFS_EP_MM == USBFS__EP_DMAAUTO) 
 309:.\Generated_Source\PSoC5/USBFS_episr.c ****             if(USBFS_midi_out_ep == USBFS_EP4)
 310:.\Generated_Source\PSoC5/USBFS_episr.c ****             {
 311:.\Generated_Source\PSoC5/USBFS_episr.c ****                 USBFS_MIDI_OUT_EP_Service();
 312:.\Generated_Source\PSoC5/USBFS_episr.c ****             }   
 313:.\Generated_Source\PSoC5/USBFS_episr.c ****         #endif /* End USBFS_ENABLE_MIDI_STREAMING*/
 314:.\Generated_Source\PSoC5/USBFS_episr.c **** 
 315:.\Generated_Source\PSoC5/USBFS_episr.c ****         /* `#START EP4_END_USER_CODE` Place your code here */
 316:.\Generated_Source\PSoC5/USBFS_episr.c **** 
 317:.\Generated_Source\PSoC5/USBFS_episr.c ****         /* `#END` */
 318:.\Generated_Source\PSoC5/USBFS_episr.c **** 
 319:.\Generated_Source\PSoC5/USBFS_episr.c ****         #if defined(USBFS_ENABLE_MIDI_STREAMING) && (USBFS_ENABLE_MIDI_API != 0u) && \
ARM GAS  C:\USERS\LUKAS\APPDATA\LOCAL\TEMP\ccfjovFM.s 			page 10


 320:.\Generated_Source\PSoC5/USBFS_episr.c ****             (USBFS_EP_MM == USBFS__EP_DMAAUTO) && (CY_PSOC3)
 321:.\Generated_Source\PSoC5/USBFS_episr.c ****             EA = int_en;
 322:.\Generated_Source\PSoC5/USBFS_episr.c ****         #endif /* CY_PSOC3 & ENABLE_MIDI_STREAMING */
 323:.\Generated_Source\PSoC5/USBFS_episr.c ****     }
 195              		.loc 1 323 0
 196 0046 BD46     		mov	sp, r7
 197              		.cfi_def_cfa_register 13
 198              		@ sp needed
 199 0048 5DF8047B 		ldr	r7, [sp], #4
 200              		.cfi_restore 7
 201              		.cfi_def_cfa_offset 0
 202 004c 7047     		bx	lr
 203              	.L12:
 204 004e 00BF     		.align	2
 205              	.L11:
 206 0050 3E600040 		.word	1073766462
 207 0054 00000000 		.word	USBFS_EP
 208 0058 0B600040 		.word	1073766411
 209              		.cfi_endproc
 210              	.LFE58:
 211              		.size	USBFS_EP_4_ISR, .-USBFS_EP_4_ISR
 212              		.section	.text.USBFS_EP_6_ISR,"ax",%progbits
 213              		.align	2
 214              		.global	USBFS_EP_6_ISR
 215              		.thumb
 216              		.thumb_func
 217              		.type	USBFS_EP_6_ISR, %function
 218              	USBFS_EP_6_ISR:
 219              	.LFB59:
 324:.\Generated_Source\PSoC5/USBFS_episr.c **** 
 325:.\Generated_Source\PSoC5/USBFS_episr.c **** #endif   /* End USBFS_EP4_ISR_REMOVE */
 326:.\Generated_Source\PSoC5/USBFS_episr.c **** 
 327:.\Generated_Source\PSoC5/USBFS_episr.c **** 
 328:.\Generated_Source\PSoC5/USBFS_episr.c **** #if(USBFS_EP5_ISR_REMOVE == 0u)
 329:.\Generated_Source\PSoC5/USBFS_episr.c **** 
 330:.\Generated_Source\PSoC5/USBFS_episr.c ****     /*******************************************************************************
 331:.\Generated_Source\PSoC5/USBFS_episr.c ****     * Function Name: USBFS_EP_5_ISR
 332:.\Generated_Source\PSoC5/USBFS_episr.c ****     ********************************************************************************
 333:.\Generated_Source\PSoC5/USBFS_episr.c ****     *
 334:.\Generated_Source\PSoC5/USBFS_episr.c ****     * Summary:
 335:.\Generated_Source\PSoC5/USBFS_episr.c ****     *  Endpoint 5 Interrupt Service Routine
 336:.\Generated_Source\PSoC5/USBFS_episr.c ****     *
 337:.\Generated_Source\PSoC5/USBFS_episr.c ****     * Parameters:
 338:.\Generated_Source\PSoC5/USBFS_episr.c ****     *  None.
 339:.\Generated_Source\PSoC5/USBFS_episr.c ****     *
 340:.\Generated_Source\PSoC5/USBFS_episr.c ****     * Return:
 341:.\Generated_Source\PSoC5/USBFS_episr.c ****     *  None.
 342:.\Generated_Source\PSoC5/USBFS_episr.c ****     *
 343:.\Generated_Source\PSoC5/USBFS_episr.c ****     *******************************************************************************/
 344:.\Generated_Source\PSoC5/USBFS_episr.c ****     CY_ISR(USBFS_EP_5_ISR)
 345:.\Generated_Source\PSoC5/USBFS_episr.c ****     {
 346:.\Generated_Source\PSoC5/USBFS_episr.c ****         #if defined(USBFS_ENABLE_MIDI_STREAMING) && (USBFS_ENABLE_MIDI_API != 0u) && \
 347:.\Generated_Source\PSoC5/USBFS_episr.c ****             (USBFS_EP_MM == USBFS__EP_DMAAUTO) && (CY_PSOC3)
 348:.\Generated_Source\PSoC5/USBFS_episr.c ****             uint8 int_en;
 349:.\Generated_Source\PSoC5/USBFS_episr.c ****         #endif /* CY_PSOC3 & ENABLE_MIDI_STREAMING */
 350:.\Generated_Source\PSoC5/USBFS_episr.c ****     
 351:.\Generated_Source\PSoC5/USBFS_episr.c ****         /* `#START EP5_USER_CODE` Place your code here */
ARM GAS  C:\USERS\LUKAS\APPDATA\LOCAL\TEMP\ccfjovFM.s 			page 11


 352:.\Generated_Source\PSoC5/USBFS_episr.c **** 
 353:.\Generated_Source\PSoC5/USBFS_episr.c ****         /* `#END` */
 354:.\Generated_Source\PSoC5/USBFS_episr.c **** 
 355:.\Generated_Source\PSoC5/USBFS_episr.c ****         #if defined(USBFS_ENABLE_MIDI_STREAMING) && (USBFS_ENABLE_MIDI_API != 0u) && \
 356:.\Generated_Source\PSoC5/USBFS_episr.c ****             (USBFS_EP_MM == USBFS__EP_DMAAUTO) && (CY_PSOC3)
 357:.\Generated_Source\PSoC5/USBFS_episr.c ****             int_en = EA;
 358:.\Generated_Source\PSoC5/USBFS_episr.c ****             CyGlobalIntEnable;  /* Make sure nested interrupt is enabled */
 359:.\Generated_Source\PSoC5/USBFS_episr.c ****         #endif /* CY_PSOC3 & ENABLE_MIDI_STREAMING */
 360:.\Generated_Source\PSoC5/USBFS_episr.c **** 
 361:.\Generated_Source\PSoC5/USBFS_episr.c ****         CY_GET_REG8(USBFS_SIE_EP5_CR0_PTR); /* Must read the mode reg */
 362:.\Generated_Source\PSoC5/USBFS_episr.c ****         /* Do not toggle ISOC endpoint */
 363:.\Generated_Source\PSoC5/USBFS_episr.c ****         if((USBFS_EP[USBFS_EP5].attrib & USBFS_EP_TYPE_MASK) !=
 364:.\Generated_Source\PSoC5/USBFS_episr.c ****                                                                                     USBFS_EP_TYPE_I
 365:.\Generated_Source\PSoC5/USBFS_episr.c ****         {
 366:.\Generated_Source\PSoC5/USBFS_episr.c ****             USBFS_EP[USBFS_EP5].epToggle ^= USBFS_EPX_CNT_DATA_TOGGLE;
 367:.\Generated_Source\PSoC5/USBFS_episr.c ****         }
 368:.\Generated_Source\PSoC5/USBFS_episr.c ****         USBFS_EP[USBFS_EP5].apiEpState = USBFS_EVENT_PENDING;
 369:.\Generated_Source\PSoC5/USBFS_episr.c ****         CY_SET_REG8(USBFS_SIE_EP_INT_SR_PTR, CY_GET_REG8(USBFS_SIE_EP_INT_SR_PTR)
 370:.\Generated_Source\PSoC5/USBFS_episr.c ****                                                                         & ~USBFS_SIE_EP_INT_EP5_MAS
 371:.\Generated_Source\PSoC5/USBFS_episr.c **** 
 372:.\Generated_Source\PSoC5/USBFS_episr.c ****         #if defined(USBFS_ENABLE_MIDI_STREAMING) && (USBFS_ENABLE_MIDI_API != 0u) && \
 373:.\Generated_Source\PSoC5/USBFS_episr.c ****             (USBFS_EP_MM == USBFS__EP_DMAAUTO) 
 374:.\Generated_Source\PSoC5/USBFS_episr.c ****             if(USBFS_midi_out_ep == USBFS_EP5)
 375:.\Generated_Source\PSoC5/USBFS_episr.c ****             {
 376:.\Generated_Source\PSoC5/USBFS_episr.c ****                 USBFS_MIDI_OUT_EP_Service();
 377:.\Generated_Source\PSoC5/USBFS_episr.c ****             }   
 378:.\Generated_Source\PSoC5/USBFS_episr.c ****         #endif /* End USBFS_ENABLE_MIDI_STREAMING*/
 379:.\Generated_Source\PSoC5/USBFS_episr.c **** 
 380:.\Generated_Source\PSoC5/USBFS_episr.c ****         /* `#START EP5_END_USER_CODE` Place your code here */
 381:.\Generated_Source\PSoC5/USBFS_episr.c **** 
 382:.\Generated_Source\PSoC5/USBFS_episr.c ****         /* `#END` */
 383:.\Generated_Source\PSoC5/USBFS_episr.c **** 
 384:.\Generated_Source\PSoC5/USBFS_episr.c ****         #if defined(USBFS_ENABLE_MIDI_STREAMING) && (USBFS_ENABLE_MIDI_API != 0u) && \
 385:.\Generated_Source\PSoC5/USBFS_episr.c ****             (USBFS_EP_MM == USBFS__EP_DMAAUTO) && (CY_PSOC3)
 386:.\Generated_Source\PSoC5/USBFS_episr.c ****             EA = int_en;
 387:.\Generated_Source\PSoC5/USBFS_episr.c ****         #endif /* CY_PSOC3 & ENABLE_MIDI_STREAMING */
 388:.\Generated_Source\PSoC5/USBFS_episr.c ****     }
 389:.\Generated_Source\PSoC5/USBFS_episr.c **** #endif   /* End USBFS_EP5_ISR_REMOVE */
 390:.\Generated_Source\PSoC5/USBFS_episr.c **** 
 391:.\Generated_Source\PSoC5/USBFS_episr.c **** 
 392:.\Generated_Source\PSoC5/USBFS_episr.c **** #if(USBFS_EP6_ISR_REMOVE == 0u)
 393:.\Generated_Source\PSoC5/USBFS_episr.c **** 
 394:.\Generated_Source\PSoC5/USBFS_episr.c ****     /*******************************************************************************
 395:.\Generated_Source\PSoC5/USBFS_episr.c ****     * Function Name: USBFS_EP_6_ISR
 396:.\Generated_Source\PSoC5/USBFS_episr.c ****     ********************************************************************************
 397:.\Generated_Source\PSoC5/USBFS_episr.c ****     *
 398:.\Generated_Source\PSoC5/USBFS_episr.c ****     * Summary:
 399:.\Generated_Source\PSoC5/USBFS_episr.c ****     *  Endpoint 6 Interrupt Service Routine
 400:.\Generated_Source\PSoC5/USBFS_episr.c ****     *
 401:.\Generated_Source\PSoC5/USBFS_episr.c ****     * Parameters:
 402:.\Generated_Source\PSoC5/USBFS_episr.c ****     *  None.
 403:.\Generated_Source\PSoC5/USBFS_episr.c ****     *
 404:.\Generated_Source\PSoC5/USBFS_episr.c ****     * Return:
 405:.\Generated_Source\PSoC5/USBFS_episr.c ****     *  None.
 406:.\Generated_Source\PSoC5/USBFS_episr.c ****     *
 407:.\Generated_Source\PSoC5/USBFS_episr.c ****     *******************************************************************************/
 408:.\Generated_Source\PSoC5/USBFS_episr.c ****     CY_ISR(USBFS_EP_6_ISR)
ARM GAS  C:\USERS\LUKAS\APPDATA\LOCAL\TEMP\ccfjovFM.s 			page 12


 409:.\Generated_Source\PSoC5/USBFS_episr.c ****     {
 220              		.loc 1 409 0
 221              		.cfi_startproc
 222              		@ args = 0, pretend = 0, frame = 0
 223              		@ frame_needed = 1, uses_anonymous_args = 0
 224              		@ link register save eliminated.
 225 0000 80B4     		push	{r7}
 226              		.cfi_def_cfa_offset 4
 227              		.cfi_offset 7, -4
 228 0002 00AF     		add	r7, sp, #0
 229              		.cfi_def_cfa_register 7
 410:.\Generated_Source\PSoC5/USBFS_episr.c ****         #if defined(USBFS_ENABLE_MIDI_STREAMING) && (USBFS_ENABLE_MIDI_API != 0u) && \
 411:.\Generated_Source\PSoC5/USBFS_episr.c ****             (USBFS_EP_MM == USBFS__EP_DMAAUTO) && (CY_PSOC3)
 412:.\Generated_Source\PSoC5/USBFS_episr.c ****             uint8 int_en;
 413:.\Generated_Source\PSoC5/USBFS_episr.c ****         #endif /* CY_PSOC3 & ENABLE_MIDI_STREAMING */
 414:.\Generated_Source\PSoC5/USBFS_episr.c ****     
 415:.\Generated_Source\PSoC5/USBFS_episr.c ****         /* `#START EP6_USER_CODE` Place your code here */
 416:.\Generated_Source\PSoC5/USBFS_episr.c **** 
 417:.\Generated_Source\PSoC5/USBFS_episr.c ****         /* `#END` */
 418:.\Generated_Source\PSoC5/USBFS_episr.c **** 
 419:.\Generated_Source\PSoC5/USBFS_episr.c ****         #if defined(USBFS_ENABLE_MIDI_STREAMING) && (USBFS_ENABLE_MIDI_API != 0u) && \
 420:.\Generated_Source\PSoC5/USBFS_episr.c ****             (USBFS_EP_MM == USBFS__EP_DMAAUTO) && (CY_PSOC3)
 421:.\Generated_Source\PSoC5/USBFS_episr.c ****             int_en = EA;
 422:.\Generated_Source\PSoC5/USBFS_episr.c ****             CyGlobalIntEnable;  /* Make sure nested interrupt is enabled */
 423:.\Generated_Source\PSoC5/USBFS_episr.c ****         #endif /* CY_PSOC3 & ENABLE_MIDI_STREAMING */
 424:.\Generated_Source\PSoC5/USBFS_episr.c **** 
 425:.\Generated_Source\PSoC5/USBFS_episr.c ****         CY_GET_REG8(USBFS_SIE_EP6_CR0_PTR); /* Must read the mode reg */
 230              		.loc 1 425 0
 231 0004 124B     		ldr	r3, .L15
 232 0006 1B78     		ldrb	r3, [r3]
 426:.\Generated_Source\PSoC5/USBFS_episr.c ****         /* Do not toggle ISOC endpoint */
 427:.\Generated_Source\PSoC5/USBFS_episr.c ****         if((USBFS_EP[USBFS_EP6].attrib & USBFS_EP_TYPE_MASK) !=
 233              		.loc 1 427 0
 234 0008 124B     		ldr	r3, .L15+4
 235 000a 93F84830 		ldrb	r3, [r3, #72]
 236 000e DBB2     		uxtb	r3, r3
 237 0010 03F00303 		and	r3, r3, #3
 238 0014 012B     		cmp	r3, #1
 239 0016 0AD0     		beq	.L14
 428:.\Generated_Source\PSoC5/USBFS_episr.c ****                                                                                     USBFS_EP_TYPE_I
 429:.\Generated_Source\PSoC5/USBFS_episr.c ****         {
 430:.\Generated_Source\PSoC5/USBFS_episr.c ****             USBFS_EP[USBFS_EP6].epToggle ^= USBFS_EPX_CNT_DATA_TOGGLE;
 240              		.loc 1 430 0
 241 0018 0E4B     		ldr	r3, .L15+4
 242 001a 93F84B30 		ldrb	r3, [r3, #75]
 243 001e DBB2     		uxtb	r3, r3
 244 0020 83F07F03 		eor	r3, r3, #127
 245 0024 DB43     		mvns	r3, r3
 246 0026 DAB2     		uxtb	r2, r3
 247 0028 0A4B     		ldr	r3, .L15+4
 248 002a 83F84B20 		strb	r2, [r3, #75]
 249              	.L14:
 431:.\Generated_Source\PSoC5/USBFS_episr.c ****         }
 432:.\Generated_Source\PSoC5/USBFS_episr.c ****         USBFS_EP[USBFS_EP6].apiEpState = USBFS_EVENT_PENDING;
 250              		.loc 1 432 0
 251 002e 094B     		ldr	r3, .L15+4
 252 0030 0122     		movs	r2, #1
ARM GAS  C:\USERS\LUKAS\APPDATA\LOCAL\TEMP\ccfjovFM.s 			page 13


 253 0032 83F84920 		strb	r2, [r3, #73]
 433:.\Generated_Source\PSoC5/USBFS_episr.c ****         CY_SET_REG8(USBFS_SIE_EP_INT_SR_PTR, CY_GET_REG8(USBFS_SIE_EP_INT_SR_PTR)
 254              		.loc 1 433 0
 255 0036 084A     		ldr	r2, .L15+8
 256 0038 074B     		ldr	r3, .L15+8
 257 003a 1B78     		ldrb	r3, [r3]
 258 003c DBB2     		uxtb	r3, r3
 259 003e 23F02003 		bic	r3, r3, #32
 260 0042 DBB2     		uxtb	r3, r3
 261 0044 1370     		strb	r3, [r2]
 434:.\Generated_Source\PSoC5/USBFS_episr.c ****                                                                         & ~USBFS_SIE_EP_INT_EP6_MAS
 435:.\Generated_Source\PSoC5/USBFS_episr.c **** 
 436:.\Generated_Source\PSoC5/USBFS_episr.c ****         #if defined(USBFS_ENABLE_MIDI_STREAMING) && (USBFS_ENABLE_MIDI_API != 0u) && \
 437:.\Generated_Source\PSoC5/USBFS_episr.c ****             (USBFS_EP_MM == USBFS__EP_DMAAUTO) 
 438:.\Generated_Source\PSoC5/USBFS_episr.c ****             if(USBFS_midi_out_ep == USBFS_EP6)
 439:.\Generated_Source\PSoC5/USBFS_episr.c ****             {
 440:.\Generated_Source\PSoC5/USBFS_episr.c ****                 USBFS_MIDI_OUT_EP_Service();
 441:.\Generated_Source\PSoC5/USBFS_episr.c ****             }   
 442:.\Generated_Source\PSoC5/USBFS_episr.c ****         #endif /* End USBFS_ENABLE_MIDI_STREAMING*/
 443:.\Generated_Source\PSoC5/USBFS_episr.c **** 
 444:.\Generated_Source\PSoC5/USBFS_episr.c ****         /* `#START EP6_END_USER_CODE` Place your code here */
 445:.\Generated_Source\PSoC5/USBFS_episr.c **** 
 446:.\Generated_Source\PSoC5/USBFS_episr.c ****         /* `#END` */
 447:.\Generated_Source\PSoC5/USBFS_episr.c **** 
 448:.\Generated_Source\PSoC5/USBFS_episr.c ****         #if defined(USBFS_ENABLE_MIDI_STREAMING) && (USBFS_ENABLE_MIDI_API != 0u) && \
 449:.\Generated_Source\PSoC5/USBFS_episr.c ****             (USBFS_EP_MM == USBFS__EP_DMAAUTO) && (CY_PSOC3)
 450:.\Generated_Source\PSoC5/USBFS_episr.c ****             EA = int_en;
 451:.\Generated_Source\PSoC5/USBFS_episr.c ****         #endif /* CY_PSOC3 & ENABLE_MIDI_STREAMING */
 452:.\Generated_Source\PSoC5/USBFS_episr.c ****     }
 262              		.loc 1 452 0
 263 0046 BD46     		mov	sp, r7
 264              		.cfi_def_cfa_register 13
 265              		@ sp needed
 266 0048 5DF8047B 		ldr	r7, [sp], #4
 267              		.cfi_restore 7
 268              		.cfi_def_cfa_offset 0
 269 004c 7047     		bx	lr
 270              	.L16:
 271 004e 00BF     		.align	2
 272              	.L15:
 273 0050 5E600040 		.word	1073766494
 274 0054 00000000 		.word	USBFS_EP
 275 0058 0B600040 		.word	1073766411
 276              		.cfi_endproc
 277              	.LFE59:
 278              		.size	USBFS_EP_6_ISR, .-USBFS_EP_6_ISR
 279              		.section	.text.USBFS_SOF_ISR,"ax",%progbits
 280              		.align	2
 281              		.global	USBFS_SOF_ISR
 282              		.thumb
 283              		.thumb_func
 284              		.type	USBFS_SOF_ISR, %function
 285              	USBFS_SOF_ISR:
 286              	.LFB60:
 453:.\Generated_Source\PSoC5/USBFS_episr.c **** 
 454:.\Generated_Source\PSoC5/USBFS_episr.c **** #endif   /* End USBFS_EP6_ISR_REMOVE */
 455:.\Generated_Source\PSoC5/USBFS_episr.c **** 
ARM GAS  C:\USERS\LUKAS\APPDATA\LOCAL\TEMP\ccfjovFM.s 			page 14


 456:.\Generated_Source\PSoC5/USBFS_episr.c **** 
 457:.\Generated_Source\PSoC5/USBFS_episr.c **** #if(USBFS_EP7_ISR_REMOVE == 0u)
 458:.\Generated_Source\PSoC5/USBFS_episr.c **** 
 459:.\Generated_Source\PSoC5/USBFS_episr.c ****     /*******************************************************************************
 460:.\Generated_Source\PSoC5/USBFS_episr.c ****     * Function Name: USBFS_EP_7_ISR
 461:.\Generated_Source\PSoC5/USBFS_episr.c ****     ********************************************************************************
 462:.\Generated_Source\PSoC5/USBFS_episr.c ****     *
 463:.\Generated_Source\PSoC5/USBFS_episr.c ****     * Summary:
 464:.\Generated_Source\PSoC5/USBFS_episr.c ****     *  Endpoint 7 Interrupt Service Routine
 465:.\Generated_Source\PSoC5/USBFS_episr.c ****     *
 466:.\Generated_Source\PSoC5/USBFS_episr.c ****     * Parameters:
 467:.\Generated_Source\PSoC5/USBFS_episr.c ****     *  None.
 468:.\Generated_Source\PSoC5/USBFS_episr.c ****     *
 469:.\Generated_Source\PSoC5/USBFS_episr.c ****     * Return:
 470:.\Generated_Source\PSoC5/USBFS_episr.c ****     *  None.
 471:.\Generated_Source\PSoC5/USBFS_episr.c ****     *
 472:.\Generated_Source\PSoC5/USBFS_episr.c ****     *******************************************************************************/
 473:.\Generated_Source\PSoC5/USBFS_episr.c ****     CY_ISR(USBFS_EP_7_ISR)
 474:.\Generated_Source\PSoC5/USBFS_episr.c ****     {
 475:.\Generated_Source\PSoC5/USBFS_episr.c ****         #if defined(USBFS_ENABLE_MIDI_STREAMING) && (USBFS_ENABLE_MIDI_API != 0u) && \
 476:.\Generated_Source\PSoC5/USBFS_episr.c ****             (USBFS_EP_MM == USBFS__EP_DMAAUTO) && (CY_PSOC3)
 477:.\Generated_Source\PSoC5/USBFS_episr.c ****             uint8 int_en;
 478:.\Generated_Source\PSoC5/USBFS_episr.c ****         #endif /* CY_PSOC3 & ENABLE_MIDI_STREAMING */
 479:.\Generated_Source\PSoC5/USBFS_episr.c ****     
 480:.\Generated_Source\PSoC5/USBFS_episr.c ****         /* `#START EP7_USER_CODE` Place your code here */
 481:.\Generated_Source\PSoC5/USBFS_episr.c **** 		
 482:.\Generated_Source\PSoC5/USBFS_episr.c ****         /* `#END` */
 483:.\Generated_Source\PSoC5/USBFS_episr.c **** 
 484:.\Generated_Source\PSoC5/USBFS_episr.c ****         #if defined(USBFS_ENABLE_MIDI_STREAMING) && (USBFS_ENABLE_MIDI_API != 0u) && \
 485:.\Generated_Source\PSoC5/USBFS_episr.c ****             (USBFS_EP_MM == USBFS__EP_DMAAUTO) && (CY_PSOC3)
 486:.\Generated_Source\PSoC5/USBFS_episr.c ****             int_en = EA;
 487:.\Generated_Source\PSoC5/USBFS_episr.c ****             CyGlobalIntEnable;  /* Make sure nested interrupt is enabled */
 488:.\Generated_Source\PSoC5/USBFS_episr.c ****         #endif /* CY_PSOC3 & ENABLE_MIDI_STREAMING */
 489:.\Generated_Source\PSoC5/USBFS_episr.c **** 
 490:.\Generated_Source\PSoC5/USBFS_episr.c ****         CY_GET_REG8(USBFS_SIE_EP7_CR0_PTR); /* Must read the mode reg */
 491:.\Generated_Source\PSoC5/USBFS_episr.c ****         /* Do not toggle ISOC endpoint */
 492:.\Generated_Source\PSoC5/USBFS_episr.c ****         if((USBFS_EP[USBFS_EP7].attrib & USBFS_EP_TYPE_MASK) !=
 493:.\Generated_Source\PSoC5/USBFS_episr.c ****                                                                                     USBFS_EP_TYPE_I
 494:.\Generated_Source\PSoC5/USBFS_episr.c ****         {
 495:.\Generated_Source\PSoC5/USBFS_episr.c ****             USBFS_EP[USBFS_EP7].epToggle ^= USBFS_EPX_CNT_DATA_TOGGLE;
 496:.\Generated_Source\PSoC5/USBFS_episr.c ****         }
 497:.\Generated_Source\PSoC5/USBFS_episr.c ****         USBFS_EP[USBFS_EP7].apiEpState = USBFS_EVENT_PENDING;
 498:.\Generated_Source\PSoC5/USBFS_episr.c ****         CY_SET_REG8(USBFS_SIE_EP_INT_SR_PTR, CY_GET_REG8(USBFS_SIE_EP_INT_SR_PTR)
 499:.\Generated_Source\PSoC5/USBFS_episr.c ****                                                                         & ~USBFS_SIE_EP_INT_EP7_MAS
 500:.\Generated_Source\PSoC5/USBFS_episr.c **** 
 501:.\Generated_Source\PSoC5/USBFS_episr.c ****         #if defined(USBFS_ENABLE_MIDI_STREAMING) && (USBFS_ENABLE_MIDI_API != 0u) && \
 502:.\Generated_Source\PSoC5/USBFS_episr.c ****             (USBFS_EP_MM == USBFS__EP_DMAAUTO) 
 503:.\Generated_Source\PSoC5/USBFS_episr.c ****             if(USBFS_midi_out_ep == USBFS_EP7)
 504:.\Generated_Source\PSoC5/USBFS_episr.c ****             {
 505:.\Generated_Source\PSoC5/USBFS_episr.c ****                 USBFS_MIDI_OUT_EP_Service();
 506:.\Generated_Source\PSoC5/USBFS_episr.c ****             }   
 507:.\Generated_Source\PSoC5/USBFS_episr.c ****         #endif /* End USBFS_ENABLE_MIDI_STREAMING*/
 508:.\Generated_Source\PSoC5/USBFS_episr.c **** 
 509:.\Generated_Source\PSoC5/USBFS_episr.c ****         /* `#START EP7_END_USER_CODE` Place your code here */
 510:.\Generated_Source\PSoC5/USBFS_episr.c **** 
 511:.\Generated_Source\PSoC5/USBFS_episr.c ****         /* `#END` */
 512:.\Generated_Source\PSoC5/USBFS_episr.c **** 
ARM GAS  C:\USERS\LUKAS\APPDATA\LOCAL\TEMP\ccfjovFM.s 			page 15


 513:.\Generated_Source\PSoC5/USBFS_episr.c ****         #if defined(USBFS_ENABLE_MIDI_STREAMING) && (USBFS_ENABLE_MIDI_API != 0u) && \
 514:.\Generated_Source\PSoC5/USBFS_episr.c ****             (USBFS_EP_MM == USBFS__EP_DMAAUTO) && (CY_PSOC3)
 515:.\Generated_Source\PSoC5/USBFS_episr.c ****             EA = int_en;
 516:.\Generated_Source\PSoC5/USBFS_episr.c ****         #endif /* CY_PSOC3 & ENABLE_MIDI_STREAMING */
 517:.\Generated_Source\PSoC5/USBFS_episr.c ****     }
 518:.\Generated_Source\PSoC5/USBFS_episr.c **** 
 519:.\Generated_Source\PSoC5/USBFS_episr.c **** #endif   /* End USBFS_EP7_ISR_REMOVE */
 520:.\Generated_Source\PSoC5/USBFS_episr.c **** 
 521:.\Generated_Source\PSoC5/USBFS_episr.c **** 
 522:.\Generated_Source\PSoC5/USBFS_episr.c **** #if(USBFS_EP8_ISR_REMOVE == 0u)
 523:.\Generated_Source\PSoC5/USBFS_episr.c **** 
 524:.\Generated_Source\PSoC5/USBFS_episr.c ****     /*******************************************************************************
 525:.\Generated_Source\PSoC5/USBFS_episr.c ****     * Function Name: USBFS_EP_8_ISR
 526:.\Generated_Source\PSoC5/USBFS_episr.c ****     ********************************************************************************
 527:.\Generated_Source\PSoC5/USBFS_episr.c ****     *
 528:.\Generated_Source\PSoC5/USBFS_episr.c ****     * Summary:
 529:.\Generated_Source\PSoC5/USBFS_episr.c ****     *  Endpoint 8 Interrupt Service Routine
 530:.\Generated_Source\PSoC5/USBFS_episr.c ****     *
 531:.\Generated_Source\PSoC5/USBFS_episr.c ****     * Parameters:
 532:.\Generated_Source\PSoC5/USBFS_episr.c ****     *  None.
 533:.\Generated_Source\PSoC5/USBFS_episr.c ****     *
 534:.\Generated_Source\PSoC5/USBFS_episr.c ****     * Return:
 535:.\Generated_Source\PSoC5/USBFS_episr.c ****     *  None.
 536:.\Generated_Source\PSoC5/USBFS_episr.c ****     *
 537:.\Generated_Source\PSoC5/USBFS_episr.c ****     *******************************************************************************/
 538:.\Generated_Source\PSoC5/USBFS_episr.c ****     CY_ISR(USBFS_EP_8_ISR)
 539:.\Generated_Source\PSoC5/USBFS_episr.c ****     {
 540:.\Generated_Source\PSoC5/USBFS_episr.c ****         #if defined(USBFS_ENABLE_MIDI_STREAMING) && (USBFS_ENABLE_MIDI_API != 0u) && \
 541:.\Generated_Source\PSoC5/USBFS_episr.c ****             (USBFS_EP_MM == USBFS__EP_DMAAUTO) && (CY_PSOC3)
 542:.\Generated_Source\PSoC5/USBFS_episr.c ****             uint8 int_en;
 543:.\Generated_Source\PSoC5/USBFS_episr.c ****         #endif /* CY_PSOC3 & ENABLE_MIDI_STREAMING */
 544:.\Generated_Source\PSoC5/USBFS_episr.c ****     
 545:.\Generated_Source\PSoC5/USBFS_episr.c ****         /* `#START EP8_USER_CODE` Place your code here */
 546:.\Generated_Source\PSoC5/USBFS_episr.c ****         #ifdef MIDI_ENABLED
 547:.\Generated_Source\PSoC5/USBFS_episr.c ****         /* `#END` */
 548:.\Generated_Source\PSoC5/USBFS_episr.c **** 
 549:.\Generated_Source\PSoC5/USBFS_episr.c ****         #if defined(USBFS_ENABLE_MIDI_STREAMING) && (USBFS_ENABLE_MIDI_API != 0u) && \
 550:.\Generated_Source\PSoC5/USBFS_episr.c ****             (USBFS_EP_MM == USBFS__EP_DMAAUTO) && (CY_PSOC3)
 551:.\Generated_Source\PSoC5/USBFS_episr.c ****             int_en = EA;
 552:.\Generated_Source\PSoC5/USBFS_episr.c ****             CyGlobalIntEnable;  /* Make sure nested interrupt is enabled */
 553:.\Generated_Source\PSoC5/USBFS_episr.c ****         #endif /* CY_PSOC3 & ENABLE_MIDI_STREAMING */
 554:.\Generated_Source\PSoC5/USBFS_episr.c **** 
 555:.\Generated_Source\PSoC5/USBFS_episr.c ****         CY_GET_REG8(USBFS_SIE_EP8_CR0_PTR); /* Must read the mode reg */
 556:.\Generated_Source\PSoC5/USBFS_episr.c ****         /* Do not toggle ISOC endpoint */
 557:.\Generated_Source\PSoC5/USBFS_episr.c ****         if((USBFS_EP[USBFS_EP8].attrib & USBFS_EP_TYPE_MASK) !=
 558:.\Generated_Source\PSoC5/USBFS_episr.c ****                                                                                     USBFS_EP_TYPE_I
 559:.\Generated_Source\PSoC5/USBFS_episr.c ****         {
 560:.\Generated_Source\PSoC5/USBFS_episr.c ****             USBFS_EP[USBFS_EP8].epToggle ^= USBFS_EPX_CNT_DATA_TOGGLE;
 561:.\Generated_Source\PSoC5/USBFS_episr.c ****         }
 562:.\Generated_Source\PSoC5/USBFS_episr.c ****         USBFS_EP[USBFS_EP8].apiEpState = USBFS_EVENT_PENDING;
 563:.\Generated_Source\PSoC5/USBFS_episr.c ****         CY_SET_REG8(USBFS_SIE_EP_INT_SR_PTR, CY_GET_REG8(USBFS_SIE_EP_INT_SR_PTR)
 564:.\Generated_Source\PSoC5/USBFS_episr.c ****                                                                         & ~USBFS_SIE_EP_INT_EP8_MAS
 565:.\Generated_Source\PSoC5/USBFS_episr.c **** 
 566:.\Generated_Source\PSoC5/USBFS_episr.c ****         #if defined(USBFS_ENABLE_MIDI_STREAMING) && (USBFS_ENABLE_MIDI_API != 0u) && \
 567:.\Generated_Source\PSoC5/USBFS_episr.c ****             (USBFS_EP_MM == USBFS__EP_DMAAUTO) 
 568:.\Generated_Source\PSoC5/USBFS_episr.c ****             if(USBFS_midi_out_ep == USBFS_EP8)
 569:.\Generated_Source\PSoC5/USBFS_episr.c ****             {
ARM GAS  C:\USERS\LUKAS\APPDATA\LOCAL\TEMP\ccfjovFM.s 			page 16


 570:.\Generated_Source\PSoC5/USBFS_episr.c ****                 USBFS_MIDI_OUT_EP_Service();
 571:.\Generated_Source\PSoC5/USBFS_episr.c ****             }   
 572:.\Generated_Source\PSoC5/USBFS_episr.c ****         #endif /* End USBFS_ENABLE_MIDI_STREAMING*/
 573:.\Generated_Source\PSoC5/USBFS_episr.c **** 
 574:.\Generated_Source\PSoC5/USBFS_episr.c ****         /* `#START EP8_END_USER_CODE` Place your code here */
 575:.\Generated_Source\PSoC5/USBFS_episr.c ****         #endif
 576:.\Generated_Source\PSoC5/USBFS_episr.c ****         /* `#END` */
 577:.\Generated_Source\PSoC5/USBFS_episr.c **** 
 578:.\Generated_Source\PSoC5/USBFS_episr.c ****         #if defined(USBFS_ENABLE_MIDI_STREAMING) && (USBFS_ENABLE_MIDI_API != 0u) && \
 579:.\Generated_Source\PSoC5/USBFS_episr.c ****             (USBFS_EP_MM == USBFS__EP_DMAAUTO) && (CY_PSOC3)
 580:.\Generated_Source\PSoC5/USBFS_episr.c ****             EA = int_en;
 581:.\Generated_Source\PSoC5/USBFS_episr.c ****         #endif /* CY_PSOC3 & ENABLE_MIDI_STREAMING */
 582:.\Generated_Source\PSoC5/USBFS_episr.c ****     }
 583:.\Generated_Source\PSoC5/USBFS_episr.c **** 
 584:.\Generated_Source\PSoC5/USBFS_episr.c **** #endif   /* End USBFS_EP8_ISR_REMOVE */
 585:.\Generated_Source\PSoC5/USBFS_episr.c **** 
 586:.\Generated_Source\PSoC5/USBFS_episr.c **** 
 587:.\Generated_Source\PSoC5/USBFS_episr.c **** /*******************************************************************************
 588:.\Generated_Source\PSoC5/USBFS_episr.c **** * Function Name: USBFS_SOF_ISR
 589:.\Generated_Source\PSoC5/USBFS_episr.c **** ********************************************************************************
 590:.\Generated_Source\PSoC5/USBFS_episr.c **** *
 591:.\Generated_Source\PSoC5/USBFS_episr.c **** * Summary:
 592:.\Generated_Source\PSoC5/USBFS_episr.c **** *  Start of Frame Interrupt Service Routine
 593:.\Generated_Source\PSoC5/USBFS_episr.c **** *
 594:.\Generated_Source\PSoC5/USBFS_episr.c **** * Parameters:
 595:.\Generated_Source\PSoC5/USBFS_episr.c **** *  None.
 596:.\Generated_Source\PSoC5/USBFS_episr.c **** *
 597:.\Generated_Source\PSoC5/USBFS_episr.c **** * Return:
 598:.\Generated_Source\PSoC5/USBFS_episr.c **** *  None.
 599:.\Generated_Source\PSoC5/USBFS_episr.c **** *
 600:.\Generated_Source\PSoC5/USBFS_episr.c **** *******************************************************************************/
 601:.\Generated_Source\PSoC5/USBFS_episr.c **** CY_ISR(USBFS_SOF_ISR)
 602:.\Generated_Source\PSoC5/USBFS_episr.c **** {
 287              		.loc 1 602 0
 288              		.cfi_startproc
 289              		@ args = 0, pretend = 0, frame = 0
 290              		@ frame_needed = 1, uses_anonymous_args = 0
 291              		@ link register save eliminated.
 292 0000 80B4     		push	{r7}
 293              		.cfi_def_cfa_offset 4
 294              		.cfi_offset 7, -4
 295 0002 00AF     		add	r7, sp, #0
 296              		.cfi_def_cfa_register 7
 603:.\Generated_Source\PSoC5/USBFS_episr.c ****     /* `#START SOF_USER_CODE` Place your code here */
 604:.\Generated_Source\PSoC5/USBFS_episr.c **** 
 605:.\Generated_Source\PSoC5/USBFS_episr.c ****     /* `#END` */
 606:.\Generated_Source\PSoC5/USBFS_episr.c **** }
 297              		.loc 1 606 0
 298 0004 BD46     		mov	sp, r7
 299              		.cfi_def_cfa_register 13
 300              		@ sp needed
 301 0006 5DF8047B 		ldr	r7, [sp], #4
 302              		.cfi_restore 7
 303              		.cfi_def_cfa_offset 0
 304 000a 7047     		bx	lr
 305              		.cfi_endproc
 306              	.LFE60:
ARM GAS  C:\USERS\LUKAS\APPDATA\LOCAL\TEMP\ccfjovFM.s 			page 17


 307              		.size	USBFS_SOF_ISR, .-USBFS_SOF_ISR
 308              		.section	.text.USBFS_BUS_RESET_ISR,"ax",%progbits
 309              		.align	2
 310              		.global	USBFS_BUS_RESET_ISR
 311              		.thumb
 312              		.thumb_func
 313              		.type	USBFS_BUS_RESET_ISR, %function
 314              	USBFS_BUS_RESET_ISR:
 315              	.LFB61:
 607:.\Generated_Source\PSoC5/USBFS_episr.c **** 
 608:.\Generated_Source\PSoC5/USBFS_episr.c **** 
 609:.\Generated_Source\PSoC5/USBFS_episr.c **** /*******************************************************************************
 610:.\Generated_Source\PSoC5/USBFS_episr.c **** * Function Name: USBFS_BUS_RESET_ISR
 611:.\Generated_Source\PSoC5/USBFS_episr.c **** ********************************************************************************
 612:.\Generated_Source\PSoC5/USBFS_episr.c **** *
 613:.\Generated_Source\PSoC5/USBFS_episr.c **** * Summary:
 614:.\Generated_Source\PSoC5/USBFS_episr.c **** *  USB Bus Reset Interrupt Service Routine.  Calls _Start with the same
 615:.\Generated_Source\PSoC5/USBFS_episr.c **** *  parameters as the last USER call to _Start
 616:.\Generated_Source\PSoC5/USBFS_episr.c **** *
 617:.\Generated_Source\PSoC5/USBFS_episr.c **** * Parameters:
 618:.\Generated_Source\PSoC5/USBFS_episr.c **** *  None.
 619:.\Generated_Source\PSoC5/USBFS_episr.c **** *
 620:.\Generated_Source\PSoC5/USBFS_episr.c **** * Return:
 621:.\Generated_Source\PSoC5/USBFS_episr.c **** *  None.
 622:.\Generated_Source\PSoC5/USBFS_episr.c **** *
 623:.\Generated_Source\PSoC5/USBFS_episr.c **** *******************************************************************************/
 624:.\Generated_Source\PSoC5/USBFS_episr.c **** CY_ISR(USBFS_BUS_RESET_ISR)
 625:.\Generated_Source\PSoC5/USBFS_episr.c **** {
 316              		.loc 1 625 0
 317              		.cfi_startproc
 318              		@ args = 0, pretend = 0, frame = 0
 319              		@ frame_needed = 1, uses_anonymous_args = 0
 320 0000 80B5     		push	{r7, lr}
 321              		.cfi_def_cfa_offset 8
 322              		.cfi_offset 7, -8
 323              		.cfi_offset 14, -4
 324 0002 00AF     		add	r7, sp, #0
 325              		.cfi_def_cfa_register 7
 626:.\Generated_Source\PSoC5/USBFS_episr.c ****     /* `#START BUS_RESET_USER_CODE` Place your code here */
 627:.\Generated_Source\PSoC5/USBFS_episr.c ****     
 628:.\Generated_Source\PSoC5/USBFS_episr.c ****     /* `#END` */
 629:.\Generated_Source\PSoC5/USBFS_episr.c **** 
 630:.\Generated_Source\PSoC5/USBFS_episr.c ****     USBFS_ReInitComponent();
 326              		.loc 1 630 0
 327 0004 FFF7FEFF 		bl	USBFS_ReInitComponent
 631:.\Generated_Source\PSoC5/USBFS_episr.c **** }
 328              		.loc 1 631 0
 329 0008 80BD     		pop	{r7, pc}
 330              		.cfi_endproc
 331              	.LFE61:
 332              		.size	USBFS_BUS_RESET_ISR, .-USBFS_BUS_RESET_ISR
 333 000a 00BF     		.section	.text.USBFS_ARB_ISR,"ax",%progbits
 334              		.align	2
 335              		.global	USBFS_ARB_ISR
 336              		.thumb
 337              		.thumb_func
 338              		.type	USBFS_ARB_ISR, %function
ARM GAS  C:\USERS\LUKAS\APPDATA\LOCAL\TEMP\ccfjovFM.s 			page 18


 339              	USBFS_ARB_ISR:
 340              	.LFB62:
 632:.\Generated_Source\PSoC5/USBFS_episr.c **** 
 633:.\Generated_Source\PSoC5/USBFS_episr.c **** 
 634:.\Generated_Source\PSoC5/USBFS_episr.c **** #if((USBFS_EP_MM != USBFS__EP_MANUAL) && (USBFS_ARB_ISR_REMOVE == 0u))
 635:.\Generated_Source\PSoC5/USBFS_episr.c **** 
 636:.\Generated_Source\PSoC5/USBFS_episr.c **** 
 637:.\Generated_Source\PSoC5/USBFS_episr.c ****     /*******************************************************************************
 638:.\Generated_Source\PSoC5/USBFS_episr.c ****     * Function Name: USBFS_ARB_ISR
 639:.\Generated_Source\PSoC5/USBFS_episr.c ****     ********************************************************************************
 640:.\Generated_Source\PSoC5/USBFS_episr.c ****     *
 641:.\Generated_Source\PSoC5/USBFS_episr.c ****     * Summary:
 642:.\Generated_Source\PSoC5/USBFS_episr.c ****     *  Arbiter Interrupt Service Routine
 643:.\Generated_Source\PSoC5/USBFS_episr.c ****     *
 644:.\Generated_Source\PSoC5/USBFS_episr.c ****     * Parameters:
 645:.\Generated_Source\PSoC5/USBFS_episr.c ****     *  None.
 646:.\Generated_Source\PSoC5/USBFS_episr.c ****     *
 647:.\Generated_Source\PSoC5/USBFS_episr.c ****     * Return:
 648:.\Generated_Source\PSoC5/USBFS_episr.c ****     *  None.
 649:.\Generated_Source\PSoC5/USBFS_episr.c ****     *
 650:.\Generated_Source\PSoC5/USBFS_episr.c ****     * Side effect:
 651:.\Generated_Source\PSoC5/USBFS_episr.c ****     *  Search for EP8 int_status will be much slower than search for EP1 int_status.
 652:.\Generated_Source\PSoC5/USBFS_episr.c ****     *
 653:.\Generated_Source\PSoC5/USBFS_episr.c ****     *******************************************************************************/
 654:.\Generated_Source\PSoC5/USBFS_episr.c ****     CY_ISR(USBFS_ARB_ISR)
 655:.\Generated_Source\PSoC5/USBFS_episr.c ****     {
 341              		.loc 1 655 0
 342              		.cfi_startproc
 343              		@ args = 0, pretend = 0, frame = 8
 344              		@ frame_needed = 1, uses_anonymous_args = 0
 345              		@ link register save eliminated.
 346 0000 80B4     		push	{r7}
 347              		.cfi_def_cfa_offset 4
 348              		.cfi_offset 7, -4
 349 0002 83B0     		sub	sp, sp, #12
 350              		.cfi_def_cfa_offset 16
 351 0004 00AF     		add	r7, sp, #0
 352              		.cfi_def_cfa_register 7
 656:.\Generated_Source\PSoC5/USBFS_episr.c ****         uint8 int_status;
 657:.\Generated_Source\PSoC5/USBFS_episr.c ****         uint8 ep_status;
 658:.\Generated_Source\PSoC5/USBFS_episr.c ****         uint8 ep = USBFS_EP1;
 353              		.loc 1 658 0
 354 0006 0123     		movs	r3, #1
 355 0008 BB71     		strb	r3, [r7, #6]
 659:.\Generated_Source\PSoC5/USBFS_episr.c ****         uint8 ptr = 0u;
 356              		.loc 1 659 0
 357 000a 0023     		movs	r3, #0
 358 000c 7B71     		strb	r3, [r7, #5]
 660:.\Generated_Source\PSoC5/USBFS_episr.c **** 
 661:.\Generated_Source\PSoC5/USBFS_episr.c ****         /* `#START ARB_BEGIN_USER_CODE` Place your code here */
 662:.\Generated_Source\PSoC5/USBFS_episr.c **** 		int_status = USBFS_ARB_INT_SR_REG;                   /* read Arbiter Status Register */
 359              		.loc 1 662 0
 360 000e 2B4B     		ldr	r3, .L25
 361 0010 1B78     		ldrb	r3, [r3]
 362 0012 FB71     		strb	r3, [r7, #7]
 663:.\Generated_Source\PSoC5/USBFS_episr.c ****         USBFS_ARB_INT_SR_REG = int_status;                   /* Clear Serviced Interrupts */
 363              		.loc 1 663 0
ARM GAS  C:\USERS\LUKAS\APPDATA\LOCAL\TEMP\ccfjovFM.s 			page 19


 364 0014 294A     		ldr	r2, .L25
 365 0016 FB79     		ldrb	r3, [r7, #7]
 366 0018 1370     		strb	r3, [r2]
 664:.\Generated_Source\PSoC5/USBFS_episr.c **** 
 665:.\Generated_Source\PSoC5/USBFS_episr.c ****         while(int_status != 0u)
 367              		.loc 1 665 0
 368 001a 46E0     		b	.L20
 369              	.L23:
 666:.\Generated_Source\PSoC5/USBFS_episr.c ****         {
 667:.\Generated_Source\PSoC5/USBFS_episr.c ****             if(int_status & 1u)  /* If EpX interrupt present */
 370              		.loc 1 667 0
 371 001c FB79     		ldrb	r3, [r7, #7]	@ zero_extendqisi2
 372 001e 03F00103 		and	r3, r3, #1
 373 0022 002B     		cmp	r3, #0
 374 0024 38D0     		beq	.L21
 668:.\Generated_Source\PSoC5/USBFS_episr.c ****             {
 669:.\Generated_Source\PSoC5/USBFS_episr.c ****                 ep_status  = USBFS_ARB_EP1_SR_PTR[ptr];       /* read Endpoint Status Register */
 375              		.loc 1 669 0
 376 0026 7A79     		ldrb	r2, [r7, #5]	@ zero_extendqisi2
 377 0028 254B     		ldr	r3, .L25+4
 378 002a 1344     		add	r3, r3, r2
 379 002c 1B78     		ldrb	r3, [r3]
 380 002e 3B71     		strb	r3, [r7, #4]
 670:.\Generated_Source\PSoC5/USBFS_episr.c ****                 /* If In Buffer Full */
 671:.\Generated_Source\PSoC5/USBFS_episr.c ****                 if(ep_status & USBFS_ARB_EPX_SR_IN_BUF_FULL)
 381              		.loc 1 671 0
 382 0030 3B79     		ldrb	r3, [r7, #4]	@ zero_extendqisi2
 383 0032 03F00103 		and	r3, r3, #1
 384 0036 002B     		cmp	r3, #0
 385 0038 29D0     		beq	.L22
 672:.\Generated_Source\PSoC5/USBFS_episr.c ****                 {
 673:.\Generated_Source\PSoC5/USBFS_episr.c ****                    if(USBFS_EP[ep].addr & USBFS_DIR_IN)
 386              		.loc 1 673 0
 387 003a BA79     		ldrb	r2, [r7, #6]	@ zero_extendqisi2
 388 003c 2149     		ldr	r1, .L25+8
 389 003e 1346     		mov	r3, r2
 390 0040 5B00     		lsls	r3, r3, #1
 391 0042 1344     		add	r3, r3, r2
 392 0044 9B00     		lsls	r3, r3, #2
 393 0046 0B44     		add	r3, r3, r1
 394 0048 1B79     		ldrb	r3, [r3, #4]
 395 004a DBB2     		uxtb	r3, r3
 396 004c DBB2     		uxtb	r3, r3
 397 004e 5BB2     		sxtb	r3, r3
 398 0050 002B     		cmp	r3, #0
 399 0052 1CDA     		bge	.L22
 674:.\Generated_Source\PSoC5/USBFS_episr.c ****                     {
 675:.\Generated_Source\PSoC5/USBFS_episr.c ****                         /* Workaround for ARB interrupt failure issue at low CPU speeds like 3 MHz:
 676:.\Generated_Source\PSoC5/USBFS_episr.c **** 						 * When CPU clock is running slow (3MHz or so) It takes 8 times more time to execute the IN_D
 677:.\Generated_Source\PSoC5/USBFS_episr.c **** 						 * instruction inside the ARB isr code after arming the IN endpoint. In this time, if the USB
 678:.\Generated_Source\PSoC5/USBFS_episr.c **** 						 * IN token for the endpoint which was armed, it will process the IN token and complete the I
 679:.\Generated_Source\PSoC5/USBFS_episr.c **** 						 * IN_DATA_RDY flag is cleared by ARB ISR. Workaround for this issue is clear the flag first 
 680:.\Generated_Source\PSoC5/USBFS_episr.c **** 						{
 681:.\Generated_Source\PSoC5/USBFS_episr.c **** 							/* Clear Data ready status*/
 682:.\Generated_Source\PSoC5/USBFS_episr.c **** 	                        USBFS_ARB_EP1_CFG_PTR[ptr] &= ~USBFS_ARB_EPX_CFG_IN_DATA_RDY;
 400              		.loc 1 682 0
 401 0054 7B79     		ldrb	r3, [r7, #5]	@ zero_extendqisi2
ARM GAS  C:\USERS\LUKAS\APPDATA\LOCAL\TEMP\ccfjovFM.s 			page 20


 402 0056 03F18043 		add	r3, r3, #1073741824
 403 005a 03F5C143 		add	r3, r3, #24704
 404 005e 7A79     		ldrb	r2, [r7, #5]	@ zero_extendqisi2
 405 0060 02F18042 		add	r2, r2, #1073741824
 406 0064 02F5C142 		add	r2, r2, #24704
 407 0068 1278     		ldrb	r2, [r2]
 408 006a D2B2     		uxtb	r2, r2
 409 006c 22F00102 		bic	r2, r2, #1
 410 0070 D2B2     		uxtb	r2, r2
 411 0072 1A70     		strb	r2, [r3]
 683:.\Generated_Source\PSoC5/USBFS_episr.c **** 							
 684:.\Generated_Source\PSoC5/USBFS_episr.c **** 							/* Write the Mode register */
 685:.\Generated_Source\PSoC5/USBFS_episr.c **** 	                        USBFS_SIE_EP1_CR0_PTR[ptr] = USBFS_EP[ep].epMode;	                        
 412              		.loc 1 685 0
 413 0074 7B79     		ldrb	r3, [r7, #5]	@ zero_extendqisi2
 414 0076 144A     		ldr	r2, .L25+12
 415 0078 1A44     		add	r2, r2, r3
 416 007a B979     		ldrb	r1, [r7, #6]	@ zero_extendqisi2
 417 007c 1148     		ldr	r0, .L25+8
 418 007e 0B46     		mov	r3, r1
 419 0080 5B00     		lsls	r3, r3, #1
 420 0082 0B44     		add	r3, r3, r1
 421 0084 9B00     		lsls	r3, r3, #2
 422 0086 0344     		add	r3, r3, r0
 423 0088 5B79     		ldrb	r3, [r3, #5]
 424 008a DBB2     		uxtb	r3, r3
 425 008c 1370     		strb	r3, [r2]
 426              	.L22:
 686:.\Generated_Source\PSoC5/USBFS_episr.c **** 						}
 687:.\Generated_Source\PSoC5/USBFS_episr.c ****                         #if defined(USBFS_ENABLE_MIDI_STREAMING) && (USBFS_ENABLE_MIDI_API != 0u)
 688:.\Generated_Source\PSoC5/USBFS_episr.c ****                             if(ep == USBFS_midi_in_ep)
 689:.\Generated_Source\PSoC5/USBFS_episr.c ****                             {   /* Clear MIDI input pointer*/
 690:.\Generated_Source\PSoC5/USBFS_episr.c ****                                 USBFS_midiInPointer = 0u;
 691:.\Generated_Source\PSoC5/USBFS_episr.c ****                             }
 692:.\Generated_Source\PSoC5/USBFS_episr.c ****                         #endif /* End USBFS_ENABLE_MIDI_STREAMING*/
 693:.\Generated_Source\PSoC5/USBFS_episr.c ****                     }
 694:.\Generated_Source\PSoC5/USBFS_episr.c ****                 }
 695:.\Generated_Source\PSoC5/USBFS_episr.c ****                 /* (re)arm Out EP only for mode2 */
 696:.\Generated_Source\PSoC5/USBFS_episr.c ****                 #if(USBFS_EP_MM != USBFS__EP_DMAAUTO)
 697:.\Generated_Source\PSoC5/USBFS_episr.c ****                     /* If DMA Grant */
 698:.\Generated_Source\PSoC5/USBFS_episr.c ****                     if(ep_status & USBFS_ARB_EPX_SR_DMA_GNT)
 699:.\Generated_Source\PSoC5/USBFS_episr.c ****                     {
 700:.\Generated_Source\PSoC5/USBFS_episr.c ****                         if((USBFS_EP[ep].addr & USBFS_DIR_IN) == 0u)
 701:.\Generated_Source\PSoC5/USBFS_episr.c ****                         {
 702:.\Generated_Source\PSoC5/USBFS_episr.c ****                                 USBFS_EP[ep].apiEpState = USBFS_NO_EVENT_PENDING;
 703:.\Generated_Source\PSoC5/USBFS_episr.c ****                                 /* Write the Mode register */
 704:.\Generated_Source\PSoC5/USBFS_episr.c ****                                 USBFS_SIE_EP1_CR0_PTR[ptr] = USBFS_EP[ep].epMode;
 705:.\Generated_Source\PSoC5/USBFS_episr.c ****                         }
 706:.\Generated_Source\PSoC5/USBFS_episr.c ****                     }
 707:.\Generated_Source\PSoC5/USBFS_episr.c ****                 #endif /* End USBFS_EP_MM */
 708:.\Generated_Source\PSoC5/USBFS_episr.c **** 
 709:.\Generated_Source\PSoC5/USBFS_episr.c ****                 USBFS_ARB_EP1_SR_PTR[ptr] = ep_status;       /* Clear Serviced events */
 427              		.loc 1 709 0
 428 008e 7A79     		ldrb	r2, [r7, #5]	@ zero_extendqisi2
 429 0090 0B4B     		ldr	r3, .L25+4
 430 0092 1344     		add	r3, r3, r2
 431 0094 3A79     		ldrb	r2, [r7, #4]
ARM GAS  C:\USERS\LUKAS\APPDATA\LOCAL\TEMP\ccfjovFM.s 			page 21


 432 0096 1A70     		strb	r2, [r3]
 433              	.L21:
 710:.\Generated_Source\PSoC5/USBFS_episr.c ****             }
 711:.\Generated_Source\PSoC5/USBFS_episr.c ****             ptr += USBFS_EPX_CNTX_ADDR_OFFSET;               /* prepare pointer for next EP */
 434              		.loc 1 711 0
 435 0098 7B79     		ldrb	r3, [r7, #5]
 436 009a 1033     		adds	r3, r3, #16
 437 009c 7B71     		strb	r3, [r7, #5]
 712:.\Generated_Source\PSoC5/USBFS_episr.c ****             ep++;
 438              		.loc 1 712 0
 439 009e BB79     		ldrb	r3, [r7, #6]	@ zero_extendqisi2
 440 00a0 0133     		adds	r3, r3, #1
 441 00a2 BB71     		strb	r3, [r7, #6]
 713:.\Generated_Source\PSoC5/USBFS_episr.c ****             int_status >>= 1;
 442              		.loc 1 713 0
 443 00a4 FB79     		ldrb	r3, [r7, #7]	@ zero_extendqisi2
 444 00a6 5B08     		lsrs	r3, r3, #1
 445 00a8 FB71     		strb	r3, [r7, #7]
 446              	.L20:
 665:.\Generated_Source\PSoC5/USBFS_episr.c ****         {
 447              		.loc 1 665 0
 448 00aa FB79     		ldrb	r3, [r7, #7]	@ zero_extendqisi2
 449 00ac 002B     		cmp	r3, #0
 450 00ae B5D1     		bne	.L23
 714:.\Generated_Source\PSoC5/USBFS_episr.c ****         }
 715:.\Generated_Source\PSoC5/USBFS_episr.c **** 		return;
 451              		.loc 1 715 0
 452 00b0 00BF     		nop
 716:.\Generated_Source\PSoC5/USBFS_episr.c **** 		#if 0
 717:.\Generated_Source\PSoC5/USBFS_episr.c ****         /* `#END` */
 718:.\Generated_Source\PSoC5/USBFS_episr.c **** 
 719:.\Generated_Source\PSoC5/USBFS_episr.c ****         int_status = USBFS_ARB_INT_SR_REG;                   /* read Arbiter Status Register */
 720:.\Generated_Source\PSoC5/USBFS_episr.c ****         USBFS_ARB_INT_SR_REG = int_status;                   /* Clear Serviced Interrupts */
 721:.\Generated_Source\PSoC5/USBFS_episr.c **** 
 722:.\Generated_Source\PSoC5/USBFS_episr.c ****         while(int_status != 0u)
 723:.\Generated_Source\PSoC5/USBFS_episr.c ****         {
 724:.\Generated_Source\PSoC5/USBFS_episr.c ****             if(int_status & 1u)  /* If EpX interrupt present */
 725:.\Generated_Source\PSoC5/USBFS_episr.c ****             {
 726:.\Generated_Source\PSoC5/USBFS_episr.c ****                 ep_status  = USBFS_ARB_EP1_SR_PTR[ptr];       /* read Endpoint Status Register */
 727:.\Generated_Source\PSoC5/USBFS_episr.c ****                 /* If In Buffer Full */
 728:.\Generated_Source\PSoC5/USBFS_episr.c ****                 if(ep_status & USBFS_ARB_EPX_SR_IN_BUF_FULL)
 729:.\Generated_Source\PSoC5/USBFS_episr.c ****                 {
 730:.\Generated_Source\PSoC5/USBFS_episr.c ****                    if(USBFS_EP[ep].addr & USBFS_DIR_IN)
 731:.\Generated_Source\PSoC5/USBFS_episr.c ****                     {
 732:.\Generated_Source\PSoC5/USBFS_episr.c ****                         /* Write the Mode register */
 733:.\Generated_Source\PSoC5/USBFS_episr.c ****                         USBFS_SIE_EP1_CR0_PTR[ptr] = USBFS_EP[ep].epMode;
 734:.\Generated_Source\PSoC5/USBFS_episr.c ****                         /* Clear Data ready status*/
 735:.\Generated_Source\PSoC5/USBFS_episr.c ****                         USBFS_ARB_EP1_CFG_PTR[ptr] &= ~USBFS_ARB_EPX_CFG_IN_DATA_RDY;
 736:.\Generated_Source\PSoC5/USBFS_episr.c ****                         #if defined(USBFS_ENABLE_MIDI_STREAMING) && (USBFS_ENABLE_MIDI_API != 0u)
 737:.\Generated_Source\PSoC5/USBFS_episr.c ****                             if(ep == USBFS_midi_in_ep)
 738:.\Generated_Source\PSoC5/USBFS_episr.c ****                             {   /* Clear MIDI input pointer*/
 739:.\Generated_Source\PSoC5/USBFS_episr.c ****                                 USBFS_midiInPointer = 0u;
 740:.\Generated_Source\PSoC5/USBFS_episr.c ****                             }
 741:.\Generated_Source\PSoC5/USBFS_episr.c ****                         #endif /* End USBFS_ENABLE_MIDI_STREAMING*/
 742:.\Generated_Source\PSoC5/USBFS_episr.c ****                     }
 743:.\Generated_Source\PSoC5/USBFS_episr.c ****                 }
 744:.\Generated_Source\PSoC5/USBFS_episr.c ****                 /* (re)arm Out EP only for mode2 */
ARM GAS  C:\USERS\LUKAS\APPDATA\LOCAL\TEMP\ccfjovFM.s 			page 22


 745:.\Generated_Source\PSoC5/USBFS_episr.c ****                 #if(USBFS_EP_MM != USBFS__EP_DMAAUTO)
 746:.\Generated_Source\PSoC5/USBFS_episr.c ****                     /* If DMA Grant */
 747:.\Generated_Source\PSoC5/USBFS_episr.c ****                     if(ep_status & USBFS_ARB_EPX_SR_DMA_GNT)
 748:.\Generated_Source\PSoC5/USBFS_episr.c ****                     {
 749:.\Generated_Source\PSoC5/USBFS_episr.c ****                         if((USBFS_EP[ep].addr & USBFS_DIR_IN) == 0u)
 750:.\Generated_Source\PSoC5/USBFS_episr.c ****                         {
 751:.\Generated_Source\PSoC5/USBFS_episr.c ****                                 USBFS_EP[ep].apiEpState = USBFS_NO_EVENT_PENDING;
 752:.\Generated_Source\PSoC5/USBFS_episr.c ****                                 /* Write the Mode register */
 753:.\Generated_Source\PSoC5/USBFS_episr.c ****                                 USBFS_SIE_EP1_CR0_PTR[ptr] = USBFS_EP[ep].epMode;
 754:.\Generated_Source\PSoC5/USBFS_episr.c ****                         }
 755:.\Generated_Source\PSoC5/USBFS_episr.c ****                     }
 756:.\Generated_Source\PSoC5/USBFS_episr.c ****                 #endif /* End USBFS_EP_MM */
 757:.\Generated_Source\PSoC5/USBFS_episr.c **** 
 758:.\Generated_Source\PSoC5/USBFS_episr.c ****                 /* `#START ARB_USER_CODE` Place your code here for handle Buffer Underflow/Overflow
 759:.\Generated_Source\PSoC5/USBFS_episr.c **** 
 760:.\Generated_Source\PSoC5/USBFS_episr.c ****                 /* `#END` */
 761:.\Generated_Source\PSoC5/USBFS_episr.c **** 
 762:.\Generated_Source\PSoC5/USBFS_episr.c ****                 USBFS_ARB_EP1_SR_PTR[ptr] = ep_status;       /* Clear Serviced events */
 763:.\Generated_Source\PSoC5/USBFS_episr.c ****             }
 764:.\Generated_Source\PSoC5/USBFS_episr.c ****             ptr += USBFS_EPX_CNTX_ADDR_OFFSET;               /* prepare pointer for next EP */
 765:.\Generated_Source\PSoC5/USBFS_episr.c ****             ep++;
 766:.\Generated_Source\PSoC5/USBFS_episr.c ****             int_status >>= 1;
 767:.\Generated_Source\PSoC5/USBFS_episr.c ****         }
 768:.\Generated_Source\PSoC5/USBFS_episr.c **** 
 769:.\Generated_Source\PSoC5/USBFS_episr.c ****         /* `#START ARB_END_USER_CODE` Place your code here */
 770:.\Generated_Source\PSoC5/USBFS_episr.c **** 		#endif 
 771:.\Generated_Source\PSoC5/USBFS_episr.c ****         /* `#END` */
 772:.\Generated_Source\PSoC5/USBFS_episr.c ****     }
 453              		.loc 1 772 0
 454 00b2 0C37     		adds	r7, r7, #12
 455              		.cfi_def_cfa_offset 4
 456 00b4 BD46     		mov	sp, r7
 457              		.cfi_def_cfa_register 13
 458              		@ sp needed
 459 00b6 5DF8047B 		ldr	r7, [sp], #4
 460              		.cfi_restore 7
 461              		.cfi_def_cfa_offset 0
 462 00ba 7047     		bx	lr
 463              	.L26:
 464              		.align	2
 465              	.L25:
 466 00bc 9F600040 		.word	1073766559
 467 00c0 82600040 		.word	1073766530
 468 00c4 00000000 		.word	USBFS_EP
 469 00c8 0E600040 		.word	1073766414
 470              		.cfi_endproc
 471              	.LFE62:
 472              		.size	USBFS_ARB_ISR, .-USBFS_ARB_ISR
 473              		.text
 474              	.Letext0:
 475              		.file 2 "c:\\program files (x86)\\cypress\\psoc creator\\3.3\\psoc creator\\import\\gnu\\arm\\4.9.
 476              		.file 3 "c:\\program files (x86)\\cypress\\psoc creator\\3.3\\psoc creator\\import\\gnu\\arm\\4.9.
 477              		.file 4 ".\\Generated_Source\\PSoC5\\cytypes.h"
 478              		.file 5 ".\\Generated_Source\\PSoC5\\USBFS.h"
 479              		.file 6 "Generated_Source\\PSoC5/core_cm3.h"