ARM GAS  C:\USERS\LUKAS\APPDATA\LOCAL\TEMP\ccRkU2qz.s 			page 1


   1              		.syntax unified
   2              		.cpu cortex-m3
   3              		.fpu softvfp
   4              		.eabi_attribute 20, 1
   5              		.eabi_attribute 21, 1
   6              		.eabi_attribute 23, 3
   7              		.eabi_attribute 24, 1
   8              		.eabi_attribute 25, 1
   9              		.eabi_attribute 26, 1
  10              		.eabi_attribute 30, 6
  11              		.eabi_attribute 34, 1
  12              		.eabi_attribute 18, 4
  13              		.thumb
  14              		.file	"USBFS_audio.c"
  15              		.text
  16              	.Ltext0:
  17              		.cfi_sections	.debug_frame
  18              		.comm	USBFS_currentSampleFrequency,27,4
  19              		.comm	USBFS_frequencyChanged,1,1
  20              		.comm	USBFS_currentMute,1,1
  21              		.comm	USBFS_currentVolume,2,4
  22              		.global	USBFS_minimumVolume
  23              		.data
  24              		.align	2
  25              		.type	USBFS_minimumVolume, %object
  26              		.size	USBFS_minimumVolume, 2
  27              	USBFS_minimumVolume:
  28 0000 01       		.byte	1
  29 0001 80       		.byte	-128
  30              		.global	USBFS_maximumVolume
  31 0002 0000     		.align	2
  32              		.type	USBFS_maximumVolume, %object
  33              		.size	USBFS_maximumVolume, 2
  34              	USBFS_maximumVolume:
  35 0004 FF       		.byte	-1
  36 0005 7F       		.byte	127
  37              		.global	USBFS_resolutionVolume
  38 0006 0000     		.align	2
  39              		.type	USBFS_resolutionVolume, %object
  40              		.size	USBFS_resolutionVolume, 2
  41              	USBFS_resolutionVolume:
  42 0008 01       		.byte	1
  43 0009 00       		.byte	0
  44              		.comm	USBFS_currentCH1InputVolume,2,4
  45              		.comm	USBFS_currentCH2InputVolume,2,4
  46              		.comm	USBFS_currentTmpCH1InputVolume,2,4
  47              		.comm	USBFS_currentTmpCH2InputVolume,2,4
  48              		.comm	USB_inputMute,1,1
  49              		.comm	USB_inputVolume,2,4
  50 000a 0000     		.section	.text.USBFS_DispatchAUDIOClassRqst,"ax",%progbits
  51              		.align	2
  52              		.global	USBFS_DispatchAUDIOClassRqst
  53              		.thumb
  54              		.thumb_func
  55              		.type	USBFS_DispatchAUDIOClassRqst, %function
  56              	USBFS_DispatchAUDIOClassRqst:
  57              	.LFB56:
ARM GAS  C:\USERS\LUKAS\APPDATA\LOCAL\TEMP\ccRkU2qz.s 			page 2


  58              		.file 1 ".\\Generated_Source\\PSoC5\\USBFS_audio.c"
   1:.\Generated_Source\PSoC5/USBFS_audio.c **** /*******************************************************************************
   2:.\Generated_Source\PSoC5/USBFS_audio.c **** * File Name: USBFS_audio.c
   3:.\Generated_Source\PSoC5/USBFS_audio.c **** * Version 2.50
   4:.\Generated_Source\PSoC5/USBFS_audio.c **** *
   5:.\Generated_Source\PSoC5/USBFS_audio.c **** * Description:
   6:.\Generated_Source\PSoC5/USBFS_audio.c **** *  USB AUDIO Class request handler.
   7:.\Generated_Source\PSoC5/USBFS_audio.c **** *
   8:.\Generated_Source\PSoC5/USBFS_audio.c **** * Note:
   9:.\Generated_Source\PSoC5/USBFS_audio.c **** *
  10:.\Generated_Source\PSoC5/USBFS_audio.c **** ********************************************************************************
  11:.\Generated_Source\PSoC5/USBFS_audio.c **** * Copyright 2008-2012, Cypress Semiconductor Corporation.  All rights reserved.
  12:.\Generated_Source\PSoC5/USBFS_audio.c **** * You may use this file only in accordance with the license, terms, conditions,
  13:.\Generated_Source\PSoC5/USBFS_audio.c **** * disclaimers, and limitations in the end user license agreement accompanying
  14:.\Generated_Source\PSoC5/USBFS_audio.c **** * the software package with which this file was provided.
  15:.\Generated_Source\PSoC5/USBFS_audio.c **** *******************************************************************************/
  16:.\Generated_Source\PSoC5/USBFS_audio.c **** 
  17:.\Generated_Source\PSoC5/USBFS_audio.c **** #include "USBFS.h"
  18:.\Generated_Source\PSoC5/USBFS_audio.c **** 
  19:.\Generated_Source\PSoC5/USBFS_audio.c **** #if defined(USBFS_ENABLE_AUDIO_CLASS)
  20:.\Generated_Source\PSoC5/USBFS_audio.c **** 
  21:.\Generated_Source\PSoC5/USBFS_audio.c **** #include "USBFS_audio.h"
  22:.\Generated_Source\PSoC5/USBFS_audio.c **** #include "USBFS_midi.h"
  23:.\Generated_Source\PSoC5/USBFS_audio.c **** 
  24:.\Generated_Source\PSoC5/USBFS_audio.c **** 
  25:.\Generated_Source\PSoC5/USBFS_audio.c **** /***************************************
  26:.\Generated_Source\PSoC5/USBFS_audio.c **** *    AUDIO Variables
  27:.\Generated_Source\PSoC5/USBFS_audio.c **** ***************************************/
  28:.\Generated_Source\PSoC5/USBFS_audio.c **** 
  29:.\Generated_Source\PSoC5/USBFS_audio.c **** #if defined(USBFS_ENABLE_AUDIO_STREAMING)
  30:.\Generated_Source\PSoC5/USBFS_audio.c ****     volatile uint8 USBFS_currentSampleFrequency[USBFS_MAX_EP][USBFS_SAMPLE_FREQ_LEN];
  31:.\Generated_Source\PSoC5/USBFS_audio.c ****     volatile uint8 USBFS_frequencyChanged;
  32:.\Generated_Source\PSoC5/USBFS_audio.c ****     volatile uint8 USBFS_currentMute;
  33:.\Generated_Source\PSoC5/USBFS_audio.c ****     volatile uint8 USBFS_currentVolume[USBFS_VOLUME_LEN];
  34:.\Generated_Source\PSoC5/USBFS_audio.c ****     volatile uint8 USBFS_minimumVolume[] = {0x01, 0x80};
  35:.\Generated_Source\PSoC5/USBFS_audio.c ****     volatile uint8 USBFS_maximumVolume[] = {0xFF, 0x7F};
  36:.\Generated_Source\PSoC5/USBFS_audio.c ****     volatile uint8 USBFS_resolutionVolume[] = {0x01, 0x00};
  37:.\Generated_Source\PSoC5/USBFS_audio.c **** #endif /* End USBFS_ENABLE_AUDIO_STREAMING */
  38:.\Generated_Source\PSoC5/USBFS_audio.c **** 
  39:.\Generated_Source\PSoC5/USBFS_audio.c **** 
  40:.\Generated_Source\PSoC5/USBFS_audio.c **** /***************************************
  41:.\Generated_Source\PSoC5/USBFS_audio.c **** * Custom Declarations
  42:.\Generated_Source\PSoC5/USBFS_audio.c **** ***************************************/
  43:.\Generated_Source\PSoC5/USBFS_audio.c **** 
  44:.\Generated_Source\PSoC5/USBFS_audio.c **** /* `#START CUSTOM_DECLARATIONS` Place your declaration here */
  45:.\Generated_Source\PSoC5/USBFS_audio.c **** #include "Application.h"
  46:.\Generated_Source\PSoC5/USBFS_audio.c **** extern uint8 volumeUpdateReceived;
  47:.\Generated_Source\PSoC5/USBFS_audio.c **** #define OUTPUT_VOLUME_FEATURE_UNIT   0x02
  48:.\Generated_Source\PSoC5/USBFS_audio.c **** #define INPUT_VOLUME_FEATURE_UNIT    0x06
  49:.\Generated_Source\PSoC5/USBFS_audio.c **** 
  50:.\Generated_Source\PSoC5/USBFS_audio.c **** volatile uint8 USBFS_currentCH1InputVolume[USBFS_VOLUME_LEN];
  51:.\Generated_Source\PSoC5/USBFS_audio.c **** volatile uint8 USBFS_currentCH2InputVolume[USBFS_VOLUME_LEN];
  52:.\Generated_Source\PSoC5/USBFS_audio.c **** volatile uint8 USBFS_currentTmpCH1InputVolume[USBFS_VOLUME_LEN];
  53:.\Generated_Source\PSoC5/USBFS_audio.c **** volatile uint8 USBFS_currentTmpCH2InputVolume[USBFS_VOLUME_LEN];
  54:.\Generated_Source\PSoC5/USBFS_audio.c **** 
  55:.\Generated_Source\PSoC5/USBFS_audio.c **** #ifndef ENABLE_DIGITAL_AUDIO_OUT_ONLY
  56:.\Generated_Source\PSoC5/USBFS_audio.c **** volatile uint8 USB_inputMute;
ARM GAS  C:\USERS\LUKAS\APPDATA\LOCAL\TEMP\ccRkU2qz.s 			page 3


  57:.\Generated_Source\PSoC5/USBFS_audio.c **** volatile uint8 USB_inputVolume[USBFS_VOLUME_LEN];
  58:.\Generated_Source\PSoC5/USBFS_audio.c **** #endif 
  59:.\Generated_Source\PSoC5/USBFS_audio.c **** /* `#END` */
  60:.\Generated_Source\PSoC5/USBFS_audio.c **** 
  61:.\Generated_Source\PSoC5/USBFS_audio.c **** 
  62:.\Generated_Source\PSoC5/USBFS_audio.c **** /***************************************
  63:.\Generated_Source\PSoC5/USBFS_audio.c **** *    External references
  64:.\Generated_Source\PSoC5/USBFS_audio.c **** ***************************************/
  65:.\Generated_Source\PSoC5/USBFS_audio.c **** 
  66:.\Generated_Source\PSoC5/USBFS_audio.c **** uint8 USBFS_InitControlRead(void) ;
  67:.\Generated_Source\PSoC5/USBFS_audio.c **** uint8 USBFS_InitControlWrite(void) ;
  68:.\Generated_Source\PSoC5/USBFS_audio.c **** uint8 USBFS_InitNoDataControlTransfer(void) ;
  69:.\Generated_Source\PSoC5/USBFS_audio.c **** uint8 USBFS_InitZeroLengthControlTransfer(void)
  70:.\Generated_Source\PSoC5/USBFS_audio.c ****                                                 ;
  71:.\Generated_Source\PSoC5/USBFS_audio.c **** 
  72:.\Generated_Source\PSoC5/USBFS_audio.c **** extern volatile T_USBFS_EP_CTL_BLOCK USBFS_EP[];
  73:.\Generated_Source\PSoC5/USBFS_audio.c **** extern volatile T_USBFS_TD USBFS_currentTD;
  74:.\Generated_Source\PSoC5/USBFS_audio.c **** 
  75:.\Generated_Source\PSoC5/USBFS_audio.c **** 
  76:.\Generated_Source\PSoC5/USBFS_audio.c **** /***************************************
  77:.\Generated_Source\PSoC5/USBFS_audio.c **** *    Private function prototypes
  78:.\Generated_Source\PSoC5/USBFS_audio.c **** ***************************************/
  79:.\Generated_Source\PSoC5/USBFS_audio.c **** 
  80:.\Generated_Source\PSoC5/USBFS_audio.c **** 
  81:.\Generated_Source\PSoC5/USBFS_audio.c **** /*******************************************************************************
  82:.\Generated_Source\PSoC5/USBFS_audio.c **** * Function Name: USBFS_DispatchAUDIOClassRqst
  83:.\Generated_Source\PSoC5/USBFS_audio.c **** ********************************************************************************
  84:.\Generated_Source\PSoC5/USBFS_audio.c **** *
  85:.\Generated_Source\PSoC5/USBFS_audio.c **** * Summary:
  86:.\Generated_Source\PSoC5/USBFS_audio.c **** *  This routine dispatches class requests
  87:.\Generated_Source\PSoC5/USBFS_audio.c **** *
  88:.\Generated_Source\PSoC5/USBFS_audio.c **** * Parameters:
  89:.\Generated_Source\PSoC5/USBFS_audio.c **** *  None.
  90:.\Generated_Source\PSoC5/USBFS_audio.c **** *
  91:.\Generated_Source\PSoC5/USBFS_audio.c **** * Return:
  92:.\Generated_Source\PSoC5/USBFS_audio.c **** *  requestHandled
  93:.\Generated_Source\PSoC5/USBFS_audio.c **** *
  94:.\Generated_Source\PSoC5/USBFS_audio.c **** * Global variables:
  95:.\Generated_Source\PSoC5/USBFS_audio.c **** *   USBFS_currentSampleFrequency: Contains the current audio Sample
  96:.\Generated_Source\PSoC5/USBFS_audio.c **** *       Frequency. It is set by the Host using SET_CUR request to the endpoint.
  97:.\Generated_Source\PSoC5/USBFS_audio.c **** *   USBFS_frequencyChanged: This variable is used as a flag for the
  98:.\Generated_Source\PSoC5/USBFS_audio.c **** *       user code, to be aware that Host has been sent request for changing
  99:.\Generated_Source\PSoC5/USBFS_audio.c **** *       Sample Frequency. Sample frequency will be sent on the next OUT
 100:.\Generated_Source\PSoC5/USBFS_audio.c **** *       transaction. It is contains endpoint address when set. The following
 101:.\Generated_Source\PSoC5/USBFS_audio.c **** *       code is recommended for detecting new Sample Frequency in main code:
 102:.\Generated_Source\PSoC5/USBFS_audio.c **** *       if((USBFS_frequencyChanged != 0) &&
 103:.\Generated_Source\PSoC5/USBFS_audio.c **** *       (USBFS_transferState == USBFS_TRANS_STATE_IDLE))
 104:.\Generated_Source\PSoC5/USBFS_audio.c **** *       {
 105:.\Generated_Source\PSoC5/USBFS_audio.c **** *          USBFS_frequencyChanged = 0;
 106:.\Generated_Source\PSoC5/USBFS_audio.c **** *       }
 107:.\Generated_Source\PSoC5/USBFS_audio.c **** *       USBFS_transferState variable is checked to be sure that
 108:.\Generated_Source\PSoC5/USBFS_audio.c **** *             transfer completes.
 109:.\Generated_Source\PSoC5/USBFS_audio.c **** *   USBFS_currentMute: Contains mute configuration set by Host.
 110:.\Generated_Source\PSoC5/USBFS_audio.c **** *   USBFS_currentVolume: Contains volume level set by Host.
 111:.\Generated_Source\PSoC5/USBFS_audio.c **** *
 112:.\Generated_Source\PSoC5/USBFS_audio.c **** * Reentrant:
 113:.\Generated_Source\PSoC5/USBFS_audio.c **** *  No.
ARM GAS  C:\USERS\LUKAS\APPDATA\LOCAL\TEMP\ccRkU2qz.s 			page 4


 114:.\Generated_Source\PSoC5/USBFS_audio.c **** *
 115:.\Generated_Source\PSoC5/USBFS_audio.c **** *******************************************************************************/
 116:.\Generated_Source\PSoC5/USBFS_audio.c **** uint8 USBFS_DispatchAUDIOClassRqst() 
 117:.\Generated_Source\PSoC5/USBFS_audio.c **** {
  59              		.loc 1 117 0
  60              		.cfi_startproc
  61              		@ args = 0, pretend = 0, frame = 8
  62              		@ frame_needed = 1, uses_anonymous_args = 0
  63 0000 80B5     		push	{r7, lr}
  64              		.cfi_def_cfa_offset 8
  65              		.cfi_offset 7, -8
  66              		.cfi_offset 14, -4
  67 0002 82B0     		sub	sp, sp, #8
  68              		.cfi_def_cfa_offset 16
  69 0004 00AF     		add	r7, sp, #0
  70              		.cfi_def_cfa_register 7
 118:.\Generated_Source\PSoC5/USBFS_audio.c ****     uint8 requestHandled = USBFS_FALSE;
  71              		.loc 1 118 0
  72 0006 0023     		movs	r3, #0
  73 0008 FB71     		strb	r3, [r7, #7]
 119:.\Generated_Source\PSoC5/USBFS_audio.c ****     
 120:.\Generated_Source\PSoC5/USBFS_audio.c ****     #if defined(USBFS_ENABLE_AUDIO_STREAMING)
 121:.\Generated_Source\PSoC5/USBFS_audio.c ****         uint8 epNumber;
 122:.\Generated_Source\PSoC5/USBFS_audio.c ****         epNumber = CY_GET_REG8(USBFS_wIndexLo) & USBFS_DIR_UNUSED;
  74              		.loc 1 122 0
  75 000a 9F4B     		ldr	r3, .L49
  76 000c 1B78     		ldrb	r3, [r3]
  77 000e DBB2     		uxtb	r3, r3
  78 0010 03F07F03 		and	r3, r3, #127
  79 0014 BB71     		strb	r3, [r7, #6]
 123:.\Generated_Source\PSoC5/USBFS_audio.c ****     #endif /* End USBFS_ENABLE_AUDIO_STREAMING */
 124:.\Generated_Source\PSoC5/USBFS_audio.c **** 
 125:.\Generated_Source\PSoC5/USBFS_audio.c ****     if ((CY_GET_REG8(USBFS_bmRequestType) & USBFS_RQST_DIR_MASK) == USBFS_RQST_DIR_D2H)
  80              		.loc 1 125 0
  81 0016 9D4B     		ldr	r3, .L49+4
  82 0018 1B78     		ldrb	r3, [r3]
  83 001a DBB2     		uxtb	r3, r3
  84 001c DBB2     		uxtb	r3, r3
  85 001e 5BB2     		sxtb	r3, r3
  86 0020 002B     		cmp	r3, #0
  87 0022 80F2B880 		bge	.L2
 126:.\Generated_Source\PSoC5/USBFS_audio.c ****     {
 127:.\Generated_Source\PSoC5/USBFS_audio.c ****         /* Control Read */
 128:.\Generated_Source\PSoC5/USBFS_audio.c ****         if((CY_GET_REG8(USBFS_bmRequestType) & USBFS_RQST_RCPT_MASK) == \
  88              		.loc 1 128 0
  89 0026 994B     		ldr	r3, .L49+4
  90 0028 1B78     		ldrb	r3, [r3]
  91 002a DBB2     		uxtb	r3, r3
  92 002c 03F00303 		and	r3, r3, #3
  93 0030 022B     		cmp	r3, #2
  94 0032 1CD1     		bne	.L3
 129:.\Generated_Source\PSoC5/USBFS_audio.c ****                                                                                     USBFS_RQST_RCPT
 130:.\Generated_Source\PSoC5/USBFS_audio.c ****         {
 131:.\Generated_Source\PSoC5/USBFS_audio.c ****             /* Endpoint */
 132:.\Generated_Source\PSoC5/USBFS_audio.c ****             switch (CY_GET_REG8(USBFS_bRequest))
  95              		.loc 1 132 0
  96 0034 964B     		ldr	r3, .L49+8
ARM GAS  C:\USERS\LUKAS\APPDATA\LOCAL\TEMP\ccRkU2qz.s 			page 5


  97 0036 1B78     		ldrb	r3, [r3]
  98 0038 DBB2     		uxtb	r3, r3
  99 003a 812B     		cmp	r3, #129
 100 003c 00D0     		beq	.L5
 133:.\Generated_Source\PSoC5/USBFS_audio.c ****             {
 134:.\Generated_Source\PSoC5/USBFS_audio.c ****                 case USBFS_GET_CUR:
 135:.\Generated_Source\PSoC5/USBFS_audio.c ****                 #if defined(USBFS_ENABLE_AUDIO_STREAMING)
 136:.\Generated_Source\PSoC5/USBFS_audio.c ****                     if(CY_GET_REG8(USBFS_wValueHi) == USBFS_SAMPLING_FREQ_CONTROL)
 137:.\Generated_Source\PSoC5/USBFS_audio.c ****                     {
 138:.\Generated_Source\PSoC5/USBFS_audio.c ****                          /* Endpoint Control Selector is Sampling Frequency */
 139:.\Generated_Source\PSoC5/USBFS_audio.c ****                         USBFS_currentTD.wCount = USBFS_SAMPLE_FREQ_LEN;
 140:.\Generated_Source\PSoC5/USBFS_audio.c ****                         USBFS_currentTD.pData  = USBFS_currentSampleFrequency[epNumber];
 141:.\Generated_Source\PSoC5/USBFS_audio.c ****                         requestHandled   = USBFS_InitControlRead();
 142:.\Generated_Source\PSoC5/USBFS_audio.c ****                     }
 143:.\Generated_Source\PSoC5/USBFS_audio.c ****                 #endif /* End USBFS_ENABLE_AUDIO_STREAMING */
 144:.\Generated_Source\PSoC5/USBFS_audio.c **** 
 145:.\Generated_Source\PSoC5/USBFS_audio.c ****                 /* `#START AUDIO_READ_REQUESTS` Place other request handler here */
 146:.\Generated_Source\PSoC5/USBFS_audio.c **** 
 147:.\Generated_Source\PSoC5/USBFS_audio.c ****                 /* `#END` */
 148:.\Generated_Source\PSoC5/USBFS_audio.c ****                     break;
 149:.\Generated_Source\PSoC5/USBFS_audio.c ****                 default:
 150:.\Generated_Source\PSoC5/USBFS_audio.c ****                     break;
 101              		.loc 1 150 0
 102 003e 15E0     		b	.L7
 103              	.L5:
 136:.\Generated_Source\PSoC5/USBFS_audio.c ****                     {
 104              		.loc 1 136 0
 105 0040 944B     		ldr	r3, .L49+12
 106 0042 1B78     		ldrb	r3, [r3]
 107 0044 DBB2     		uxtb	r3, r3
 108 0046 012B     		cmp	r3, #1
 109 0048 0FD1     		bne	.L6
 139:.\Generated_Source\PSoC5/USBFS_audio.c ****                         USBFS_currentTD.pData  = USBFS_currentSampleFrequency[epNumber];
 110              		.loc 1 139 0
 111 004a 934B     		ldr	r3, .L49+16
 112 004c 0322     		movs	r2, #3
 113 004e 1A80     		strh	r2, [r3]	@ movhi
 140:.\Generated_Source\PSoC5/USBFS_audio.c ****                         requestHandled   = USBFS_InitControlRead();
 114              		.loc 1 140 0
 115 0050 BA79     		ldrb	r2, [r7, #6]	@ zero_extendqisi2
 116 0052 1346     		mov	r3, r2
 117 0054 5B00     		lsls	r3, r3, #1
 118 0056 1344     		add	r3, r3, r2
 119 0058 904A     		ldr	r2, .L49+20
 120 005a 1344     		add	r3, r3, r2
 121 005c 8E4A     		ldr	r2, .L49+16
 122 005e 5360     		str	r3, [r2, #4]
 141:.\Generated_Source\PSoC5/USBFS_audio.c ****                     }
 123              		.loc 1 141 0
 124 0060 FFF7FEFF 		bl	USBFS_InitControlRead
 125 0064 0346     		mov	r3, r0
 126 0066 FB71     		strb	r3, [r7, #7]
 148:.\Generated_Source\PSoC5/USBFS_audio.c ****                 default:
 127              		.loc 1 148 0
 128 0068 FFE7     		b	.L46
 129              	.L6:
 130              	.L46:
ARM GAS  C:\USERS\LUKAS\APPDATA\LOCAL\TEMP\ccRkU2qz.s 			page 6


 131 006a 00BF     		nop
 132              	.L7:
 133 006c 40E1     		b	.L8
 134              	.L3:
 151:.\Generated_Source\PSoC5/USBFS_audio.c ****             }
 152:.\Generated_Source\PSoC5/USBFS_audio.c ****         }
 153:.\Generated_Source\PSoC5/USBFS_audio.c ****         else if((CY_GET_REG8(USBFS_bmRequestType) & USBFS_RQST_RCPT_MASK) == \
 135              		.loc 1 153 0
 136 006e 874B     		ldr	r3, .L49+4
 137 0070 1B78     		ldrb	r3, [r3]
 138 0072 DBB2     		uxtb	r3, r3
 139 0074 03F00303 		and	r3, r3, #3
 140 0078 012B     		cmp	r3, #1
 141 007a 40F03981 		bne	.L8
 154:.\Generated_Source\PSoC5/USBFS_audio.c ****                                                                                     USBFS_RQST_RCPT
 155:.\Generated_Source\PSoC5/USBFS_audio.c ****         {
 156:.\Generated_Source\PSoC5/USBFS_audio.c ****             /* Interface or Entity ID */
 157:.\Generated_Source\PSoC5/USBFS_audio.c ****             switch (CY_GET_REG8(USBFS_bRequest))
 142              		.loc 1 157 0
 143 007e 844B     		ldr	r3, .L49+8
 144 0080 1B78     		ldrb	r3, [r3]
 145 0082 DBB2     		uxtb	r3, r3
 146 0084 832B     		cmp	r3, #131
 147 0086 5BD0     		beq	.L10
 148 0088 832B     		cmp	r3, #131
 149 008a 04DC     		bgt	.L11
 150 008c 812B     		cmp	r3, #129
 151 008e 07D0     		beq	.L12
 152 0090 822B     		cmp	r3, #130
 153 0092 44D0     		beq	.L13
 158:.\Generated_Source\PSoC5/USBFS_audio.c ****             {
 159:.\Generated_Source\PSoC5/USBFS_audio.c ****                 case USBFS_GET_CUR:
 160:.\Generated_Source\PSoC5/USBFS_audio.c ****                 #if defined(USBFS_ENABLE_AUDIO_STREAMING)
 161:.\Generated_Source\PSoC5/USBFS_audio.c ****                     if(CY_GET_REG8(USBFS_wValueHi) == USBFS_MUTE_CONTROL)
 162:.\Generated_Source\PSoC5/USBFS_audio.c ****                     {
 163:.\Generated_Source\PSoC5/USBFS_audio.c ****                          /* Entity ID Control Selector is MUTE */
 164:.\Generated_Source\PSoC5/USBFS_audio.c ****                         USBFS_currentTD.wCount = 1;
 165:.\Generated_Source\PSoC5/USBFS_audio.c ****                         USBFS_currentTD.pData  = &USBFS_currentMute;
 166:.\Generated_Source\PSoC5/USBFS_audio.c ****                         requestHandled   = USBFS_InitControlRead();
 167:.\Generated_Source\PSoC5/USBFS_audio.c ****                     }
 168:.\Generated_Source\PSoC5/USBFS_audio.c ****                     else if(CY_GET_REG8(USBFS_wValueHi) == USBFS_VOLUME_CONTROL)
 169:.\Generated_Source\PSoC5/USBFS_audio.c ****                     {
 170:.\Generated_Source\PSoC5/USBFS_audio.c ****                         /* `#START VOLUME_CONTROL_GET_REQUEST` Place multi-channel handler here */
 171:.\Generated_Source\PSoC5/USBFS_audio.c ****                         #ifndef ENABLE_DIGITAL_AUDIO_OUT_ONLY
 172:.\Generated_Source\PSoC5/USBFS_audio.c ****                             USBFS_currentTD.wCount = USBFS_VOLUME_LEN;
 173:.\Generated_Source\PSoC5/USBFS_audio.c ****     						switch(CY_GET_REG8(USBFS_wIndexHi))
 174:.\Generated_Source\PSoC5/USBFS_audio.c ****     	                    {
 175:.\Generated_Source\PSoC5/USBFS_audio.c ****                                 case INPUT_VOLUME_FEATURE_UNIT:
 176:.\Generated_Source\PSoC5/USBFS_audio.c **** 	                            USBFS_currentTD.pData  = USB_inputVolume;
 177:.\Generated_Source\PSoC5/USBFS_audio.c ****                                 if(CY_GET_REG8(USBFS_wValueLo) == 1)	/* channel 1 input volume upda
 178:.\Generated_Source\PSoC5/USBFS_audio.c ****     							{
 179:.\Generated_Source\PSoC5/USBFS_audio.c ****                             		USBFS_currentTD.pData  = &USBFS_currentCH1InputVolume[0];							
 180:.\Generated_Source\PSoC5/USBFS_audio.c ****     							}
 181:.\Generated_Source\PSoC5/USBFS_audio.c ****     							else if(CY_GET_REG8(USBFS_wValueLo) == 2)	/* channel 2 input volume update to host */
 182:.\Generated_Source\PSoC5/USBFS_audio.c ****     							{
 183:.\Generated_Source\PSoC5/USBFS_audio.c ****                             		USBFS_currentTD.pData  = &USBFS_currentCH2InputVolume[0];							
 184:.\Generated_Source\PSoC5/USBFS_audio.c ****     							}
ARM GAS  C:\USERS\LUKAS\APPDATA\LOCAL\TEMP\ccRkU2qz.s 			page 7


 185:.\Generated_Source\PSoC5/USBFS_audio.c ****                                 break;
 186:.\Generated_Source\PSoC5/USBFS_audio.c ****                                 
 187:.\Generated_Source\PSoC5/USBFS_audio.c ****     							case OUTPUT_VOLUME_FEATURE_UNIT:
 188:.\Generated_Source\PSoC5/USBFS_audio.c ****                                 USBFS_currentTD.pData  = USBFS_currentVolume;
 189:.\Generated_Source\PSoC5/USBFS_audio.c ****                                 break;
 190:.\Generated_Source\PSoC5/USBFS_audio.c ****                             }
 191:.\Generated_Source\PSoC5/USBFS_audio.c ****                             requestHandled   = USBFS_InitControlRead();
 192:.\Generated_Source\PSoC5/USBFS_audio.c ****                             break;
 193:.\Generated_Source\PSoC5/USBFS_audio.c ****                         #endif
 194:.\Generated_Source\PSoC5/USBFS_audio.c ****                         /* `#END` */
 195:.\Generated_Source\PSoC5/USBFS_audio.c **** 
 196:.\Generated_Source\PSoC5/USBFS_audio.c ****                          /* Entity ID Control Selector is VOLUME, */
 197:.\Generated_Source\PSoC5/USBFS_audio.c ****                         USBFS_currentTD.wCount = USBFS_VOLUME_LEN;
 198:.\Generated_Source\PSoC5/USBFS_audio.c ****                         USBFS_currentTD.pData  = USBFS_currentVolume;
 199:.\Generated_Source\PSoC5/USBFS_audio.c ****                         requestHandled   = USBFS_InitControlRead();
 200:.\Generated_Source\PSoC5/USBFS_audio.c ****                     }
 201:.\Generated_Source\PSoC5/USBFS_audio.c ****                     else
 202:.\Generated_Source\PSoC5/USBFS_audio.c ****                     {
 203:.\Generated_Source\PSoC5/USBFS_audio.c ****                     }
 204:.\Generated_Source\PSoC5/USBFS_audio.c ****                     break;
 205:.\Generated_Source\PSoC5/USBFS_audio.c ****                 case USBFS_GET_MIN:    /* GET_MIN */
 206:.\Generated_Source\PSoC5/USBFS_audio.c ****                     if(CY_GET_REG8(USBFS_wValueHi) == USBFS_VOLUME_CONTROL)
 207:.\Generated_Source\PSoC5/USBFS_audio.c ****                     {
 208:.\Generated_Source\PSoC5/USBFS_audio.c ****                          /* Entity ID Control Selector is VOLUME, */
 209:.\Generated_Source\PSoC5/USBFS_audio.c ****                         USBFS_currentTD.wCount = USBFS_VOLUME_LEN;
 210:.\Generated_Source\PSoC5/USBFS_audio.c ****                         USBFS_currentTD.pData  = &USBFS_minimumVolume[0];
 211:.\Generated_Source\PSoC5/USBFS_audio.c ****                         requestHandled   = USBFS_InitControlRead();
 212:.\Generated_Source\PSoC5/USBFS_audio.c ****                     }
 213:.\Generated_Source\PSoC5/USBFS_audio.c ****                     break;
 214:.\Generated_Source\PSoC5/USBFS_audio.c ****                 case USBFS_GET_MAX:    /* GET_MAX */
 215:.\Generated_Source\PSoC5/USBFS_audio.c ****                     if(CY_GET_REG8(USBFS_wValueHi) == USBFS_VOLUME_CONTROL)
 216:.\Generated_Source\PSoC5/USBFS_audio.c ****                     {
 217:.\Generated_Source\PSoC5/USBFS_audio.c ****                              /* Entity ID Control Selector is VOLUME, */
 218:.\Generated_Source\PSoC5/USBFS_audio.c ****                         USBFS_currentTD.wCount = USBFS_VOLUME_LEN;
 219:.\Generated_Source\PSoC5/USBFS_audio.c ****                         USBFS_currentTD.pData  = &USBFS_maximumVolume[0];
 220:.\Generated_Source\PSoC5/USBFS_audio.c ****                         requestHandled   = USBFS_InitControlRead();
 221:.\Generated_Source\PSoC5/USBFS_audio.c ****                     }
 222:.\Generated_Source\PSoC5/USBFS_audio.c ****                     break;
 223:.\Generated_Source\PSoC5/USBFS_audio.c ****                 case USBFS_GET_RES:    /* GET_RES */
 224:.\Generated_Source\PSoC5/USBFS_audio.c ****                     if(CY_GET_REG8(USBFS_wValueHi) == USBFS_VOLUME_CONTROL)
 225:.\Generated_Source\PSoC5/USBFS_audio.c ****                     {
 226:.\Generated_Source\PSoC5/USBFS_audio.c ****                          /* Entity ID Control Selector is VOLUME, */
 227:.\Generated_Source\PSoC5/USBFS_audio.c ****                         USBFS_currentTD.wCount = USBFS_VOLUME_LEN;
 228:.\Generated_Source\PSoC5/USBFS_audio.c ****                         USBFS_currentTD.pData  = &USBFS_resolutionVolume[0];
 229:.\Generated_Source\PSoC5/USBFS_audio.c ****                         requestHandled   = USBFS_InitControlRead();
 230:.\Generated_Source\PSoC5/USBFS_audio.c ****                     }
 231:.\Generated_Source\PSoC5/USBFS_audio.c ****                     break;
 232:.\Generated_Source\PSoC5/USBFS_audio.c ****                 /* The contents of the status message is reserved for future use.
 233:.\Generated_Source\PSoC5/USBFS_audio.c ****                 *  For the time being, a null packet should be returned in the data stage of the 
 234:.\Generated_Source\PSoC5/USBFS_audio.c ****                 *  control transfer, and the received null packet should be ACKed.
 235:.\Generated_Source\PSoC5/USBFS_audio.c ****                 */
 236:.\Generated_Source\PSoC5/USBFS_audio.c ****                 case USBFS_GET_STAT:
 237:.\Generated_Source\PSoC5/USBFS_audio.c ****                         USBFS_currentTD.wCount = 0;
 238:.\Generated_Source\PSoC5/USBFS_audio.c ****                         requestHandled   = USBFS_InitControlWrite();
 239:.\Generated_Source\PSoC5/USBFS_audio.c **** 
 240:.\Generated_Source\PSoC5/USBFS_audio.c ****                 #endif /* End USBFS_ENABLE_AUDIO_STREAMING */
 241:.\Generated_Source\PSoC5/USBFS_audio.c **** 
ARM GAS  C:\USERS\LUKAS\APPDATA\LOCAL\TEMP\ccRkU2qz.s 			page 8


 242:.\Generated_Source\PSoC5/USBFS_audio.c ****                 /* `#START AUDIO_WRITE_REQUESTS` Place other request handler here */
 243:.\Generated_Source\PSoC5/USBFS_audio.c **** 
 244:.\Generated_Source\PSoC5/USBFS_audio.c ****                 /* `#END` */
 245:.\Generated_Source\PSoC5/USBFS_audio.c ****                     break;
 246:.\Generated_Source\PSoC5/USBFS_audio.c ****                 default:
 247:.\Generated_Source\PSoC5/USBFS_audio.c ****                     break;
 154              		.loc 1 247 0
 155 0094 7EE0     		b	.L23
 156              	.L11:
 157:.\Generated_Source\PSoC5/USBFS_audio.c ****             {
 157              		.loc 1 157 0
 158 0096 842B     		cmp	r3, #132
 159 0098 63D0     		beq	.L14
 160 009a FF2B     		cmp	r3, #255
 161 009c 72D0     		beq	.L15
 162              		.loc 1 247 0
 163 009e 79E0     		b	.L23
 164              	.L12:
 161:.\Generated_Source\PSoC5/USBFS_audio.c ****                     {
 165              		.loc 1 161 0
 166 00a0 7C4B     		ldr	r3, .L49+12
 167 00a2 1B78     		ldrb	r3, [r3]
 168 00a4 DBB2     		uxtb	r3, r3
 169 00a6 012B     		cmp	r3, #1
 170 00a8 0AD1     		bne	.L16
 164:.\Generated_Source\PSoC5/USBFS_audio.c ****                         USBFS_currentTD.pData  = &USBFS_currentMute;
 171              		.loc 1 164 0
 172 00aa 7B4B     		ldr	r3, .L49+16
 173 00ac 0122     		movs	r2, #1
 174 00ae 1A80     		strh	r2, [r3]	@ movhi
 165:.\Generated_Source\PSoC5/USBFS_audio.c ****                         requestHandled   = USBFS_InitControlRead();
 175              		.loc 1 165 0
 176 00b0 794B     		ldr	r3, .L49+16
 177 00b2 7B4A     		ldr	r2, .L49+24
 178 00b4 5A60     		str	r2, [r3, #4]
 166:.\Generated_Source\PSoC5/USBFS_audio.c ****                     }
 179              		.loc 1 166 0
 180 00b6 FFF7FEFF 		bl	USBFS_InitControlRead
 181 00ba 0346     		mov	r3, r0
 182 00bc FB71     		strb	r3, [r7, #7]
 183 00be 2DE0     		b	.L17
 184              	.L16:
 168:.\Generated_Source\PSoC5/USBFS_audio.c ****                     {
 185              		.loc 1 168 0
 186 00c0 744B     		ldr	r3, .L49+12
 187 00c2 1B78     		ldrb	r3, [r3]
 188 00c4 DBB2     		uxtb	r3, r3
 189 00c6 022B     		cmp	r3, #2
 190 00c8 28D1     		bne	.L17
 172:.\Generated_Source\PSoC5/USBFS_audio.c ****     						switch(CY_GET_REG8(USBFS_wIndexHi))
 191              		.loc 1 172 0
 192 00ca 734B     		ldr	r3, .L49+16
 193 00cc 0222     		movs	r2, #2
 194 00ce 1A80     		strh	r2, [r3]	@ movhi
 173:.\Generated_Source\PSoC5/USBFS_audio.c ****     	                    {
 195              		.loc 1 173 0
 196 00d0 744B     		ldr	r3, .L49+28
ARM GAS  C:\USERS\LUKAS\APPDATA\LOCAL\TEMP\ccRkU2qz.s 			page 9


 197 00d2 1B78     		ldrb	r3, [r3]
 198 00d4 DBB2     		uxtb	r3, r3
 199 00d6 022B     		cmp	r3, #2
 200 00d8 17D0     		beq	.L19
 201 00da 062B     		cmp	r3, #6
 202 00dc 19D1     		bne	.L18
 176:.\Generated_Source\PSoC5/USBFS_audio.c ****                                 if(CY_GET_REG8(USBFS_wValueLo) == 1)	/* channel 1 input volume upda
 203              		.loc 1 176 0
 204 00de 6E4B     		ldr	r3, .L49+16
 205 00e0 714A     		ldr	r2, .L49+32
 206 00e2 5A60     		str	r2, [r3, #4]
 177:.\Generated_Source\PSoC5/USBFS_audio.c ****     							{
 207              		.loc 1 177 0
 208 00e4 714B     		ldr	r3, .L49+36
 209 00e6 1B78     		ldrb	r3, [r3]
 210 00e8 DBB2     		uxtb	r3, r3
 211 00ea 012B     		cmp	r3, #1
 212 00ec 03D1     		bne	.L21
 179:.\Generated_Source\PSoC5/USBFS_audio.c ****     							}
 213              		.loc 1 179 0
 214 00ee 6A4B     		ldr	r3, .L49+16
 215 00f0 6F4A     		ldr	r2, .L49+40
 216 00f2 5A60     		str	r2, [r3, #4]
 217 00f4 08E0     		b	.L22
 218              	.L21:
 181:.\Generated_Source\PSoC5/USBFS_audio.c ****     							{
 219              		.loc 1 181 0
 220 00f6 6D4B     		ldr	r3, .L49+36
 221 00f8 1B78     		ldrb	r3, [r3]
 222 00fa DBB2     		uxtb	r3, r3
 223 00fc 022B     		cmp	r3, #2
 224 00fe 03D1     		bne	.L22
 183:.\Generated_Source\PSoC5/USBFS_audio.c ****     							}
 225              		.loc 1 183 0
 226 0100 654B     		ldr	r3, .L49+16
 227 0102 6C4A     		ldr	r2, .L49+44
 228 0104 5A60     		str	r2, [r3, #4]
 185:.\Generated_Source\PSoC5/USBFS_audio.c ****                                 
 229              		.loc 1 185 0
 230 0106 04E0     		b	.L18
 231              	.L22:
 232 0108 03E0     		b	.L18
 233              	.L19:
 188:.\Generated_Source\PSoC5/USBFS_audio.c ****                                 break;
 234              		.loc 1 188 0
 235 010a 634B     		ldr	r3, .L49+16
 236 010c 6A4A     		ldr	r2, .L49+48
 237 010e 5A60     		str	r2, [r3, #4]
 189:.\Generated_Source\PSoC5/USBFS_audio.c ****                             }
 238              		.loc 1 189 0
 239 0110 00BF     		nop
 240              	.L18:
 191:.\Generated_Source\PSoC5/USBFS_audio.c ****                             break;
 241              		.loc 1 191 0
 242 0112 FFF7FEFF 		bl	USBFS_InitControlRead
 243 0116 0346     		mov	r3, r0
 244 0118 FB71     		strb	r3, [r7, #7]
ARM GAS  C:\USERS\LUKAS\APPDATA\LOCAL\TEMP\ccRkU2qz.s 			page 10


 192:.\Generated_Source\PSoC5/USBFS_audio.c ****                         #endif
 245              		.loc 1 192 0
 246 011a 3BE0     		b	.L23
 247              	.L17:
 204:.\Generated_Source\PSoC5/USBFS_audio.c ****                 case USBFS_GET_MIN:    /* GET_MIN */
 248              		.loc 1 204 0
 249 011c 3AE0     		b	.L23
 250              	.L13:
 206:.\Generated_Source\PSoC5/USBFS_audio.c ****                     {
 251              		.loc 1 206 0
 252 011e 5D4B     		ldr	r3, .L49+12
 253 0120 1B78     		ldrb	r3, [r3]
 254 0122 DBB2     		uxtb	r3, r3
 255 0124 022B     		cmp	r3, #2
 256 0126 0AD1     		bne	.L24
 209:.\Generated_Source\PSoC5/USBFS_audio.c ****                         USBFS_currentTD.pData  = &USBFS_minimumVolume[0];
 257              		.loc 1 209 0
 258 0128 5B4B     		ldr	r3, .L49+16
 259 012a 0222     		movs	r2, #2
 260 012c 1A80     		strh	r2, [r3]	@ movhi
 210:.\Generated_Source\PSoC5/USBFS_audio.c ****                         requestHandled   = USBFS_InitControlRead();
 261              		.loc 1 210 0
 262 012e 5A4B     		ldr	r3, .L49+16
 263 0130 624A     		ldr	r2, .L49+52
 264 0132 5A60     		str	r2, [r3, #4]
 211:.\Generated_Source\PSoC5/USBFS_audio.c ****                     }
 265              		.loc 1 211 0
 266 0134 FFF7FEFF 		bl	USBFS_InitControlRead
 267 0138 0346     		mov	r3, r0
 268 013a FB71     		strb	r3, [r7, #7]
 213:.\Generated_Source\PSoC5/USBFS_audio.c ****                 case USBFS_GET_MAX:    /* GET_MAX */
 269              		.loc 1 213 0
 270 013c 2AE0     		b	.L23
 271              	.L24:
 213:.\Generated_Source\PSoC5/USBFS_audio.c ****                 case USBFS_GET_MAX:    /* GET_MAX */
 272              		.loc 1 213 0 is_stmt 0 discriminator 5
 273 013e 29E0     		b	.L23
 274              	.L10:
 215:.\Generated_Source\PSoC5/USBFS_audio.c ****                     {
 275              		.loc 1 215 0 is_stmt 1
 276 0140 544B     		ldr	r3, .L49+12
 277 0142 1B78     		ldrb	r3, [r3]
 278 0144 DBB2     		uxtb	r3, r3
 279 0146 022B     		cmp	r3, #2
 280 0148 0AD1     		bne	.L25
 218:.\Generated_Source\PSoC5/USBFS_audio.c ****                         USBFS_currentTD.pData  = &USBFS_maximumVolume[0];
 281              		.loc 1 218 0
 282 014a 534B     		ldr	r3, .L49+16
 283 014c 0222     		movs	r2, #2
 284 014e 1A80     		strh	r2, [r3]	@ movhi
 219:.\Generated_Source\PSoC5/USBFS_audio.c ****                         requestHandled   = USBFS_InitControlRead();
 285              		.loc 1 219 0
 286 0150 514B     		ldr	r3, .L49+16
 287 0152 5B4A     		ldr	r2, .L49+56
 288 0154 5A60     		str	r2, [r3, #4]
 220:.\Generated_Source\PSoC5/USBFS_audio.c ****                     }
 289              		.loc 1 220 0
ARM GAS  C:\USERS\LUKAS\APPDATA\LOCAL\TEMP\ccRkU2qz.s 			page 11


 290 0156 FFF7FEFF 		bl	USBFS_InitControlRead
 291 015a 0346     		mov	r3, r0
 292 015c FB71     		strb	r3, [r7, #7]
 222:.\Generated_Source\PSoC5/USBFS_audio.c ****                 case USBFS_GET_RES:    /* GET_RES */
 293              		.loc 1 222 0
 294 015e 19E0     		b	.L23
 295              	.L25:
 222:.\Generated_Source\PSoC5/USBFS_audio.c ****                 case USBFS_GET_RES:    /* GET_RES */
 296              		.loc 1 222 0 is_stmt 0 discriminator 6
 297 0160 18E0     		b	.L23
 298              	.L14:
 224:.\Generated_Source\PSoC5/USBFS_audio.c ****                     {
 299              		.loc 1 224 0 is_stmt 1
 300 0162 4C4B     		ldr	r3, .L49+12
 301 0164 1B78     		ldrb	r3, [r3]
 302 0166 DBB2     		uxtb	r3, r3
 303 0168 022B     		cmp	r3, #2
 304 016a 0AD1     		bne	.L26
 227:.\Generated_Source\PSoC5/USBFS_audio.c ****                         USBFS_currentTD.pData  = &USBFS_resolutionVolume[0];
 305              		.loc 1 227 0
 306 016c 4A4B     		ldr	r3, .L49+16
 307 016e 0222     		movs	r2, #2
 308 0170 1A80     		strh	r2, [r3]	@ movhi
 228:.\Generated_Source\PSoC5/USBFS_audio.c ****                         requestHandled   = USBFS_InitControlRead();
 309              		.loc 1 228 0
 310 0172 494B     		ldr	r3, .L49+16
 311 0174 534A     		ldr	r2, .L49+60
 312 0176 5A60     		str	r2, [r3, #4]
 229:.\Generated_Source\PSoC5/USBFS_audio.c ****                     }
 313              		.loc 1 229 0
 314 0178 FFF7FEFF 		bl	USBFS_InitControlRead
 315 017c 0346     		mov	r3, r0
 316 017e FB71     		strb	r3, [r7, #7]
 231:.\Generated_Source\PSoC5/USBFS_audio.c ****                 /* The contents of the status message is reserved for future use.
 317              		.loc 1 231 0
 318 0180 08E0     		b	.L23
 319              	.L26:
 231:.\Generated_Source\PSoC5/USBFS_audio.c ****                 /* The contents of the status message is reserved for future use.
 320              		.loc 1 231 0 is_stmt 0 discriminator 7
 321 0182 07E0     		b	.L23
 322              	.L15:
 237:.\Generated_Source\PSoC5/USBFS_audio.c ****                         requestHandled   = USBFS_InitControlWrite();
 323              		.loc 1 237 0 is_stmt 1
 324 0184 444B     		ldr	r3, .L49+16
 325 0186 0022     		movs	r2, #0
 326 0188 1A80     		strh	r2, [r3]	@ movhi
 238:.\Generated_Source\PSoC5/USBFS_audio.c **** 
 327              		.loc 1 238 0
 328 018a FFF7FEFF 		bl	USBFS_InitControlWrite
 329 018e 0346     		mov	r3, r0
 330 0190 FB71     		strb	r3, [r7, #7]
 245:.\Generated_Source\PSoC5/USBFS_audio.c ****                 default:
 331              		.loc 1 245 0
 332 0192 00BF     		nop
 333              	.L23:
 334 0194 ACE0     		b	.L8
 335              	.L2:
ARM GAS  C:\USERS\LUKAS\APPDATA\LOCAL\TEMP\ccRkU2qz.s 			page 12


 248:.\Generated_Source\PSoC5/USBFS_audio.c ****             }
 249:.\Generated_Source\PSoC5/USBFS_audio.c ****         }
 250:.\Generated_Source\PSoC5/USBFS_audio.c ****         else
 251:.\Generated_Source\PSoC5/USBFS_audio.c ****         {   /* USBFS_RQST_RCPT_OTHER */
 252:.\Generated_Source\PSoC5/USBFS_audio.c ****         }
 253:.\Generated_Source\PSoC5/USBFS_audio.c ****     }
 254:.\Generated_Source\PSoC5/USBFS_audio.c ****     else if ((CY_GET_REG8(USBFS_bmRequestType) & USBFS_RQST_DIR_MASK) == \
 336              		.loc 1 254 0
 337 0196 3D4B     		ldr	r3, .L49+4
 338 0198 1B78     		ldrb	r3, [r3]
 339 019a DBB2     		uxtb	r3, r3
 340 019c DBB2     		uxtb	r3, r3
 341 019e 5BB2     		sxtb	r3, r3
 342 01a0 002B     		cmp	r3, #0
 343 01a2 C0F2A580 		blt	.L8
 255:.\Generated_Source\PSoC5/USBFS_audio.c ****                                                                                     USBFS_RQST_DIR_
 256:.\Generated_Source\PSoC5/USBFS_audio.c ****     {
 257:.\Generated_Source\PSoC5/USBFS_audio.c ****         /* Control Write */
 258:.\Generated_Source\PSoC5/USBFS_audio.c ****         if((CY_GET_REG8(USBFS_bmRequestType) & USBFS_RQST_RCPT_MASK) == \
 344              		.loc 1 258 0
 345 01a6 394B     		ldr	r3, .L49+4
 346 01a8 1B78     		ldrb	r3, [r3]
 347 01aa DBB2     		uxtb	r3, r3
 348 01ac 03F00303 		and	r3, r3, #3
 349 01b0 022B     		cmp	r3, #2
 350 01b2 1FD1     		bne	.L27
 259:.\Generated_Source\PSoC5/USBFS_audio.c ****                                                                                     USBFS_RQST_RCPT
 260:.\Generated_Source\PSoC5/USBFS_audio.c ****         {
 261:.\Generated_Source\PSoC5/USBFS_audio.c ****             /* Endpoint */
 262:.\Generated_Source\PSoC5/USBFS_audio.c ****             switch (CY_GET_REG8(USBFS_bRequest))
 351              		.loc 1 262 0
 352 01b4 364B     		ldr	r3, .L49+8
 353 01b6 1B78     		ldrb	r3, [r3]
 354 01b8 DBB2     		uxtb	r3, r3
 355 01ba 012B     		cmp	r3, #1
 356 01bc 00D0     		beq	.L29
 263:.\Generated_Source\PSoC5/USBFS_audio.c ****             {
 264:.\Generated_Source\PSoC5/USBFS_audio.c ****                 case USBFS_SET_CUR:
 265:.\Generated_Source\PSoC5/USBFS_audio.c ****                 #if defined(USBFS_ENABLE_AUDIO_STREAMING)
 266:.\Generated_Source\PSoC5/USBFS_audio.c ****                     if(CY_GET_REG8(USBFS_wValueHi) == USBFS_SAMPLING_FREQ_CONTROL)
 267:.\Generated_Source\PSoC5/USBFS_audio.c ****                     {
 268:.\Generated_Source\PSoC5/USBFS_audio.c ****                          /* Endpoint Control Selector is Sampling Frequency */
 269:.\Generated_Source\PSoC5/USBFS_audio.c ****                         USBFS_currentTD.wCount = USBFS_SAMPLE_FREQ_LEN;
 270:.\Generated_Source\PSoC5/USBFS_audio.c ****                         USBFS_currentTD.pData  = USBFS_currentSampleFrequency[epNumber];
 271:.\Generated_Source\PSoC5/USBFS_audio.c ****                         requestHandled   = USBFS_InitControlWrite();
 272:.\Generated_Source\PSoC5/USBFS_audio.c ****                         USBFS_frequencyChanged = epNumber;
 273:.\Generated_Source\PSoC5/USBFS_audio.c ****                     }
 274:.\Generated_Source\PSoC5/USBFS_audio.c ****                 #endif /* End USBFS_ENABLE_AUDIO_STREAMING */
 275:.\Generated_Source\PSoC5/USBFS_audio.c **** 
 276:.\Generated_Source\PSoC5/USBFS_audio.c ****                 /* `#START AUDIO_SAMPLING_FREQ_REQUESTS` Place other request handler here */
 277:.\Generated_Source\PSoC5/USBFS_audio.c **** 
 278:.\Generated_Source\PSoC5/USBFS_audio.c ****                 /* `#END` */
 279:.\Generated_Source\PSoC5/USBFS_audio.c ****                     break;
 280:.\Generated_Source\PSoC5/USBFS_audio.c ****                 default:
 281:.\Generated_Source\PSoC5/USBFS_audio.c ****                     break;
 357              		.loc 1 281 0
 358 01be 18E0     		b	.L31
ARM GAS  C:\USERS\LUKAS\APPDATA\LOCAL\TEMP\ccRkU2qz.s 			page 13


 359              	.L29:
 266:.\Generated_Source\PSoC5/USBFS_audio.c ****                     {
 360              		.loc 1 266 0
 361 01c0 344B     		ldr	r3, .L49+12
 362 01c2 1B78     		ldrb	r3, [r3]
 363 01c4 DBB2     		uxtb	r3, r3
 364 01c6 012B     		cmp	r3, #1
 365 01c8 12D1     		bne	.L30
 269:.\Generated_Source\PSoC5/USBFS_audio.c ****                         USBFS_currentTD.pData  = USBFS_currentSampleFrequency[epNumber];
 366              		.loc 1 269 0
 367 01ca 334B     		ldr	r3, .L49+16
 368 01cc 0322     		movs	r2, #3
 369 01ce 1A80     		strh	r2, [r3]	@ movhi
 270:.\Generated_Source\PSoC5/USBFS_audio.c ****                         requestHandled   = USBFS_InitControlWrite();
 370              		.loc 1 270 0
 371 01d0 BA79     		ldrb	r2, [r7, #6]	@ zero_extendqisi2
 372 01d2 1346     		mov	r3, r2
 373 01d4 5B00     		lsls	r3, r3, #1
 374 01d6 1344     		add	r3, r3, r2
 375 01d8 304A     		ldr	r2, .L49+20
 376 01da 1344     		add	r3, r3, r2
 377 01dc 2E4A     		ldr	r2, .L49+16
 378 01de 5360     		str	r3, [r2, #4]
 271:.\Generated_Source\PSoC5/USBFS_audio.c ****                         USBFS_frequencyChanged = epNumber;
 379              		.loc 1 271 0
 380 01e0 FFF7FEFF 		bl	USBFS_InitControlWrite
 381 01e4 0346     		mov	r3, r0
 382 01e6 FB71     		strb	r3, [r7, #7]
 272:.\Generated_Source\PSoC5/USBFS_audio.c ****                     }
 383              		.loc 1 272 0
 384 01e8 374A     		ldr	r2, .L49+64
 385 01ea BB79     		ldrb	r3, [r7, #6]
 386 01ec 1370     		strb	r3, [r2]
 279:.\Generated_Source\PSoC5/USBFS_audio.c ****                 default:
 387              		.loc 1 279 0
 388 01ee FFE7     		b	.L47
 389              	.L30:
 390              	.L47:
 391 01f0 00BF     		nop
 392              	.L31:
 393 01f2 7DE0     		b	.L8
 394              	.L27:
 282:.\Generated_Source\PSoC5/USBFS_audio.c ****             }
 283:.\Generated_Source\PSoC5/USBFS_audio.c ****         }
 284:.\Generated_Source\PSoC5/USBFS_audio.c ****         else if((CY_GET_REG8(USBFS_bmRequestType) & USBFS_RQST_RCPT_MASK) == \
 395              		.loc 1 284 0
 396 01f4 254B     		ldr	r3, .L49+4
 397 01f6 1B78     		ldrb	r3, [r3]
 398 01f8 DBB2     		uxtb	r3, r3
 399 01fa 03F00303 		and	r3, r3, #3
 400 01fe 012B     		cmp	r3, #1
 401 0200 76D1     		bne	.L8
 285:.\Generated_Source\PSoC5/USBFS_audio.c ****                                                                                     USBFS_RQST_RCPT
 286:.\Generated_Source\PSoC5/USBFS_audio.c ****         {
 287:.\Generated_Source\PSoC5/USBFS_audio.c ****             /* Interface or Entity ID */
 288:.\Generated_Source\PSoC5/USBFS_audio.c ****             switch (CY_GET_REG8(USBFS_bRequest))
 402              		.loc 1 288 0
ARM GAS  C:\USERS\LUKAS\APPDATA\LOCAL\TEMP\ccRkU2qz.s 			page 14


 403 0202 234B     		ldr	r3, .L49+8
 404 0204 1B78     		ldrb	r3, [r3]
 405 0206 DBB2     		uxtb	r3, r3
 406 0208 012B     		cmp	r3, #1
 407 020a 00D0     		beq	.L33
 289:.\Generated_Source\PSoC5/USBFS_audio.c ****             {
 290:.\Generated_Source\PSoC5/USBFS_audio.c ****                 case USBFS_SET_CUR:
 291:.\Generated_Source\PSoC5/USBFS_audio.c ****                 #if defined(USBFS_ENABLE_AUDIO_STREAMING)
 292:.\Generated_Source\PSoC5/USBFS_audio.c ****                     if(CY_GET_REG8(USBFS_wValueHi) == USBFS_MUTE_CONTROL)
 293:.\Generated_Source\PSoC5/USBFS_audio.c ****                     {
 294:.\Generated_Source\PSoC5/USBFS_audio.c ****                         /* `#START MUTE_SET_REQUEST` Place multi-channel handler here */
 295:.\Generated_Source\PSoC5/USBFS_audio.c ****                         #ifndef ENABLE_DIGITAL_AUDIO_OUT_ONLY
 296:.\Generated_Source\PSoC5/USBFS_audio.c ****                         USBFS_currentTD.wCount = 1;
 297:.\Generated_Source\PSoC5/USBFS_audio.c ****                         switch(CY_GET_REG8(USBFS_wIndexHi))
 298:.\Generated_Source\PSoC5/USBFS_audio.c ****                         {
 299:.\Generated_Source\PSoC5/USBFS_audio.c ****     						case OUTPUT_VOLUME_FEATURE_UNIT:
 300:.\Generated_Source\PSoC5/USBFS_audio.c ****                                  /* Entity ID Control Selector is MUTE */
 301:.\Generated_Source\PSoC5/USBFS_audio.c ****                                 USBFS_currentTD.pData  = &USBFS_currentMute;
 302:.\Generated_Source\PSoC5/USBFS_audio.c ****                             break;  
 303:.\Generated_Source\PSoC5/USBFS_audio.c ****                             
 304:.\Generated_Source\PSoC5/USBFS_audio.c ****                             case INPUT_VOLUME_FEATURE_UNIT:
 305:.\Generated_Source\PSoC5/USBFS_audio.c ****                                  /* Entity ID Control Selector is MUTE */
 306:.\Generated_Source\PSoC5/USBFS_audio.c ****                                 USBFS_currentTD.pData  = &USB_inputMute;
 307:.\Generated_Source\PSoC5/USBFS_audio.c ****                             break;    
 308:.\Generated_Source\PSoC5/USBFS_audio.c ****                         }
 309:.\Generated_Source\PSoC5/USBFS_audio.c ****                         requestHandled   = USBFS_InitControlWrite();
 310:.\Generated_Source\PSoC5/USBFS_audio.c ****                         break;
 311:.\Generated_Source\PSoC5/USBFS_audio.c ****                         #endif
 312:.\Generated_Source\PSoC5/USBFS_audio.c ****                         /* `#END` */
 313:.\Generated_Source\PSoC5/USBFS_audio.c ****                     
 314:.\Generated_Source\PSoC5/USBFS_audio.c ****                         /* Entity ID Control Selector is MUTE */
 315:.\Generated_Source\PSoC5/USBFS_audio.c ****                         USBFS_currentTD.wCount = 1;
 316:.\Generated_Source\PSoC5/USBFS_audio.c ****                         USBFS_currentTD.pData  = &USBFS_currentMute;
 317:.\Generated_Source\PSoC5/USBFS_audio.c ****                         requestHandled   = USBFS_InitControlWrite();
 318:.\Generated_Source\PSoC5/USBFS_audio.c ****                     }
 319:.\Generated_Source\PSoC5/USBFS_audio.c ****                     else if(CY_GET_REG8(USBFS_wValueHi) == USBFS_VOLUME_CONTROL)
 320:.\Generated_Source\PSoC5/USBFS_audio.c ****                     {
 321:.\Generated_Source\PSoC5/USBFS_audio.c ****                         /* `#START VOLUME_CONTROL_SET_REQUEST` Place multi-channel handler here */
 322:.\Generated_Source\PSoC5/USBFS_audio.c ****                         #ifndef ENABLE_DIGITAL_AUDIO_OUT_ONLY
 323:.\Generated_Source\PSoC5/USBFS_audio.c ****                         USBFS_currentTD.wCount = USBFS_VOLUME_LEN;
 324:.\Generated_Source\PSoC5/USBFS_audio.c ****                         switch(CY_GET_REG8(USBFS_wIndexHi))
 325:.\Generated_Source\PSoC5/USBFS_audio.c ****                         {
 326:.\Generated_Source\PSoC5/USBFS_audio.c ****     						case OUTPUT_VOLUME_FEATURE_UNIT:
 327:.\Generated_Source\PSoC5/USBFS_audio.c ****                                 USBFS_currentTD.pData  = USBFS_currentVolume;
 328:.\Generated_Source\PSoC5/USBFS_audio.c ****                             break;  
 329:.\Generated_Source\PSoC5/USBFS_audio.c ****                             
 330:.\Generated_Source\PSoC5/USBFS_audio.c ****                             case INPUT_VOLUME_FEATURE_UNIT:
 331:.\Generated_Source\PSoC5/USBFS_audio.c ****                                 USBFS_currentTD.pData  = USB_inputVolume;
 332:.\Generated_Source\PSoC5/USBFS_audio.c ****                                 if(CY_GET_REG8(USBFS_wValueLo) == 1)	/* channel 1 input volume upda
 333:.\Generated_Source\PSoC5/USBFS_audio.c ****     							{
 334:.\Generated_Source\PSoC5/USBFS_audio.c ****     		                        USBFS_currentTD.pData  = &USBFS_currentCH1InputVolume[0];							
 335:.\Generated_Source\PSoC5/USBFS_audio.c ****     							}
 336:.\Generated_Source\PSoC5/USBFS_audio.c ****     							else if(CY_GET_REG8(USBFS_wValueLo) == 2) /* channel 2 input volume update from host */
 337:.\Generated_Source\PSoC5/USBFS_audio.c ****     							{
 338:.\Generated_Source\PSoC5/USBFS_audio.c ****     		                        USBFS_currentTD.pData  = &USBFS_currentCH2InputVolume[0];								
 339:.\Generated_Source\PSoC5/USBFS_audio.c ****     							}
 340:.\Generated_Source\PSoC5/USBFS_audio.c ****                             break;    
ARM GAS  C:\USERS\LUKAS\APPDATA\LOCAL\TEMP\ccRkU2qz.s 			page 15


 341:.\Generated_Source\PSoC5/USBFS_audio.c ****                         }
 342:.\Generated_Source\PSoC5/USBFS_audio.c ****                         requestHandled   = USBFS_InitControlWrite();
 343:.\Generated_Source\PSoC5/USBFS_audio.c ****                         break;
 344:.\Generated_Source\PSoC5/USBFS_audio.c ****                         #endif
 345:.\Generated_Source\PSoC5/USBFS_audio.c ****                         /* `#END` */
 346:.\Generated_Source\PSoC5/USBFS_audio.c ****                     
 347:.\Generated_Source\PSoC5/USBFS_audio.c ****                         /* Entity ID Control Selector is VOLUME */
 348:.\Generated_Source\PSoC5/USBFS_audio.c ****                         USBFS_currentTD.wCount = USBFS_VOLUME_LEN;
 349:.\Generated_Source\PSoC5/USBFS_audio.c ****                         USBFS_currentTD.pData  = USBFS_currentVolume;
 350:.\Generated_Source\PSoC5/USBFS_audio.c ****                         requestHandled   = USBFS_InitControlWrite();
 351:.\Generated_Source\PSoC5/USBFS_audio.c ****                     }
 352:.\Generated_Source\PSoC5/USBFS_audio.c ****                 #endif /* End USBFS_ENABLE_AUDIO_STREAMING */
 353:.\Generated_Source\PSoC5/USBFS_audio.c **** 
 354:.\Generated_Source\PSoC5/USBFS_audio.c ****                 /* `#START AUDIO_CONTROL_SEL_REQUESTS` Place other request handler here */
 355:.\Generated_Source\PSoC5/USBFS_audio.c **** 
 356:.\Generated_Source\PSoC5/USBFS_audio.c ****                 /* `#END` */
 357:.\Generated_Source\PSoC5/USBFS_audio.c ****                     break;
 358:.\Generated_Source\PSoC5/USBFS_audio.c ****                 default:
 359:.\Generated_Source\PSoC5/USBFS_audio.c ****                     break;
 408              		.loc 1 359 0
 409 020c 70E0     		b	.L38
 410              	.L33:
 292:.\Generated_Source\PSoC5/USBFS_audio.c ****                     {
 411              		.loc 1 292 0
 412 020e 214B     		ldr	r3, .L49+12
 413 0210 1B78     		ldrb	r3, [r3]
 414 0212 DBB2     		uxtb	r3, r3
 415 0214 012B     		cmp	r3, #1
 416 0216 17D1     		bne	.L34
 296:.\Generated_Source\PSoC5/USBFS_audio.c ****                         switch(CY_GET_REG8(USBFS_wIndexHi))
 417              		.loc 1 296 0
 418 0218 1F4B     		ldr	r3, .L49+16
 419 021a 0122     		movs	r2, #1
 420 021c 1A80     		strh	r2, [r3]	@ movhi
 297:.\Generated_Source\PSoC5/USBFS_audio.c ****                         {
 421              		.loc 1 297 0
 422 021e 214B     		ldr	r3, .L49+28
 423 0220 1B78     		ldrb	r3, [r3]
 424 0222 DBB2     		uxtb	r3, r3
 425 0224 022B     		cmp	r3, #2
 426 0226 02D0     		beq	.L36
 427 0228 062B     		cmp	r3, #6
 428 022a 04D0     		beq	.L37
 429 022c 07E0     		b	.L35
 430              	.L36:
 301:.\Generated_Source\PSoC5/USBFS_audio.c ****                             break;  
 431              		.loc 1 301 0
 432 022e 1A4B     		ldr	r3, .L49+16
 433 0230 1B4A     		ldr	r2, .L49+24
 434 0232 5A60     		str	r2, [r3, #4]
 302:.\Generated_Source\PSoC5/USBFS_audio.c ****                             
 435              		.loc 1 302 0
 436 0234 03E0     		b	.L35
 437              	.L37:
 306:.\Generated_Source\PSoC5/USBFS_audio.c ****                             break;    
 438              		.loc 1 306 0
 439 0236 184B     		ldr	r3, .L49+16
ARM GAS  C:\USERS\LUKAS\APPDATA\LOCAL\TEMP\ccRkU2qz.s 			page 16


 440 0238 244A     		ldr	r2, .L49+68
 441 023a 5A60     		str	r2, [r3, #4]
 307:.\Generated_Source\PSoC5/USBFS_audio.c ****                         }
 442              		.loc 1 307 0
 443 023c 00BF     		nop
 444              	.L35:
 309:.\Generated_Source\PSoC5/USBFS_audio.c ****                         break;
 445              		.loc 1 309 0
 446 023e FFF7FEFF 		bl	USBFS_InitControlWrite
 447 0242 0346     		mov	r3, r0
 448 0244 FB71     		strb	r3, [r7, #7]
 310:.\Generated_Source\PSoC5/USBFS_audio.c ****                         #endif
 449              		.loc 1 310 0
 450 0246 53E0     		b	.L38
 451              	.L34:
 319:.\Generated_Source\PSoC5/USBFS_audio.c ****                     {
 452              		.loc 1 319 0
 453 0248 124B     		ldr	r3, .L49+12
 454 024a 1B78     		ldrb	r3, [r3]
 455 024c DBB2     		uxtb	r3, r3
 456 024e 022B     		cmp	r3, #2
 457 0250 4DD1     		bne	.L39
 323:.\Generated_Source\PSoC5/USBFS_audio.c ****                         switch(CY_GET_REG8(USBFS_wIndexHi))
 458              		.loc 1 323 0
 459 0252 114B     		ldr	r3, .L49+16
 460 0254 0222     		movs	r2, #2
 461 0256 1A80     		strh	r2, [r3]	@ movhi
 324:.\Generated_Source\PSoC5/USBFS_audio.c ****                         {
 462              		.loc 1 324 0
 463 0258 124B     		ldr	r3, .L49+28
 464 025a 1B78     		ldrb	r3, [r3]
 465 025c DBB2     		uxtb	r3, r3
 466 025e 022B     		cmp	r3, #2
 467 0260 02D0     		beq	.L41
 468 0262 062B     		cmp	r3, #6
 469 0264 04D0     		beq	.L42
 470 0266 3DE0     		b	.L40
 471              	.L41:
 327:.\Generated_Source\PSoC5/USBFS_audio.c ****                             break;  
 472              		.loc 1 327 0
 473 0268 0B4B     		ldr	r3, .L49+16
 474 026a 134A     		ldr	r2, .L49+48
 475 026c 5A60     		str	r2, [r3, #4]
 328:.\Generated_Source\PSoC5/USBFS_audio.c ****                             
 476              		.loc 1 328 0
 477 026e 39E0     		b	.L40
 478              	.L42:
 331:.\Generated_Source\PSoC5/USBFS_audio.c ****                                 if(CY_GET_REG8(USBFS_wValueLo) == 1)	/* channel 1 input volume upda
 479              		.loc 1 331 0
 480 0270 094B     		ldr	r3, .L49+16
 481 0272 0D4A     		ldr	r2, .L49+32
 482 0274 5A60     		str	r2, [r3, #4]
 332:.\Generated_Source\PSoC5/USBFS_audio.c ****     							{
 483              		.loc 1 332 0
 484 0276 0D4B     		ldr	r3, .L49+36
 485 0278 1B78     		ldrb	r3, [r3]
 486 027a DBB2     		uxtb	r3, r3
ARM GAS  C:\USERS\LUKAS\APPDATA\LOCAL\TEMP\ccRkU2qz.s 			page 17


 487 027c 012B     		cmp	r3, #1
 488 027e 27D1     		bne	.L43
 334:.\Generated_Source\PSoC5/USBFS_audio.c ****     							}
 489              		.loc 1 334 0
 490 0280 054B     		ldr	r3, .L49+16
 491 0282 0B4A     		ldr	r2, .L49+40
 492 0284 5A60     		str	r2, [r3, #4]
 493 0286 2CE0     		b	.L44
 494              	.L50:
 495              		.align	2
 496              	.L49:
 497 0288 04600040 		.word	1073766404
 498 028c 00600040 		.word	1073766400
 499 0290 01600040 		.word	1073766401
 500 0294 03600040 		.word	1073766403
 501 0298 00000000 		.word	USBFS_currentTD
 502 029c 00000000 		.word	USBFS_currentSampleFrequency
 503 02a0 00000000 		.word	USBFS_currentMute
 504 02a4 05600040 		.word	1073766405
 505 02a8 00000000 		.word	USB_inputVolume
 506 02ac 02600040 		.word	1073766402
 507 02b0 00000000 		.word	USBFS_currentCH1InputVolume
 508 02b4 00000000 		.word	USBFS_currentCH2InputVolume
 509 02b8 00000000 		.word	USBFS_currentVolume
 510 02bc 00000000 		.word	USBFS_minimumVolume
 511 02c0 00000000 		.word	USBFS_maximumVolume
 512 02c4 00000000 		.word	USBFS_resolutionVolume
 513 02c8 00000000 		.word	USBFS_frequencyChanged
 514 02cc 00000000 		.word	USB_inputMute
 515              	.L43:
 336:.\Generated_Source\PSoC5/USBFS_audio.c ****     							{
 516              		.loc 1 336 0
 517 02d0 0A4B     		ldr	r3, .L51
 518 02d2 1B78     		ldrb	r3, [r3]
 519 02d4 DBB2     		uxtb	r3, r3
 520 02d6 022B     		cmp	r3, #2
 521 02d8 03D1     		bne	.L44
 338:.\Generated_Source\PSoC5/USBFS_audio.c ****     							}
 522              		.loc 1 338 0
 523 02da 094B     		ldr	r3, .L51+4
 524 02dc 094A     		ldr	r2, .L51+8
 525 02de 5A60     		str	r2, [r3, #4]
 340:.\Generated_Source\PSoC5/USBFS_audio.c ****                         }
 526              		.loc 1 340 0
 527 02e0 FFE7     		b	.L48
 528              	.L44:
 529              	.L48:
 530 02e2 00BF     		nop
 531              	.L40:
 342:.\Generated_Source\PSoC5/USBFS_audio.c ****                         break;
 532              		.loc 1 342 0
 533 02e4 FFF7FEFF 		bl	USBFS_InitControlWrite
 534 02e8 0346     		mov	r3, r0
 535 02ea FB71     		strb	r3, [r7, #7]
 343:.\Generated_Source\PSoC5/USBFS_audio.c ****                         #endif
 536              		.loc 1 343 0
 537 02ec 00E0     		b	.L38
ARM GAS  C:\USERS\LUKAS\APPDATA\LOCAL\TEMP\ccRkU2qz.s 			page 18


 538              	.L39:
 357:.\Generated_Source\PSoC5/USBFS_audio.c ****                 default:
 539              		.loc 1 357 0
 540 02ee 00BF     		nop
 541              	.L38:
 542              	.L8:
 360:.\Generated_Source\PSoC5/USBFS_audio.c ****             }
 361:.\Generated_Source\PSoC5/USBFS_audio.c ****         }
 362:.\Generated_Source\PSoC5/USBFS_audio.c ****         else
 363:.\Generated_Source\PSoC5/USBFS_audio.c ****         {   /* USBFS_RQST_RCPT_OTHER */
 364:.\Generated_Source\PSoC5/USBFS_audio.c ****         }
 365:.\Generated_Source\PSoC5/USBFS_audio.c ****     }
 366:.\Generated_Source\PSoC5/USBFS_audio.c ****     else
 367:.\Generated_Source\PSoC5/USBFS_audio.c ****     {   /* requestHandled is initialezed as FALSE by default */
 368:.\Generated_Source\PSoC5/USBFS_audio.c ****     }
 369:.\Generated_Source\PSoC5/USBFS_audio.c **** 
 370:.\Generated_Source\PSoC5/USBFS_audio.c ****     return(requestHandled);
 543              		.loc 1 370 0
 544 02f0 FB79     		ldrb	r3, [r7, #7]	@ zero_extendqisi2
 371:.\Generated_Source\PSoC5/USBFS_audio.c **** }
 545              		.loc 1 371 0
 546 02f2 1846     		mov	r0, r3
 547 02f4 0837     		adds	r7, r7, #8
 548              		.cfi_def_cfa_offset 8
 549 02f6 BD46     		mov	sp, r7
 550              		.cfi_def_cfa_register 13
 551              		@ sp needed
 552 02f8 80BD     		pop	{r7, pc}
 553              	.L52:
 554 02fa 00BF     		.align	2
 555              	.L51:
 556 02fc 02600040 		.word	1073766402
 557 0300 00000000 		.word	USBFS_currentTD
 558 0304 00000000 		.word	USBFS_currentCH2InputVolume
 559              		.cfi_endproc
 560              	.LFE56:
 561              		.size	USBFS_DispatchAUDIOClassRqst, .-USBFS_DispatchAUDIOClassRqst
 562              		.text
 563              	.Letext0:
 564              		.file 2 "c:\\program files (x86)\\cypress\\psoc creator\\3.3\\psoc creator\\import\\gnu\\arm\\4.9.
 565              		.file 3 "c:\\program files (x86)\\cypress\\psoc creator\\3.3\\psoc creator\\import\\gnu\\arm\\4.9.
 566              		.file 4 ".\\Generated_Source\\PSoC5\\cytypes.h"
 567              		.file 5 ".\\Generated_Source\\PSoC5\\USBFS.h"
 568              		.file 6 "Generated_Source\\PSoC5/core_cm3.h"