ARM GAS  C:\USERS\LUKAS\APPDATA\LOCAL\TEMP\cciNE54R.s 			page 1


   1              		.syntax unified
   2              		.cpu cortex-m3
   3              		.fpu softvfp
   4              		.eabi_attribute 20, 1
   5              		.eabi_attribute 21, 1
   6              		.eabi_attribute 23, 3
   7              		.eabi_attribute 24, 1
   8              		.eabi_attribute 25, 1
   9              		.eabi_attribute 26, 1
  10              		.eabi_attribute 30, 6
  11              		.eabi_attribute 34, 1
  12              		.eabi_attribute 18, 4
  13              		.thumb
  14              		.file	"USBFS_hid.c"
  15              		.text
  16              	.Ltext0:
  17              		.cfi_sections	.debug_frame
  18              		.comm	USBFS_hidProtocol,4,4
  19              		.comm	USBFS_hidIdleRate,4,4
  20              		.comm	USBFS_hidIdleTimer,4,4
  21              		.section	.text.USBFS_UpdateHIDTimer,"ax",%progbits
  22              		.align	2
  23              		.global	USBFS_UpdateHIDTimer
  24              		.thumb
  25              		.thumb_func
  26              		.type	USBFS_UpdateHIDTimer, %function
  27              	USBFS_UpdateHIDTimer:
  28              	.LFB0:
  29              		.file 1 ".\\Generated_Source\\PSoC5\\USBFS_hid.c"
   1:.\Generated_Source\PSoC5/USBFS_hid.c **** /*******************************************************************************
   2:.\Generated_Source\PSoC5/USBFS_hid.c **** * File Name: USBFS_hid.c
   3:.\Generated_Source\PSoC5/USBFS_hid.c **** * Version 2.50
   4:.\Generated_Source\PSoC5/USBFS_hid.c **** *
   5:.\Generated_Source\PSoC5/USBFS_hid.c **** * Description:
   6:.\Generated_Source\PSoC5/USBFS_hid.c **** *  USB HID Class request handler.
   7:.\Generated_Source\PSoC5/USBFS_hid.c **** *
   8:.\Generated_Source\PSoC5/USBFS_hid.c **** * Note:
   9:.\Generated_Source\PSoC5/USBFS_hid.c **** *
  10:.\Generated_Source\PSoC5/USBFS_hid.c **** ********************************************************************************
  11:.\Generated_Source\PSoC5/USBFS_hid.c **** * Copyright 2008-2012, Cypress Semiconductor Corporation.  All rights reserved.
  12:.\Generated_Source\PSoC5/USBFS_hid.c **** * You may use this file only in accordance with the license, terms, conditions,
  13:.\Generated_Source\PSoC5/USBFS_hid.c **** * disclaimers, and limitations in the end user license agreement accompanying
  14:.\Generated_Source\PSoC5/USBFS_hid.c **** * the software package with which this file was provided.
  15:.\Generated_Source\PSoC5/USBFS_hid.c **** *******************************************************************************/
  16:.\Generated_Source\PSoC5/USBFS_hid.c **** 
  17:.\Generated_Source\PSoC5/USBFS_hid.c **** #include "USBFS.h"
  18:.\Generated_Source\PSoC5/USBFS_hid.c **** 
  19:.\Generated_Source\PSoC5/USBFS_hid.c **** #if defined(USBFS_ENABLE_HID_CLASS)
  20:.\Generated_Source\PSoC5/USBFS_hid.c **** 
  21:.\Generated_Source\PSoC5/USBFS_hid.c **** #include "USBFS_hid.h"
  22:.\Generated_Source\PSoC5/USBFS_hid.c **** 
  23:.\Generated_Source\PSoC5/USBFS_hid.c **** 
  24:.\Generated_Source\PSoC5/USBFS_hid.c **** /***************************************
  25:.\Generated_Source\PSoC5/USBFS_hid.c **** *    HID Variables
  26:.\Generated_Source\PSoC5/USBFS_hid.c **** ***************************************/
  27:.\Generated_Source\PSoC5/USBFS_hid.c **** 
  28:.\Generated_Source\PSoC5/USBFS_hid.c **** volatile uint8 USBFS_hidProtocol[USBFS_MAX_INTERFACES_NUMBER];  /* HID device protocol status */
ARM GAS  C:\USERS\LUKAS\APPDATA\LOCAL\TEMP\cciNE54R.s 			page 2


  29:.\Generated_Source\PSoC5/USBFS_hid.c **** volatile uint8 USBFS_hidIdleRate[USBFS_MAX_INTERFACES_NUMBER];  /* HID device idle reload value */
  30:.\Generated_Source\PSoC5/USBFS_hid.c **** volatile uint8 USBFS_hidIdleTimer[USBFS_MAX_INTERFACES_NUMBER]; /* HID device idle rate value */
  31:.\Generated_Source\PSoC5/USBFS_hid.c **** 
  32:.\Generated_Source\PSoC5/USBFS_hid.c **** 
  33:.\Generated_Source\PSoC5/USBFS_hid.c **** /***************************************
  34:.\Generated_Source\PSoC5/USBFS_hid.c **** * Custom Declarations
  35:.\Generated_Source\PSoC5/USBFS_hid.c **** ***************************************/
  36:.\Generated_Source\PSoC5/USBFS_hid.c **** 
  37:.\Generated_Source\PSoC5/USBFS_hid.c **** /* `#START HID_CUSTOM_DECLARATIONS` Place your declaration here */
  38:.\Generated_Source\PSoC5/USBFS_hid.c **** 
  39:.\Generated_Source\PSoC5/USBFS_hid.c **** /* `#END` */
  40:.\Generated_Source\PSoC5/USBFS_hid.c **** 
  41:.\Generated_Source\PSoC5/USBFS_hid.c **** 
  42:.\Generated_Source\PSoC5/USBFS_hid.c **** /***************************************
  43:.\Generated_Source\PSoC5/USBFS_hid.c **** *    External references
  44:.\Generated_Source\PSoC5/USBFS_hid.c **** ***************************************/
  45:.\Generated_Source\PSoC5/USBFS_hid.c **** 
  46:.\Generated_Source\PSoC5/USBFS_hid.c **** uint8 USBFS_InitControlRead(void) ;
  47:.\Generated_Source\PSoC5/USBFS_hid.c **** uint8 USBFS_InitControlWrite(void) ;
  48:.\Generated_Source\PSoC5/USBFS_hid.c **** uint8 USBFS_InitNoDataControlTransfer(void) ;
  49:.\Generated_Source\PSoC5/USBFS_hid.c **** T_USBFS_LUT *USBFS_GetConfigTablePtr(uint8 c)
  50:.\Generated_Source\PSoC5/USBFS_hid.c ****                                                             ;
  51:.\Generated_Source\PSoC5/USBFS_hid.c **** T_USBFS_LUT *USBFS_GetDeviceTablePtr(void)
  52:.\Generated_Source\PSoC5/USBFS_hid.c ****                                                             ;
  53:.\Generated_Source\PSoC5/USBFS_hid.c **** 
  54:.\Generated_Source\PSoC5/USBFS_hid.c **** extern volatile T_USBFS_TD USBFS_currentTD;
  55:.\Generated_Source\PSoC5/USBFS_hid.c **** extern uint8 CYCODE USBFS_HIDREPORT_DESCRIPTORS[];
  56:.\Generated_Source\PSoC5/USBFS_hid.c **** extern volatile uint8 USBFS_configuration;
  57:.\Generated_Source\PSoC5/USBFS_hid.c **** extern volatile uint8 USBFS_interfaceSetting[];
  58:.\Generated_Source\PSoC5/USBFS_hid.c **** 
  59:.\Generated_Source\PSoC5/USBFS_hid.c **** 
  60:.\Generated_Source\PSoC5/USBFS_hid.c **** /***************************************
  61:.\Generated_Source\PSoC5/USBFS_hid.c **** *    Internal references
  62:.\Generated_Source\PSoC5/USBFS_hid.c **** ***************************************/
  63:.\Generated_Source\PSoC5/USBFS_hid.c **** 
  64:.\Generated_Source\PSoC5/USBFS_hid.c **** void USBFS_FindReport(void) ;
  65:.\Generated_Source\PSoC5/USBFS_hid.c **** void USBFS_FindReportDescriptor(void) ;
  66:.\Generated_Source\PSoC5/USBFS_hid.c **** void USBFS_FindHidClassDecriptor(void) ;
  67:.\Generated_Source\PSoC5/USBFS_hid.c **** 
  68:.\Generated_Source\PSoC5/USBFS_hid.c **** 
  69:.\Generated_Source\PSoC5/USBFS_hid.c **** /*******************************************************************************
  70:.\Generated_Source\PSoC5/USBFS_hid.c **** * Function Name: USBFS_UpdateHIDTimer
  71:.\Generated_Source\PSoC5/USBFS_hid.c **** ********************************************************************************
  72:.\Generated_Source\PSoC5/USBFS_hid.c **** *
  73:.\Generated_Source\PSoC5/USBFS_hid.c **** * Summary:
  74:.\Generated_Source\PSoC5/USBFS_hid.c **** *  Updates the HID report timer and reloads it if expired
  75:.\Generated_Source\PSoC5/USBFS_hid.c **** *
  76:.\Generated_Source\PSoC5/USBFS_hid.c **** * Parameters:
  77:.\Generated_Source\PSoC5/USBFS_hid.c **** *  interface:  Interface Number.
  78:.\Generated_Source\PSoC5/USBFS_hid.c **** *
  79:.\Generated_Source\PSoC5/USBFS_hid.c **** * Return:
  80:.\Generated_Source\PSoC5/USBFS_hid.c **** *  status.
  81:.\Generated_Source\PSoC5/USBFS_hid.c **** *
  82:.\Generated_Source\PSoC5/USBFS_hid.c **** * Reentrant:
  83:.\Generated_Source\PSoC5/USBFS_hid.c **** *  No.
  84:.\Generated_Source\PSoC5/USBFS_hid.c **** *
  85:.\Generated_Source\PSoC5/USBFS_hid.c **** *******************************************************************************/
ARM GAS  C:\USERS\LUKAS\APPDATA\LOCAL\TEMP\cciNE54R.s 			page 3


  86:.\Generated_Source\PSoC5/USBFS_hid.c **** uint8 USBFS_UpdateHIDTimer(uint8 interface) 
  87:.\Generated_Source\PSoC5/USBFS_hid.c **** {
  30              		.loc 1 87 0
  31              		.cfi_startproc
  32              		@ args = 0, pretend = 0, frame = 16
  33              		@ frame_needed = 1, uses_anonymous_args = 0
  34              		@ link register save eliminated.
  35 0000 80B4     		push	{r7}
  36              		.cfi_def_cfa_offset 4
  37              		.cfi_offset 7, -4
  38 0002 85B0     		sub	sp, sp, #20
  39              		.cfi_def_cfa_offset 24
  40 0004 00AF     		add	r7, sp, #0
  41              		.cfi_def_cfa_register 7
  42 0006 0346     		mov	r3, r0
  43 0008 FB71     		strb	r3, [r7, #7]
  88:.\Generated_Source\PSoC5/USBFS_hid.c ****     uint8 status = USBFS_IDLE_TIMER_INDEFINITE;
  44              		.loc 1 88 0
  45 000a 0023     		movs	r3, #0
  46 000c FB73     		strb	r3, [r7, #15]
  89:.\Generated_Source\PSoC5/USBFS_hid.c **** 
  90:.\Generated_Source\PSoC5/USBFS_hid.c ****     if(USBFS_hidIdleRate[interface] != 0u)
  47              		.loc 1 90 0
  48 000e FB79     		ldrb	r3, [r7, #7]	@ zero_extendqisi2
  49 0010 124A     		ldr	r2, .L5
  50 0012 D35C     		ldrb	r3, [r2, r3]
  51 0014 DBB2     		uxtb	r3, r3
  52 0016 002B     		cmp	r3, #0
  53 0018 19D0     		beq	.L2
  91:.\Generated_Source\PSoC5/USBFS_hid.c ****     {
  92:.\Generated_Source\PSoC5/USBFS_hid.c ****         if(USBFS_hidIdleTimer[interface] > 0u)
  54              		.loc 1 92 0
  55 001a FB79     		ldrb	r3, [r7, #7]	@ zero_extendqisi2
  56 001c 104A     		ldr	r2, .L5+4
  57 001e D35C     		ldrb	r3, [r2, r3]
  58 0020 DBB2     		uxtb	r3, r3
  59 0022 002B     		cmp	r3, #0
  60 0024 0AD0     		beq	.L3
  93:.\Generated_Source\PSoC5/USBFS_hid.c ****         {
  94:.\Generated_Source\PSoC5/USBFS_hid.c ****             USBFS_hidIdleTimer[interface]--;
  61              		.loc 1 94 0
  62 0026 FB79     		ldrb	r3, [r7, #7]	@ zero_extendqisi2
  63 0028 0D4A     		ldr	r2, .L5+4
  64 002a D25C     		ldrb	r2, [r2, r3]
  65 002c D2B2     		uxtb	r2, r2
  66 002e 013A     		subs	r2, r2, #1
  67 0030 D1B2     		uxtb	r1, r2
  68 0032 0B4A     		ldr	r2, .L5+4
  69 0034 D154     		strb	r1, [r2, r3]
  95:.\Generated_Source\PSoC5/USBFS_hid.c ****             status = USBFS_IDLE_TIMER_RUNNING;
  70              		.loc 1 95 0
  71 0036 0223     		movs	r3, #2
  72 0038 FB73     		strb	r3, [r7, #15]
  73 003a 08E0     		b	.L2
  74              	.L3:
  96:.\Generated_Source\PSoC5/USBFS_hid.c ****         }
  97:.\Generated_Source\PSoC5/USBFS_hid.c ****         else
ARM GAS  C:\USERS\LUKAS\APPDATA\LOCAL\TEMP\cciNE54R.s 			page 4


  98:.\Generated_Source\PSoC5/USBFS_hid.c ****         {
  99:.\Generated_Source\PSoC5/USBFS_hid.c ****             USBFS_hidIdleTimer[interface] = USBFS_hidIdleRate[interface];
  75              		.loc 1 99 0
  76 003c FB79     		ldrb	r3, [r7, #7]	@ zero_extendqisi2
  77 003e FA79     		ldrb	r2, [r7, #7]	@ zero_extendqisi2
  78 0040 0649     		ldr	r1, .L5
  79 0042 8A5C     		ldrb	r2, [r1, r2]
  80 0044 D1B2     		uxtb	r1, r2
  81 0046 064A     		ldr	r2, .L5+4
  82 0048 D154     		strb	r1, [r2, r3]
 100:.\Generated_Source\PSoC5/USBFS_hid.c ****             status = USBFS_IDLE_TIMER_EXPIRED;
  83              		.loc 1 100 0
  84 004a 0123     		movs	r3, #1
  85 004c FB73     		strb	r3, [r7, #15]
  86              	.L2:
 101:.\Generated_Source\PSoC5/USBFS_hid.c ****         }
 102:.\Generated_Source\PSoC5/USBFS_hid.c ****     }
 103:.\Generated_Source\PSoC5/USBFS_hid.c **** 
 104:.\Generated_Source\PSoC5/USBFS_hid.c ****     return(status);
  87              		.loc 1 104 0
  88 004e FB7B     		ldrb	r3, [r7, #15]	@ zero_extendqisi2
 105:.\Generated_Source\PSoC5/USBFS_hid.c **** }
  89              		.loc 1 105 0
  90 0050 1846     		mov	r0, r3
  91 0052 1437     		adds	r7, r7, #20
  92              		.cfi_def_cfa_offset 4
  93 0054 BD46     		mov	sp, r7
  94              		.cfi_def_cfa_register 13
  95              		@ sp needed
  96 0056 5DF8047B 		ldr	r7, [sp], #4
  97              		.cfi_restore 7
  98              		.cfi_def_cfa_offset 0
  99 005a 7047     		bx	lr
 100              	.L6:
 101              		.align	2
 102              	.L5:
 103 005c 00000000 		.word	USBFS_hidIdleRate
 104 0060 00000000 		.word	USBFS_hidIdleTimer
 105              		.cfi_endproc
 106              	.LFE0:
 107              		.size	USBFS_UpdateHIDTimer, .-USBFS_UpdateHIDTimer
 108              		.section	.text.USBFS_GetProtocol,"ax",%progbits
 109              		.align	2
 110              		.global	USBFS_GetProtocol
 111              		.thumb
 112              		.thumb_func
 113              		.type	USBFS_GetProtocol, %function
 114              	USBFS_GetProtocol:
 115              	.LFB1:
 106:.\Generated_Source\PSoC5/USBFS_hid.c **** 
 107:.\Generated_Source\PSoC5/USBFS_hid.c **** 
 108:.\Generated_Source\PSoC5/USBFS_hid.c **** /*******************************************************************************
 109:.\Generated_Source\PSoC5/USBFS_hid.c **** * Function Name: USBFS_GetProtocol
 110:.\Generated_Source\PSoC5/USBFS_hid.c **** ********************************************************************************
 111:.\Generated_Source\PSoC5/USBFS_hid.c **** *
 112:.\Generated_Source\PSoC5/USBFS_hid.c **** * Summary:
 113:.\Generated_Source\PSoC5/USBFS_hid.c **** *  Returns the selected protocol value to the application
ARM GAS  C:\USERS\LUKAS\APPDATA\LOCAL\TEMP\cciNE54R.s 			page 5


 114:.\Generated_Source\PSoC5/USBFS_hid.c **** *
 115:.\Generated_Source\PSoC5/USBFS_hid.c **** * Parameters:
 116:.\Generated_Source\PSoC5/USBFS_hid.c **** *  interface:  Interface Number.
 117:.\Generated_Source\PSoC5/USBFS_hid.c **** *
 118:.\Generated_Source\PSoC5/USBFS_hid.c **** * Return:
 119:.\Generated_Source\PSoC5/USBFS_hid.c **** *  Interface protocol.
 120:.\Generated_Source\PSoC5/USBFS_hid.c **** *
 121:.\Generated_Source\PSoC5/USBFS_hid.c **** *******************************************************************************/
 122:.\Generated_Source\PSoC5/USBFS_hid.c **** uint8 USBFS_GetProtocol(uint8 interface) 
 123:.\Generated_Source\PSoC5/USBFS_hid.c **** {
 116              		.loc 1 123 0
 117              		.cfi_startproc
 118              		@ args = 0, pretend = 0, frame = 8
 119              		@ frame_needed = 1, uses_anonymous_args = 0
 120              		@ link register save eliminated.
 121 0000 80B4     		push	{r7}
 122              		.cfi_def_cfa_offset 4
 123              		.cfi_offset 7, -4
 124 0002 83B0     		sub	sp, sp, #12
 125              		.cfi_def_cfa_offset 16
 126 0004 00AF     		add	r7, sp, #0
 127              		.cfi_def_cfa_register 7
 128 0006 0346     		mov	r3, r0
 129 0008 FB71     		strb	r3, [r7, #7]
 124:.\Generated_Source\PSoC5/USBFS_hid.c ****     return(USBFS_hidProtocol[interface]);
 130              		.loc 1 124 0
 131 000a FB79     		ldrb	r3, [r7, #7]	@ zero_extendqisi2
 132 000c 044A     		ldr	r2, .L9
 133 000e D35C     		ldrb	r3, [r2, r3]
 134 0010 DBB2     		uxtb	r3, r3
 125:.\Generated_Source\PSoC5/USBFS_hid.c **** }
 135              		.loc 1 125 0
 136 0012 1846     		mov	r0, r3
 137 0014 0C37     		adds	r7, r7, #12
 138              		.cfi_def_cfa_offset 4
 139 0016 BD46     		mov	sp, r7
 140              		.cfi_def_cfa_register 13
 141              		@ sp needed
 142 0018 5DF8047B 		ldr	r7, [sp], #4
 143              		.cfi_restore 7
 144              		.cfi_def_cfa_offset 0
 145 001c 7047     		bx	lr
 146              	.L10:
 147 001e 00BF     		.align	2
 148              	.L9:
 149 0020 00000000 		.word	USBFS_hidProtocol
 150              		.cfi_endproc
 151              	.LFE1:
 152              		.size	USBFS_GetProtocol, .-USBFS_GetProtocol
 153              		.section	.text.USBFS_DispatchHIDClassRqst,"ax",%progbits
 154              		.align	2
 155              		.global	USBFS_DispatchHIDClassRqst
 156              		.thumb
 157              		.thumb_func
 158              		.type	USBFS_DispatchHIDClassRqst, %function
 159              	USBFS_DispatchHIDClassRqst:
 160              	.LFB2:
ARM GAS  C:\USERS\LUKAS\APPDATA\LOCAL\TEMP\cciNE54R.s 			page 6


 126:.\Generated_Source\PSoC5/USBFS_hid.c **** 
 127:.\Generated_Source\PSoC5/USBFS_hid.c **** 
 128:.\Generated_Source\PSoC5/USBFS_hid.c **** /*******************************************************************************
 129:.\Generated_Source\PSoC5/USBFS_hid.c **** * Function Name: USBFS_DispatchHIDClassRqst
 130:.\Generated_Source\PSoC5/USBFS_hid.c **** ********************************************************************************
 131:.\Generated_Source\PSoC5/USBFS_hid.c **** *
 132:.\Generated_Source\PSoC5/USBFS_hid.c **** * Summary:
 133:.\Generated_Source\PSoC5/USBFS_hid.c **** *  This routine dispatches class requests
 134:.\Generated_Source\PSoC5/USBFS_hid.c **** *
 135:.\Generated_Source\PSoC5/USBFS_hid.c **** * Parameters:
 136:.\Generated_Source\PSoC5/USBFS_hid.c **** *  None.
 137:.\Generated_Source\PSoC5/USBFS_hid.c **** *
 138:.\Generated_Source\PSoC5/USBFS_hid.c **** * Return:
 139:.\Generated_Source\PSoC5/USBFS_hid.c **** *  requestHandled
 140:.\Generated_Source\PSoC5/USBFS_hid.c **** *
 141:.\Generated_Source\PSoC5/USBFS_hid.c **** * Reentrant:
 142:.\Generated_Source\PSoC5/USBFS_hid.c **** *  No.
 143:.\Generated_Source\PSoC5/USBFS_hid.c **** *
 144:.\Generated_Source\PSoC5/USBFS_hid.c **** *******************************************************************************/
 145:.\Generated_Source\PSoC5/USBFS_hid.c **** uint8 USBFS_DispatchHIDClassRqst() 
 146:.\Generated_Source\PSoC5/USBFS_hid.c **** {
 161              		.loc 1 146 0
 162              		.cfi_startproc
 163              		@ args = 0, pretend = 0, frame = 8
 164              		@ frame_needed = 1, uses_anonymous_args = 0
 165 0000 80B5     		push	{r7, lr}
 166              		.cfi_def_cfa_offset 8
 167              		.cfi_offset 7, -8
 168              		.cfi_offset 14, -4
 169 0002 82B0     		sub	sp, sp, #8
 170              		.cfi_def_cfa_offset 16
 171 0004 00AF     		add	r7, sp, #0
 172              		.cfi_def_cfa_register 7
 147:.\Generated_Source\PSoC5/USBFS_hid.c ****     uint8 requestHandled = USBFS_FALSE;
 173              		.loc 1 147 0
 174 0006 0023     		movs	r3, #0
 175 0008 FB71     		strb	r3, [r7, #7]
 148:.\Generated_Source\PSoC5/USBFS_hid.c ****     uint8 interfaceNumber;
 149:.\Generated_Source\PSoC5/USBFS_hid.c **** 
 150:.\Generated_Source\PSoC5/USBFS_hid.c ****     interfaceNumber = CY_GET_REG8(USBFS_wIndexLo);
 176              		.loc 1 150 0
 177 000a 6F4B     		ldr	r3, .L41
 178 000c 1B78     		ldrb	r3, [r3]
 179 000e BB71     		strb	r3, [r7, #6]
 151:.\Generated_Source\PSoC5/USBFS_hid.c ****     if ((CY_GET_REG8(USBFS_bmRequestType) & USBFS_RQST_DIR_MASK) == USBFS_RQST_DIR_D2H)
 180              		.loc 1 151 0
 181 0010 6E4B     		ldr	r3, .L41+4
 182 0012 1B78     		ldrb	r3, [r3]
 183 0014 DBB2     		uxtb	r3, r3
 184 0016 DBB2     		uxtb	r3, r3
 185 0018 5BB2     		sxtb	r3, r3
 186 001a 002B     		cmp	r3, #0
 187 001c 6DDA     		bge	.L12
 152:.\Generated_Source\PSoC5/USBFS_hid.c ****     {   /* Control Read */
 153:.\Generated_Source\PSoC5/USBFS_hid.c ****         switch (CY_GET_REG8(USBFS_bRequest))
 188              		.loc 1 153 0
 189 001e 6C4B     		ldr	r3, .L41+8
ARM GAS  C:\USERS\LUKAS\APPDATA\LOCAL\TEMP\cciNE54R.s 			page 7


 190 0020 1B78     		ldrb	r3, [r3]
 191 0022 DBB2     		uxtb	r3, r3
 192 0024 013B     		subs	r3, r3, #1
 193 0026 052B     		cmp	r3, #5
 194 0028 65D8     		bhi	.L39
 195 002a 01A2     		adr	r2, .L15
 196 002c 52F823F0 		ldr	pc, [r2, r3, lsl #2]
 197              		.p2align 2
 198              	.L15:
 199 0030 8F000000 		.word	.L14+1
 200 0034 A9000000 		.word	.L16+1
 201 0038 D5000000 		.word	.L17+1
 202 003c F7000000 		.word	.L39+1
 203 0040 F7000000 		.word	.L39+1
 204 0044 49000000 		.word	.L18+1
 205              		.p2align 1
 206              	.L18:
 154:.\Generated_Source\PSoC5/USBFS_hid.c ****         {
 155:.\Generated_Source\PSoC5/USBFS_hid.c ****             case USBFS_GET_DESCRIPTOR:
 156:.\Generated_Source\PSoC5/USBFS_hid.c ****                 if (CY_GET_REG8(USBFS_wValueHi) == USBFS_DESCR_HID_CLASS)
 207              		.loc 1 156 0
 208 0048 624B     		ldr	r3, .L41+12
 209 004a 1B78     		ldrb	r3, [r3]
 210 004c DBB2     		uxtb	r3, r3
 211 004e 212B     		cmp	r3, #33
 212 0050 0BD1     		bne	.L19
 157:.\Generated_Source\PSoC5/USBFS_hid.c ****                 {
 158:.\Generated_Source\PSoC5/USBFS_hid.c ****                     USBFS_FindHidClassDecriptor();
 213              		.loc 1 158 0
 214 0052 FFF7FEFF 		bl	USBFS_FindHidClassDecriptor
 159:.\Generated_Source\PSoC5/USBFS_hid.c ****                     if (USBFS_currentTD.count != 0u)
 215              		.loc 1 159 0
 216 0056 604B     		ldr	r3, .L41+16
 217 0058 1B88     		ldrh	r3, [r3]	@ movhi
 218 005a 9BB2     		uxth	r3, r3
 219 005c 002B     		cmp	r3, #0
 220 005e 15D0     		beq	.L21
 160:.\Generated_Source\PSoC5/USBFS_hid.c ****                     {
 161:.\Generated_Source\PSoC5/USBFS_hid.c ****                         requestHandled = USBFS_InitControlRead();
 221              		.loc 1 161 0
 222 0060 FFF7FEFF 		bl	USBFS_InitControlRead
 223 0064 0346     		mov	r3, r0
 224 0066 FB71     		strb	r3, [r7, #7]
 162:.\Generated_Source\PSoC5/USBFS_hid.c ****                     }
 163:.\Generated_Source\PSoC5/USBFS_hid.c ****                 }
 164:.\Generated_Source\PSoC5/USBFS_hid.c ****                 else if (CY_GET_REG8(USBFS_wValueHi) == USBFS_DESCR_HID_REPORT)
 165:.\Generated_Source\PSoC5/USBFS_hid.c ****                 {
 166:.\Generated_Source\PSoC5/USBFS_hid.c ****                     USBFS_FindReportDescriptor();
 167:.\Generated_Source\PSoC5/USBFS_hid.c ****                     if (USBFS_currentTD.count != 0u)
 168:.\Generated_Source\PSoC5/USBFS_hid.c ****                     {
 169:.\Generated_Source\PSoC5/USBFS_hid.c ****                         requestHandled = USBFS_InitControlRead();
 170:.\Generated_Source\PSoC5/USBFS_hid.c ****                     }
 171:.\Generated_Source\PSoC5/USBFS_hid.c ****                 }
 172:.\Generated_Source\PSoC5/USBFS_hid.c ****                 else
 173:.\Generated_Source\PSoC5/USBFS_hid.c ****                 {   /* requestHandled is initialezed as FALSE by default */
 174:.\Generated_Source\PSoC5/USBFS_hid.c ****                 }
 175:.\Generated_Source\PSoC5/USBFS_hid.c ****                 break;
ARM GAS  C:\USERS\LUKAS\APPDATA\LOCAL\TEMP\cciNE54R.s 			page 8


 225              		.loc 1 175 0
 226 0068 46E0     		b	.L23
 227              	.L19:
 164:.\Generated_Source\PSoC5/USBFS_hid.c ****                 {
 228              		.loc 1 164 0
 229 006a 5A4B     		ldr	r3, .L41+12
 230 006c 1B78     		ldrb	r3, [r3]
 231 006e DBB2     		uxtb	r3, r3
 232 0070 222B     		cmp	r3, #34
 233 0072 0BD1     		bne	.L21
 166:.\Generated_Source\PSoC5/USBFS_hid.c ****                     if (USBFS_currentTD.count != 0u)
 234              		.loc 1 166 0
 235 0074 FFF7FEFF 		bl	USBFS_FindReportDescriptor
 167:.\Generated_Source\PSoC5/USBFS_hid.c ****                     {
 236              		.loc 1 167 0
 237 0078 574B     		ldr	r3, .L41+16
 238 007a 1B88     		ldrh	r3, [r3]	@ movhi
 239 007c 9BB2     		uxth	r3, r3
 240 007e 002B     		cmp	r3, #0
 241 0080 04D0     		beq	.L21
 169:.\Generated_Source\PSoC5/USBFS_hid.c ****                     }
 242              		.loc 1 169 0
 243 0082 FFF7FEFF 		bl	USBFS_InitControlRead
 244 0086 0346     		mov	r3, r0
 245 0088 FB71     		strb	r3, [r7, #7]
 246              		.loc 1 175 0
 247 008a 35E0     		b	.L23
 248              	.L21:
 249              		.loc 1 175 0 is_stmt 0 discriminator 1
 250 008c 34E0     		b	.L23
 251              	.L14:
 176:.\Generated_Source\PSoC5/USBFS_hid.c ****             case USBFS_HID_GET_REPORT:
 177:.\Generated_Source\PSoC5/USBFS_hid.c ****                 USBFS_FindReport();
 252              		.loc 1 177 0 is_stmt 1
 253 008e FFF7FEFF 		bl	USBFS_FindReport
 178:.\Generated_Source\PSoC5/USBFS_hid.c ****                 if (USBFS_currentTD.count != 0u)
 254              		.loc 1 178 0
 255 0092 514B     		ldr	r3, .L41+16
 256 0094 1B88     		ldrh	r3, [r3]	@ movhi
 257 0096 9BB2     		uxth	r3, r3
 258 0098 002B     		cmp	r3, #0
 259 009a 04D0     		beq	.L24
 179:.\Generated_Source\PSoC5/USBFS_hid.c ****                 {
 180:.\Generated_Source\PSoC5/USBFS_hid.c ****                     requestHandled = USBFS_InitControlRead();
 260              		.loc 1 180 0
 261 009c FFF7FEFF 		bl	USBFS_InitControlRead
 262 00a0 0346     		mov	r3, r0
 263 00a2 FB71     		strb	r3, [r7, #7]
 181:.\Generated_Source\PSoC5/USBFS_hid.c ****                 }
 182:.\Generated_Source\PSoC5/USBFS_hid.c ****                 break;
 264              		.loc 1 182 0
 265 00a4 28E0     		b	.L23
 266              	.L24:
 267              		.loc 1 182 0 is_stmt 0 discriminator 4
 268 00a6 27E0     		b	.L23
 269              	.L16:
 183:.\Generated_Source\PSoC5/USBFS_hid.c **** 
ARM GAS  C:\USERS\LUKAS\APPDATA\LOCAL\TEMP\cciNE54R.s 			page 9


 184:.\Generated_Source\PSoC5/USBFS_hid.c ****             case USBFS_HID_GET_IDLE:
 185:.\Generated_Source\PSoC5/USBFS_hid.c ****                 /* This function does not support multiple reports per interface*/
 186:.\Generated_Source\PSoC5/USBFS_hid.c ****                 /* Validate interfaceNumber and Report ID (should be 0) */
 187:.\Generated_Source\PSoC5/USBFS_hid.c ****                 if( (interfaceNumber < USBFS_MAX_INTERFACES_NUMBER) &&
 270              		.loc 1 187 0 is_stmt 1
 271 00a8 BB79     		ldrb	r3, [r7, #6]	@ zero_extendqisi2
 272 00aa 032B     		cmp	r3, #3
 273 00ac 11D8     		bhi	.L25
 188:.\Generated_Source\PSoC5/USBFS_hid.c ****                     (CY_GET_REG8(USBFS_wValueLo) == 0u ) ) /* do not support Idle per Report ID */
 274              		.loc 1 188 0 discriminator 1
 275 00ae 4B4B     		ldr	r3, .L41+20
 276 00b0 1B78     		ldrb	r3, [r3]
 277 00b2 DBB2     		uxtb	r3, r3
 187:.\Generated_Source\PSoC5/USBFS_hid.c ****                     (CY_GET_REG8(USBFS_wValueLo) == 0u ) ) /* do not support Idle per Report ID */
 278              		.loc 1 187 0 discriminator 1
 279 00b4 002B     		cmp	r3, #0
 280 00b6 0CD1     		bne	.L25
 189:.\Generated_Source\PSoC5/USBFS_hid.c ****                 {
 190:.\Generated_Source\PSoC5/USBFS_hid.c ****                     USBFS_currentTD.count = 1u;
 281              		.loc 1 190 0
 282 00b8 474B     		ldr	r3, .L41+16
 283 00ba 0122     		movs	r2, #1
 284 00bc 1A80     		strh	r2, [r3]	@ movhi
 191:.\Generated_Source\PSoC5/USBFS_hid.c ****                     USBFS_currentTD.pData = &USBFS_hidIdleRate[interfaceNumber];
 285              		.loc 1 191 0
 286 00be BB79     		ldrb	r3, [r7, #6]	@ zero_extendqisi2
 287 00c0 474A     		ldr	r2, .L41+24
 288 00c2 1344     		add	r3, r3, r2
 289 00c4 444A     		ldr	r2, .L41+16
 290 00c6 5360     		str	r3, [r2, #4]
 192:.\Generated_Source\PSoC5/USBFS_hid.c ****                     requestHandled  = USBFS_InitControlRead();
 291              		.loc 1 192 0
 292 00c8 FFF7FEFF 		bl	USBFS_InitControlRead
 293 00cc 0346     		mov	r3, r0
 294 00ce FB71     		strb	r3, [r7, #7]
 193:.\Generated_Source\PSoC5/USBFS_hid.c ****                 }
 194:.\Generated_Source\PSoC5/USBFS_hid.c ****                 break;
 295              		.loc 1 194 0
 296 00d0 12E0     		b	.L23
 297              	.L25:
 298              		.loc 1 194 0 is_stmt 0 discriminator 5
 299 00d2 11E0     		b	.L23
 300              	.L17:
 195:.\Generated_Source\PSoC5/USBFS_hid.c ****             case USBFS_HID_GET_PROTOCOL:
 196:.\Generated_Source\PSoC5/USBFS_hid.c ****                 /* Validate interfaceNumber */
 197:.\Generated_Source\PSoC5/USBFS_hid.c ****                 if( interfaceNumber < USBFS_MAX_INTERFACES_NUMBER)
 301              		.loc 1 197 0 is_stmt 1
 302 00d4 BB79     		ldrb	r3, [r7, #6]	@ zero_extendqisi2
 303 00d6 032B     		cmp	r3, #3
 304 00d8 0CD8     		bhi	.L26
 198:.\Generated_Source\PSoC5/USBFS_hid.c ****                 {
 199:.\Generated_Source\PSoC5/USBFS_hid.c ****                     USBFS_currentTD.count = 1u;
 305              		.loc 1 199 0
 306 00da 3F4B     		ldr	r3, .L41+16
 307 00dc 0122     		movs	r2, #1
 308 00de 1A80     		strh	r2, [r3]	@ movhi
 200:.\Generated_Source\PSoC5/USBFS_hid.c ****                     USBFS_currentTD.pData = &USBFS_hidProtocol[interfaceNumber];
ARM GAS  C:\USERS\LUKAS\APPDATA\LOCAL\TEMP\cciNE54R.s 			page 10


 309              		.loc 1 200 0
 310 00e0 BB79     		ldrb	r3, [r7, #6]	@ zero_extendqisi2
 311 00e2 404A     		ldr	r2, .L41+28
 312 00e4 1344     		add	r3, r3, r2
 313 00e6 3C4A     		ldr	r2, .L41+16
 314 00e8 5360     		str	r3, [r2, #4]
 201:.\Generated_Source\PSoC5/USBFS_hid.c ****                     requestHandled  = USBFS_InitControlRead();
 315              		.loc 1 201 0
 316 00ea FFF7FEFF 		bl	USBFS_InitControlRead
 317 00ee 0346     		mov	r3, r0
 318 00f0 FB71     		strb	r3, [r7, #7]
 202:.\Generated_Source\PSoC5/USBFS_hid.c ****                 }
 203:.\Generated_Source\PSoC5/USBFS_hid.c ****                 break;
 319              		.loc 1 203 0
 320 00f2 01E0     		b	.L23
 321              	.L26:
 322              		.loc 1 203 0 is_stmt 0 discriminator 6
 323 00f4 00E0     		b	.L23
 324              	.L39:
 204:.\Generated_Source\PSoC5/USBFS_hid.c ****             default:    /* requestHandled is initialezed as FALSE by default */
 205:.\Generated_Source\PSoC5/USBFS_hid.c ****                 break;
 325              		.loc 1 205 0 is_stmt 1
 326 00f6 00BF     		nop
 327              	.L23:
 328 00f8 61E0     		b	.L27
 329              	.L12:
 206:.\Generated_Source\PSoC5/USBFS_hid.c ****         }
 207:.\Generated_Source\PSoC5/USBFS_hid.c ****     }
 208:.\Generated_Source\PSoC5/USBFS_hid.c ****     else if ((CY_GET_REG8(USBFS_bmRequestType) & USBFS_RQST_DIR_MASK) ==
 330              		.loc 1 208 0
 331 00fa 344B     		ldr	r3, .L41+4
 332 00fc 1B78     		ldrb	r3, [r3]
 333 00fe DBB2     		uxtb	r3, r3
 334 0100 DBB2     		uxtb	r3, r3
 335 0102 5BB2     		sxtb	r3, r3
 336 0104 002B     		cmp	r3, #0
 337 0106 5ADB     		blt	.L27
 209:.\Generated_Source\PSoC5/USBFS_hid.c ****                                                                             USBFS_RQST_DIR_H2D)
 210:.\Generated_Source\PSoC5/USBFS_hid.c ****     {   /* Control Write */
 211:.\Generated_Source\PSoC5/USBFS_hid.c ****         switch (CY_GET_REG8(USBFS_bRequest))
 338              		.loc 1 211 0
 339 0108 314B     		ldr	r3, .L41+8
 340 010a 1B78     		ldrb	r3, [r3]
 341 010c DBB2     		uxtb	r3, r3
 342 010e 0A2B     		cmp	r3, #10
 343 0110 11D0     		beq	.L29
 344 0112 0B2B     		cmp	r3, #11
 345 0114 3FD0     		beq	.L30
 346 0116 092B     		cmp	r3, #9
 347 0118 00D0     		beq	.L31
 212:.\Generated_Source\PSoC5/USBFS_hid.c ****         {
 213:.\Generated_Source\PSoC5/USBFS_hid.c ****             case USBFS_HID_SET_REPORT:
 214:.\Generated_Source\PSoC5/USBFS_hid.c ****                 USBFS_FindReport();
 215:.\Generated_Source\PSoC5/USBFS_hid.c ****                 if (USBFS_currentTD.count != 0u)
 216:.\Generated_Source\PSoC5/USBFS_hid.c ****                 {
 217:.\Generated_Source\PSoC5/USBFS_hid.c ****                     requestHandled = USBFS_InitControlWrite();
 218:.\Generated_Source\PSoC5/USBFS_hid.c ****                 }
ARM GAS  C:\USERS\LUKAS\APPDATA\LOCAL\TEMP\cciNE54R.s 			page 11


 219:.\Generated_Source\PSoC5/USBFS_hid.c ****                 break;
 220:.\Generated_Source\PSoC5/USBFS_hid.c ****             case USBFS_HID_SET_IDLE:
 221:.\Generated_Source\PSoC5/USBFS_hid.c ****                 /* This function does not support multiple reports per interface */
 222:.\Generated_Source\PSoC5/USBFS_hid.c ****                 /* Validate interfaceNumber and Report ID (should be 0) */
 223:.\Generated_Source\PSoC5/USBFS_hid.c ****                 if( (interfaceNumber < USBFS_MAX_INTERFACES_NUMBER) &&
 224:.\Generated_Source\PSoC5/USBFS_hid.c ****                     (CY_GET_REG8(USBFS_wValueLo) == 0u ) ) /* do not support Idle per Report ID */
 225:.\Generated_Source\PSoC5/USBFS_hid.c ****                 {
 226:.\Generated_Source\PSoC5/USBFS_hid.c ****                     USBFS_hidIdleRate[interfaceNumber] = CY_GET_REG8(USBFS_wValueHi);
 227:.\Generated_Source\PSoC5/USBFS_hid.c ****                     /* With regards to HID spec: "7.2.4 Set_Idle Request"
 228:.\Generated_Source\PSoC5/USBFS_hid.c ****                     *  Latency. If the current period has gone past the
 229:.\Generated_Source\PSoC5/USBFS_hid.c ****                     *  newly proscribed time duration, then a report
 230:.\Generated_Source\PSoC5/USBFS_hid.c ****                     *  will be generated immediately.
 231:.\Generated_Source\PSoC5/USBFS_hid.c ****                     */
 232:.\Generated_Source\PSoC5/USBFS_hid.c ****                     if(USBFS_hidIdleRate[interfaceNumber] <
 233:.\Generated_Source\PSoC5/USBFS_hid.c ****                        USBFS_hidIdleTimer[interfaceNumber])
 234:.\Generated_Source\PSoC5/USBFS_hid.c ****                     {
 235:.\Generated_Source\PSoC5/USBFS_hid.c ****                         /* Set the timer to zero and let the UpdateHIDTimer() API return IDLE_TIMER
 236:.\Generated_Source\PSoC5/USBFS_hid.c ****                         USBFS_hidIdleTimer[interfaceNumber] = 0u;
 237:.\Generated_Source\PSoC5/USBFS_hid.c ****                     }
 238:.\Generated_Source\PSoC5/USBFS_hid.c ****                     /* If the new request is received within 4 milliseconds
 239:.\Generated_Source\PSoC5/USBFS_hid.c ****                     *  (1 count) of the end of the current period, then the
 240:.\Generated_Source\PSoC5/USBFS_hid.c ****                     *  new request will have no effect until after the report.
 241:.\Generated_Source\PSoC5/USBFS_hid.c ****                     */
 242:.\Generated_Source\PSoC5/USBFS_hid.c ****                     else if(USBFS_hidIdleTimer[interfaceNumber] <= 1u)
 243:.\Generated_Source\PSoC5/USBFS_hid.c ****                     {
 244:.\Generated_Source\PSoC5/USBFS_hid.c ****                         /* Do nothing.
 245:.\Generated_Source\PSoC5/USBFS_hid.c ****                         * Let the UpdateHIDTimer() API continue to work and
 246:.\Generated_Source\PSoC5/USBFS_hid.c ****                         * return IDLE_TIMER_EXPIRED status
 247:.\Generated_Source\PSoC5/USBFS_hid.c ****                         */
 248:.\Generated_Source\PSoC5/USBFS_hid.c ****                     }
 249:.\Generated_Source\PSoC5/USBFS_hid.c ****                     else
 250:.\Generated_Source\PSoC5/USBFS_hid.c ****                     {   /* Reload the timer*/
 251:.\Generated_Source\PSoC5/USBFS_hid.c ****                         USBFS_hidIdleTimer[interfaceNumber] =
 252:.\Generated_Source\PSoC5/USBFS_hid.c ****                         USBFS_hidIdleRate[interfaceNumber];
 253:.\Generated_Source\PSoC5/USBFS_hid.c ****                     }
 254:.\Generated_Source\PSoC5/USBFS_hid.c ****                     requestHandled = USBFS_InitNoDataControlTransfer();
 255:.\Generated_Source\PSoC5/USBFS_hid.c ****                 }
 256:.\Generated_Source\PSoC5/USBFS_hid.c ****                 break;
 257:.\Generated_Source\PSoC5/USBFS_hid.c **** 
 258:.\Generated_Source\PSoC5/USBFS_hid.c ****             case USBFS_HID_SET_PROTOCOL:
 259:.\Generated_Source\PSoC5/USBFS_hid.c ****                 /* Validate interfaceNumber and protocol (must be 0 or 1) */
 260:.\Generated_Source\PSoC5/USBFS_hid.c ****                 if( (interfaceNumber < USBFS_MAX_INTERFACES_NUMBER) &&
 261:.\Generated_Source\PSoC5/USBFS_hid.c ****                     (CY_GET_REG8(USBFS_wValueLo) <= 1u) )
 262:.\Generated_Source\PSoC5/USBFS_hid.c ****                 {
 263:.\Generated_Source\PSoC5/USBFS_hid.c ****                     USBFS_hidProtocol[interfaceNumber] = CY_GET_REG8(USBFS_wValueLo);
 264:.\Generated_Source\PSoC5/USBFS_hid.c ****                     requestHandled = USBFS_InitNoDataControlTransfer();
 265:.\Generated_Source\PSoC5/USBFS_hid.c ****                 }
 266:.\Generated_Source\PSoC5/USBFS_hid.c ****                 break;
 267:.\Generated_Source\PSoC5/USBFS_hid.c ****             default:    /* requestHandled is initialezed as FALSE by default */
 268:.\Generated_Source\PSoC5/USBFS_hid.c ****                 break;
 348              		.loc 1 268 0
 349 011a 50E0     		b	.L33
 350              	.L31:
 214:.\Generated_Source\PSoC5/USBFS_hid.c ****                 if (USBFS_currentTD.count != 0u)
 351              		.loc 1 214 0
 352 011c FFF7FEFF 		bl	USBFS_FindReport
 215:.\Generated_Source\PSoC5/USBFS_hid.c ****                 {
ARM GAS  C:\USERS\LUKAS\APPDATA\LOCAL\TEMP\cciNE54R.s 			page 12


 353              		.loc 1 215 0
 354 0120 2D4B     		ldr	r3, .L41+16
 355 0122 1B88     		ldrh	r3, [r3]	@ movhi
 356 0124 9BB2     		uxth	r3, r3
 357 0126 002B     		cmp	r3, #0
 358 0128 04D0     		beq	.L32
 217:.\Generated_Source\PSoC5/USBFS_hid.c ****                 }
 359              		.loc 1 217 0
 360 012a FFF7FEFF 		bl	USBFS_InitControlWrite
 361 012e 0346     		mov	r3, r0
 362 0130 FB71     		strb	r3, [r7, #7]
 219:.\Generated_Source\PSoC5/USBFS_hid.c ****             case USBFS_HID_SET_IDLE:
 363              		.loc 1 219 0
 364 0132 44E0     		b	.L33
 365              	.L32:
 366 0134 43E0     		b	.L33
 367              	.L29:
 223:.\Generated_Source\PSoC5/USBFS_hid.c ****                     (CY_GET_REG8(USBFS_wValueLo) == 0u ) ) /* do not support Idle per Report ID */
 368              		.loc 1 223 0
 369 0136 BB79     		ldrb	r3, [r7, #6]	@ zero_extendqisi2
 370 0138 032B     		cmp	r3, #3
 371 013a 2BD8     		bhi	.L34
 224:.\Generated_Source\PSoC5/USBFS_hid.c ****                 {
 372              		.loc 1 224 0 discriminator 1
 373 013c 274B     		ldr	r3, .L41+20
 374 013e 1B78     		ldrb	r3, [r3]
 375 0140 DBB2     		uxtb	r3, r3
 223:.\Generated_Source\PSoC5/USBFS_hid.c ****                     (CY_GET_REG8(USBFS_wValueLo) == 0u ) ) /* do not support Idle per Report ID */
 376              		.loc 1 223 0 discriminator 1
 377 0142 002B     		cmp	r3, #0
 378 0144 26D1     		bne	.L34
 226:.\Generated_Source\PSoC5/USBFS_hid.c ****                     /* With regards to HID spec: "7.2.4 Set_Idle Request"
 379              		.loc 1 226 0
 380 0146 BB79     		ldrb	r3, [r7, #6]	@ zero_extendqisi2
 381 0148 224A     		ldr	r2, .L41+12
 382 014a 1278     		ldrb	r2, [r2]
 383 014c D1B2     		uxtb	r1, r2
 384 014e 244A     		ldr	r2, .L41+24
 385 0150 D154     		strb	r1, [r2, r3]
 232:.\Generated_Source\PSoC5/USBFS_hid.c ****                        USBFS_hidIdleTimer[interfaceNumber])
 386              		.loc 1 232 0
 387 0152 BB79     		ldrb	r3, [r7, #6]	@ zero_extendqisi2
 388 0154 224A     		ldr	r2, .L41+24
 389 0156 D35C     		ldrb	r3, [r2, r3]
 390 0158 DAB2     		uxtb	r2, r3
 233:.\Generated_Source\PSoC5/USBFS_hid.c ****                     {
 391              		.loc 1 233 0
 392 015a BB79     		ldrb	r3, [r7, #6]	@ zero_extendqisi2
 393 015c 2249     		ldr	r1, .L41+32
 394 015e CB5C     		ldrb	r3, [r1, r3]
 395 0160 DBB2     		uxtb	r3, r3
 232:.\Generated_Source\PSoC5/USBFS_hid.c ****                        USBFS_hidIdleTimer[interfaceNumber])
 396              		.loc 1 232 0
 397 0162 9A42     		cmp	r2, r3
 398 0164 04D2     		bcs	.L35
 236:.\Generated_Source\PSoC5/USBFS_hid.c ****                     }
 399              		.loc 1 236 0
ARM GAS  C:\USERS\LUKAS\APPDATA\LOCAL\TEMP\cciNE54R.s 			page 13


 400 0166 BB79     		ldrb	r3, [r7, #6]	@ zero_extendqisi2
 401 0168 1F4A     		ldr	r2, .L41+32
 402 016a 0021     		movs	r1, #0
 403 016c D154     		strb	r1, [r2, r3]
 404 016e 0CE0     		b	.L36
 405              	.L35:
 242:.\Generated_Source\PSoC5/USBFS_hid.c ****                     {
 406              		.loc 1 242 0
 407 0170 BB79     		ldrb	r3, [r7, #6]	@ zero_extendqisi2
 408 0172 1D4A     		ldr	r2, .L41+32
 409 0174 D35C     		ldrb	r3, [r2, r3]
 410 0176 DBB2     		uxtb	r3, r3
 411 0178 012B     		cmp	r3, #1
 412 017a 06D9     		bls	.L36
 251:.\Generated_Source\PSoC5/USBFS_hid.c ****                         USBFS_hidIdleRate[interfaceNumber];
 413              		.loc 1 251 0
 414 017c BB79     		ldrb	r3, [r7, #6]	@ zero_extendqisi2
 252:.\Generated_Source\PSoC5/USBFS_hid.c ****                     }
 415              		.loc 1 252 0
 416 017e BA79     		ldrb	r2, [r7, #6]	@ zero_extendqisi2
 417 0180 1749     		ldr	r1, .L41+24
 418 0182 8A5C     		ldrb	r2, [r1, r2]
 419 0184 D1B2     		uxtb	r1, r2
 251:.\Generated_Source\PSoC5/USBFS_hid.c ****                         USBFS_hidIdleRate[interfaceNumber];
 420              		.loc 1 251 0
 421 0186 184A     		ldr	r2, .L41+32
 422 0188 D154     		strb	r1, [r2, r3]
 423              	.L36:
 254:.\Generated_Source\PSoC5/USBFS_hid.c ****                 }
 424              		.loc 1 254 0
 425 018a FFF7FEFF 		bl	USBFS_InitNoDataControlTransfer
 426 018e 0346     		mov	r3, r0
 427 0190 FB71     		strb	r3, [r7, #7]
 256:.\Generated_Source\PSoC5/USBFS_hid.c **** 
 428              		.loc 1 256 0
 429 0192 14E0     		b	.L33
 430              	.L34:
 256:.\Generated_Source\PSoC5/USBFS_hid.c **** 
 431              		.loc 1 256 0 is_stmt 0 discriminator 9
 432 0194 13E0     		b	.L33
 433              	.L30:
 260:.\Generated_Source\PSoC5/USBFS_hid.c ****                     (CY_GET_REG8(USBFS_wValueLo) <= 1u) )
 434              		.loc 1 260 0 is_stmt 1
 435 0196 BB79     		ldrb	r3, [r7, #6]	@ zero_extendqisi2
 436 0198 032B     		cmp	r3, #3
 437 019a 0FD8     		bhi	.L37
 261:.\Generated_Source\PSoC5/USBFS_hid.c ****                 {
 438              		.loc 1 261 0 discriminator 1
 439 019c 0F4B     		ldr	r3, .L41+20
 440 019e 1B78     		ldrb	r3, [r3]
 441 01a0 DBB2     		uxtb	r3, r3
 260:.\Generated_Source\PSoC5/USBFS_hid.c ****                     (CY_GET_REG8(USBFS_wValueLo) <= 1u) )
 442              		.loc 1 260 0 discriminator 1
 443 01a2 012B     		cmp	r3, #1
 444 01a4 0AD8     		bhi	.L37
 263:.\Generated_Source\PSoC5/USBFS_hid.c ****                     requestHandled = USBFS_InitNoDataControlTransfer();
 445              		.loc 1 263 0
ARM GAS  C:\USERS\LUKAS\APPDATA\LOCAL\TEMP\cciNE54R.s 			page 14


 446 01a6 BB79     		ldrb	r3, [r7, #6]	@ zero_extendqisi2
 447 01a8 0C4A     		ldr	r2, .L41+20
 448 01aa 1278     		ldrb	r2, [r2]
 449 01ac D1B2     		uxtb	r1, r2
 450 01ae 0D4A     		ldr	r2, .L41+28
 451 01b0 D154     		strb	r1, [r2, r3]
 264:.\Generated_Source\PSoC5/USBFS_hid.c ****                 }
 452              		.loc 1 264 0
 453 01b2 FFF7FEFF 		bl	USBFS_InitNoDataControlTransfer
 454 01b6 0346     		mov	r3, r0
 455 01b8 FB71     		strb	r3, [r7, #7]
 266:.\Generated_Source\PSoC5/USBFS_hid.c ****             default:    /* requestHandled is initialezed as FALSE by default */
 456              		.loc 1 266 0
 457 01ba FFE7     		b	.L40
 458              	.L37:
 459              	.L40:
 460 01bc 00BF     		nop
 461              	.L33:
 462              	.L27:
 269:.\Generated_Source\PSoC5/USBFS_hid.c ****         }
 270:.\Generated_Source\PSoC5/USBFS_hid.c ****     }
 271:.\Generated_Source\PSoC5/USBFS_hid.c ****     else
 272:.\Generated_Source\PSoC5/USBFS_hid.c ****     {   /* requestHandled is initialezed as FALSE by default */
 273:.\Generated_Source\PSoC5/USBFS_hid.c ****     }
 274:.\Generated_Source\PSoC5/USBFS_hid.c **** 
 275:.\Generated_Source\PSoC5/USBFS_hid.c ****     return(requestHandled);
 463              		.loc 1 275 0
 464 01be FB79     		ldrb	r3, [r7, #7]	@ zero_extendqisi2
 276:.\Generated_Source\PSoC5/USBFS_hid.c **** }
 465              		.loc 1 276 0
 466 01c0 1846     		mov	r0, r3
 467 01c2 0837     		adds	r7, r7, #8
 468              		.cfi_def_cfa_offset 8
 469 01c4 BD46     		mov	sp, r7
 470              		.cfi_def_cfa_register 13
 471              		@ sp needed
 472 01c6 80BD     		pop	{r7, pc}
 473              	.L42:
 474              		.align	2
 475              	.L41:
 476 01c8 04600040 		.word	1073766404
 477 01cc 00600040 		.word	1073766400
 478 01d0 01600040 		.word	1073766401
 479 01d4 03600040 		.word	1073766403
 480 01d8 00000000 		.word	USBFS_currentTD
 481 01dc 02600040 		.word	1073766402
 482 01e0 00000000 		.word	USBFS_hidIdleRate
 483 01e4 00000000 		.word	USBFS_hidProtocol
 484 01e8 00000000 		.word	USBFS_hidIdleTimer
 485              		.cfi_endproc
 486              	.LFE2:
 487              		.size	USBFS_DispatchHIDClassRqst, .-USBFS_DispatchHIDClassRqst
 488              		.section	.text.USBFS_FindHidClassDecriptor,"ax",%progbits
 489              		.align	2
 490              		.global	USBFS_FindHidClassDecriptor
 491              		.thumb
 492              		.thumb_func
ARM GAS  C:\USERS\LUKAS\APPDATA\LOCAL\TEMP\cciNE54R.s 			page 15


 493              		.type	USBFS_FindHidClassDecriptor, %function
 494              	USBFS_FindHidClassDecriptor:
 495              	.LFB3:
 277:.\Generated_Source\PSoC5/USBFS_hid.c **** 
 278:.\Generated_Source\PSoC5/USBFS_hid.c **** 
 279:.\Generated_Source\PSoC5/USBFS_hid.c **** /*******************************************************************************
 280:.\Generated_Source\PSoC5/USBFS_hid.c **** * Function Name: USB_FindHidClassDescriptor
 281:.\Generated_Source\PSoC5/USBFS_hid.c **** ********************************************************************************
 282:.\Generated_Source\PSoC5/USBFS_hid.c **** *
 283:.\Generated_Source\PSoC5/USBFS_hid.c **** * Summary:
 284:.\Generated_Source\PSoC5/USBFS_hid.c **** *  This routine find Hid Class Descriptor pointer based on the Interface number
 285:.\Generated_Source\PSoC5/USBFS_hid.c **** *  and Alternate setting then loads the currentTD structure with the address of
 286:.\Generated_Source\PSoC5/USBFS_hid.c **** *  the buffer and the size.
 287:.\Generated_Source\PSoC5/USBFS_hid.c **** *  The HID Class Descriptor resides inside the config descriptor.
 288:.\Generated_Source\PSoC5/USBFS_hid.c **** *
 289:.\Generated_Source\PSoC5/USBFS_hid.c **** * Parameters:
 290:.\Generated_Source\PSoC5/USBFS_hid.c **** *  None.
 291:.\Generated_Source\PSoC5/USBFS_hid.c **** *
 292:.\Generated_Source\PSoC5/USBFS_hid.c **** * Return:
 293:.\Generated_Source\PSoC5/USBFS_hid.c **** *  currentTD
 294:.\Generated_Source\PSoC5/USBFS_hid.c **** *
 295:.\Generated_Source\PSoC5/USBFS_hid.c **** * Reentrant:
 296:.\Generated_Source\PSoC5/USBFS_hid.c **** *  No.
 297:.\Generated_Source\PSoC5/USBFS_hid.c **** *
 298:.\Generated_Source\PSoC5/USBFS_hid.c **** *******************************************************************************/
 299:.\Generated_Source\PSoC5/USBFS_hid.c **** void USBFS_FindHidClassDecriptor() 
 300:.\Generated_Source\PSoC5/USBFS_hid.c **** {
 496              		.loc 1 300 0
 497              		.cfi_startproc
 498              		@ args = 0, pretend = 0, frame = 16
 499              		@ frame_needed = 1, uses_anonymous_args = 0
 500 0000 80B5     		push	{r7, lr}
 501              		.cfi_def_cfa_offset 8
 502              		.cfi_offset 7, -8
 503              		.cfi_offset 14, -4
 504 0002 84B0     		sub	sp, sp, #16
 505              		.cfi_def_cfa_offset 24
 506 0004 00AF     		add	r7, sp, #0
 507              		.cfi_def_cfa_register 7
 301:.\Generated_Source\PSoC5/USBFS_hid.c ****     T_USBFS_LUT *pTmp;
 302:.\Generated_Source\PSoC5/USBFS_hid.c ****     volatile uint8 *pDescr;
 303:.\Generated_Source\PSoC5/USBFS_hid.c ****     uint8 interfaceN;
 304:.\Generated_Source\PSoC5/USBFS_hid.c **** 
 305:.\Generated_Source\PSoC5/USBFS_hid.c ****     pTmp = USBFS_GetConfigTablePtr(USBFS_configuration - 1u);
 508              		.loc 1 305 0
 509 0006 1A4B     		ldr	r3, .L44
 510 0008 1B78     		ldrb	r3, [r3]
 511 000a DBB2     		uxtb	r3, r3
 512 000c 013B     		subs	r3, r3, #1
 513 000e DBB2     		uxtb	r3, r3
 514 0010 1846     		mov	r0, r3
 515 0012 FFF7FEFF 		bl	USBFS_GetConfigTablePtr
 516 0016 F860     		str	r0, [r7, #12]
 306:.\Generated_Source\PSoC5/USBFS_hid.c ****     interfaceN = CY_GET_REG8(USBFS_wIndexLo);
 517              		.loc 1 306 0
 518 0018 164B     		ldr	r3, .L44+4
 519 001a 1B78     		ldrb	r3, [r3]
ARM GAS  C:\USERS\LUKAS\APPDATA\LOCAL\TEMP\cciNE54R.s 			page 16


 520 001c FB72     		strb	r3, [r7, #11]
 307:.\Generated_Source\PSoC5/USBFS_hid.c ****     /* Third entry in the LUT starts the Interface Table pointers */
 308:.\Generated_Source\PSoC5/USBFS_hid.c ****     pTmp += 2;
 521              		.loc 1 308 0
 522 001e FB68     		ldr	r3, [r7, #12]
 523 0020 1033     		adds	r3, r3, #16
 524 0022 FB60     		str	r3, [r7, #12]
 309:.\Generated_Source\PSoC5/USBFS_hid.c ****     /* Now use the request interface number*/
 310:.\Generated_Source\PSoC5/USBFS_hid.c ****     pTmp = &pTmp[interfaceN];
 525              		.loc 1 310 0
 526 0024 FB7A     		ldrb	r3, [r7, #11]	@ zero_extendqisi2
 527 0026 DB00     		lsls	r3, r3, #3
 528 0028 FA68     		ldr	r2, [r7, #12]
 529 002a 1344     		add	r3, r3, r2
 530 002c FB60     		str	r3, [r7, #12]
 311:.\Generated_Source\PSoC5/USBFS_hid.c ****     /*USB_DEVICEx_CONFIGURATIONy_INTERFACEz_TABLE*/
 312:.\Generated_Source\PSoC5/USBFS_hid.c ****     pTmp = (T_USBFS_LUT *) pTmp->p_list;
 531              		.loc 1 312 0
 532 002e FB68     		ldr	r3, [r7, #12]
 533 0030 5B68     		ldr	r3, [r3, #4]
 534 0032 FB60     		str	r3, [r7, #12]
 313:.\Generated_Source\PSoC5/USBFS_hid.c ****     /* Now use Alternate setting number */
 314:.\Generated_Source\PSoC5/USBFS_hid.c ****     pTmp = &pTmp[USBFS_interfaceSetting[interfaceN]];
 535              		.loc 1 314 0
 536 0034 FB7A     		ldrb	r3, [r7, #11]	@ zero_extendqisi2
 537 0036 104A     		ldr	r2, .L44+8
 538 0038 D35C     		ldrb	r3, [r2, r3]
 539 003a DBB2     		uxtb	r3, r3
 540 003c DB00     		lsls	r3, r3, #3
 541 003e FA68     		ldr	r2, [r7, #12]
 542 0040 1344     		add	r3, r3, r2
 543 0042 FB60     		str	r3, [r7, #12]
 315:.\Generated_Source\PSoC5/USBFS_hid.c ****     /*USB_DEVICEx_CONFIGURATIONy_INTERFACEz_ALTERNATEi_HID_TABLE*/
 316:.\Generated_Source\PSoC5/USBFS_hid.c ****     pTmp = (T_USBFS_LUT *) pTmp->p_list;
 544              		.loc 1 316 0
 545 0044 FB68     		ldr	r3, [r7, #12]
 546 0046 5B68     		ldr	r3, [r3, #4]
 547 0048 FB60     		str	r3, [r7, #12]
 317:.\Generated_Source\PSoC5/USBFS_hid.c ****     /* Fifth entry in the LUT points to Hid Class Descriptor in Configuration Descriptor*/
 318:.\Generated_Source\PSoC5/USBFS_hid.c ****     pTmp += 4;
 548              		.loc 1 318 0
 549 004a FB68     		ldr	r3, [r7, #12]
 550 004c 2033     		adds	r3, r3, #32
 551 004e FB60     		str	r3, [r7, #12]
 319:.\Generated_Source\PSoC5/USBFS_hid.c ****     pDescr = (volatile uint8 *)pTmp->p_list;
 552              		.loc 1 319 0
 553 0050 FB68     		ldr	r3, [r7, #12]
 554 0052 5B68     		ldr	r3, [r3, #4]
 555 0054 7B60     		str	r3, [r7, #4]
 320:.\Generated_Source\PSoC5/USBFS_hid.c ****     USBFS_currentTD.count = pDescr[0u];
 556              		.loc 1 320 0
 557 0056 7B68     		ldr	r3, [r7, #4]
 558 0058 1B78     		ldrb	r3, [r3]
 559 005a DBB2     		uxtb	r3, r3
 560 005c 9AB2     		uxth	r2, r3
 561 005e 074B     		ldr	r3, .L44+12
 562 0060 1A80     		strh	r2, [r3]	@ movhi
ARM GAS  C:\USERS\LUKAS\APPDATA\LOCAL\TEMP\cciNE54R.s 			page 17


 321:.\Generated_Source\PSoC5/USBFS_hid.c ****     USBFS_currentTD.pData = pDescr;
 563              		.loc 1 321 0
 564 0062 064A     		ldr	r2, .L44+12
 565 0064 7B68     		ldr	r3, [r7, #4]
 566 0066 5360     		str	r3, [r2, #4]
 322:.\Generated_Source\PSoC5/USBFS_hid.c **** }
 567              		.loc 1 322 0
 568 0068 1037     		adds	r7, r7, #16
 569              		.cfi_def_cfa_offset 8
 570 006a BD46     		mov	sp, r7
 571              		.cfi_def_cfa_register 13
 572              		@ sp needed
 573 006c 80BD     		pop	{r7, pc}
 574              	.L45:
 575 006e 00BF     		.align	2
 576              	.L44:
 577 0070 00000000 		.word	USBFS_configuration
 578 0074 04600040 		.word	1073766404
 579 0078 00000000 		.word	USBFS_interfaceSetting
 580 007c 00000000 		.word	USBFS_currentTD
 581              		.cfi_endproc
 582              	.LFE3:
 583              		.size	USBFS_FindHidClassDecriptor, .-USBFS_FindHidClassDecriptor
 584              		.section	.text.USBFS_FindReportDescriptor,"ax",%progbits
 585              		.align	2
 586              		.global	USBFS_FindReportDescriptor
 587              		.thumb
 588              		.thumb_func
 589              		.type	USBFS_FindReportDescriptor, %function
 590              	USBFS_FindReportDescriptor:
 591              	.LFB4:
 323:.\Generated_Source\PSoC5/USBFS_hid.c **** 
 324:.\Generated_Source\PSoC5/USBFS_hid.c **** 
 325:.\Generated_Source\PSoC5/USBFS_hid.c **** /*******************************************************************************
 326:.\Generated_Source\PSoC5/USBFS_hid.c **** * Function Name: USB_FindReportDescriptor
 327:.\Generated_Source\PSoC5/USBFS_hid.c **** ********************************************************************************
 328:.\Generated_Source\PSoC5/USBFS_hid.c **** *
 329:.\Generated_Source\PSoC5/USBFS_hid.c **** * Summary:
 330:.\Generated_Source\PSoC5/USBFS_hid.c **** *  This routine find Hid Report Descriptor pointer based on the Interface
 331:.\Generated_Source\PSoC5/USBFS_hid.c **** *  number, then loads the currentTD structure with the address of the buffer
 332:.\Generated_Source\PSoC5/USBFS_hid.c **** *  and the size.
 333:.\Generated_Source\PSoC5/USBFS_hid.c **** *  Hid Report Descriptor is located after IN/OUT/FEATURE reports.
 334:.\Generated_Source\PSoC5/USBFS_hid.c **** *
 335:.\Generated_Source\PSoC5/USBFS_hid.c **** * Parameters:
 336:.\Generated_Source\PSoC5/USBFS_hid.c **** *   void
 337:.\Generated_Source\PSoC5/USBFS_hid.c **** *
 338:.\Generated_Source\PSoC5/USBFS_hid.c **** * Return:
 339:.\Generated_Source\PSoC5/USBFS_hid.c **** *  currentTD
 340:.\Generated_Source\PSoC5/USBFS_hid.c **** *
 341:.\Generated_Source\PSoC5/USBFS_hid.c **** * Reentrant:
 342:.\Generated_Source\PSoC5/USBFS_hid.c **** *  No.
 343:.\Generated_Source\PSoC5/USBFS_hid.c **** *
 344:.\Generated_Source\PSoC5/USBFS_hid.c **** *******************************************************************************/
 345:.\Generated_Source\PSoC5/USBFS_hid.c **** void USBFS_FindReportDescriptor() 
 346:.\Generated_Source\PSoC5/USBFS_hid.c **** {
 592              		.loc 1 346 0
 593              		.cfi_startproc
ARM GAS  C:\USERS\LUKAS\APPDATA\LOCAL\TEMP\cciNE54R.s 			page 18


 594              		@ args = 0, pretend = 0, frame = 16
 595              		@ frame_needed = 1, uses_anonymous_args = 0
 596 0000 80B5     		push	{r7, lr}
 597              		.cfi_def_cfa_offset 8
 598              		.cfi_offset 7, -8
 599              		.cfi_offset 14, -4
 600 0002 84B0     		sub	sp, sp, #16
 601              		.cfi_def_cfa_offset 24
 602 0004 00AF     		add	r7, sp, #0
 603              		.cfi_def_cfa_register 7
 347:.\Generated_Source\PSoC5/USBFS_hid.c ****     T_USBFS_LUT *pTmp;
 348:.\Generated_Source\PSoC5/USBFS_hid.c ****     volatile uint8 *pDescr;
 349:.\Generated_Source\PSoC5/USBFS_hid.c ****     uint8 interfaceN;
 350:.\Generated_Source\PSoC5/USBFS_hid.c **** 
 351:.\Generated_Source\PSoC5/USBFS_hid.c ****     pTmp = USBFS_GetConfigTablePtr(USBFS_configuration - 1u);
 604              		.loc 1 351 0
 605 0006 1F4B     		ldr	r3, .L47
 606 0008 1B78     		ldrb	r3, [r3]
 607 000a DBB2     		uxtb	r3, r3
 608 000c 013B     		subs	r3, r3, #1
 609 000e DBB2     		uxtb	r3, r3
 610 0010 1846     		mov	r0, r3
 611 0012 FFF7FEFF 		bl	USBFS_GetConfigTablePtr
 612 0016 F860     		str	r0, [r7, #12]
 352:.\Generated_Source\PSoC5/USBFS_hid.c ****     interfaceN = CY_GET_REG8(USBFS_wIndexLo);
 613              		.loc 1 352 0
 614 0018 1B4B     		ldr	r3, .L47+4
 615 001a 1B78     		ldrb	r3, [r3]
 616 001c FB72     		strb	r3, [r7, #11]
 353:.\Generated_Source\PSoC5/USBFS_hid.c ****     /* Third entry in the LUT starts the Interface Table pointers */
 354:.\Generated_Source\PSoC5/USBFS_hid.c ****     pTmp += 2u;
 617              		.loc 1 354 0
 618 001e FB68     		ldr	r3, [r7, #12]
 619 0020 1033     		adds	r3, r3, #16
 620 0022 FB60     		str	r3, [r7, #12]
 355:.\Generated_Source\PSoC5/USBFS_hid.c ****     /* Now use the request interface number*/
 356:.\Generated_Source\PSoC5/USBFS_hid.c ****     pTmp = &pTmp[interfaceN];
 621              		.loc 1 356 0
 622 0024 FB7A     		ldrb	r3, [r7, #11]	@ zero_extendqisi2
 623 0026 DB00     		lsls	r3, r3, #3
 624 0028 FA68     		ldr	r2, [r7, #12]
 625 002a 1344     		add	r3, r3, r2
 626 002c FB60     		str	r3, [r7, #12]
 357:.\Generated_Source\PSoC5/USBFS_hid.c ****     /*USB_DEVICEx_CONFIGURATIONy_INTERFACEz_TABLE*/
 358:.\Generated_Source\PSoC5/USBFS_hid.c ****     pTmp = (T_USBFS_LUT *) pTmp->p_list;
 627              		.loc 1 358 0
 628 002e FB68     		ldr	r3, [r7, #12]
 629 0030 5B68     		ldr	r3, [r3, #4]
 630 0032 FB60     		str	r3, [r7, #12]
 359:.\Generated_Source\PSoC5/USBFS_hid.c ****     /* Now use Alternate setting number */
 360:.\Generated_Source\PSoC5/USBFS_hid.c ****     pTmp = &pTmp[USBFS_interfaceSetting[interfaceN]];
 631              		.loc 1 360 0
 632 0034 FB7A     		ldrb	r3, [r7, #11]	@ zero_extendqisi2
 633 0036 154A     		ldr	r2, .L47+8
 634 0038 D35C     		ldrb	r3, [r2, r3]
 635 003a DBB2     		uxtb	r3, r3
 636 003c DB00     		lsls	r3, r3, #3
ARM GAS  C:\USERS\LUKAS\APPDATA\LOCAL\TEMP\cciNE54R.s 			page 19


 637 003e FA68     		ldr	r2, [r7, #12]
 638 0040 1344     		add	r3, r3, r2
 639 0042 FB60     		str	r3, [r7, #12]
 361:.\Generated_Source\PSoC5/USBFS_hid.c ****     /*USB_DEVICEx_CONFIGURATIONy_INTERFACEz_ALTERNATEi_HID_TABLE*/
 362:.\Generated_Source\PSoC5/USBFS_hid.c ****     pTmp = (T_USBFS_LUT *) pTmp->p_list;
 640              		.loc 1 362 0
 641 0044 FB68     		ldr	r3, [r7, #12]
 642 0046 5B68     		ldr	r3, [r3, #4]
 643 0048 FB60     		str	r3, [r7, #12]
 363:.\Generated_Source\PSoC5/USBFS_hid.c ****     /* Fourth entry in the LUT starts the Hid Report Descriptor */
 364:.\Generated_Source\PSoC5/USBFS_hid.c ****     pTmp += 3;
 644              		.loc 1 364 0
 645 004a FB68     		ldr	r3, [r7, #12]
 646 004c 1833     		adds	r3, r3, #24
 647 004e FB60     		str	r3, [r7, #12]
 365:.\Generated_Source\PSoC5/USBFS_hid.c ****     pDescr = (volatile uint8 *)pTmp->p_list;
 648              		.loc 1 365 0
 649 0050 FB68     		ldr	r3, [r7, #12]
 650 0052 5B68     		ldr	r3, [r3, #4]
 651 0054 7B60     		str	r3, [r7, #4]
 366:.\Generated_Source\PSoC5/USBFS_hid.c ****     USBFS_currentTD.count =  (((uint16)pDescr[1] << 8u) | pDescr[0u]);
 652              		.loc 1 366 0
 653 0056 7B68     		ldr	r3, [r7, #4]
 654 0058 0133     		adds	r3, r3, #1
 655 005a 1B78     		ldrb	r3, [r3]
 656 005c DBB2     		uxtb	r3, r3
 657 005e 1B02     		lsls	r3, r3, #8
 658 0060 9AB2     		uxth	r2, r3
 659 0062 7B68     		ldr	r3, [r7, #4]
 660 0064 1B78     		ldrb	r3, [r3]
 661 0066 DBB2     		uxtb	r3, r3
 662 0068 9BB2     		uxth	r3, r3
 663 006a 1343     		orrs	r3, r3, r2
 664 006c 9BB2     		uxth	r3, r3
 665 006e 9AB2     		uxth	r2, r3
 666 0070 074B     		ldr	r3, .L47+12
 667 0072 1A80     		strh	r2, [r3]	@ movhi
 367:.\Generated_Source\PSoC5/USBFS_hid.c ****     USBFS_currentTD.pData = &pDescr[2u];
 668              		.loc 1 367 0
 669 0074 7B68     		ldr	r3, [r7, #4]
 670 0076 0233     		adds	r3, r3, #2
 671 0078 054A     		ldr	r2, .L47+12
 672 007a 5360     		str	r3, [r2, #4]
 368:.\Generated_Source\PSoC5/USBFS_hid.c **** }
 673              		.loc 1 368 0
 674 007c 1037     		adds	r7, r7, #16
 675              		.cfi_def_cfa_offset 8
 676 007e BD46     		mov	sp, r7
 677              		.cfi_def_cfa_register 13
 678              		@ sp needed
 679 0080 80BD     		pop	{r7, pc}
 680              	.L48:
 681 0082 00BF     		.align	2
 682              	.L47:
 683 0084 00000000 		.word	USBFS_configuration
 684 0088 04600040 		.word	1073766404
 685 008c 00000000 		.word	USBFS_interfaceSetting
ARM GAS  C:\USERS\LUKAS\APPDATA\LOCAL\TEMP\cciNE54R.s 			page 20


 686 0090 00000000 		.word	USBFS_currentTD
 687              		.cfi_endproc
 688              	.LFE4:
 689              		.size	USBFS_FindReportDescriptor, .-USBFS_FindReportDescriptor
 690              		.section	.text.USBFS_FindReport,"ax",%progbits
 691              		.align	2
 692              		.global	USBFS_FindReport
 693              		.thumb
 694              		.thumb_func
 695              		.type	USBFS_FindReport, %function
 696              	USBFS_FindReport:
 697              	.LFB5:
 369:.\Generated_Source\PSoC5/USBFS_hid.c **** 
 370:.\Generated_Source\PSoC5/USBFS_hid.c **** 
 371:.\Generated_Source\PSoC5/USBFS_hid.c **** /*******************************************************************************
 372:.\Generated_Source\PSoC5/USBFS_hid.c **** * Function Name: USBFS_FindReport
 373:.\Generated_Source\PSoC5/USBFS_hid.c **** ********************************************************************************
 374:.\Generated_Source\PSoC5/USBFS_hid.c **** *
 375:.\Generated_Source\PSoC5/USBFS_hid.c **** * Summary:
 376:.\Generated_Source\PSoC5/USBFS_hid.c **** *  This routine sets up a transfer based on the Interface number, Report Type
 377:.\Generated_Source\PSoC5/USBFS_hid.c **** *  and Report ID, then loads the currentTD structure with the address of the
 378:.\Generated_Source\PSoC5/USBFS_hid.c **** *  buffer and the size.  The caller has to decide if it is a control read or
 379:.\Generated_Source\PSoC5/USBFS_hid.c **** *  control write.
 380:.\Generated_Source\PSoC5/USBFS_hid.c **** *
 381:.\Generated_Source\PSoC5/USBFS_hid.c **** * Parameters:
 382:.\Generated_Source\PSoC5/USBFS_hid.c **** *  None.
 383:.\Generated_Source\PSoC5/USBFS_hid.c **** *
 384:.\Generated_Source\PSoC5/USBFS_hid.c **** * Return:
 385:.\Generated_Source\PSoC5/USBFS_hid.c **** *  currentTD
 386:.\Generated_Source\PSoC5/USBFS_hid.c **** *
 387:.\Generated_Source\PSoC5/USBFS_hid.c **** * Reentrant:
 388:.\Generated_Source\PSoC5/USBFS_hid.c **** *  No.
 389:.\Generated_Source\PSoC5/USBFS_hid.c **** *
 390:.\Generated_Source\PSoC5/USBFS_hid.c **** *******************************************************************************/
 391:.\Generated_Source\PSoC5/USBFS_hid.c **** void USBFS_FindReport() 
 392:.\Generated_Source\PSoC5/USBFS_hid.c **** {
 698              		.loc 1 392 0
 699              		.cfi_startproc
 700              		@ args = 0, pretend = 0, frame = 16
 701              		@ frame_needed = 1, uses_anonymous_args = 0
 702 0000 80B5     		push	{r7, lr}
 703              		.cfi_def_cfa_offset 8
 704              		.cfi_offset 7, -8
 705              		.cfi_offset 14, -4
 706 0002 84B0     		sub	sp, sp, #16
 707              		.cfi_def_cfa_offset 24
 708 0004 00AF     		add	r7, sp, #0
 709              		.cfi_def_cfa_register 7
 393:.\Generated_Source\PSoC5/USBFS_hid.c ****     T_USBFS_LUT *pTmp;
 394:.\Generated_Source\PSoC5/USBFS_hid.c ****     T_USBFS_TD *pTD;
 395:.\Generated_Source\PSoC5/USBFS_hid.c ****     uint8 interfaceN;
 396:.\Generated_Source\PSoC5/USBFS_hid.c ****     uint8 reportType;
 397:.\Generated_Source\PSoC5/USBFS_hid.c **** 
 398:.\Generated_Source\PSoC5/USBFS_hid.c ****     /* `#START HID_FINDREPORT` Place custom handling here */
 399:.\Generated_Source\PSoC5/USBFS_hid.c **** 
 400:.\Generated_Source\PSoC5/USBFS_hid.c ****     /* `#END` */
 401:.\Generated_Source\PSoC5/USBFS_hid.c ****     USBFS_currentTD.count = 0u;   /* Init not supported condition */
ARM GAS  C:\USERS\LUKAS\APPDATA\LOCAL\TEMP\cciNE54R.s 			page 21


 710              		.loc 1 401 0
 711 0006 2E4B     		ldr	r3, .L51
 712 0008 0022     		movs	r2, #0
 713 000a 1A80     		strh	r2, [r3]	@ movhi
 402:.\Generated_Source\PSoC5/USBFS_hid.c ****     pTmp = USBFS_GetConfigTablePtr(USBFS_configuration - 1u);
 714              		.loc 1 402 0
 715 000c 2D4B     		ldr	r3, .L51+4
 716 000e 1B78     		ldrb	r3, [r3]
 717 0010 DBB2     		uxtb	r3, r3
 718 0012 013B     		subs	r3, r3, #1
 719 0014 DBB2     		uxtb	r3, r3
 720 0016 1846     		mov	r0, r3
 721 0018 FFF7FEFF 		bl	USBFS_GetConfigTablePtr
 722 001c F860     		str	r0, [r7, #12]
 403:.\Generated_Source\PSoC5/USBFS_hid.c ****     reportType = CY_GET_REG8(USBFS_wValueHi);
 723              		.loc 1 403 0
 724 001e 2A4B     		ldr	r3, .L51+8
 725 0020 1B78     		ldrb	r3, [r3]
 726 0022 FB72     		strb	r3, [r7, #11]
 404:.\Generated_Source\PSoC5/USBFS_hid.c ****     interfaceN = CY_GET_REG8(USBFS_wIndexLo);
 727              		.loc 1 404 0
 728 0024 294B     		ldr	r3, .L51+12
 729 0026 1B78     		ldrb	r3, [r3]
 730 0028 BB72     		strb	r3, [r7, #10]
 405:.\Generated_Source\PSoC5/USBFS_hid.c ****     /* Third entry in the LUT COnfiguration Table starts the Interface Table pointers */
 406:.\Generated_Source\PSoC5/USBFS_hid.c ****     pTmp += 2;
 731              		.loc 1 406 0
 732 002a FB68     		ldr	r3, [r7, #12]
 733 002c 1033     		adds	r3, r3, #16
 734 002e FB60     		str	r3, [r7, #12]
 407:.\Generated_Source\PSoC5/USBFS_hid.c ****     /* Now use the request interface number */
 408:.\Generated_Source\PSoC5/USBFS_hid.c ****     pTmp = &pTmp[interfaceN];
 735              		.loc 1 408 0
 736 0030 BB7A     		ldrb	r3, [r7, #10]	@ zero_extendqisi2
 737 0032 DB00     		lsls	r3, r3, #3
 738 0034 FA68     		ldr	r2, [r7, #12]
 739 0036 1344     		add	r3, r3, r2
 740 0038 FB60     		str	r3, [r7, #12]
 409:.\Generated_Source\PSoC5/USBFS_hid.c ****     /*USB_DEVICEx_CONFIGURATIONy_INTERFACEz_TABLE*/
 410:.\Generated_Source\PSoC5/USBFS_hid.c ****     pTmp = (T_USBFS_LUT *) pTmp->p_list;
 741              		.loc 1 410 0
 742 003a FB68     		ldr	r3, [r7, #12]
 743 003c 5B68     		ldr	r3, [r3, #4]
 744 003e FB60     		str	r3, [r7, #12]
 411:.\Generated_Source\PSoC5/USBFS_hid.c ****     if(interfaceN < USBFS_MAX_INTERFACES_NUMBER)
 745              		.loc 1 411 0
 746 0040 BB7A     		ldrb	r3, [r7, #10]	@ zero_extendqisi2
 747 0042 032B     		cmp	r3, #3
 748 0044 38D8     		bhi	.L49
 412:.\Generated_Source\PSoC5/USBFS_hid.c ****     {
 413:.\Generated_Source\PSoC5/USBFS_hid.c ****         /* Now use Alternate setting number */
 414:.\Generated_Source\PSoC5/USBFS_hid.c ****         pTmp = &pTmp[USBFS_interfaceSetting[interfaceN]];
 749              		.loc 1 414 0
 750 0046 BB7A     		ldrb	r3, [r7, #10]	@ zero_extendqisi2
 751 0048 214A     		ldr	r2, .L51+16
 752 004a D35C     		ldrb	r3, [r2, r3]
 753 004c DBB2     		uxtb	r3, r3
ARM GAS  C:\USERS\LUKAS\APPDATA\LOCAL\TEMP\cciNE54R.s 			page 22


 754 004e DB00     		lsls	r3, r3, #3
 755 0050 FA68     		ldr	r2, [r7, #12]
 756 0052 1344     		add	r3, r3, r2
 757 0054 FB60     		str	r3, [r7, #12]
 415:.\Generated_Source\PSoC5/USBFS_hid.c ****         /*USB_DEVICEx_CONFIGURATIONy_INTERFACEz_ALTERNATEi_HID_TABLE*/
 416:.\Generated_Source\PSoC5/USBFS_hid.c ****         pTmp = (T_USBFS_LUT *) pTmp->p_list;
 758              		.loc 1 416 0
 759 0056 FB68     		ldr	r3, [r7, #12]
 760 0058 5B68     		ldr	r3, [r3, #4]
 761 005a FB60     		str	r3, [r7, #12]
 417:.\Generated_Source\PSoC5/USBFS_hid.c ****         /* Validate reportType to comply with "7.2.1 Get_Report Request" */
 418:.\Generated_Source\PSoC5/USBFS_hid.c ****         if((reportType >= USBFS_HID_GET_REPORT_INPUT) &&
 762              		.loc 1 418 0
 763 005c FB7A     		ldrb	r3, [r7, #11]	@ zero_extendqisi2
 764 005e 002B     		cmp	r3, #0
 765 0060 2AD0     		beq	.L49
 766              		.loc 1 418 0 is_stmt 0 discriminator 1
 767 0062 FB7A     		ldrb	r3, [r7, #11]	@ zero_extendqisi2
 768 0064 032B     		cmp	r3, #3
 769 0066 27D8     		bhi	.L49
 419:.\Generated_Source\PSoC5/USBFS_hid.c ****            (reportType <= USBFS_HID_GET_REPORT_FEATURE))
 420:.\Generated_Source\PSoC5/USBFS_hid.c ****         {
 421:.\Generated_Source\PSoC5/USBFS_hid.c ****             /* Get the entry proper TD (IN, OUT or Feature Report Table)*/
 422:.\Generated_Source\PSoC5/USBFS_hid.c ****             pTmp = &pTmp[reportType - 1u];
 770              		.loc 1 422 0 is_stmt 1
 771 0068 FB7A     		ldrb	r3, [r7, #11]	@ zero_extendqisi2
 772 006a 03F10053 		add	r3, r3, #536870912
 773 006e 013B     		subs	r3, r3, #1
 774 0070 DB00     		lsls	r3, r3, #3
 775 0072 FA68     		ldr	r2, [r7, #12]
 776 0074 1344     		add	r3, r3, r2
 777 0076 FB60     		str	r3, [r7, #12]
 423:.\Generated_Source\PSoC5/USBFS_hid.c ****             reportType = CY_GET_REG8(USBFS_wValueLo);    /* Get reportID */
 778              		.loc 1 423 0
 779 0078 164B     		ldr	r3, .L51+20
 780 007a 1B78     		ldrb	r3, [r3]
 781 007c FB72     		strb	r3, [r7, #11]
 424:.\Generated_Source\PSoC5/USBFS_hid.c ****             /* Validate table support by the HID descriptor, compare table count with reportID */
 425:.\Generated_Source\PSoC5/USBFS_hid.c ****             if(pTmp->c >= reportType)
 782              		.loc 1 425 0
 783 007e FB68     		ldr	r3, [r7, #12]
 784 0080 1B78     		ldrb	r3, [r3]	@ zero_extendqisi2
 785 0082 FA7A     		ldrb	r2, [r7, #11]	@ zero_extendqisi2
 786 0084 9A42     		cmp	r2, r3
 787 0086 17D8     		bhi	.L49
 426:.\Generated_Source\PSoC5/USBFS_hid.c ****             {
 427:.\Generated_Source\PSoC5/USBFS_hid.c ****                 pTD = (T_USBFS_TD *) pTmp->p_list;
 788              		.loc 1 427 0
 789 0088 FB68     		ldr	r3, [r7, #12]
 790 008a 5B68     		ldr	r3, [r3, #4]
 791 008c 7B60     		str	r3, [r7, #4]
 428:.\Generated_Source\PSoC5/USBFS_hid.c ****                 pTD = &pTD[reportType];                          /* select entry depend on report I
 792              		.loc 1 428 0
 793 008e FA7A     		ldrb	r2, [r7, #11]	@ zero_extendqisi2
 794 0090 1346     		mov	r3, r2
 795 0092 5B00     		lsls	r3, r3, #1
 796 0094 1344     		add	r3, r3, r2
ARM GAS  C:\USERS\LUKAS\APPDATA\LOCAL\TEMP\cciNE54R.s 			page 23


 797 0096 9B00     		lsls	r3, r3, #2
 798 0098 1A46     		mov	r2, r3
 799 009a 7B68     		ldr	r3, [r7, #4]
 800 009c 1344     		add	r3, r3, r2
 801 009e 7B60     		str	r3, [r7, #4]
 429:.\Generated_Source\PSoC5/USBFS_hid.c ****                 USBFS_currentTD.pData = pTD->pData;   /* Bufer pointer */
 802              		.loc 1 429 0
 803 00a0 7B68     		ldr	r3, [r7, #4]
 804 00a2 5B68     		ldr	r3, [r3, #4]
 805 00a4 064A     		ldr	r2, .L51
 806 00a6 5360     		str	r3, [r2, #4]
 430:.\Generated_Source\PSoC5/USBFS_hid.c ****                 USBFS_currentTD.count = pTD->count;   /* Bufer Size */
 807              		.loc 1 430 0
 808 00a8 7B68     		ldr	r3, [r7, #4]
 809 00aa 1A88     		ldrh	r2, [r3]
 810 00ac 044B     		ldr	r3, .L51
 811 00ae 1A80     		strh	r2, [r3]	@ movhi
 431:.\Generated_Source\PSoC5/USBFS_hid.c ****                 USBFS_currentTD.pStatusBlock = pTD->pStatusBlock;
 812              		.loc 1 431 0
 813 00b0 7B68     		ldr	r3, [r7, #4]
 814 00b2 9B68     		ldr	r3, [r3, #8]
 815 00b4 024A     		ldr	r2, .L51
 816 00b6 9360     		str	r3, [r2, #8]
 817              	.L49:
 432:.\Generated_Source\PSoC5/USBFS_hid.c ****             }
 433:.\Generated_Source\PSoC5/USBFS_hid.c ****         }
 434:.\Generated_Source\PSoC5/USBFS_hid.c ****     }
 435:.\Generated_Source\PSoC5/USBFS_hid.c **** }
 818              		.loc 1 435 0
 819 00b8 1037     		adds	r7, r7, #16
 820              		.cfi_def_cfa_offset 8
 821 00ba BD46     		mov	sp, r7
 822              		.cfi_def_cfa_register 13
 823              		@ sp needed
 824 00bc 80BD     		pop	{r7, pc}
 825              	.L52:
 826 00be 00BF     		.align	2
 827              	.L51:
 828 00c0 00000000 		.word	USBFS_currentTD
 829 00c4 00000000 		.word	USBFS_configuration
 830 00c8 03600040 		.word	1073766403
 831 00cc 04600040 		.word	1073766404
 832 00d0 00000000 		.word	USBFS_interfaceSetting
 833 00d4 02600040 		.word	1073766402
 834              		.cfi_endproc
 835              	.LFE5:
 836              		.size	USBFS_FindReport, .-USBFS_FindReport
 837              		.text
 838              	.Letext0:
 839              		.file 2 ".\\Generated_Source\\PSoC5\\cytypes.h"
 840              		.file 3 ".\\Generated_Source\\PSoC5\\USBFS.h"