ARM GAS  C:\USERS\LUKAS\APPDATA\LOCAL\TEMP\ccufjyak.s 			page 1


   1              		.syntax unified
   2              		.cpu cortex-m3
   3              		.fpu softvfp
   4              		.eabi_attribute 20, 1
   5              		.eabi_attribute 21, 1
   6              		.eabi_attribute 23, 3
   7              		.eabi_attribute 24, 1
   8              		.eabi_attribute 25, 1
   9              		.eabi_attribute 26, 1
  10              		.eabi_attribute 30, 6
  11              		.eabi_attribute 34, 1
  12              		.eabi_attribute 18, 4
  13              		.thumb
  14              		.file	"USBFS_drv.c"
  15              		.text
  16              	.Ltext0:
  17              		.cfi_sections	.debug_frame
  18              		.comm	USBFS_EP,108,4
  19              		.comm	USBFS_configuration,1,1
  20              		.comm	USBFS_interfaceNumber,1,1
  21              		.comm	USBFS_configurationChanged,1,1
  22              		.comm	USBFS_deviceAddress,1,1
  23              		.comm	USBFS_deviceStatus,1,1
  24              		.comm	USBFS_interfaceSetting,4,4
  25              		.comm	USBFS_interfaceSetting_last,4,4
  26              		.comm	USBFS_interfaceStatus,4,4
  27              		.comm	USBFS_device,1,1
  28              		.comm	USBFS_interfaceClass,4,4
  29              		.comm	USBFS_ep0Toggle,1,1
  30              		.comm	USBFS_lastPacketSize,1,1
  31              		.comm	USBFS_transferState,1,1
  32              		.comm	USBFS_currentTD,12,4
  33              		.comm	USBFS_ep0Mode,1,1
  34              		.comm	USBFS_ep0Count,1,1
  35              		.comm	USBFS_transferByteCount,2,2
  36              		.section	.text.USBFS_EP_0_ISR,"ax",%progbits
  37              		.align	2
  38              		.global	USBFS_EP_0_ISR
  39              		.thumb
  40              		.thumb_func
  41              		.type	USBFS_EP_0_ISR, %function
  42              	USBFS_EP_0_ISR:
  43              	.LFB0:
  44              		.file 1 ".\\Generated_Source\\PSoC5\\USBFS_drv.c"
   1:.\Generated_Source\PSoC5/USBFS_drv.c **** /*******************************************************************************
   2:.\Generated_Source\PSoC5/USBFS_drv.c **** * File Name: USBFS_drv.c
   3:.\Generated_Source\PSoC5/USBFS_drv.c **** * Version 2.50
   4:.\Generated_Source\PSoC5/USBFS_drv.c **** *
   5:.\Generated_Source\PSoC5/USBFS_drv.c **** * Description:
   6:.\Generated_Source\PSoC5/USBFS_drv.c **** *  Endpoint 0 Driver for the USBFS Component.
   7:.\Generated_Source\PSoC5/USBFS_drv.c **** *
   8:.\Generated_Source\PSoC5/USBFS_drv.c **** * Note:
   9:.\Generated_Source\PSoC5/USBFS_drv.c **** *
  10:.\Generated_Source\PSoC5/USBFS_drv.c **** ********************************************************************************
  11:.\Generated_Source\PSoC5/USBFS_drv.c **** * Copyright 2008-2012, Cypress Semiconductor Corporation.  All rights reserved.
  12:.\Generated_Source\PSoC5/USBFS_drv.c **** * You may use this file only in accordance with the license, terms, conditions,
  13:.\Generated_Source\PSoC5/USBFS_drv.c **** * disclaimers, and limitations in the end user license agreement accompanying
ARM GAS  C:\USERS\LUKAS\APPDATA\LOCAL\TEMP\ccufjyak.s 			page 2


  14:.\Generated_Source\PSoC5/USBFS_drv.c **** * the software package with which this file was provided.
  15:.\Generated_Source\PSoC5/USBFS_drv.c **** *******************************************************************************/
  16:.\Generated_Source\PSoC5/USBFS_drv.c **** 
  17:.\Generated_Source\PSoC5/USBFS_drv.c **** #include "USBFS.h"
  18:.\Generated_Source\PSoC5/USBFS_drv.c **** 
  19:.\Generated_Source\PSoC5/USBFS_drv.c **** 
  20:.\Generated_Source\PSoC5/USBFS_drv.c **** /***************************************
  21:.\Generated_Source\PSoC5/USBFS_drv.c **** * Forward references for the EP0 ISR
  22:.\Generated_Source\PSoC5/USBFS_drv.c **** ***************************************/
  23:.\Generated_Source\PSoC5/USBFS_drv.c **** 
  24:.\Generated_Source\PSoC5/USBFS_drv.c **** void  USBFS_HandleSetup(void) ;
  25:.\Generated_Source\PSoC5/USBFS_drv.c **** void  USBFS_HandleIN(void) ;
  26:.\Generated_Source\PSoC5/USBFS_drv.c **** void  USBFS_HandleOUT(void) ;
  27:.\Generated_Source\PSoC5/USBFS_drv.c **** uint8 USBFS_InitControlRead(void) ;
  28:.\Generated_Source\PSoC5/USBFS_drv.c **** void  USBFS_ControlReadDataStage(void) ;
  29:.\Generated_Source\PSoC5/USBFS_drv.c **** void  USBFS_ControlReadStatusStage(void) ;
  30:.\Generated_Source\PSoC5/USBFS_drv.c **** void  USBFS_ControlReadPrematureStatus(void)
  31:.\Generated_Source\PSoC5/USBFS_drv.c ****                                                 ;
  32:.\Generated_Source\PSoC5/USBFS_drv.c **** uint8 USBFS_InitControlWrite(void) ;
  33:.\Generated_Source\PSoC5/USBFS_drv.c **** uint8 USBFS_InitZeroLengthControlTransfer(void)
  34:.\Generated_Source\PSoC5/USBFS_drv.c ****                                                 ;
  35:.\Generated_Source\PSoC5/USBFS_drv.c **** void  USBFS_ControlWriteDataStage(void) ;
  36:.\Generated_Source\PSoC5/USBFS_drv.c **** void  USBFS_ControlWriteStatusStage(void) ;
  37:.\Generated_Source\PSoC5/USBFS_drv.c **** void  USBFS_ControlWritePrematureStatus(void)
  38:.\Generated_Source\PSoC5/USBFS_drv.c ****                                                 ;
  39:.\Generated_Source\PSoC5/USBFS_drv.c **** uint8 USBFS_InitNoDataControlTransfer(void) ;
  40:.\Generated_Source\PSoC5/USBFS_drv.c **** void  USBFS_NoDataControlStatusStage(void) ;
  41:.\Generated_Source\PSoC5/USBFS_drv.c **** void  USBFS_InitializeStatusBlock(void) ;
  42:.\Generated_Source\PSoC5/USBFS_drv.c **** void  USBFS_UpdateStatusBlock(uint8 completionCode) ;
  43:.\Generated_Source\PSoC5/USBFS_drv.c **** 
  44:.\Generated_Source\PSoC5/USBFS_drv.c **** 
  45:.\Generated_Source\PSoC5/USBFS_drv.c **** /***************************************
  46:.\Generated_Source\PSoC5/USBFS_drv.c **** * Request Handlers
  47:.\Generated_Source\PSoC5/USBFS_drv.c **** ***************************************/
  48:.\Generated_Source\PSoC5/USBFS_drv.c **** 
  49:.\Generated_Source\PSoC5/USBFS_drv.c **** uint8 USBFS_HandleStandardRqst(void) ;
  50:.\Generated_Source\PSoC5/USBFS_drv.c **** uint8 USBFS_DispatchClassRqst(void) ;
  51:.\Generated_Source\PSoC5/USBFS_drv.c **** uint8 USBFS_HandleVendorRqst(void) ;
  52:.\Generated_Source\PSoC5/USBFS_drv.c **** 
  53:.\Generated_Source\PSoC5/USBFS_drv.c **** 
  54:.\Generated_Source\PSoC5/USBFS_drv.c **** /***************************************
  55:.\Generated_Source\PSoC5/USBFS_drv.c **** * External data references
  56:.\Generated_Source\PSoC5/USBFS_drv.c **** ***************************************/
  57:.\Generated_Source\PSoC5/USBFS_drv.c **** 
  58:.\Generated_Source\PSoC5/USBFS_drv.c **** 
  59:.\Generated_Source\PSoC5/USBFS_drv.c **** /***************************************
  60:.\Generated_Source\PSoC5/USBFS_drv.c **** * Global data allocation
  61:.\Generated_Source\PSoC5/USBFS_drv.c **** ***************************************/
  62:.\Generated_Source\PSoC5/USBFS_drv.c **** 
  63:.\Generated_Source\PSoC5/USBFS_drv.c **** volatile T_USBFS_EP_CTL_BLOCK USBFS_EP[USBFS_MAX_EP];
  64:.\Generated_Source\PSoC5/USBFS_drv.c **** volatile uint8 USBFS_configuration;
  65:.\Generated_Source\PSoC5/USBFS_drv.c **** volatile uint8 USBFS_interfaceNumber;
  66:.\Generated_Source\PSoC5/USBFS_drv.c **** volatile uint8 USBFS_configurationChanged;
  67:.\Generated_Source\PSoC5/USBFS_drv.c **** volatile uint8 USBFS_deviceAddress;
  68:.\Generated_Source\PSoC5/USBFS_drv.c **** volatile uint8 USBFS_deviceStatus;
  69:.\Generated_Source\PSoC5/USBFS_drv.c **** volatile uint8 USBFS_interfaceSetting[USBFS_MAX_INTERFACES_NUMBER];
  70:.\Generated_Source\PSoC5/USBFS_drv.c **** volatile uint8 USBFS_interfaceSetting_last[USBFS_MAX_INTERFACES_NUMBER];
ARM GAS  C:\USERS\LUKAS\APPDATA\LOCAL\TEMP\ccufjyak.s 			page 3


  71:.\Generated_Source\PSoC5/USBFS_drv.c **** volatile uint8 USBFS_interfaceStatus[USBFS_MAX_INTERFACES_NUMBER];
  72:.\Generated_Source\PSoC5/USBFS_drv.c **** volatile uint8 USBFS_device;
  73:.\Generated_Source\PSoC5/USBFS_drv.c **** const uint8 CYCODE *USBFS_interfaceClass;
  74:.\Generated_Source\PSoC5/USBFS_drv.c **** 
  75:.\Generated_Source\PSoC5/USBFS_drv.c **** 
  76:.\Generated_Source\PSoC5/USBFS_drv.c **** /***************************************
  77:.\Generated_Source\PSoC5/USBFS_drv.c **** * Local data allocation
  78:.\Generated_Source\PSoC5/USBFS_drv.c **** ***************************************/
  79:.\Generated_Source\PSoC5/USBFS_drv.c **** 
  80:.\Generated_Source\PSoC5/USBFS_drv.c **** volatile uint8 USBFS_ep0Toggle;
  81:.\Generated_Source\PSoC5/USBFS_drv.c **** volatile uint8 USBFS_lastPacketSize;
  82:.\Generated_Source\PSoC5/USBFS_drv.c **** volatile uint8 USBFS_transferState;
  83:.\Generated_Source\PSoC5/USBFS_drv.c **** volatile T_USBFS_TD USBFS_currentTD;
  84:.\Generated_Source\PSoC5/USBFS_drv.c **** volatile uint8 USBFS_ep0Mode;
  85:.\Generated_Source\PSoC5/USBFS_drv.c **** volatile uint8 USBFS_ep0Count;
  86:.\Generated_Source\PSoC5/USBFS_drv.c **** volatile uint16 USBFS_transferByteCount;
  87:.\Generated_Source\PSoC5/USBFS_drv.c **** 
  88:.\Generated_Source\PSoC5/USBFS_drv.c **** 
  89:.\Generated_Source\PSoC5/USBFS_drv.c **** /*******************************************************************************
  90:.\Generated_Source\PSoC5/USBFS_drv.c **** * Function Name: USBFS_ep_0_Interrupt
  91:.\Generated_Source\PSoC5/USBFS_drv.c **** ********************************************************************************
  92:.\Generated_Source\PSoC5/USBFS_drv.c **** *
  93:.\Generated_Source\PSoC5/USBFS_drv.c **** * Summary:
  94:.\Generated_Source\PSoC5/USBFS_drv.c **** *  This Interrupt Service Routine handles Endpoint 0 (Control Pipe) traffic.
  95:.\Generated_Source\PSoC5/USBFS_drv.c **** *  It dispactches setup requests and handles the data and status stages.
  96:.\Generated_Source\PSoC5/USBFS_drv.c **** *
  97:.\Generated_Source\PSoC5/USBFS_drv.c **** * Parameters:
  98:.\Generated_Source\PSoC5/USBFS_drv.c **** *  None.
  99:.\Generated_Source\PSoC5/USBFS_drv.c **** *
 100:.\Generated_Source\PSoC5/USBFS_drv.c **** * Return:
 101:.\Generated_Source\PSoC5/USBFS_drv.c **** *  None.
 102:.\Generated_Source\PSoC5/USBFS_drv.c **** *
 103:.\Generated_Source\PSoC5/USBFS_drv.c **** *******************************************************************************/
 104:.\Generated_Source\PSoC5/USBFS_drv.c **** CY_ISR(USBFS_EP_0_ISR)
 105:.\Generated_Source\PSoC5/USBFS_drv.c **** {
  45              		.loc 1 105 0
  46              		.cfi_startproc
  47              		@ args = 0, pretend = 0, frame = 8
  48              		@ frame_needed = 1, uses_anonymous_args = 0
  49 0000 80B5     		push	{r7, lr}
  50              		.cfi_def_cfa_offset 8
  51              		.cfi_offset 7, -8
  52              		.cfi_offset 14, -4
  53 0002 82B0     		sub	sp, sp, #8
  54              		.cfi_def_cfa_offset 16
  55 0004 00AF     		add	r7, sp, #0
  56              		.cfi_def_cfa_register 7
 106:.\Generated_Source\PSoC5/USBFS_drv.c ****     uint8 bRegTemp;
 107:.\Generated_Source\PSoC5/USBFS_drv.c ****     uint8 modifyReg;
 108:.\Generated_Source\PSoC5/USBFS_drv.c **** 
 109:.\Generated_Source\PSoC5/USBFS_drv.c **** 
 110:.\Generated_Source\PSoC5/USBFS_drv.c ****     bRegTemp = CY_GET_REG8(USBFS_EP0_CR_PTR);
  57              		.loc 1 110 0
  58 0006 374B     		ldr	r3, .L11
  59 0008 1B78     		ldrb	r3, [r3]
  60 000a BB71     		strb	r3, [r7, #6]
 111:.\Generated_Source\PSoC5/USBFS_drv.c ****     if (bRegTemp & USBFS_MODE_ACKD)
ARM GAS  C:\USERS\LUKAS\APPDATA\LOCAL\TEMP\ccufjyak.s 			page 4


  61              		.loc 1 111 0
  62 000c BB79     		ldrb	r3, [r7, #6]	@ zero_extendqisi2
  63 000e 03F01003 		and	r3, r3, #16
  64 0012 002B     		cmp	r3, #0
  65 0014 63D0     		beq	.L1
 112:.\Generated_Source\PSoC5/USBFS_drv.c ****     {
 113:.\Generated_Source\PSoC5/USBFS_drv.c ****         modifyReg = 1u;
  66              		.loc 1 113 0
  67 0016 0123     		movs	r3, #1
  68 0018 FB71     		strb	r3, [r7, #7]
 114:.\Generated_Source\PSoC5/USBFS_drv.c ****         if (bRegTemp & USBFS_MODE_SETUP_RCVD)
  69              		.loc 1 114 0
  70 001a BB79     		ldrb	r3, [r7, #6]	@ zero_extendqisi2
  71 001c 5BB2     		sxtb	r3, r3
  72 001e 002B     		cmp	r3, #0
  73 0020 13DA     		bge	.L3
 115:.\Generated_Source\PSoC5/USBFS_drv.c ****         {
 116:.\Generated_Source\PSoC5/USBFS_drv.c ****             if((bRegTemp & USBFS_MODE_MASK) != USBFS_MODE_NAK_IN_OUT)
  74              		.loc 1 116 0
  75 0022 BB79     		ldrb	r3, [r7, #6]	@ zero_extendqisi2
  76 0024 03F00F03 		and	r3, r3, #15
  77 0028 012B     		cmp	r3, #1
  78 002a 02D0     		beq	.L4
 117:.\Generated_Source\PSoC5/USBFS_drv.c ****             {
 118:.\Generated_Source\PSoC5/USBFS_drv.c ****                 modifyReg = 0u;                                     /* When mode not NAK_IN_OUT => 
  79              		.loc 1 118 0
  80 002c 0023     		movs	r3, #0
  81 002e FB71     		strb	r3, [r7, #7]
  82 0030 1DE0     		b	.L6
  83              	.L4:
 119:.\Generated_Source\PSoC5/USBFS_drv.c ****             }
 120:.\Generated_Source\PSoC5/USBFS_drv.c ****             else
 121:.\Generated_Source\PSoC5/USBFS_drv.c ****             {
 122:.\Generated_Source\PSoC5/USBFS_drv.c ****                 USBFS_HandleSetup();
  84              		.loc 1 122 0
  85 0032 FFF7FEFF 		bl	USBFS_HandleSetup
 123:.\Generated_Source\PSoC5/USBFS_drv.c ****                 if(USBFS_ep0Mode & USBFS_MODE_SETUP_RCVD)
  86              		.loc 1 123 0
  87 0036 2C4B     		ldr	r3, .L11+4
  88 0038 1B78     		ldrb	r3, [r3]
  89 003a DBB2     		uxtb	r3, r3
  90 003c DBB2     		uxtb	r3, r3
  91 003e 5BB2     		sxtb	r3, r3
  92 0040 002B     		cmp	r3, #0
  93 0042 14DA     		bge	.L6
 124:.\Generated_Source\PSoC5/USBFS_drv.c ****                 {
 125:.\Generated_Source\PSoC5/USBFS_drv.c ****                     modifyReg = 0u;                         /* if SETUP bit set -> exit without mod
  94              		.loc 1 125 0
  95 0044 0023     		movs	r3, #0
  96 0046 FB71     		strb	r3, [r7, #7]
  97 0048 11E0     		b	.L6
  98              	.L3:
 126:.\Generated_Source\PSoC5/USBFS_drv.c ****                 }
 127:.\Generated_Source\PSoC5/USBFS_drv.c **** 
 128:.\Generated_Source\PSoC5/USBFS_drv.c ****             }
 129:.\Generated_Source\PSoC5/USBFS_drv.c ****         }
 130:.\Generated_Source\PSoC5/USBFS_drv.c ****         else if (bRegTemp & USBFS_MODE_IN_RCVD)
ARM GAS  C:\USERS\LUKAS\APPDATA\LOCAL\TEMP\ccufjyak.s 			page 5


  99              		.loc 1 130 0
 100 004a BB79     		ldrb	r3, [r7, #6]	@ zero_extendqisi2
 101 004c 03F04003 		and	r3, r3, #64
 102 0050 002B     		cmp	r3, #0
 103 0052 02D0     		beq	.L7
 131:.\Generated_Source\PSoC5/USBFS_drv.c ****         {
 132:.\Generated_Source\PSoC5/USBFS_drv.c ****             USBFS_HandleIN();
 104              		.loc 1 132 0
 105 0054 FFF7FEFF 		bl	USBFS_HandleIN
 106 0058 09E0     		b	.L6
 107              	.L7:
 133:.\Generated_Source\PSoC5/USBFS_drv.c ****         }
 134:.\Generated_Source\PSoC5/USBFS_drv.c ****         else if (bRegTemp & USBFS_MODE_OUT_RCVD)
 108              		.loc 1 134 0
 109 005a BB79     		ldrb	r3, [r7, #6]	@ zero_extendqisi2
 110 005c 03F02003 		and	r3, r3, #32
 111 0060 002B     		cmp	r3, #0
 112 0062 02D0     		beq	.L8
 135:.\Generated_Source\PSoC5/USBFS_drv.c ****         {
 136:.\Generated_Source\PSoC5/USBFS_drv.c ****             USBFS_HandleOUT();
 113              		.loc 1 136 0
 114 0064 FFF7FEFF 		bl	USBFS_HandleOUT
 115 0068 01E0     		b	.L6
 116              	.L8:
 137:.\Generated_Source\PSoC5/USBFS_drv.c ****         }
 138:.\Generated_Source\PSoC5/USBFS_drv.c ****         else
 139:.\Generated_Source\PSoC5/USBFS_drv.c ****         {
 140:.\Generated_Source\PSoC5/USBFS_drv.c ****             modifyReg = 0u;
 117              		.loc 1 140 0
 118 006a 0023     		movs	r3, #0
 119 006c FB71     		strb	r3, [r7, #7]
 120              	.L6:
 141:.\Generated_Source\PSoC5/USBFS_drv.c ****         }
 142:.\Generated_Source\PSoC5/USBFS_drv.c ****         if(modifyReg != 0u)
 121              		.loc 1 142 0
 122 006e FB79     		ldrb	r3, [r7, #7]	@ zero_extendqisi2
 123 0070 002B     		cmp	r3, #0
 124 0072 34D0     		beq	.L1
 143:.\Generated_Source\PSoC5/USBFS_drv.c ****         {
 144:.\Generated_Source\PSoC5/USBFS_drv.c ****             bRegTemp = CY_GET_REG8(USBFS_EP0_CR_PTR);    /* unlock registers */
 125              		.loc 1 144 0
 126 0074 1B4B     		ldr	r3, .L11
 127 0076 1B78     		ldrb	r3, [r3]
 128 0078 BB71     		strb	r3, [r7, #6]
 145:.\Generated_Source\PSoC5/USBFS_drv.c ****             if((bRegTemp & USBFS_MODE_SETUP_RCVD) == 0)  /* Check if SETUP bit is not set, otherwis
 129              		.loc 1 145 0
 130 007a BB79     		ldrb	r3, [r7, #6]	@ zero_extendqisi2
 131 007c 5BB2     		sxtb	r3, r3
 132 007e 002B     		cmp	r3, #0
 133 0080 2DDB     		blt	.L1
 146:.\Generated_Source\PSoC5/USBFS_drv.c ****             {
 147:.\Generated_Source\PSoC5/USBFS_drv.c ****                 /* Update the count register */
 148:.\Generated_Source\PSoC5/USBFS_drv.c ****                 bRegTemp = USBFS_ep0Toggle | USBFS_ep0Count;
 134              		.loc 1 148 0
 135 0082 1A4B     		ldr	r3, .L11+8
 136 0084 1B78     		ldrb	r3, [r3]
 137 0086 DAB2     		uxtb	r2, r3
ARM GAS  C:\USERS\LUKAS\APPDATA\LOCAL\TEMP\ccufjyak.s 			page 6


 138 0088 194B     		ldr	r3, .L11+12
 139 008a 1B78     		ldrb	r3, [r3]
 140 008c DBB2     		uxtb	r3, r3
 141 008e 1343     		orrs	r3, r3, r2
 142 0090 BB71     		strb	r3, [r7, #6]
 149:.\Generated_Source\PSoC5/USBFS_drv.c ****                 CY_SET_REG8(USBFS_EP0_CNT_PTR, bRegTemp);
 143              		.loc 1 149 0
 144 0092 184A     		ldr	r2, .L11+16
 145 0094 BB79     		ldrb	r3, [r7, #6]
 146 0096 1370     		strb	r3, [r2]
 150:.\Generated_Source\PSoC5/USBFS_drv.c ****                 if(bRegTemp == CY_GET_REG8(USBFS_EP0_CNT_PTR))   /* continue if writing was succesf
 147              		.loc 1 150 0
 148 0098 164B     		ldr	r3, .L11+16
 149 009a 1B78     		ldrb	r3, [r3]
 150 009c DBB2     		uxtb	r3, r3
 151 009e BA79     		ldrb	r2, [r7, #6]	@ zero_extendqisi2
 152 00a0 9A42     		cmp	r2, r3
 153 00a2 1CD1     		bne	.L1
 154              	.L10:
 151:.\Generated_Source\PSoC5/USBFS_drv.c ****                 {
 152:.\Generated_Source\PSoC5/USBFS_drv.c ****                     do
 153:.\Generated_Source\PSoC5/USBFS_drv.c ****                     {
 154:.\Generated_Source\PSoC5/USBFS_drv.c ****                         modifyReg = USBFS_ep0Mode;       /* init temporary variable */
 155              		.loc 1 154 0
 156 00a4 104B     		ldr	r3, .L11+4
 157 00a6 1B78     		ldrb	r3, [r3]
 158 00a8 FB71     		strb	r3, [r7, #7]
 155:.\Generated_Source\PSoC5/USBFS_drv.c ****                         /* unlock registers */
 156:.\Generated_Source\PSoC5/USBFS_drv.c ****                         bRegTemp = CY_GET_REG8(USBFS_EP0_CR_PTR) & USBFS_MODE_SETUP_RCVD;
 159              		.loc 1 156 0
 160 00aa 0E4B     		ldr	r3, .L11
 161 00ac 1B78     		ldrb	r3, [r3]
 162 00ae DBB2     		uxtb	r3, r3
 163 00b0 23F07F03 		bic	r3, r3, #127
 164 00b4 BB71     		strb	r3, [r7, #6]
 157:.\Generated_Source\PSoC5/USBFS_drv.c ****                         if(bRegTemp == 0)                           /* Check if SETUP bit is not se
 165              		.loc 1 157 0
 166 00b6 BB79     		ldrb	r3, [r7, #6]	@ zero_extendqisi2
 167 00b8 002B     		cmp	r3, #0
 168 00ba 0AD1     		bne	.L9
 158:.\Generated_Source\PSoC5/USBFS_drv.c ****                         {
 159:.\Generated_Source\PSoC5/USBFS_drv.c ****                             /* Set the Mode Register  */
 160:.\Generated_Source\PSoC5/USBFS_drv.c ****                             CY_SET_REG8(USBFS_EP0_CR_PTR, USBFS_ep0Mode);
 169              		.loc 1 160 0
 170 00bc 094B     		ldr	r3, .L11
 171 00be 0A4A     		ldr	r2, .L11+4
 172 00c0 1278     		ldrb	r2, [r2]
 173 00c2 D2B2     		uxtb	r2, r2
 174 00c4 1A70     		strb	r2, [r3]
 161:.\Generated_Source\PSoC5/USBFS_drv.c ****                             /* writing check */
 162:.\Generated_Source\PSoC5/USBFS_drv.c ****                             modifyReg = CY_GET_REG8(USBFS_EP0_CR_PTR) & USBFS_MODE_MASK;
 175              		.loc 1 162 0
 176 00c6 074B     		ldr	r3, .L11
 177 00c8 1B78     		ldrb	r3, [r3]
 178 00ca DBB2     		uxtb	r3, r3
 179 00cc 03F00F03 		and	r3, r3, #15
 180 00d0 FB71     		strb	r3, [r7, #7]
ARM GAS  C:\USERS\LUKAS\APPDATA\LOCAL\TEMP\ccufjyak.s 			page 7


 181              	.L9:
 163:.\Generated_Source\PSoC5/USBFS_drv.c ****                         }
 164:.\Generated_Source\PSoC5/USBFS_drv.c ****                     }while(modifyReg != USBFS_ep0Mode);  /* repeat if writing was not successful */
 182              		.loc 1 164 0
 183 00d2 054B     		ldr	r3, .L11+4
 184 00d4 1B78     		ldrb	r3, [r3]
 185 00d6 DBB2     		uxtb	r3, r3
 186 00d8 FA79     		ldrb	r2, [r7, #7]	@ zero_extendqisi2
 187 00da 9A42     		cmp	r2, r3
 188 00dc E2D1     		bne	.L10
 189              	.L1:
 165:.\Generated_Source\PSoC5/USBFS_drv.c ****                 }
 166:.\Generated_Source\PSoC5/USBFS_drv.c ****             }
 167:.\Generated_Source\PSoC5/USBFS_drv.c ****         }
 168:.\Generated_Source\PSoC5/USBFS_drv.c ****     }
 169:.\Generated_Source\PSoC5/USBFS_drv.c **** }
 190              		.loc 1 169 0
 191 00de 0837     		adds	r7, r7, #8
 192              		.cfi_def_cfa_offset 8
 193 00e0 BD46     		mov	sp, r7
 194              		.cfi_def_cfa_register 13
 195              		@ sp needed
 196 00e2 80BD     		pop	{r7, pc}
 197              	.L12:
 198              		.align	2
 199              	.L11:
 200 00e4 28600040 		.word	1073766440
 201 00e8 00000000 		.word	USBFS_ep0Mode
 202 00ec 00000000 		.word	USBFS_ep0Toggle
 203 00f0 00000000 		.word	USBFS_ep0Count
 204 00f4 29600040 		.word	1073766441
 205              		.cfi_endproc
 206              	.LFE0:
 207              		.size	USBFS_EP_0_ISR, .-USBFS_EP_0_ISR
 208              		.section	.text.USBFS_HandleSetup,"ax",%progbits
 209              		.align	2
 210              		.global	USBFS_HandleSetup
 211              		.thumb
 212              		.thumb_func
 213              		.type	USBFS_HandleSetup, %function
 214              	USBFS_HandleSetup:
 215              	.LFB1:
 170:.\Generated_Source\PSoC5/USBFS_drv.c **** 
 171:.\Generated_Source\PSoC5/USBFS_drv.c **** 
 172:.\Generated_Source\PSoC5/USBFS_drv.c **** /*******************************************************************************
 173:.\Generated_Source\PSoC5/USBFS_drv.c **** * Function Name: USBFS_HandleSetup
 174:.\Generated_Source\PSoC5/USBFS_drv.c **** ********************************************************************************
 175:.\Generated_Source\PSoC5/USBFS_drv.c **** *
 176:.\Generated_Source\PSoC5/USBFS_drv.c **** * Summary:
 177:.\Generated_Source\PSoC5/USBFS_drv.c **** *  This Routine dispatches requests for the four USB request types
 178:.\Generated_Source\PSoC5/USBFS_drv.c **** *
 179:.\Generated_Source\PSoC5/USBFS_drv.c **** * Parameters:
 180:.\Generated_Source\PSoC5/USBFS_drv.c **** *  None.
 181:.\Generated_Source\PSoC5/USBFS_drv.c **** *
 182:.\Generated_Source\PSoC5/USBFS_drv.c **** * Return:
 183:.\Generated_Source\PSoC5/USBFS_drv.c **** *  None.
 184:.\Generated_Source\PSoC5/USBFS_drv.c **** *
ARM GAS  C:\USERS\LUKAS\APPDATA\LOCAL\TEMP\ccufjyak.s 			page 8


 185:.\Generated_Source\PSoC5/USBFS_drv.c **** * Reentrant:
 186:.\Generated_Source\PSoC5/USBFS_drv.c **** *  No.
 187:.\Generated_Source\PSoC5/USBFS_drv.c **** *
 188:.\Generated_Source\PSoC5/USBFS_drv.c **** *******************************************************************************/
 189:.\Generated_Source\PSoC5/USBFS_drv.c **** void USBFS_HandleSetup(void) 
 190:.\Generated_Source\PSoC5/USBFS_drv.c **** {
 216              		.loc 1 190 0
 217              		.cfi_startproc
 218              		@ args = 0, pretend = 0, frame = 8
 219              		@ frame_needed = 1, uses_anonymous_args = 0
 220 0000 80B5     		push	{r7, lr}
 221              		.cfi_def_cfa_offset 8
 222              		.cfi_offset 7, -8
 223              		.cfi_offset 14, -4
 224 0002 82B0     		sub	sp, sp, #8
 225              		.cfi_def_cfa_offset 16
 226 0004 00AF     		add	r7, sp, #0
 227              		.cfi_def_cfa_register 7
 191:.\Generated_Source\PSoC5/USBFS_drv.c ****     uint8 requestHandled;
 192:.\Generated_Source\PSoC5/USBFS_drv.c **** 
 193:.\Generated_Source\PSoC5/USBFS_drv.c ****     requestHandled = CY_GET_REG8(USBFS_EP0_CR_PTR);      /* unlock registers */
 228              		.loc 1 193 0
 229 0006 1D4B     		ldr	r3, .L22
 230 0008 1B78     		ldrb	r3, [r3]
 231 000a FB71     		strb	r3, [r7, #7]
 194:.\Generated_Source\PSoC5/USBFS_drv.c ****     CY_SET_REG8(USBFS_EP0_CR_PTR, requestHandled);       /* clear setup bit */
 232              		.loc 1 194 0
 233 000c 1B4A     		ldr	r2, .L22
 234 000e FB79     		ldrb	r3, [r7, #7]
 235 0010 1370     		strb	r3, [r2]
 195:.\Generated_Source\PSoC5/USBFS_drv.c ****     requestHandled = CY_GET_REG8(USBFS_EP0_CR_PTR);      /* reread register */
 236              		.loc 1 195 0
 237 0012 1A4B     		ldr	r3, .L22
 238 0014 1B78     		ldrb	r3, [r3]
 239 0016 FB71     		strb	r3, [r7, #7]
 196:.\Generated_Source\PSoC5/USBFS_drv.c ****     if(requestHandled & USBFS_MODE_SETUP_RCVD)
 240              		.loc 1 196 0
 241 0018 FB79     		ldrb	r3, [r7, #7]	@ zero_extendqisi2
 242 001a 5BB2     		sxtb	r3, r3
 243 001c 002B     		cmp	r3, #0
 244 001e 03DA     		bge	.L14
 197:.\Generated_Source\PSoC5/USBFS_drv.c ****     {
 198:.\Generated_Source\PSoC5/USBFS_drv.c ****         USBFS_ep0Mode = requestHandled;        /* if SETUP bit set -> exit without modifying the mo
 245              		.loc 1 198 0
 246 0020 174A     		ldr	r2, .L22+4
 247 0022 FB79     		ldrb	r3, [r7, #7]
 248 0024 1370     		strb	r3, [r2]
 249 0026 25E0     		b	.L13
 250              	.L14:
 199:.\Generated_Source\PSoC5/USBFS_drv.c ****     }
 200:.\Generated_Source\PSoC5/USBFS_drv.c ****     else
 201:.\Generated_Source\PSoC5/USBFS_drv.c ****     {
 202:.\Generated_Source\PSoC5/USBFS_drv.c ****         /* In case the previous transfer did not complete, close it out */
 203:.\Generated_Source\PSoC5/USBFS_drv.c ****         USBFS_UpdateStatusBlock(USBFS_XFER_PREMATURE);
 251              		.loc 1 203 0
 252 0028 0220     		movs	r0, #2
 253 002a FFF7FEFF 		bl	USBFS_UpdateStatusBlock
ARM GAS  C:\USERS\LUKAS\APPDATA\LOCAL\TEMP\ccufjyak.s 			page 9


 204:.\Generated_Source\PSoC5/USBFS_drv.c **** 
 205:.\Generated_Source\PSoC5/USBFS_drv.c ****         switch (CY_GET_REG8(USBFS_bmRequestType) & USBFS_RQST_TYPE_MASK)
 254              		.loc 1 205 0
 255 002e 154B     		ldr	r3, .L22+8
 256 0030 1B78     		ldrb	r3, [r3]
 257 0032 DBB2     		uxtb	r3, r3
 258 0034 03F06003 		and	r3, r3, #96
 259 0038 202B     		cmp	r3, #32
 260 003a 08D0     		beq	.L17
 261 003c 402B     		cmp	r3, #64
 262 003e 0BD0     		beq	.L18
 263 0040 002B     		cmp	r3, #0
 264 0042 0ED1     		bne	.L21
 206:.\Generated_Source\PSoC5/USBFS_drv.c ****         {
 207:.\Generated_Source\PSoC5/USBFS_drv.c ****             case USBFS_RQST_TYPE_STD:
 208:.\Generated_Source\PSoC5/USBFS_drv.c ****                 requestHandled = USBFS_HandleStandardRqst();
 265              		.loc 1 208 0
 266 0044 FFF7FEFF 		bl	USBFS_HandleStandardRqst
 267 0048 0346     		mov	r3, r0
 268 004a FB71     		strb	r3, [r7, #7]
 209:.\Generated_Source\PSoC5/USBFS_drv.c ****                 break;
 269              		.loc 1 209 0
 270 004c 0CE0     		b	.L20
 271              	.L17:
 210:.\Generated_Source\PSoC5/USBFS_drv.c ****             case USBFS_RQST_TYPE_CLS:
 211:.\Generated_Source\PSoC5/USBFS_drv.c ****                 requestHandled = USBFS_DispatchClassRqst();
 272              		.loc 1 211 0
 273 004e FFF7FEFF 		bl	USBFS_DispatchClassRqst
 274 0052 0346     		mov	r3, r0
 275 0054 FB71     		strb	r3, [r7, #7]
 212:.\Generated_Source\PSoC5/USBFS_drv.c ****                 break;
 276              		.loc 1 212 0
 277 0056 07E0     		b	.L20
 278              	.L18:
 213:.\Generated_Source\PSoC5/USBFS_drv.c ****             case USBFS_RQST_TYPE_VND:
 214:.\Generated_Source\PSoC5/USBFS_drv.c ****                 requestHandled = USBFS_HandleVendorRqst();
 279              		.loc 1 214 0
 280 0058 FFF7FEFF 		bl	USBFS_HandleVendorRqst
 281 005c 0346     		mov	r3, r0
 282 005e FB71     		strb	r3, [r7, #7]
 215:.\Generated_Source\PSoC5/USBFS_drv.c ****                 break;
 283              		.loc 1 215 0
 284 0060 02E0     		b	.L20
 285              	.L21:
 216:.\Generated_Source\PSoC5/USBFS_drv.c ****             default:
 217:.\Generated_Source\PSoC5/USBFS_drv.c ****                 requestHandled = USBFS_FALSE;
 286              		.loc 1 217 0
 287 0062 0023     		movs	r3, #0
 288 0064 FB71     		strb	r3, [r7, #7]
 218:.\Generated_Source\PSoC5/USBFS_drv.c ****                 break;
 289              		.loc 1 218 0
 290 0066 00BF     		nop
 291              	.L20:
 219:.\Generated_Source\PSoC5/USBFS_drv.c ****         }
 220:.\Generated_Source\PSoC5/USBFS_drv.c ****         if (requestHandled == USBFS_FALSE)
 292              		.loc 1 220 0
 293 0068 FB79     		ldrb	r3, [r7, #7]	@ zero_extendqisi2
ARM GAS  C:\USERS\LUKAS\APPDATA\LOCAL\TEMP\ccufjyak.s 			page 10


 294 006a 002B     		cmp	r3, #0
 295 006c 02D1     		bne	.L13
 221:.\Generated_Source\PSoC5/USBFS_drv.c ****         {
 222:.\Generated_Source\PSoC5/USBFS_drv.c ****             USBFS_ep0Mode = USBFS_MODE_STALL_IN_OUT;
 296              		.loc 1 222 0
 297 006e 044B     		ldr	r3, .L22+4
 298 0070 0322     		movs	r2, #3
 299 0072 1A70     		strb	r2, [r3]
 300              	.L13:
 223:.\Generated_Source\PSoC5/USBFS_drv.c ****         }
 224:.\Generated_Source\PSoC5/USBFS_drv.c ****     }
 225:.\Generated_Source\PSoC5/USBFS_drv.c **** }
 301              		.loc 1 225 0
 302 0074 0837     		adds	r7, r7, #8
 303              		.cfi_def_cfa_offset 8
 304 0076 BD46     		mov	sp, r7
 305              		.cfi_def_cfa_register 13
 306              		@ sp needed
 307 0078 80BD     		pop	{r7, pc}
 308              	.L23:
 309 007a 00BF     		.align	2
 310              	.L22:
 311 007c 28600040 		.word	1073766440
 312 0080 00000000 		.word	USBFS_ep0Mode
 313 0084 00600040 		.word	1073766400
 314              		.cfi_endproc
 315              	.LFE1:
 316              		.size	USBFS_HandleSetup, .-USBFS_HandleSetup
 317              		.section	.text.USBFS_HandleIN,"ax",%progbits
 318              		.align	2
 319              		.global	USBFS_HandleIN
 320              		.thumb
 321              		.thumb_func
 322              		.type	USBFS_HandleIN, %function
 323              	USBFS_HandleIN:
 324              	.LFB2:
 226:.\Generated_Source\PSoC5/USBFS_drv.c **** 
 227:.\Generated_Source\PSoC5/USBFS_drv.c **** 
 228:.\Generated_Source\PSoC5/USBFS_drv.c **** /*******************************************************************************
 229:.\Generated_Source\PSoC5/USBFS_drv.c **** * Function Name: USBFS_HandleIN
 230:.\Generated_Source\PSoC5/USBFS_drv.c **** ********************************************************************************
 231:.\Generated_Source\PSoC5/USBFS_drv.c **** *
 232:.\Generated_Source\PSoC5/USBFS_drv.c **** * Summary:
 233:.\Generated_Source\PSoC5/USBFS_drv.c **** *  This routine handles EP0 IN transfers.
 234:.\Generated_Source\PSoC5/USBFS_drv.c **** *
 235:.\Generated_Source\PSoC5/USBFS_drv.c **** * Parameters:
 236:.\Generated_Source\PSoC5/USBFS_drv.c **** *  None.
 237:.\Generated_Source\PSoC5/USBFS_drv.c **** *
 238:.\Generated_Source\PSoC5/USBFS_drv.c **** * Return:
 239:.\Generated_Source\PSoC5/USBFS_drv.c **** *  None.
 240:.\Generated_Source\PSoC5/USBFS_drv.c **** *
 241:.\Generated_Source\PSoC5/USBFS_drv.c **** * Reentrant:
 242:.\Generated_Source\PSoC5/USBFS_drv.c **** *  No.
 243:.\Generated_Source\PSoC5/USBFS_drv.c **** *
 244:.\Generated_Source\PSoC5/USBFS_drv.c **** *******************************************************************************/
 245:.\Generated_Source\PSoC5/USBFS_drv.c **** void USBFS_HandleIN(void) 
 246:.\Generated_Source\PSoC5/USBFS_drv.c **** {
ARM GAS  C:\USERS\LUKAS\APPDATA\LOCAL\TEMP\ccufjyak.s 			page 11


 325              		.loc 1 246 0
 326              		.cfi_startproc
 327              		@ args = 0, pretend = 0, frame = 0
 328              		@ frame_needed = 1, uses_anonymous_args = 0
 329 0000 80B5     		push	{r7, lr}
 330              		.cfi_def_cfa_offset 8
 331              		.cfi_offset 7, -8
 332              		.cfi_offset 14, -4
 333 0002 00AF     		add	r7, sp, #0
 334              		.cfi_def_cfa_register 7
 247:.\Generated_Source\PSoC5/USBFS_drv.c ****     switch (USBFS_transferState)
 335              		.loc 1 247 0
 336 0004 104B     		ldr	r3, .L33
 337 0006 1B78     		ldrb	r3, [r3]
 338 0008 DBB2     		uxtb	r3, r3
 339 000a 062B     		cmp	r3, #6
 340 000c 19D8     		bhi	.L32
 341 000e 01A2     		adr	r2, .L27
 342 0010 52F823F0 		ldr	pc, [r2, r3, lsl #2]
 343              		.p2align 2
 344              	.L27:
 345 0014 43000000 		.word	.L32+1
 346 0018 43000000 		.word	.L32+1
 347 001c 31000000 		.word	.L28+1
 348 0020 43000000 		.word	.L32+1
 349 0024 37000000 		.word	.L29+1
 350 0028 43000000 		.word	.L32+1
 351 002c 3D000000 		.word	.L30+1
 352              		.p2align 1
 353              	.L28:
 248:.\Generated_Source\PSoC5/USBFS_drv.c ****     {
 249:.\Generated_Source\PSoC5/USBFS_drv.c ****         case USBFS_TRANS_STATE_IDLE:
 250:.\Generated_Source\PSoC5/USBFS_drv.c ****             break;
 251:.\Generated_Source\PSoC5/USBFS_drv.c ****         case USBFS_TRANS_STATE_CONTROL_READ:
 252:.\Generated_Source\PSoC5/USBFS_drv.c ****             USBFS_ControlReadDataStage();
 354              		.loc 1 252 0
 355 0030 FFF7FEFF 		bl	USBFS_ControlReadDataStage
 253:.\Generated_Source\PSoC5/USBFS_drv.c ****             break;
 356              		.loc 1 253 0
 357 0034 06E0     		b	.L24
 358              	.L29:
 254:.\Generated_Source\PSoC5/USBFS_drv.c ****         case USBFS_TRANS_STATE_CONTROL_WRITE:
 255:.\Generated_Source\PSoC5/USBFS_drv.c ****             USBFS_ControlWriteStatusStage();
 359              		.loc 1 255 0
 360 0036 FFF7FEFF 		bl	USBFS_ControlWriteStatusStage
 256:.\Generated_Source\PSoC5/USBFS_drv.c ****             break;
 361              		.loc 1 256 0
 362 003a 03E0     		b	.L24
 363              	.L30:
 257:.\Generated_Source\PSoC5/USBFS_drv.c ****         case USBFS_TRANS_STATE_NO_DATA_CONTROL:
 258:.\Generated_Source\PSoC5/USBFS_drv.c ****             USBFS_NoDataControlStatusStage();
 364              		.loc 1 258 0
 365 003c FFF7FEFF 		bl	USBFS_NoDataControlStatusStage
 259:.\Generated_Source\PSoC5/USBFS_drv.c ****             break;
 366              		.loc 1 259 0
 367 0040 00E0     		b	.L24
 368              	.L32:
ARM GAS  C:\USERS\LUKAS\APPDATA\LOCAL\TEMP\ccufjyak.s 			page 12


 260:.\Generated_Source\PSoC5/USBFS_drv.c ****         default:    /* there are no more states */
 261:.\Generated_Source\PSoC5/USBFS_drv.c ****             break;
 369              		.loc 1 261 0
 370 0042 00BF     		nop
 371              	.L24:
 262:.\Generated_Source\PSoC5/USBFS_drv.c ****     }
 263:.\Generated_Source\PSoC5/USBFS_drv.c **** }
 372              		.loc 1 263 0
 373 0044 80BD     		pop	{r7, pc}
 374              	.L34:
 375 0046 00BF     		.align	2
 376              	.L33:
 377 0048 00000000 		.word	USBFS_transferState
 378              		.cfi_endproc
 379              	.LFE2:
 380              		.size	USBFS_HandleIN, .-USBFS_HandleIN
 381              		.section	.text.USBFS_HandleOUT,"ax",%progbits
 382              		.align	2
 383              		.global	USBFS_HandleOUT
 384              		.thumb
 385              		.thumb_func
 386              		.type	USBFS_HandleOUT, %function
 387              	USBFS_HandleOUT:
 388              	.LFB3:
 264:.\Generated_Source\PSoC5/USBFS_drv.c **** 
 265:.\Generated_Source\PSoC5/USBFS_drv.c **** 
 266:.\Generated_Source\PSoC5/USBFS_drv.c **** /*******************************************************************************
 267:.\Generated_Source\PSoC5/USBFS_drv.c **** * Function Name: USBFS_HandleOUT
 268:.\Generated_Source\PSoC5/USBFS_drv.c **** ********************************************************************************
 269:.\Generated_Source\PSoC5/USBFS_drv.c **** *
 270:.\Generated_Source\PSoC5/USBFS_drv.c **** * Summary:
 271:.\Generated_Source\PSoC5/USBFS_drv.c **** *  This routine handles EP0 OUT transfers.
 272:.\Generated_Source\PSoC5/USBFS_drv.c **** *
 273:.\Generated_Source\PSoC5/USBFS_drv.c **** * Parameters:
 274:.\Generated_Source\PSoC5/USBFS_drv.c **** *  None.
 275:.\Generated_Source\PSoC5/USBFS_drv.c **** *
 276:.\Generated_Source\PSoC5/USBFS_drv.c **** * Return:
 277:.\Generated_Source\PSoC5/USBFS_drv.c **** *  None.
 278:.\Generated_Source\PSoC5/USBFS_drv.c **** *
 279:.\Generated_Source\PSoC5/USBFS_drv.c **** * Reentrant:
 280:.\Generated_Source\PSoC5/USBFS_drv.c **** *  No.
 281:.\Generated_Source\PSoC5/USBFS_drv.c **** *
 282:.\Generated_Source\PSoC5/USBFS_drv.c **** *******************************************************************************/
 283:.\Generated_Source\PSoC5/USBFS_drv.c **** void USBFS_HandleOUT(void) 
 284:.\Generated_Source\PSoC5/USBFS_drv.c **** {
 389              		.loc 1 284 0
 390              		.cfi_startproc
 391              		@ args = 0, pretend = 0, frame = 0
 392              		@ frame_needed = 1, uses_anonymous_args = 0
 393 0000 80B5     		push	{r7, lr}
 394              		.cfi_def_cfa_offset 8
 395              		.cfi_offset 7, -8
 396              		.cfi_offset 14, -4
 397 0002 00AF     		add	r7, sp, #0
 398              		.cfi_def_cfa_register 7
 285:.\Generated_Source\PSoC5/USBFS_drv.c ****     switch (USBFS_transferState)
 399              		.loc 1 285 0
ARM GAS  C:\USERS\LUKAS\APPDATA\LOCAL\TEMP\ccufjyak.s 			page 13


 400 0004 124B     		ldr	r3, .L44
 401 0006 1B78     		ldrb	r3, [r3]
 402 0008 DBB2     		uxtb	r3, r3
 403 000a 062B     		cmp	r3, #6
 404 000c 1DD8     		bhi	.L43
 405 000e 01A2     		adr	r2, .L38
 406 0010 52F823F0 		ldr	pc, [r2, r3, lsl #2]
 407              		.p2align 2
 408              	.L38:
 409 0014 4B000000 		.word	.L43+1
 410 0018 4B000000 		.word	.L43+1
 411 001c 31000000 		.word	.L39+1
 412 0020 4B000000 		.word	.L43+1
 413 0024 37000000 		.word	.L40+1
 414 0028 4B000000 		.word	.L43+1
 415 002c 3D000000 		.word	.L41+1
 416              		.p2align 1
 417              	.L39:
 286:.\Generated_Source\PSoC5/USBFS_drv.c ****     {
 287:.\Generated_Source\PSoC5/USBFS_drv.c ****         case USBFS_TRANS_STATE_IDLE:
 288:.\Generated_Source\PSoC5/USBFS_drv.c ****             break;
 289:.\Generated_Source\PSoC5/USBFS_drv.c ****         case USBFS_TRANS_STATE_CONTROL_READ:
 290:.\Generated_Source\PSoC5/USBFS_drv.c ****             USBFS_ControlReadStatusStage();
 418              		.loc 1 290 0
 419 0030 FFF7FEFF 		bl	USBFS_ControlReadStatusStage
 291:.\Generated_Source\PSoC5/USBFS_drv.c ****             break;
 420              		.loc 1 291 0
 421 0034 0AE0     		b	.L35
 422              	.L40:
 292:.\Generated_Source\PSoC5/USBFS_drv.c ****         case USBFS_TRANS_STATE_CONTROL_WRITE:
 293:.\Generated_Source\PSoC5/USBFS_drv.c ****             USBFS_ControlWriteDataStage();
 423              		.loc 1 293 0
 424 0036 FFF7FEFF 		bl	USBFS_ControlWriteDataStage
 294:.\Generated_Source\PSoC5/USBFS_drv.c ****             break;
 425              		.loc 1 294 0
 426 003a 07E0     		b	.L35
 427              	.L41:
 295:.\Generated_Source\PSoC5/USBFS_drv.c ****         case USBFS_TRANS_STATE_NO_DATA_CONTROL:
 296:.\Generated_Source\PSoC5/USBFS_drv.c ****             /* Update the completion block */
 297:.\Generated_Source\PSoC5/USBFS_drv.c ****             USBFS_UpdateStatusBlock(USBFS_XFER_ERROR);
 428              		.loc 1 297 0
 429 003c 0320     		movs	r0, #3
 430 003e FFF7FEFF 		bl	USBFS_UpdateStatusBlock
 298:.\Generated_Source\PSoC5/USBFS_drv.c ****             /* We expect no more data, so stall INs and OUTs */
 299:.\Generated_Source\PSoC5/USBFS_drv.c ****             USBFS_ep0Mode = USBFS_MODE_STALL_IN_OUT;
 431              		.loc 1 299 0
 432 0042 044B     		ldr	r3, .L44+4
 433 0044 0322     		movs	r2, #3
 434 0046 1A70     		strb	r2, [r3]
 300:.\Generated_Source\PSoC5/USBFS_drv.c ****             break;
 435              		.loc 1 300 0
 436 0048 00E0     		b	.L35
 437              	.L43:
 301:.\Generated_Source\PSoC5/USBFS_drv.c ****         default:    /* there are no more states */
 302:.\Generated_Source\PSoC5/USBFS_drv.c ****             break;
 438              		.loc 1 302 0
 439 004a 00BF     		nop
ARM GAS  C:\USERS\LUKAS\APPDATA\LOCAL\TEMP\ccufjyak.s 			page 14


 440              	.L35:
 303:.\Generated_Source\PSoC5/USBFS_drv.c ****     }
 304:.\Generated_Source\PSoC5/USBFS_drv.c **** }
 441              		.loc 1 304 0
 442 004c 80BD     		pop	{r7, pc}
 443              	.L45:
 444 004e 00BF     		.align	2
 445              	.L44:
 446 0050 00000000 		.word	USBFS_transferState
 447 0054 00000000 		.word	USBFS_ep0Mode
 448              		.cfi_endproc
 449              	.LFE3:
 450              		.size	USBFS_HandleOUT, .-USBFS_HandleOUT
 451              		.section	.text.USBFS_LoadEP0,"ax",%progbits
 452              		.align	2
 453              		.global	USBFS_LoadEP0
 454              		.thumb
 455              		.thumb_func
 456              		.type	USBFS_LoadEP0, %function
 457              	USBFS_LoadEP0:
 458              	.LFB4:
 305:.\Generated_Source\PSoC5/USBFS_drv.c **** 
 306:.\Generated_Source\PSoC5/USBFS_drv.c **** 
 307:.\Generated_Source\PSoC5/USBFS_drv.c **** /*******************************************************************************
 308:.\Generated_Source\PSoC5/USBFS_drv.c **** * Function Name: USBFS_LoadEP0
 309:.\Generated_Source\PSoC5/USBFS_drv.c **** ********************************************************************************
 310:.\Generated_Source\PSoC5/USBFS_drv.c **** *
 311:.\Generated_Source\PSoC5/USBFS_drv.c **** * Summary:
 312:.\Generated_Source\PSoC5/USBFS_drv.c **** *  This routine loads the EP0 data registers for OUT transfers.  It uses the
 313:.\Generated_Source\PSoC5/USBFS_drv.c **** *  currentTD (previously initialized by the _InitControlWrite function and
 314:.\Generated_Source\PSoC5/USBFS_drv.c **** *  updated for each OUT transfer, and the bLastPacketSize) to determine how
 315:.\Generated_Source\PSoC5/USBFS_drv.c **** *  many uint8s to transfer on the current OUT.
 316:.\Generated_Source\PSoC5/USBFS_drv.c **** *
 317:.\Generated_Source\PSoC5/USBFS_drv.c **** *  If the number of uint8s remaining is zero and the last transfer was full,
 318:.\Generated_Source\PSoC5/USBFS_drv.c **** *  we need to send a zero length packet.  Otherwise we send the minimum
 319:.\Generated_Source\PSoC5/USBFS_drv.c **** *  of the control endpoint size (8) or remaining number of uint8s for the
 320:.\Generated_Source\PSoC5/USBFS_drv.c **** *  transaction.
 321:.\Generated_Source\PSoC5/USBFS_drv.c **** *
 322:.\Generated_Source\PSoC5/USBFS_drv.c **** * Parameters:
 323:.\Generated_Source\PSoC5/USBFS_drv.c **** *  None.
 324:.\Generated_Source\PSoC5/USBFS_drv.c **** *
 325:.\Generated_Source\PSoC5/USBFS_drv.c **** * Return:
 326:.\Generated_Source\PSoC5/USBFS_drv.c **** *  None.
 327:.\Generated_Source\PSoC5/USBFS_drv.c **** *
 328:.\Generated_Source\PSoC5/USBFS_drv.c **** * Global variables:
 329:.\Generated_Source\PSoC5/USBFS_drv.c **** *  USBFS_transferByteCount - Update the transfer byte count from the
 330:.\Generated_Source\PSoC5/USBFS_drv.c **** *     last transaction.
 331:.\Generated_Source\PSoC5/USBFS_drv.c **** *  USBFS_ep0Count - counts the data loaded to the SIE memory in
 332:.\Generated_Source\PSoC5/USBFS_drv.c **** *     current packet.
 333:.\Generated_Source\PSoC5/USBFS_drv.c **** *  USBFS_lastPacketSize - remebers the USBFS_ep0Count value for the
 334:.\Generated_Source\PSoC5/USBFS_drv.c **** *     next packet.
 335:.\Generated_Source\PSoC5/USBFS_drv.c **** *  USBFS_transferByteCount - suma of the previos bytes transferred
 336:.\Generated_Source\PSoC5/USBFS_drv.c **** *     on previous packets(suma of USBFS_lastPacketSize)
 337:.\Generated_Source\PSoC5/USBFS_drv.c **** *  USBFS_ep0Toggle - inverted
 338:.\Generated_Source\PSoC5/USBFS_drv.c **** *  USBFS_ep0Mode  - prepare for mode register content.
 339:.\Generated_Source\PSoC5/USBFS_drv.c **** *  USBFS_transferState - set to TRANS_STATE_CONTROL_READ
 340:.\Generated_Source\PSoC5/USBFS_drv.c **** *
ARM GAS  C:\USERS\LUKAS\APPDATA\LOCAL\TEMP\ccufjyak.s 			page 15


 341:.\Generated_Source\PSoC5/USBFS_drv.c **** * Reentrant:
 342:.\Generated_Source\PSoC5/USBFS_drv.c **** *  No.
 343:.\Generated_Source\PSoC5/USBFS_drv.c **** *
 344:.\Generated_Source\PSoC5/USBFS_drv.c **** *******************************************************************************/
 345:.\Generated_Source\PSoC5/USBFS_drv.c **** void USBFS_LoadEP0(void) 
 346:.\Generated_Source\PSoC5/USBFS_drv.c **** {
 459              		.loc 1 346 0
 460              		.cfi_startproc
 461              		@ args = 0, pretend = 0, frame = 0
 462              		@ frame_needed = 1, uses_anonymous_args = 0
 463              		@ link register save eliminated.
 464 0000 80B4     		push	{r7}
 465              		.cfi_def_cfa_offset 4
 466              		.cfi_offset 7, -4
 467 0002 00AF     		add	r7, sp, #0
 468              		.cfi_def_cfa_register 7
 347:.\Generated_Source\PSoC5/USBFS_drv.c ****     /* Update the transfer byte count from the last transaction */
 348:.\Generated_Source\PSoC5/USBFS_drv.c ****     USBFS_transferByteCount += USBFS_lastPacketSize;
 469              		.loc 1 348 0
 470 0004 2F4B     		ldr	r3, .L53
 471 0006 1B78     		ldrb	r3, [r3]
 472 0008 DBB2     		uxtb	r3, r3
 473 000a 9AB2     		uxth	r2, r3
 474 000c 2E4B     		ldr	r3, .L53+4
 475 000e 1B88     		ldrh	r3, [r3]	@ movhi
 476 0010 9BB2     		uxth	r3, r3
 477 0012 1344     		add	r3, r3, r2
 478 0014 9AB2     		uxth	r2, r3
 479 0016 2C4B     		ldr	r3, .L53+4
 480 0018 1A80     		strh	r2, [r3]	@ movhi
 349:.\Generated_Source\PSoC5/USBFS_drv.c ****     /* Now load the next transaction */
 350:.\Generated_Source\PSoC5/USBFS_drv.c ****     USBFS_ep0Count = 0u;
 481              		.loc 1 350 0
 482 001a 2C4B     		ldr	r3, .L53+8
 483 001c 0022     		movs	r2, #0
 484 001e 1A70     		strb	r2, [r3]
 351:.\Generated_Source\PSoC5/USBFS_drv.c ****     while ((USBFS_currentTD.count > 0u) && (USBFS_ep0Count < 8u))
 485              		.loc 1 351 0
 486 0020 1CE0     		b	.L47
 487              	.L49:
 352:.\Generated_Source\PSoC5/USBFS_drv.c ****     {
 353:.\Generated_Source\PSoC5/USBFS_drv.c ****         USBFS_EP0_DR0_PTR[USBFS_ep0Count] = *USBFS_currentTD.pData++;
 488              		.loc 1 353 0
 489 0022 2A4B     		ldr	r3, .L53+8
 490 0024 1B78     		ldrb	r3, [r3]
 491 0026 DBB2     		uxtb	r3, r3
 492 0028 03F18043 		add	r3, r3, #1073741824
 493 002c 03F5C043 		add	r3, r3, #24576
 494 0030 274A     		ldr	r2, .L53+12
 495 0032 5268     		ldr	r2, [r2, #4]
 496 0034 511C     		adds	r1, r2, #1
 497 0036 2648     		ldr	r0, .L53+12
 498 0038 4160     		str	r1, [r0, #4]
 499 003a 1278     		ldrb	r2, [r2]
 500 003c D2B2     		uxtb	r2, r2
 501 003e 1A70     		strb	r2, [r3]
 354:.\Generated_Source\PSoC5/USBFS_drv.c ****         USBFS_ep0Count++;
ARM GAS  C:\USERS\LUKAS\APPDATA\LOCAL\TEMP\ccufjyak.s 			page 16


 502              		.loc 1 354 0
 503 0040 224B     		ldr	r3, .L53+8
 504 0042 1B78     		ldrb	r3, [r3]
 505 0044 DBB2     		uxtb	r3, r3
 506 0046 0133     		adds	r3, r3, #1
 507 0048 DAB2     		uxtb	r2, r3
 508 004a 204B     		ldr	r3, .L53+8
 509 004c 1A70     		strb	r2, [r3]
 355:.\Generated_Source\PSoC5/USBFS_drv.c ****         USBFS_currentTD.count--;
 510              		.loc 1 355 0
 511 004e 204B     		ldr	r3, .L53+12
 512 0050 1B88     		ldrh	r3, [r3]	@ movhi
 513 0052 9BB2     		uxth	r3, r3
 514 0054 013B     		subs	r3, r3, #1
 515 0056 9AB2     		uxth	r2, r3
 516 0058 1D4B     		ldr	r3, .L53+12
 517 005a 1A80     		strh	r2, [r3]	@ movhi
 518              	.L47:
 351:.\Generated_Source\PSoC5/USBFS_drv.c ****     {
 519              		.loc 1 351 0
 520 005c 1C4B     		ldr	r3, .L53+12
 521 005e 1B88     		ldrh	r3, [r3]	@ movhi
 522 0060 9BB2     		uxth	r3, r3
 523 0062 002B     		cmp	r3, #0
 524 0064 04D0     		beq	.L48
 351:.\Generated_Source\PSoC5/USBFS_drv.c ****     {
 525              		.loc 1 351 0 is_stmt 0 discriminator 1
 526 0066 194B     		ldr	r3, .L53+8
 527 0068 1B78     		ldrb	r3, [r3]
 528 006a DBB2     		uxtb	r3, r3
 529 006c 072B     		cmp	r3, #7
 530 006e D8D9     		bls	.L49
 531              	.L48:
 356:.\Generated_Source\PSoC5/USBFS_drv.c ****     }
 357:.\Generated_Source\PSoC5/USBFS_drv.c ****     /* Support zero-length packet*/
 358:.\Generated_Source\PSoC5/USBFS_drv.c ****     if( (USBFS_ep0Count > 0u) || (USBFS_lastPacketSize == 8u) )
 532              		.loc 1 358 0 is_stmt 1
 533 0070 164B     		ldr	r3, .L53+8
 534 0072 1B78     		ldrb	r3, [r3]
 535 0074 DBB2     		uxtb	r3, r3
 536 0076 002B     		cmp	r3, #0
 537 0078 04D1     		bne	.L50
 538              		.loc 1 358 0 is_stmt 0 discriminator 1
 539 007a 124B     		ldr	r3, .L53
 540 007c 1B78     		ldrb	r3, [r3]
 541 007e DBB2     		uxtb	r3, r3
 542 0080 082B     		cmp	r3, #8
 543 0082 0FD1     		bne	.L51
 544              	.L50:
 359:.\Generated_Source\PSoC5/USBFS_drv.c ****     {
 360:.\Generated_Source\PSoC5/USBFS_drv.c ****         /* Update the data toggle */
 361:.\Generated_Source\PSoC5/USBFS_drv.c ****         USBFS_ep0Toggle ^= USBFS_EP0_CNT_DATA_TOGGLE;
 545              		.loc 1 361 0 is_stmt 1
 546 0084 134B     		ldr	r3, .L53+16
 547 0086 1B78     		ldrb	r3, [r3]
 548 0088 DBB2     		uxtb	r3, r3
 549 008a 83F07F03 		eor	r3, r3, #127
ARM GAS  C:\USERS\LUKAS\APPDATA\LOCAL\TEMP\ccufjyak.s 			page 17


 550 008e DB43     		mvns	r3, r3
 551 0090 DAB2     		uxtb	r2, r3
 552 0092 104B     		ldr	r3, .L53+16
 553 0094 1A70     		strb	r2, [r3]
 362:.\Generated_Source\PSoC5/USBFS_drv.c ****         /* Set the Mode Register  */
 363:.\Generated_Source\PSoC5/USBFS_drv.c ****         USBFS_ep0Mode = USBFS_MODE_ACK_IN_STATUS_OUT;
 554              		.loc 1 363 0
 555 0096 104B     		ldr	r3, .L53+20
 556 0098 0F22     		movs	r2, #15
 557 009a 1A70     		strb	r2, [r3]
 364:.\Generated_Source\PSoC5/USBFS_drv.c ****         /* Update the state (or stay the same) */
 365:.\Generated_Source\PSoC5/USBFS_drv.c ****         USBFS_transferState = USBFS_TRANS_STATE_CONTROL_READ;
 558              		.loc 1 365 0
 559 009c 0F4B     		ldr	r3, .L53+24
 560 009e 0222     		movs	r2, #2
 561 00a0 1A70     		strb	r2, [r3]
 562 00a2 05E0     		b	.L52
 563              	.L51:
 366:.\Generated_Source\PSoC5/USBFS_drv.c ****     }
 367:.\Generated_Source\PSoC5/USBFS_drv.c ****     else
 368:.\Generated_Source\PSoC5/USBFS_drv.c ****     {
 369:.\Generated_Source\PSoC5/USBFS_drv.c ****         /* Expect Status Stage Out */
 370:.\Generated_Source\PSoC5/USBFS_drv.c ****         USBFS_ep0Mode = USBFS_MODE_STATUS_OUT_ONLY;
 564              		.loc 1 370 0
 565 00a4 0C4B     		ldr	r3, .L53+20
 566 00a6 0222     		movs	r2, #2
 567 00a8 1A70     		strb	r2, [r3]
 371:.\Generated_Source\PSoC5/USBFS_drv.c ****         /* Update the state (or stay the same) */
 372:.\Generated_Source\PSoC5/USBFS_drv.c ****         USBFS_transferState = USBFS_TRANS_STATE_CONTROL_READ;
 568              		.loc 1 372 0
 569 00aa 0C4B     		ldr	r3, .L53+24
 570 00ac 0222     		movs	r2, #2
 571 00ae 1A70     		strb	r2, [r3]
 572              	.L52:
 373:.\Generated_Source\PSoC5/USBFS_drv.c ****     }
 374:.\Generated_Source\PSoC5/USBFS_drv.c **** 
 375:.\Generated_Source\PSoC5/USBFS_drv.c ****     /* Save the packet size for next time */
 376:.\Generated_Source\PSoC5/USBFS_drv.c ****     USBFS_lastPacketSize = USBFS_ep0Count;
 573              		.loc 1 376 0
 574 00b0 064B     		ldr	r3, .L53+8
 575 00b2 1B78     		ldrb	r3, [r3]
 576 00b4 DAB2     		uxtb	r2, r3
 577 00b6 034B     		ldr	r3, .L53
 578 00b8 1A70     		strb	r2, [r3]
 377:.\Generated_Source\PSoC5/USBFS_drv.c **** }
 579              		.loc 1 377 0
 580 00ba BD46     		mov	sp, r7
 581              		.cfi_def_cfa_register 13
 582              		@ sp needed
 583 00bc 5DF8047B 		ldr	r7, [sp], #4
 584              		.cfi_restore 7
 585              		.cfi_def_cfa_offset 0
 586 00c0 7047     		bx	lr
 587              	.L54:
 588 00c2 00BF     		.align	2
 589              	.L53:
 590 00c4 00000000 		.word	USBFS_lastPacketSize
ARM GAS  C:\USERS\LUKAS\APPDATA\LOCAL\TEMP\ccufjyak.s 			page 18


 591 00c8 00000000 		.word	USBFS_transferByteCount
 592 00cc 00000000 		.word	USBFS_ep0Count
 593 00d0 00000000 		.word	USBFS_currentTD
 594 00d4 00000000 		.word	USBFS_ep0Toggle
 595 00d8 00000000 		.word	USBFS_ep0Mode
 596 00dc 00000000 		.word	USBFS_transferState
 597              		.cfi_endproc
 598              	.LFE4:
 599              		.size	USBFS_LoadEP0, .-USBFS_LoadEP0
 600              		.section	.text.USBFS_InitControlRead,"ax",%progbits
 601              		.align	2
 602              		.global	USBFS_InitControlRead
 603              		.thumb
 604              		.thumb_func
 605              		.type	USBFS_InitControlRead, %function
 606              	USBFS_InitControlRead:
 607              	.LFB5:
 378:.\Generated_Source\PSoC5/USBFS_drv.c **** 
 379:.\Generated_Source\PSoC5/USBFS_drv.c **** 
 380:.\Generated_Source\PSoC5/USBFS_drv.c **** /*******************************************************************************
 381:.\Generated_Source\PSoC5/USBFS_drv.c **** * Function Name: USBFS_InitControlRead
 382:.\Generated_Source\PSoC5/USBFS_drv.c **** ********************************************************************************
 383:.\Generated_Source\PSoC5/USBFS_drv.c **** *
 384:.\Generated_Source\PSoC5/USBFS_drv.c **** * Summary:
 385:.\Generated_Source\PSoC5/USBFS_drv.c **** *  Initialize a control read transaction, usable to send data to the host.
 386:.\Generated_Source\PSoC5/USBFS_drv.c **** *  The following global variables shold be initialized before this function
 387:.\Generated_Source\PSoC5/USBFS_drv.c **** *  called. To send zero length packet use InitZeroLengthControlTransfer
 388:.\Generated_Source\PSoC5/USBFS_drv.c **** *  function.
 389:.\Generated_Source\PSoC5/USBFS_drv.c **** *
 390:.\Generated_Source\PSoC5/USBFS_drv.c **** * Parameters:
 391:.\Generated_Source\PSoC5/USBFS_drv.c **** *  None.
 392:.\Generated_Source\PSoC5/USBFS_drv.c **** *
 393:.\Generated_Source\PSoC5/USBFS_drv.c **** * Return:
 394:.\Generated_Source\PSoC5/USBFS_drv.c **** *  requestHandled state.
 395:.\Generated_Source\PSoC5/USBFS_drv.c **** *
 396:.\Generated_Source\PSoC5/USBFS_drv.c **** * Global variables:
 397:.\Generated_Source\PSoC5/USBFS_drv.c **** *  USBFS_currentTD.count - counts of data to be sent.
 398:.\Generated_Source\PSoC5/USBFS_drv.c **** *  USBFS_currentTD.pData - data pointer.
 399:.\Generated_Source\PSoC5/USBFS_drv.c **** *
 400:.\Generated_Source\PSoC5/USBFS_drv.c **** * Reentrant:
 401:.\Generated_Source\PSoC5/USBFS_drv.c **** *  No.
 402:.\Generated_Source\PSoC5/USBFS_drv.c **** *
 403:.\Generated_Source\PSoC5/USBFS_drv.c **** *******************************************************************************/
 404:.\Generated_Source\PSoC5/USBFS_drv.c **** uint8 USBFS_InitControlRead(void) 
 405:.\Generated_Source\PSoC5/USBFS_drv.c **** {
 608              		.loc 1 405 0
 609              		.cfi_startproc
 610              		@ args = 0, pretend = 0, frame = 8
 611              		@ frame_needed = 1, uses_anonymous_args = 0
 612 0000 80B5     		push	{r7, lr}
 613              		.cfi_def_cfa_offset 8
 614              		.cfi_offset 7, -8
 615              		.cfi_offset 14, -4
 616 0002 82B0     		sub	sp, sp, #8
 617              		.cfi_def_cfa_offset 16
 618 0004 00AF     		add	r7, sp, #0
 619              		.cfi_def_cfa_register 7
ARM GAS  C:\USERS\LUKAS\APPDATA\LOCAL\TEMP\ccufjyak.s 			page 19


 406:.\Generated_Source\PSoC5/USBFS_drv.c ****     uint16 xferCount;
 407:.\Generated_Source\PSoC5/USBFS_drv.c ****     if(USBFS_currentTD.count == 0)
 620              		.loc 1 407 0
 621 0006 164B     		ldr	r3, .L60
 622 0008 1B88     		ldrh	r3, [r3]	@ movhi
 623 000a 9BB2     		uxth	r3, r3
 624 000c 002B     		cmp	r3, #0
 625 000e 02D1     		bne	.L56
 408:.\Generated_Source\PSoC5/USBFS_drv.c ****     {
 409:.\Generated_Source\PSoC5/USBFS_drv.c ****         USBFS_InitZeroLengthControlTransfer();
 626              		.loc 1 409 0
 627 0010 FFF7FEFF 		bl	USBFS_InitZeroLengthControlTransfer
 628 0014 1EE0     		b	.L57
 629              	.L56:
 410:.\Generated_Source\PSoC5/USBFS_drv.c ****     }
 411:.\Generated_Source\PSoC5/USBFS_drv.c ****     else
 412:.\Generated_Source\PSoC5/USBFS_drv.c ****     {
 413:.\Generated_Source\PSoC5/USBFS_drv.c ****         /* Set up the state machine */
 414:.\Generated_Source\PSoC5/USBFS_drv.c ****         USBFS_transferState = USBFS_TRANS_STATE_CONTROL_READ;
 630              		.loc 1 414 0
 631 0016 134B     		ldr	r3, .L60+4
 632 0018 0222     		movs	r2, #2
 633 001a 1A70     		strb	r2, [r3]
 415:.\Generated_Source\PSoC5/USBFS_drv.c ****         /* Set the toggle, it gets updated in LoadEP */
 416:.\Generated_Source\PSoC5/USBFS_drv.c ****         USBFS_ep0Toggle = 0u;
 634              		.loc 1 416 0
 635 001c 124B     		ldr	r3, .L60+8
 636 001e 0022     		movs	r2, #0
 637 0020 1A70     		strb	r2, [r3]
 417:.\Generated_Source\PSoC5/USBFS_drv.c ****         /* Initialize the Status Block */
 418:.\Generated_Source\PSoC5/USBFS_drv.c ****         USBFS_InitializeStatusBlock();
 638              		.loc 1 418 0
 639 0022 FFF7FEFF 		bl	USBFS_InitializeStatusBlock
 419:.\Generated_Source\PSoC5/USBFS_drv.c ****         xferCount = (((uint16)CY_GET_REG8(USBFS_lengthHi) << 8u) | (CY_GET_REG8(USBFS_lengthLo)));
 640              		.loc 1 419 0
 641 0026 114B     		ldr	r3, .L60+12
 642 0028 1B78     		ldrb	r3, [r3]
 643 002a DBB2     		uxtb	r3, r3
 644 002c 1B02     		lsls	r3, r3, #8
 645 002e 9AB2     		uxth	r2, r3
 646 0030 0F4B     		ldr	r3, .L60+16
 647 0032 1B78     		ldrb	r3, [r3]
 648 0034 DBB2     		uxtb	r3, r3
 649 0036 9BB2     		uxth	r3, r3
 650 0038 1343     		orrs	r3, r3, r2
 651 003a 9BB2     		uxth	r3, r3
 652 003c FB80     		strh	r3, [r7, #6]	@ movhi
 420:.\Generated_Source\PSoC5/USBFS_drv.c **** 
 421:.\Generated_Source\PSoC5/USBFS_drv.c ****         if (USBFS_currentTD.count > xferCount)
 653              		.loc 1 421 0
 654 003e 084B     		ldr	r3, .L60
 655 0040 1B88     		ldrh	r3, [r3]	@ movhi
 656 0042 9BB2     		uxth	r3, r3
 657 0044 FA88     		ldrh	r2, [r7, #6]
 658 0046 9A42     		cmp	r2, r3
 659 0048 02D2     		bcs	.L58
 422:.\Generated_Source\PSoC5/USBFS_drv.c ****         {
ARM GAS  C:\USERS\LUKAS\APPDATA\LOCAL\TEMP\ccufjyak.s 			page 20


 423:.\Generated_Source\PSoC5/USBFS_drv.c ****             USBFS_currentTD.count = xferCount;
 660              		.loc 1 423 0
 661 004a 054A     		ldr	r2, .L60
 662 004c FB88     		ldrh	r3, [r7, #6]	@ movhi
 663 004e 1380     		strh	r3, [r2]	@ movhi
 664              	.L58:
 424:.\Generated_Source\PSoC5/USBFS_drv.c ****         }
 425:.\Generated_Source\PSoC5/USBFS_drv.c ****         USBFS_LoadEP0();
 665              		.loc 1 425 0
 666 0050 FFF7FEFF 		bl	USBFS_LoadEP0
 667              	.L57:
 426:.\Generated_Source\PSoC5/USBFS_drv.c ****     }
 427:.\Generated_Source\PSoC5/USBFS_drv.c **** 
 428:.\Generated_Source\PSoC5/USBFS_drv.c ****     return(USBFS_TRUE);
 668              		.loc 1 428 0
 669 0054 0123     		movs	r3, #1
 429:.\Generated_Source\PSoC5/USBFS_drv.c **** }
 670              		.loc 1 429 0
 671 0056 1846     		mov	r0, r3
 672 0058 0837     		adds	r7, r7, #8
 673              		.cfi_def_cfa_offset 8
 674 005a BD46     		mov	sp, r7
 675              		.cfi_def_cfa_register 13
 676              		@ sp needed
 677 005c 80BD     		pop	{r7, pc}
 678              	.L61:
 679 005e 00BF     		.align	2
 680              	.L60:
 681 0060 00000000 		.word	USBFS_currentTD
 682 0064 00000000 		.word	USBFS_transferState
 683 0068 00000000 		.word	USBFS_ep0Toggle
 684 006c 07600040 		.word	1073766407
 685 0070 06600040 		.word	1073766406
 686              		.cfi_endproc
 687              	.LFE5:
 688              		.size	USBFS_InitControlRead, .-USBFS_InitControlRead
 689              		.section	.text.USBFS_InitZeroLengthControlTransfer,"ax",%progbits
 690              		.align	2
 691              		.global	USBFS_InitZeroLengthControlTransfer
 692              		.thumb
 693              		.thumb_func
 694              		.type	USBFS_InitZeroLengthControlTransfer, %function
 695              	USBFS_InitZeroLengthControlTransfer:
 696              	.LFB6:
 430:.\Generated_Source\PSoC5/USBFS_drv.c **** 
 431:.\Generated_Source\PSoC5/USBFS_drv.c **** 
 432:.\Generated_Source\PSoC5/USBFS_drv.c **** /*******************************************************************************
 433:.\Generated_Source\PSoC5/USBFS_drv.c **** * Function Name: USBFS_InitZeroLengthControlTransfer
 434:.\Generated_Source\PSoC5/USBFS_drv.c **** ********************************************************************************
 435:.\Generated_Source\PSoC5/USBFS_drv.c **** *
 436:.\Generated_Source\PSoC5/USBFS_drv.c **** * Summary:
 437:.\Generated_Source\PSoC5/USBFS_drv.c **** *  Initialize a zero length data IN transfer.
 438:.\Generated_Source\PSoC5/USBFS_drv.c **** *
 439:.\Generated_Source\PSoC5/USBFS_drv.c **** * Parameters:
 440:.\Generated_Source\PSoC5/USBFS_drv.c **** *  None.
 441:.\Generated_Source\PSoC5/USBFS_drv.c **** *
 442:.\Generated_Source\PSoC5/USBFS_drv.c **** * Return:
ARM GAS  C:\USERS\LUKAS\APPDATA\LOCAL\TEMP\ccufjyak.s 			page 21


 443:.\Generated_Source\PSoC5/USBFS_drv.c **** *  requestHandled state.
 444:.\Generated_Source\PSoC5/USBFS_drv.c **** *
 445:.\Generated_Source\PSoC5/USBFS_drv.c **** * Global variables:
 446:.\Generated_Source\PSoC5/USBFS_drv.c **** *  USBFS_ep0Toggle - set to EP0_CNT_DATA_TOGGLE
 447:.\Generated_Source\PSoC5/USBFS_drv.c **** *  USBFS_ep0Mode  - prepare for mode register content.
 448:.\Generated_Source\PSoC5/USBFS_drv.c **** *  USBFS_transferState - set to TRANS_STATE_CONTROL_READ
 449:.\Generated_Source\PSoC5/USBFS_drv.c **** *  USBFS_ep0Count - cleared, means the zero-length packet.
 450:.\Generated_Source\PSoC5/USBFS_drv.c **** *  USBFS_lastPacketSize - cleared.
 451:.\Generated_Source\PSoC5/USBFS_drv.c **** *
 452:.\Generated_Source\PSoC5/USBFS_drv.c **** * Reentrant:
 453:.\Generated_Source\PSoC5/USBFS_drv.c **** *  No.
 454:.\Generated_Source\PSoC5/USBFS_drv.c **** *
 455:.\Generated_Source\PSoC5/USBFS_drv.c **** *******************************************************************************/
 456:.\Generated_Source\PSoC5/USBFS_drv.c **** uint8 USBFS_InitZeroLengthControlTransfer(void)
 457:.\Generated_Source\PSoC5/USBFS_drv.c ****                                                 
 458:.\Generated_Source\PSoC5/USBFS_drv.c **** {
 697              		.loc 1 458 0
 698              		.cfi_startproc
 699              		@ args = 0, pretend = 0, frame = 0
 700              		@ frame_needed = 1, uses_anonymous_args = 0
 701              		@ link register save eliminated.
 702 0000 80B4     		push	{r7}
 703              		.cfi_def_cfa_offset 4
 704              		.cfi_offset 7, -4
 705 0002 00AF     		add	r7, sp, #0
 706              		.cfi_def_cfa_register 7
 459:.\Generated_Source\PSoC5/USBFS_drv.c ****     /* Update the state */
 460:.\Generated_Source\PSoC5/USBFS_drv.c ****     USBFS_transferState = USBFS_TRANS_STATE_CONTROL_READ;
 707              		.loc 1 460 0
 708 0004 0A4B     		ldr	r3, .L64
 709 0006 0222     		movs	r2, #2
 710 0008 1A70     		strb	r2, [r3]
 461:.\Generated_Source\PSoC5/USBFS_drv.c ****     /* Set the data toggle */
 462:.\Generated_Source\PSoC5/USBFS_drv.c ****     USBFS_ep0Toggle = USBFS_EP0_CNT_DATA_TOGGLE;
 711              		.loc 1 462 0
 712 000a 0A4B     		ldr	r3, .L64+4
 713 000c 8022     		movs	r2, #128
 714 000e 1A70     		strb	r2, [r3]
 463:.\Generated_Source\PSoC5/USBFS_drv.c ****     /* Set the Mode Register  */
 464:.\Generated_Source\PSoC5/USBFS_drv.c ****     USBFS_ep0Mode = USBFS_MODE_ACK_IN_STATUS_OUT;
 715              		.loc 1 464 0
 716 0010 094B     		ldr	r3, .L64+8
 717 0012 0F22     		movs	r2, #15
 718 0014 1A70     		strb	r2, [r3]
 465:.\Generated_Source\PSoC5/USBFS_drv.c ****     /* Save the packet size for next time */
 466:.\Generated_Source\PSoC5/USBFS_drv.c ****     USBFS_lastPacketSize = 0u;
 719              		.loc 1 466 0
 720 0016 094B     		ldr	r3, .L64+12
 721 0018 0022     		movs	r2, #0
 722 001a 1A70     		strb	r2, [r3]
 467:.\Generated_Source\PSoC5/USBFS_drv.c ****     USBFS_ep0Count = 0u;
 723              		.loc 1 467 0
 724 001c 084B     		ldr	r3, .L64+16
 725 001e 0022     		movs	r2, #0
 726 0020 1A70     		strb	r2, [r3]
 468:.\Generated_Source\PSoC5/USBFS_drv.c **** 
 469:.\Generated_Source\PSoC5/USBFS_drv.c ****     return(USBFS_TRUE);
ARM GAS  C:\USERS\LUKAS\APPDATA\LOCAL\TEMP\ccufjyak.s 			page 22


 727              		.loc 1 469 0
 728 0022 0123     		movs	r3, #1
 470:.\Generated_Source\PSoC5/USBFS_drv.c **** }
 729              		.loc 1 470 0
 730 0024 1846     		mov	r0, r3
 731 0026 BD46     		mov	sp, r7
 732              		.cfi_def_cfa_register 13
 733              		@ sp needed
 734 0028 5DF8047B 		ldr	r7, [sp], #4
 735              		.cfi_restore 7
 736              		.cfi_def_cfa_offset 0
 737 002c 7047     		bx	lr
 738              	.L65:
 739 002e 00BF     		.align	2
 740              	.L64:
 741 0030 00000000 		.word	USBFS_transferState
 742 0034 00000000 		.word	USBFS_ep0Toggle
 743 0038 00000000 		.word	USBFS_ep0Mode
 744 003c 00000000 		.word	USBFS_lastPacketSize
 745 0040 00000000 		.word	USBFS_ep0Count
 746              		.cfi_endproc
 747              	.LFE6:
 748              		.size	USBFS_InitZeroLengthControlTransfer, .-USBFS_InitZeroLengthControlTransfer
 749              		.section	.text.USBFS_ControlReadDataStage,"ax",%progbits
 750              		.align	2
 751              		.global	USBFS_ControlReadDataStage
 752              		.thumb
 753              		.thumb_func
 754              		.type	USBFS_ControlReadDataStage, %function
 755              	USBFS_ControlReadDataStage:
 756              	.LFB7:
 471:.\Generated_Source\PSoC5/USBFS_drv.c **** 
 472:.\Generated_Source\PSoC5/USBFS_drv.c **** 
 473:.\Generated_Source\PSoC5/USBFS_drv.c **** /*******************************************************************************
 474:.\Generated_Source\PSoC5/USBFS_drv.c **** * Function Name: USBFS_ControlReadDataStage
 475:.\Generated_Source\PSoC5/USBFS_drv.c **** ********************************************************************************
 476:.\Generated_Source\PSoC5/USBFS_drv.c **** *
 477:.\Generated_Source\PSoC5/USBFS_drv.c **** * Summary:
 478:.\Generated_Source\PSoC5/USBFS_drv.c **** *  Handle the Data Stage of a control read transfer.
 479:.\Generated_Source\PSoC5/USBFS_drv.c **** *
 480:.\Generated_Source\PSoC5/USBFS_drv.c **** * Parameters:
 481:.\Generated_Source\PSoC5/USBFS_drv.c **** *  None.
 482:.\Generated_Source\PSoC5/USBFS_drv.c **** *
 483:.\Generated_Source\PSoC5/USBFS_drv.c **** * Return:
 484:.\Generated_Source\PSoC5/USBFS_drv.c **** *  None.
 485:.\Generated_Source\PSoC5/USBFS_drv.c **** *
 486:.\Generated_Source\PSoC5/USBFS_drv.c **** * Reentrant:
 487:.\Generated_Source\PSoC5/USBFS_drv.c **** *  No.
 488:.\Generated_Source\PSoC5/USBFS_drv.c **** *
 489:.\Generated_Source\PSoC5/USBFS_drv.c **** *******************************************************************************/
 490:.\Generated_Source\PSoC5/USBFS_drv.c **** void USBFS_ControlReadDataStage(void) 
 491:.\Generated_Source\PSoC5/USBFS_drv.c **** 
 492:.\Generated_Source\PSoC5/USBFS_drv.c **** {
 757              		.loc 1 492 0
 758              		.cfi_startproc
 759              		@ args = 0, pretend = 0, frame = 0
 760              		@ frame_needed = 1, uses_anonymous_args = 0
ARM GAS  C:\USERS\LUKAS\APPDATA\LOCAL\TEMP\ccufjyak.s 			page 23


 761 0000 80B5     		push	{r7, lr}
 762              		.cfi_def_cfa_offset 8
 763              		.cfi_offset 7, -8
 764              		.cfi_offset 14, -4
 765 0002 00AF     		add	r7, sp, #0
 766              		.cfi_def_cfa_register 7
 493:.\Generated_Source\PSoC5/USBFS_drv.c ****     USBFS_LoadEP0();
 767              		.loc 1 493 0
 768 0004 FFF7FEFF 		bl	USBFS_LoadEP0
 494:.\Generated_Source\PSoC5/USBFS_drv.c **** }
 769              		.loc 1 494 0
 770 0008 80BD     		pop	{r7, pc}
 771              		.cfi_endproc
 772              	.LFE7:
 773              		.size	USBFS_ControlReadDataStage, .-USBFS_ControlReadDataStage
 774 000a 00BF     		.section	.text.USBFS_ControlReadStatusStage,"ax",%progbits
 775              		.align	2
 776              		.global	USBFS_ControlReadStatusStage
 777              		.thumb
 778              		.thumb_func
 779              		.type	USBFS_ControlReadStatusStage, %function
 780              	USBFS_ControlReadStatusStage:
 781              	.LFB8:
 495:.\Generated_Source\PSoC5/USBFS_drv.c **** 
 496:.\Generated_Source\PSoC5/USBFS_drv.c **** 
 497:.\Generated_Source\PSoC5/USBFS_drv.c **** /*******************************************************************************
 498:.\Generated_Source\PSoC5/USBFS_drv.c **** * Function Name: USBFS_ControlReadStatusStage
 499:.\Generated_Source\PSoC5/USBFS_drv.c **** ********************************************************************************
 500:.\Generated_Source\PSoC5/USBFS_drv.c **** *
 501:.\Generated_Source\PSoC5/USBFS_drv.c **** * Summary:
 502:.\Generated_Source\PSoC5/USBFS_drv.c **** *  Handle the Status Stage of a control read transfer.
 503:.\Generated_Source\PSoC5/USBFS_drv.c **** *
 504:.\Generated_Source\PSoC5/USBFS_drv.c **** * Parameters:
 505:.\Generated_Source\PSoC5/USBFS_drv.c **** *  None.
 506:.\Generated_Source\PSoC5/USBFS_drv.c **** *
 507:.\Generated_Source\PSoC5/USBFS_drv.c **** * Return:
 508:.\Generated_Source\PSoC5/USBFS_drv.c **** *  None.
 509:.\Generated_Source\PSoC5/USBFS_drv.c **** *
 510:.\Generated_Source\PSoC5/USBFS_drv.c **** * Global variables:
 511:.\Generated_Source\PSoC5/USBFS_drv.c **** *  USBFS_USBFS_transferByteCount - updated with last packet size.
 512:.\Generated_Source\PSoC5/USBFS_drv.c **** *  USBFS_transferState - set to TRANS_STATE_IDLE.
 513:.\Generated_Source\PSoC5/USBFS_drv.c **** *  USBFS_ep0Mode  - set to MODE_STALL_IN_OUT.
 514:.\Generated_Source\PSoC5/USBFS_drv.c **** *
 515:.\Generated_Source\PSoC5/USBFS_drv.c **** * Reentrant:
 516:.\Generated_Source\PSoC5/USBFS_drv.c **** *  No.
 517:.\Generated_Source\PSoC5/USBFS_drv.c **** *
 518:.\Generated_Source\PSoC5/USBFS_drv.c **** *******************************************************************************/
 519:.\Generated_Source\PSoC5/USBFS_drv.c **** void USBFS_ControlReadStatusStage(void) 
 520:.\Generated_Source\PSoC5/USBFS_drv.c **** {
 782              		.loc 1 520 0
 783              		.cfi_startproc
 784              		@ args = 0, pretend = 0, frame = 0
 785              		@ frame_needed = 1, uses_anonymous_args = 0
 786 0000 80B5     		push	{r7, lr}
 787              		.cfi_def_cfa_offset 8
 788              		.cfi_offset 7, -8
 789              		.cfi_offset 14, -4
ARM GAS  C:\USERS\LUKAS\APPDATA\LOCAL\TEMP\ccufjyak.s 			page 24


 790 0002 00AF     		add	r7, sp, #0
 791              		.cfi_def_cfa_register 7
 521:.\Generated_Source\PSoC5/USBFS_drv.c ****     /* Update the transfer byte count */
 522:.\Generated_Source\PSoC5/USBFS_drv.c ****     USBFS_transferByteCount += USBFS_lastPacketSize;
 792              		.loc 1 522 0
 793 0004 0A4B     		ldr	r3, .L68
 794 0006 1B78     		ldrb	r3, [r3]
 795 0008 DBB2     		uxtb	r3, r3
 796 000a 9AB2     		uxth	r2, r3
 797 000c 094B     		ldr	r3, .L68+4
 798 000e 1B88     		ldrh	r3, [r3]	@ movhi
 799 0010 9BB2     		uxth	r3, r3
 800 0012 1344     		add	r3, r3, r2
 801 0014 9AB2     		uxth	r2, r3
 802 0016 074B     		ldr	r3, .L68+4
 803 0018 1A80     		strh	r2, [r3]	@ movhi
 523:.\Generated_Source\PSoC5/USBFS_drv.c ****     /* Go Idle */
 524:.\Generated_Source\PSoC5/USBFS_drv.c ****     USBFS_transferState = USBFS_TRANS_STATE_IDLE;
 804              		.loc 1 524 0
 805 001a 074B     		ldr	r3, .L68+8
 806 001c 0022     		movs	r2, #0
 807 001e 1A70     		strb	r2, [r3]
 525:.\Generated_Source\PSoC5/USBFS_drv.c ****     /* Update the completion block */
 526:.\Generated_Source\PSoC5/USBFS_drv.c ****     USBFS_UpdateStatusBlock(USBFS_XFER_STATUS_ACK);
 808              		.loc 1 526 0
 809 0020 0120     		movs	r0, #1
 810 0022 FFF7FEFF 		bl	USBFS_UpdateStatusBlock
 527:.\Generated_Source\PSoC5/USBFS_drv.c ****      /* We expect no more data, so stall INs and OUTs */
 528:.\Generated_Source\PSoC5/USBFS_drv.c ****     USBFS_ep0Mode =  USBFS_MODE_STALL_IN_OUT;
 811              		.loc 1 528 0
 812 0026 054B     		ldr	r3, .L68+12
 813 0028 0322     		movs	r2, #3
 814 002a 1A70     		strb	r2, [r3]
 529:.\Generated_Source\PSoC5/USBFS_drv.c **** }
 815              		.loc 1 529 0
 816 002c 80BD     		pop	{r7, pc}
 817              	.L69:
 818 002e 00BF     		.align	2
 819              	.L68:
 820 0030 00000000 		.word	USBFS_lastPacketSize
 821 0034 00000000 		.word	USBFS_transferByteCount
 822 0038 00000000 		.word	USBFS_transferState
 823 003c 00000000 		.word	USBFS_ep0Mode
 824              		.cfi_endproc
 825              	.LFE8:
 826              		.size	USBFS_ControlReadStatusStage, .-USBFS_ControlReadStatusStage
 827              		.section	.text.USBFS_InitControlWrite,"ax",%progbits
 828              		.align	2
 829              		.global	USBFS_InitControlWrite
 830              		.thumb
 831              		.thumb_func
 832              		.type	USBFS_InitControlWrite, %function
 833              	USBFS_InitControlWrite:
 834              	.LFB9:
 530:.\Generated_Source\PSoC5/USBFS_drv.c **** 
 531:.\Generated_Source\PSoC5/USBFS_drv.c **** 
 532:.\Generated_Source\PSoC5/USBFS_drv.c **** /*******************************************************************************
ARM GAS  C:\USERS\LUKAS\APPDATA\LOCAL\TEMP\ccufjyak.s 			page 25


 533:.\Generated_Source\PSoC5/USBFS_drv.c **** * Function Name: USBFS_InitControlWrite
 534:.\Generated_Source\PSoC5/USBFS_drv.c **** ********************************************************************************
 535:.\Generated_Source\PSoC5/USBFS_drv.c **** *
 536:.\Generated_Source\PSoC5/USBFS_drv.c **** * Summary:
 537:.\Generated_Source\PSoC5/USBFS_drv.c **** *  Initialize a control write transaction
 538:.\Generated_Source\PSoC5/USBFS_drv.c **** *
 539:.\Generated_Source\PSoC5/USBFS_drv.c **** * Parameters:
 540:.\Generated_Source\PSoC5/USBFS_drv.c **** *  None.
 541:.\Generated_Source\PSoC5/USBFS_drv.c **** *
 542:.\Generated_Source\PSoC5/USBFS_drv.c **** * Return:
 543:.\Generated_Source\PSoC5/USBFS_drv.c **** *  requestHandled state.
 544:.\Generated_Source\PSoC5/USBFS_drv.c **** *
 545:.\Generated_Source\PSoC5/USBFS_drv.c **** * Global variables:
 546:.\Generated_Source\PSoC5/USBFS_drv.c **** *  USBFS_USBFS_transferState - set to TRANS_STATE_CONTROL_WRITE
 547:.\Generated_Source\PSoC5/USBFS_drv.c **** *  USBFS_ep0Toggle - set to EP0_CNT_DATA_TOGGLE
 548:.\Generated_Source\PSoC5/USBFS_drv.c **** *  USBFS_ep0Mode  - set to MODE_ACK_OUT_STATUS_IN
 549:.\Generated_Source\PSoC5/USBFS_drv.c **** *
 550:.\Generated_Source\PSoC5/USBFS_drv.c **** * Reentrant:
 551:.\Generated_Source\PSoC5/USBFS_drv.c **** *  No.
 552:.\Generated_Source\PSoC5/USBFS_drv.c **** *
 553:.\Generated_Source\PSoC5/USBFS_drv.c **** *******************************************************************************/
 554:.\Generated_Source\PSoC5/USBFS_drv.c **** uint8 USBFS_InitControlWrite(void) 
 555:.\Generated_Source\PSoC5/USBFS_drv.c **** {
 835              		.loc 1 555 0
 836              		.cfi_startproc
 837              		@ args = 0, pretend = 0, frame = 8
 838              		@ frame_needed = 1, uses_anonymous_args = 0
 839 0000 80B5     		push	{r7, lr}
 840              		.cfi_def_cfa_offset 8
 841              		.cfi_offset 7, -8
 842              		.cfi_offset 14, -4
 843 0002 82B0     		sub	sp, sp, #8
 844              		.cfi_def_cfa_offset 16
 845 0004 00AF     		add	r7, sp, #0
 846              		.cfi_def_cfa_register 7
 556:.\Generated_Source\PSoC5/USBFS_drv.c ****     uint16 xferCount;
 557:.\Generated_Source\PSoC5/USBFS_drv.c **** 
 558:.\Generated_Source\PSoC5/USBFS_drv.c ****     /* Set up the state machine */
 559:.\Generated_Source\PSoC5/USBFS_drv.c ****     USBFS_transferState = USBFS_TRANS_STATE_CONTROL_WRITE;
 847              		.loc 1 559 0
 848 0006 124B     		ldr	r3, .L73
 849 0008 0422     		movs	r2, #4
 850 000a 1A70     		strb	r2, [r3]
 560:.\Generated_Source\PSoC5/USBFS_drv.c ****     /* This migh not be necessary */
 561:.\Generated_Source\PSoC5/USBFS_drv.c ****     USBFS_ep0Toggle = USBFS_EP0_CNT_DATA_TOGGLE;
 851              		.loc 1 561 0
 852 000c 114B     		ldr	r3, .L73+4
 853 000e 8022     		movs	r2, #128
 854 0010 1A70     		strb	r2, [r3]
 562:.\Generated_Source\PSoC5/USBFS_drv.c ****     /* Initialize the Status Block */
 563:.\Generated_Source\PSoC5/USBFS_drv.c ****     USBFS_InitializeStatusBlock();
 855              		.loc 1 563 0
 856 0012 FFF7FEFF 		bl	USBFS_InitializeStatusBlock
 564:.\Generated_Source\PSoC5/USBFS_drv.c **** 
 565:.\Generated_Source\PSoC5/USBFS_drv.c ****     xferCount = (((uint16)CY_GET_REG8(USBFS_lengthHi) << 8u) | (CY_GET_REG8(USBFS_lengthLo)));
 857              		.loc 1 565 0
 858 0016 104B     		ldr	r3, .L73+8
ARM GAS  C:\USERS\LUKAS\APPDATA\LOCAL\TEMP\ccufjyak.s 			page 26


 859 0018 1B78     		ldrb	r3, [r3]
 860 001a DBB2     		uxtb	r3, r3
 861 001c 1B02     		lsls	r3, r3, #8
 862 001e 9AB2     		uxth	r2, r3
 863 0020 0E4B     		ldr	r3, .L73+12
 864 0022 1B78     		ldrb	r3, [r3]
 865 0024 DBB2     		uxtb	r3, r3
 866 0026 9BB2     		uxth	r3, r3
 867 0028 1343     		orrs	r3, r3, r2
 868 002a 9BB2     		uxth	r3, r3
 869 002c FB80     		strh	r3, [r7, #6]	@ movhi
 566:.\Generated_Source\PSoC5/USBFS_drv.c **** 
 567:.\Generated_Source\PSoC5/USBFS_drv.c ****     if (USBFS_currentTD.count > xferCount)
 870              		.loc 1 567 0
 871 002e 0C4B     		ldr	r3, .L73+16
 872 0030 1B88     		ldrh	r3, [r3]	@ movhi
 873 0032 9BB2     		uxth	r3, r3
 874 0034 FA88     		ldrh	r2, [r7, #6]
 875 0036 9A42     		cmp	r2, r3
 876 0038 02D2     		bcs	.L71
 568:.\Generated_Source\PSoC5/USBFS_drv.c ****     {
 569:.\Generated_Source\PSoC5/USBFS_drv.c ****         USBFS_currentTD.count = xferCount;
 877              		.loc 1 569 0
 878 003a 094A     		ldr	r2, .L73+16
 879 003c FB88     		ldrh	r3, [r7, #6]	@ movhi
 880 003e 1380     		strh	r3, [r2]	@ movhi
 881              	.L71:
 570:.\Generated_Source\PSoC5/USBFS_drv.c ****     }
 571:.\Generated_Source\PSoC5/USBFS_drv.c **** 
 572:.\Generated_Source\PSoC5/USBFS_drv.c ****     /* Expect Data or Status Stage */
 573:.\Generated_Source\PSoC5/USBFS_drv.c ****     USBFS_ep0Mode = USBFS_MODE_ACK_OUT_STATUS_IN;
 882              		.loc 1 573 0
 883 0040 084B     		ldr	r3, .L73+20
 884 0042 0B22     		movs	r2, #11
 885 0044 1A70     		strb	r2, [r3]
 574:.\Generated_Source\PSoC5/USBFS_drv.c **** 
 575:.\Generated_Source\PSoC5/USBFS_drv.c ****     return(USBFS_TRUE);
 886              		.loc 1 575 0
 887 0046 0123     		movs	r3, #1
 576:.\Generated_Source\PSoC5/USBFS_drv.c **** }
 888              		.loc 1 576 0
 889 0048 1846     		mov	r0, r3
 890 004a 0837     		adds	r7, r7, #8
 891              		.cfi_def_cfa_offset 8
 892 004c BD46     		mov	sp, r7
 893              		.cfi_def_cfa_register 13
 894              		@ sp needed
 895 004e 80BD     		pop	{r7, pc}
 896              	.L74:
 897              		.align	2
 898              	.L73:
 899 0050 00000000 		.word	USBFS_transferState
 900 0054 00000000 		.word	USBFS_ep0Toggle
 901 0058 07600040 		.word	1073766407
 902 005c 06600040 		.word	1073766406
 903 0060 00000000 		.word	USBFS_currentTD
 904 0064 00000000 		.word	USBFS_ep0Mode
ARM GAS  C:\USERS\LUKAS\APPDATA\LOCAL\TEMP\ccufjyak.s 			page 27


 905              		.cfi_endproc
 906              	.LFE9:
 907              		.size	USBFS_InitControlWrite, .-USBFS_InitControlWrite
 908              		.section	.text.USBFS_ControlWriteDataStage,"ax",%progbits
 909              		.align	2
 910              		.global	USBFS_ControlWriteDataStage
 911              		.thumb
 912              		.thumb_func
 913              		.type	USBFS_ControlWriteDataStage, %function
 914              	USBFS_ControlWriteDataStage:
 915              	.LFB10:
 577:.\Generated_Source\PSoC5/USBFS_drv.c **** 
 578:.\Generated_Source\PSoC5/USBFS_drv.c **** 
 579:.\Generated_Source\PSoC5/USBFS_drv.c **** /*******************************************************************************
 580:.\Generated_Source\PSoC5/USBFS_drv.c **** * Function Name: USBFS_ControlWriteDataStage
 581:.\Generated_Source\PSoC5/USBFS_drv.c **** ********************************************************************************
 582:.\Generated_Source\PSoC5/USBFS_drv.c **** *
 583:.\Generated_Source\PSoC5/USBFS_drv.c **** * Summary:
 584:.\Generated_Source\PSoC5/USBFS_drv.c **** *  Handle the Data Stage of a control write transfer
 585:.\Generated_Source\PSoC5/USBFS_drv.c **** *       1. Get the data (We assume the destination was validated previously)
 586:.\Generated_Source\PSoC5/USBFS_drv.c **** *       2. Update the count and data toggle
 587:.\Generated_Source\PSoC5/USBFS_drv.c **** *       3. Update the mode register for the next transaction
 588:.\Generated_Source\PSoC5/USBFS_drv.c **** *
 589:.\Generated_Source\PSoC5/USBFS_drv.c **** * Parameters:
 590:.\Generated_Source\PSoC5/USBFS_drv.c **** *  None.
 591:.\Generated_Source\PSoC5/USBFS_drv.c **** *
 592:.\Generated_Source\PSoC5/USBFS_drv.c **** * Return:
 593:.\Generated_Source\PSoC5/USBFS_drv.c **** *  None.
 594:.\Generated_Source\PSoC5/USBFS_drv.c **** *
 595:.\Generated_Source\PSoC5/USBFS_drv.c **** * Global variables:
 596:.\Generated_Source\PSoC5/USBFS_drv.c **** *  USBFS_transferByteCount - Update the transfer byte count from the
 597:.\Generated_Source\PSoC5/USBFS_drv.c **** *    last transaction.
 598:.\Generated_Source\PSoC5/USBFS_drv.c **** *  USBFS_ep0Count - counts the data loaded from the SIE memory
 599:.\Generated_Source\PSoC5/USBFS_drv.c **** *    in current packet.
 600:.\Generated_Source\PSoC5/USBFS_drv.c **** *  USBFS_transferByteCount - suma of the previos bytes transferred
 601:.\Generated_Source\PSoC5/USBFS_drv.c **** *    on previous packets(suma of USBFS_lastPacketSize)
 602:.\Generated_Source\PSoC5/USBFS_drv.c **** *  USBFS_ep0Toggle - inverted
 603:.\Generated_Source\PSoC5/USBFS_drv.c **** *  USBFS_ep0Mode  - set to MODE_ACK_OUT_STATUS_IN.
 604:.\Generated_Source\PSoC5/USBFS_drv.c **** *
 605:.\Generated_Source\PSoC5/USBFS_drv.c **** * Reentrant:
 606:.\Generated_Source\PSoC5/USBFS_drv.c **** *  No.
 607:.\Generated_Source\PSoC5/USBFS_drv.c **** *
 608:.\Generated_Source\PSoC5/USBFS_drv.c **** *******************************************************************************/
 609:.\Generated_Source\PSoC5/USBFS_drv.c **** void USBFS_ControlWriteDataStage(void) 
 610:.\Generated_Source\PSoC5/USBFS_drv.c **** {
 916              		.loc 1 610 0
 917              		.cfi_startproc
 918              		@ args = 0, pretend = 0, frame = 8
 919              		@ frame_needed = 1, uses_anonymous_args = 0
 920              		@ link register save eliminated.
 921 0000 80B4     		push	{r7}
 922              		.cfi_def_cfa_offset 4
 923              		.cfi_offset 7, -4
 924 0002 83B0     		sub	sp, sp, #12
 925              		.cfi_def_cfa_offset 16
 926 0004 00AF     		add	r7, sp, #0
 927              		.cfi_def_cfa_register 7
ARM GAS  C:\USERS\LUKAS\APPDATA\LOCAL\TEMP\ccufjyak.s 			page 28


 611:.\Generated_Source\PSoC5/USBFS_drv.c ****     uint8 *pReg = (uint8 *)USBFS_EP0_DR0_PTR;
 928              		.loc 1 611 0
 929 0006 264B     		ldr	r3, .L79
 930 0008 7B60     		str	r3, [r7, #4]
 612:.\Generated_Source\PSoC5/USBFS_drv.c **** 
 613:.\Generated_Source\PSoC5/USBFS_drv.c ****     USBFS_ep0Count = (CY_GET_REG8(USBFS_EP0_CNT_PTR ) & 0x0Fu) - 2u;
 931              		.loc 1 613 0
 932 000a 264B     		ldr	r3, .L79+4
 933 000c 1B78     		ldrb	r3, [r3]
 934 000e DBB2     		uxtb	r3, r3
 935 0010 03F00F03 		and	r3, r3, #15
 936 0014 DBB2     		uxtb	r3, r3
 937 0016 023B     		subs	r3, r3, #2
 938 0018 DAB2     		uxtb	r2, r3
 939 001a 234B     		ldr	r3, .L79+8
 940 001c 1A70     		strb	r2, [r3]
 614:.\Generated_Source\PSoC5/USBFS_drv.c **** 
 615:.\Generated_Source\PSoC5/USBFS_drv.c ****     USBFS_transferByteCount += USBFS_ep0Count;
 941              		.loc 1 615 0
 942 001e 224B     		ldr	r3, .L79+8
 943 0020 1B78     		ldrb	r3, [r3]
 944 0022 DBB2     		uxtb	r3, r3
 945 0024 9AB2     		uxth	r2, r3
 946 0026 214B     		ldr	r3, .L79+12
 947 0028 1B88     		ldrh	r3, [r3]	@ movhi
 948 002a 9BB2     		uxth	r3, r3
 949 002c 1344     		add	r3, r3, r2
 950 002e 9AB2     		uxth	r2, r3
 951 0030 1E4B     		ldr	r3, .L79+12
 952 0032 1A80     		strh	r2, [r3]	@ movhi
 616:.\Generated_Source\PSoC5/USBFS_drv.c **** 
 617:.\Generated_Source\PSoC5/USBFS_drv.c ****     while ((USBFS_currentTD.count > 0u) && (USBFS_ep0Count > 0u))
 953              		.loc 1 617 0
 954 0034 18E0     		b	.L76
 955              	.L78:
 618:.\Generated_Source\PSoC5/USBFS_drv.c ****     {
 619:.\Generated_Source\PSoC5/USBFS_drv.c ****         *USBFS_currentTD.pData++ = CY_GET_REG8(pReg++);
 956              		.loc 1 619 0
 957 0036 1E4B     		ldr	r3, .L79+16
 958 0038 5B68     		ldr	r3, [r3, #4]
 959 003a 5A1C     		adds	r2, r3, #1
 960 003c 1C49     		ldr	r1, .L79+16
 961 003e 4A60     		str	r2, [r1, #4]
 962 0040 7A68     		ldr	r2, [r7, #4]
 963 0042 511C     		adds	r1, r2, #1
 964 0044 7960     		str	r1, [r7, #4]
 965 0046 1278     		ldrb	r2, [r2]
 966 0048 D2B2     		uxtb	r2, r2
 967 004a 1A70     		strb	r2, [r3]
 620:.\Generated_Source\PSoC5/USBFS_drv.c ****         USBFS_ep0Count--;
 968              		.loc 1 620 0
 969 004c 164B     		ldr	r3, .L79+8
 970 004e 1B78     		ldrb	r3, [r3]
 971 0050 DBB2     		uxtb	r3, r3
 972 0052 013B     		subs	r3, r3, #1
 973 0054 DAB2     		uxtb	r2, r3
 974 0056 144B     		ldr	r3, .L79+8
ARM GAS  C:\USERS\LUKAS\APPDATA\LOCAL\TEMP\ccufjyak.s 			page 29


 975 0058 1A70     		strb	r2, [r3]
 621:.\Generated_Source\PSoC5/USBFS_drv.c ****         USBFS_currentTD.count--;
 976              		.loc 1 621 0
 977 005a 154B     		ldr	r3, .L79+16
 978 005c 1B88     		ldrh	r3, [r3]	@ movhi
 979 005e 9BB2     		uxth	r3, r3
 980 0060 013B     		subs	r3, r3, #1
 981 0062 9AB2     		uxth	r2, r3
 982 0064 124B     		ldr	r3, .L79+16
 983 0066 1A80     		strh	r2, [r3]	@ movhi
 984              	.L76:
 617:.\Generated_Source\PSoC5/USBFS_drv.c ****     {
 985              		.loc 1 617 0
 986 0068 114B     		ldr	r3, .L79+16
 987 006a 1B88     		ldrh	r3, [r3]	@ movhi
 988 006c 9BB2     		uxth	r3, r3
 989 006e 002B     		cmp	r3, #0
 990 0070 04D0     		beq	.L77
 617:.\Generated_Source\PSoC5/USBFS_drv.c ****     {
 991              		.loc 1 617 0 is_stmt 0 discriminator 1
 992 0072 0D4B     		ldr	r3, .L79+8
 993 0074 1B78     		ldrb	r3, [r3]
 994 0076 DBB2     		uxtb	r3, r3
 995 0078 002B     		cmp	r3, #0
 996 007a DCD1     		bne	.L78
 997              	.L77:
 622:.\Generated_Source\PSoC5/USBFS_drv.c ****     }
 623:.\Generated_Source\PSoC5/USBFS_drv.c ****     /* Update the data toggle */
 624:.\Generated_Source\PSoC5/USBFS_drv.c ****     USBFS_ep0Toggle ^= USBFS_EP0_CNT_DATA_TOGGLE;
 998              		.loc 1 624 0 is_stmt 1
 999 007c 0D4B     		ldr	r3, .L79+20
 1000 007e 1B78     		ldrb	r3, [r3]
 1001 0080 DBB2     		uxtb	r3, r3
 1002 0082 83F07F03 		eor	r3, r3, #127
 1003 0086 DB43     		mvns	r3, r3
 1004 0088 DAB2     		uxtb	r2, r3
 1005 008a 0A4B     		ldr	r3, .L79+20
 1006 008c 1A70     		strb	r2, [r3]
 625:.\Generated_Source\PSoC5/USBFS_drv.c ****     /* Expect Data or Status Stage */
 626:.\Generated_Source\PSoC5/USBFS_drv.c ****     USBFS_ep0Mode = USBFS_MODE_ACK_OUT_STATUS_IN;
 1007              		.loc 1 626 0
 1008 008e 0A4B     		ldr	r3, .L79+24
 1009 0090 0B22     		movs	r2, #11
 1010 0092 1A70     		strb	r2, [r3]
 627:.\Generated_Source\PSoC5/USBFS_drv.c **** }
 1011              		.loc 1 627 0
 1012 0094 0C37     		adds	r7, r7, #12
 1013              		.cfi_def_cfa_offset 4
 1014 0096 BD46     		mov	sp, r7
 1015              		.cfi_def_cfa_register 13
 1016              		@ sp needed
 1017 0098 5DF8047B 		ldr	r7, [sp], #4
 1018              		.cfi_restore 7
 1019              		.cfi_def_cfa_offset 0
 1020 009c 7047     		bx	lr
 1021              	.L80:
 1022 009e 00BF     		.align	2
ARM GAS  C:\USERS\LUKAS\APPDATA\LOCAL\TEMP\ccufjyak.s 			page 30


 1023              	.L79:
 1024 00a0 00600040 		.word	1073766400
 1025 00a4 29600040 		.word	1073766441
 1026 00a8 00000000 		.word	USBFS_ep0Count
 1027 00ac 00000000 		.word	USBFS_transferByteCount
 1028 00b0 00000000 		.word	USBFS_currentTD
 1029 00b4 00000000 		.word	USBFS_ep0Toggle
 1030 00b8 00000000 		.word	USBFS_ep0Mode
 1031              		.cfi_endproc
 1032              	.LFE10:
 1033              		.size	USBFS_ControlWriteDataStage, .-USBFS_ControlWriteDataStage
 1034              		.section	.text.USBFS_ControlWriteStatusStage,"ax",%progbits
 1035              		.align	2
 1036              		.global	USBFS_ControlWriteStatusStage
 1037              		.thumb
 1038              		.thumb_func
 1039              		.type	USBFS_ControlWriteStatusStage, %function
 1040              	USBFS_ControlWriteStatusStage:
 1041              	.LFB11:
 628:.\Generated_Source\PSoC5/USBFS_drv.c **** 
 629:.\Generated_Source\PSoC5/USBFS_drv.c **** 
 630:.\Generated_Source\PSoC5/USBFS_drv.c **** /*******************************************************************************
 631:.\Generated_Source\PSoC5/USBFS_drv.c **** * Function Name: USBFS_ControlWriteStatusStage
 632:.\Generated_Source\PSoC5/USBFS_drv.c **** ********************************************************************************
 633:.\Generated_Source\PSoC5/USBFS_drv.c **** *
 634:.\Generated_Source\PSoC5/USBFS_drv.c **** * Summary:
 635:.\Generated_Source\PSoC5/USBFS_drv.c **** *  Handle the Status Stage of a control write transfer
 636:.\Generated_Source\PSoC5/USBFS_drv.c **** *
 637:.\Generated_Source\PSoC5/USBFS_drv.c **** * Parameters:
 638:.\Generated_Source\PSoC5/USBFS_drv.c **** *  None.
 639:.\Generated_Source\PSoC5/USBFS_drv.c **** *
 640:.\Generated_Source\PSoC5/USBFS_drv.c **** * Return:
 641:.\Generated_Source\PSoC5/USBFS_drv.c **** *  None.
 642:.\Generated_Source\PSoC5/USBFS_drv.c **** *
 643:.\Generated_Source\PSoC5/USBFS_drv.c **** * Global variables:
 644:.\Generated_Source\PSoC5/USBFS_drv.c **** *  USBFS_transferState - set to TRANS_STATE_IDLE.
 645:.\Generated_Source\PSoC5/USBFS_drv.c **** *  USBFS_USBFS_ep0Mode  - set to MODE_STALL_IN_OUT.
 646:.\Generated_Source\PSoC5/USBFS_drv.c **** *
 647:.\Generated_Source\PSoC5/USBFS_drv.c **** * Reentrant:
 648:.\Generated_Source\PSoC5/USBFS_drv.c **** *  No.
 649:.\Generated_Source\PSoC5/USBFS_drv.c **** *
 650:.\Generated_Source\PSoC5/USBFS_drv.c **** *******************************************************************************/
 651:.\Generated_Source\PSoC5/USBFS_drv.c **** void USBFS_ControlWriteStatusStage(void) 
 652:.\Generated_Source\PSoC5/USBFS_drv.c **** {
 1042              		.loc 1 652 0
 1043              		.cfi_startproc
 1044              		@ args = 0, pretend = 0, frame = 0
 1045              		@ frame_needed = 1, uses_anonymous_args = 0
 1046 0000 80B5     		push	{r7, lr}
 1047              		.cfi_def_cfa_offset 8
 1048              		.cfi_offset 7, -8
 1049              		.cfi_offset 14, -4
 1050 0002 00AF     		add	r7, sp, #0
 1051              		.cfi_def_cfa_register 7
 653:.\Generated_Source\PSoC5/USBFS_drv.c ****     /* Go Idle */
 654:.\Generated_Source\PSoC5/USBFS_drv.c ****     USBFS_transferState = USBFS_TRANS_STATE_IDLE;
 1052              		.loc 1 654 0
ARM GAS  C:\USERS\LUKAS\APPDATA\LOCAL\TEMP\ccufjyak.s 			page 31


 1053 0004 044B     		ldr	r3, .L82
 1054 0006 0022     		movs	r2, #0
 1055 0008 1A70     		strb	r2, [r3]
 655:.\Generated_Source\PSoC5/USBFS_drv.c ****     /* Update the completion block */
 656:.\Generated_Source\PSoC5/USBFS_drv.c ****     USBFS_UpdateStatusBlock(USBFS_XFER_STATUS_ACK);
 1056              		.loc 1 656 0
 1057 000a 0120     		movs	r0, #1
 1058 000c FFF7FEFF 		bl	USBFS_UpdateStatusBlock
 657:.\Generated_Source\PSoC5/USBFS_drv.c ****      /* We expect no more data, so stall INs and OUTs */
 658:.\Generated_Source\PSoC5/USBFS_drv.c ****     USBFS_ep0Mode = USBFS_MODE_STALL_IN_OUT;
 1059              		.loc 1 658 0
 1060 0010 024B     		ldr	r3, .L82+4
 1061 0012 0322     		movs	r2, #3
 1062 0014 1A70     		strb	r2, [r3]
 659:.\Generated_Source\PSoC5/USBFS_drv.c **** }
 1063              		.loc 1 659 0
 1064 0016 80BD     		pop	{r7, pc}
 1065              	.L83:
 1066              		.align	2
 1067              	.L82:
 1068 0018 00000000 		.word	USBFS_transferState
 1069 001c 00000000 		.word	USBFS_ep0Mode
 1070              		.cfi_endproc
 1071              	.LFE11:
 1072              		.size	USBFS_ControlWriteStatusStage, .-USBFS_ControlWriteStatusStage
 1073              		.section	.text.USBFS_InitNoDataControlTransfer,"ax",%progbits
 1074              		.align	2
 1075              		.global	USBFS_InitNoDataControlTransfer
 1076              		.thumb
 1077              		.thumb_func
 1078              		.type	USBFS_InitNoDataControlTransfer, %function
 1079              	USBFS_InitNoDataControlTransfer:
 1080              	.LFB12:
 660:.\Generated_Source\PSoC5/USBFS_drv.c **** 
 661:.\Generated_Source\PSoC5/USBFS_drv.c **** 
 662:.\Generated_Source\PSoC5/USBFS_drv.c **** /*******************************************************************************
 663:.\Generated_Source\PSoC5/USBFS_drv.c **** * Function Name: USBFS_InitNoDataControlTransfer
 664:.\Generated_Source\PSoC5/USBFS_drv.c **** ********************************************************************************
 665:.\Generated_Source\PSoC5/USBFS_drv.c **** *
 666:.\Generated_Source\PSoC5/USBFS_drv.c **** * Summary:
 667:.\Generated_Source\PSoC5/USBFS_drv.c **** *  Initialize a no data control transfer
 668:.\Generated_Source\PSoC5/USBFS_drv.c **** *
 669:.\Generated_Source\PSoC5/USBFS_drv.c **** * Parameters:
 670:.\Generated_Source\PSoC5/USBFS_drv.c **** *  None.
 671:.\Generated_Source\PSoC5/USBFS_drv.c **** *
 672:.\Generated_Source\PSoC5/USBFS_drv.c **** * Return:
 673:.\Generated_Source\PSoC5/USBFS_drv.c **** *  requestHandled state.
 674:.\Generated_Source\PSoC5/USBFS_drv.c **** *
 675:.\Generated_Source\PSoC5/USBFS_drv.c **** * Global variables:
 676:.\Generated_Source\PSoC5/USBFS_drv.c **** *  USBFS_transferState - set to TRANS_STATE_NO_DATA_CONTROL.
 677:.\Generated_Source\PSoC5/USBFS_drv.c **** *  USBFS_ep0Mode  - set to MODE_STATUS_IN_ONLY.
 678:.\Generated_Source\PSoC5/USBFS_drv.c **** *  USBFS_ep0Count - cleared.
 679:.\Generated_Source\PSoC5/USBFS_drv.c **** *  USBFS_ep0Toggle - set to EP0_CNT_DATA_TOGGLE
 680:.\Generated_Source\PSoC5/USBFS_drv.c **** *
 681:.\Generated_Source\PSoC5/USBFS_drv.c **** * Reentrant:
 682:.\Generated_Source\PSoC5/USBFS_drv.c **** *  No.
 683:.\Generated_Source\PSoC5/USBFS_drv.c **** *
ARM GAS  C:\USERS\LUKAS\APPDATA\LOCAL\TEMP\ccufjyak.s 			page 32


 684:.\Generated_Source\PSoC5/USBFS_drv.c **** *******************************************************************************/
 685:.\Generated_Source\PSoC5/USBFS_drv.c **** uint8 USBFS_InitNoDataControlTransfer(void) 
 686:.\Generated_Source\PSoC5/USBFS_drv.c **** {
 1081              		.loc 1 686 0
 1082              		.cfi_startproc
 1083              		@ args = 0, pretend = 0, frame = 0
 1084              		@ frame_needed = 1, uses_anonymous_args = 0
 1085              		@ link register save eliminated.
 1086 0000 80B4     		push	{r7}
 1087              		.cfi_def_cfa_offset 4
 1088              		.cfi_offset 7, -4
 1089 0002 00AF     		add	r7, sp, #0
 1090              		.cfi_def_cfa_register 7
 687:.\Generated_Source\PSoC5/USBFS_drv.c ****     USBFS_transferState = USBFS_TRANS_STATE_NO_DATA_CONTROL;
 1091              		.loc 1 687 0
 1092 0004 084B     		ldr	r3, .L86
 1093 0006 0622     		movs	r2, #6
 1094 0008 1A70     		strb	r2, [r3]
 688:.\Generated_Source\PSoC5/USBFS_drv.c ****     USBFS_ep0Mode = USBFS_MODE_STATUS_IN_ONLY;
 1095              		.loc 1 688 0
 1096 000a 084B     		ldr	r3, .L86+4
 1097 000c 0622     		movs	r2, #6
 1098 000e 1A70     		strb	r2, [r3]
 689:.\Generated_Source\PSoC5/USBFS_drv.c ****     USBFS_ep0Toggle = USBFS_EP0_CNT_DATA_TOGGLE;
 1099              		.loc 1 689 0
 1100 0010 074B     		ldr	r3, .L86+8
 1101 0012 8022     		movs	r2, #128
 1102 0014 1A70     		strb	r2, [r3]
 690:.\Generated_Source\PSoC5/USBFS_drv.c ****     USBFS_ep0Count = 0u;
 1103              		.loc 1 690 0
 1104 0016 074B     		ldr	r3, .L86+12
 1105 0018 0022     		movs	r2, #0
 1106 001a 1A70     		strb	r2, [r3]
 691:.\Generated_Source\PSoC5/USBFS_drv.c **** 
 692:.\Generated_Source\PSoC5/USBFS_drv.c ****     return(USBFS_TRUE);
 1107              		.loc 1 692 0
 1108 001c 0123     		movs	r3, #1
 693:.\Generated_Source\PSoC5/USBFS_drv.c **** }
 1109              		.loc 1 693 0
 1110 001e 1846     		mov	r0, r3
 1111 0020 BD46     		mov	sp, r7
 1112              		.cfi_def_cfa_register 13
 1113              		@ sp needed
 1114 0022 5DF8047B 		ldr	r7, [sp], #4
 1115              		.cfi_restore 7
 1116              		.cfi_def_cfa_offset 0
 1117 0026 7047     		bx	lr
 1118              	.L87:
 1119              		.align	2
 1120              	.L86:
 1121 0028 00000000 		.word	USBFS_transferState
 1122 002c 00000000 		.word	USBFS_ep0Mode
 1123 0030 00000000 		.word	USBFS_ep0Toggle
 1124 0034 00000000 		.word	USBFS_ep0Count
 1125              		.cfi_endproc
 1126              	.LFE12:
 1127              		.size	USBFS_InitNoDataControlTransfer, .-USBFS_InitNoDataControlTransfer
ARM GAS  C:\USERS\LUKAS\APPDATA\LOCAL\TEMP\ccufjyak.s 			page 33


 1128              		.section	.text.USBFS_NoDataControlStatusStage,"ax",%progbits
 1129              		.align	2
 1130              		.global	USBFS_NoDataControlStatusStage
 1131              		.thumb
 1132              		.thumb_func
 1133              		.type	USBFS_NoDataControlStatusStage, %function
 1134              	USBFS_NoDataControlStatusStage:
 1135              	.LFB13:
 694:.\Generated_Source\PSoC5/USBFS_drv.c **** 
 695:.\Generated_Source\PSoC5/USBFS_drv.c **** 
 696:.\Generated_Source\PSoC5/USBFS_drv.c **** /*******************************************************************************
 697:.\Generated_Source\PSoC5/USBFS_drv.c **** * Function Name: USBFS_NoDataControlStatusStage
 698:.\Generated_Source\PSoC5/USBFS_drv.c **** ********************************************************************************
 699:.\Generated_Source\PSoC5/USBFS_drv.c **** * Summary:
 700:.\Generated_Source\PSoC5/USBFS_drv.c **** *  Handle the Status Stage of a no data control transfer.
 701:.\Generated_Source\PSoC5/USBFS_drv.c **** *
 702:.\Generated_Source\PSoC5/USBFS_drv.c **** *  SET_ADDRESS is special, since we need to receive the status stage with
 703:.\Generated_Source\PSoC5/USBFS_drv.c **** *  the old address.
 704:.\Generated_Source\PSoC5/USBFS_drv.c **** *
 705:.\Generated_Source\PSoC5/USBFS_drv.c **** * Parameters:
 706:.\Generated_Source\PSoC5/USBFS_drv.c **** *  None.
 707:.\Generated_Source\PSoC5/USBFS_drv.c **** *
 708:.\Generated_Source\PSoC5/USBFS_drv.c **** * Return:
 709:.\Generated_Source\PSoC5/USBFS_drv.c **** *  None.
 710:.\Generated_Source\PSoC5/USBFS_drv.c **** *
 711:.\Generated_Source\PSoC5/USBFS_drv.c **** * Global variables:
 712:.\Generated_Source\PSoC5/USBFS_drv.c **** *  USBFS_transferState - set to TRANS_STATE_IDLE.
 713:.\Generated_Source\PSoC5/USBFS_drv.c **** *  USBFS_ep0Mode  - set to MODE_STALL_IN_OUT.
 714:.\Generated_Source\PSoC5/USBFS_drv.c **** *  USBFS_ep0Toggle - set to EP0_CNT_DATA_TOGGLE
 715:.\Generated_Source\PSoC5/USBFS_drv.c **** *  USBFS_deviceAddress - used to set new address and cleared
 716:.\Generated_Source\PSoC5/USBFS_drv.c **** *
 717:.\Generated_Source\PSoC5/USBFS_drv.c **** * Reentrant:
 718:.\Generated_Source\PSoC5/USBFS_drv.c **** *  No.
 719:.\Generated_Source\PSoC5/USBFS_drv.c **** *
 720:.\Generated_Source\PSoC5/USBFS_drv.c **** *******************************************************************************/
 721:.\Generated_Source\PSoC5/USBFS_drv.c **** void USBFS_NoDataControlStatusStage(void) 
 722:.\Generated_Source\PSoC5/USBFS_drv.c **** {
 1136              		.loc 1 722 0
 1137              		.cfi_startproc
 1138              		@ args = 0, pretend = 0, frame = 0
 1139              		@ frame_needed = 1, uses_anonymous_args = 0
 1140 0000 80B5     		push	{r7, lr}
 1141              		.cfi_def_cfa_offset 8
 1142              		.cfi_offset 7, -8
 1143              		.cfi_offset 14, -4
 1144 0002 00AF     		add	r7, sp, #0
 1145              		.cfi_def_cfa_register 7
 723:.\Generated_Source\PSoC5/USBFS_drv.c ****     /* Change the USB address register if we got a SET_ADDRESS. */
 724:.\Generated_Source\PSoC5/USBFS_drv.c ****     if (USBFS_deviceAddress != 0u)
 1146              		.loc 1 724 0
 1147 0004 0C4B     		ldr	r3, .L90
 1148 0006 1B78     		ldrb	r3, [r3]
 1149 0008 DBB2     		uxtb	r3, r3
 1150 000a 002B     		cmp	r3, #0
 1151 000c 0AD0     		beq	.L89
 725:.\Generated_Source\PSoC5/USBFS_drv.c ****     {
 726:.\Generated_Source\PSoC5/USBFS_drv.c ****         CY_SET_REG8(USBFS_CR0_PTR, USBFS_deviceAddress | USBFS_CR0_ENABLE);
ARM GAS  C:\USERS\LUKAS\APPDATA\LOCAL\TEMP\ccufjyak.s 			page 34


 1152              		.loc 1 726 0
 1153 000e 0B4A     		ldr	r2, .L90+4
 1154 0010 094B     		ldr	r3, .L90
 1155 0012 1B78     		ldrb	r3, [r3]
 1156 0014 DBB2     		uxtb	r3, r3
 1157 0016 63F07F03 		orn	r3, r3, #127
 1158 001a DBB2     		uxtb	r3, r3
 1159 001c 1370     		strb	r3, [r2]
 727:.\Generated_Source\PSoC5/USBFS_drv.c ****         USBFS_deviceAddress = 0u;
 1160              		.loc 1 727 0
 1161 001e 064B     		ldr	r3, .L90
 1162 0020 0022     		movs	r2, #0
 1163 0022 1A70     		strb	r2, [r3]
 1164              	.L89:
 728:.\Generated_Source\PSoC5/USBFS_drv.c ****     }
 729:.\Generated_Source\PSoC5/USBFS_drv.c ****     /* Go Idle */
 730:.\Generated_Source\PSoC5/USBFS_drv.c ****     USBFS_transferState = USBFS_TRANS_STATE_IDLE;
 1165              		.loc 1 730 0
 1166 0024 064B     		ldr	r3, .L90+8
 1167 0026 0022     		movs	r2, #0
 1168 0028 1A70     		strb	r2, [r3]
 731:.\Generated_Source\PSoC5/USBFS_drv.c ****     /* Update the completion block */
 732:.\Generated_Source\PSoC5/USBFS_drv.c ****     USBFS_UpdateStatusBlock(USBFS_XFER_STATUS_ACK);
 1169              		.loc 1 732 0
 1170 002a 0120     		movs	r0, #1
 1171 002c FFF7FEFF 		bl	USBFS_UpdateStatusBlock
 733:.\Generated_Source\PSoC5/USBFS_drv.c ****      /* We expect no more data, so stall INs and OUTs */
 734:.\Generated_Source\PSoC5/USBFS_drv.c ****     USBFS_ep0Mode = USBFS_MODE_STALL_IN_OUT;
 1172              		.loc 1 734 0
 1173 0030 044B     		ldr	r3, .L90+12
 1174 0032 0322     		movs	r2, #3
 1175 0034 1A70     		strb	r2, [r3]
 735:.\Generated_Source\PSoC5/USBFS_drv.c **** }
 1176              		.loc 1 735 0
 1177 0036 80BD     		pop	{r7, pc}
 1178              	.L91:
 1179              		.align	2
 1180              	.L90:
 1181 0038 00000000 		.word	USBFS_deviceAddress
 1182 003c 08600040 		.word	1073766408
 1183 0040 00000000 		.word	USBFS_transferState
 1184 0044 00000000 		.word	USBFS_ep0Mode
 1185              		.cfi_endproc
 1186              	.LFE13:
 1187              		.size	USBFS_NoDataControlStatusStage, .-USBFS_NoDataControlStatusStage
 1188              		.section	.text.USBFS_UpdateStatusBlock,"ax",%progbits
 1189              		.align	2
 1190              		.global	USBFS_UpdateStatusBlock
 1191              		.thumb
 1192              		.thumb_func
 1193              		.type	USBFS_UpdateStatusBlock, %function
 1194              	USBFS_UpdateStatusBlock:
 1195              	.LFB14:
 736:.\Generated_Source\PSoC5/USBFS_drv.c **** 
 737:.\Generated_Source\PSoC5/USBFS_drv.c **** 
 738:.\Generated_Source\PSoC5/USBFS_drv.c **** /*******************************************************************************
 739:.\Generated_Source\PSoC5/USBFS_drv.c **** * Function Name: USBFS_UpdateStatusBlock
ARM GAS  C:\USERS\LUKAS\APPDATA\LOCAL\TEMP\ccufjyak.s 			page 35


 740:.\Generated_Source\PSoC5/USBFS_drv.c **** ********************************************************************************
 741:.\Generated_Source\PSoC5/USBFS_drv.c **** *
 742:.\Generated_Source\PSoC5/USBFS_drv.c **** * Summary:
 743:.\Generated_Source\PSoC5/USBFS_drv.c **** *  Update the Completion Status Block for a Request.  The block is updated
 744:.\Generated_Source\PSoC5/USBFS_drv.c **** *  with the completion code the USBFS_transferByteCount.  The
 745:.\Generated_Source\PSoC5/USBFS_drv.c **** *  StatusBlock Pointer is set to NULL.
 746:.\Generated_Source\PSoC5/USBFS_drv.c **** *
 747:.\Generated_Source\PSoC5/USBFS_drv.c **** * Parameters:
 748:.\Generated_Source\PSoC5/USBFS_drv.c **** *  completionCode - status.
 749:.\Generated_Source\PSoC5/USBFS_drv.c **** *
 750:.\Generated_Source\PSoC5/USBFS_drv.c **** * Return:
 751:.\Generated_Source\PSoC5/USBFS_drv.c **** *  None.
 752:.\Generated_Source\PSoC5/USBFS_drv.c **** *
 753:.\Generated_Source\PSoC5/USBFS_drv.c **** * Global variables:
 754:.\Generated_Source\PSoC5/USBFS_drv.c **** *  USBFS_currentTD.pStatusBlock->status - updated by the 
 755:.\Generated_Source\PSoC5/USBFS_drv.c **** *    completionCode parameter.
 756:.\Generated_Source\PSoC5/USBFS_drv.c **** *  USBFS_currentTD.pStatusBlock->length - updated.
 757:.\Generated_Source\PSoC5/USBFS_drv.c **** *  USBFS_currentTD.pStatusBlock - cleared.
 758:.\Generated_Source\PSoC5/USBFS_drv.c **** *
 759:.\Generated_Source\PSoC5/USBFS_drv.c **** * Reentrant:
 760:.\Generated_Source\PSoC5/USBFS_drv.c **** *  No.
 761:.\Generated_Source\PSoC5/USBFS_drv.c **** *
 762:.\Generated_Source\PSoC5/USBFS_drv.c **** *******************************************************************************/
 763:.\Generated_Source\PSoC5/USBFS_drv.c **** void USBFS_UpdateStatusBlock(uint8 completionCode) 
 764:.\Generated_Source\PSoC5/USBFS_drv.c **** {
 1196              		.loc 1 764 0
 1197              		.cfi_startproc
 1198              		@ args = 0, pretend = 0, frame = 8
 1199              		@ frame_needed = 1, uses_anonymous_args = 0
 1200              		@ link register save eliminated.
 1201 0000 80B4     		push	{r7}
 1202              		.cfi_def_cfa_offset 4
 1203              		.cfi_offset 7, -4
 1204 0002 83B0     		sub	sp, sp, #12
 1205              		.cfi_def_cfa_offset 16
 1206 0004 00AF     		add	r7, sp, #0
 1207              		.cfi_def_cfa_register 7
 1208 0006 0346     		mov	r3, r0
 1209 0008 FB71     		strb	r3, [r7, #7]
 765:.\Generated_Source\PSoC5/USBFS_drv.c ****     if (USBFS_currentTD.pStatusBlock != NULL)
 1210              		.loc 1 765 0
 1211 000a 0B4B     		ldr	r3, .L94
 1212 000c 9B68     		ldr	r3, [r3, #8]
 1213 000e 002B     		cmp	r3, #0
 1214 0010 0CD0     		beq	.L92
 766:.\Generated_Source\PSoC5/USBFS_drv.c ****     {
 767:.\Generated_Source\PSoC5/USBFS_drv.c ****         USBFS_currentTD.pStatusBlock->status = completionCode;
 1215              		.loc 1 767 0
 1216 0012 094B     		ldr	r3, .L94
 1217 0014 9B68     		ldr	r3, [r3, #8]
 1218 0016 FA79     		ldrb	r2, [r7, #7]
 1219 0018 1A70     		strb	r2, [r3]
 768:.\Generated_Source\PSoC5/USBFS_drv.c ****         USBFS_currentTD.pStatusBlock->length = USBFS_transferByteCount;
 1220              		.loc 1 768 0
 1221 001a 074B     		ldr	r3, .L94
 1222 001c 9B68     		ldr	r3, [r3, #8]
 1223 001e 074A     		ldr	r2, .L94+4
ARM GAS  C:\USERS\LUKAS\APPDATA\LOCAL\TEMP\ccufjyak.s 			page 36


 1224 0020 1288     		ldrh	r2, [r2]	@ movhi
 1225 0022 92B2     		uxth	r2, r2
 1226 0024 5A80     		strh	r2, [r3, #2]	@ movhi
 769:.\Generated_Source\PSoC5/USBFS_drv.c ****         USBFS_currentTD.pStatusBlock = NULL;
 1227              		.loc 1 769 0
 1228 0026 044B     		ldr	r3, .L94
 1229 0028 0022     		movs	r2, #0
 1230 002a 9A60     		str	r2, [r3, #8]
 1231              	.L92:
 770:.\Generated_Source\PSoC5/USBFS_drv.c ****     }
 771:.\Generated_Source\PSoC5/USBFS_drv.c **** }
 1232              		.loc 1 771 0
 1233 002c 0C37     		adds	r7, r7, #12
 1234              		.cfi_def_cfa_offset 4
 1235 002e BD46     		mov	sp, r7
 1236              		.cfi_def_cfa_register 13
 1237              		@ sp needed
 1238 0030 5DF8047B 		ldr	r7, [sp], #4
 1239              		.cfi_restore 7
 1240              		.cfi_def_cfa_offset 0
 1241 0034 7047     		bx	lr
 1242              	.L95:
 1243 0036 00BF     		.align	2
 1244              	.L94:
 1245 0038 00000000 		.word	USBFS_currentTD
 1246 003c 00000000 		.word	USBFS_transferByteCount
 1247              		.cfi_endproc
 1248              	.LFE14:
 1249              		.size	USBFS_UpdateStatusBlock, .-USBFS_UpdateStatusBlock
 1250              		.section	.text.USBFS_InitializeStatusBlock,"ax",%progbits
 1251              		.align	2
 1252              		.global	USBFS_InitializeStatusBlock
 1253              		.thumb
 1254              		.thumb_func
 1255              		.type	USBFS_InitializeStatusBlock, %function
 1256              	USBFS_InitializeStatusBlock:
 1257              	.LFB15:
 772:.\Generated_Source\PSoC5/USBFS_drv.c **** 
 773:.\Generated_Source\PSoC5/USBFS_drv.c **** 
 774:.\Generated_Source\PSoC5/USBFS_drv.c **** /*******************************************************************************
 775:.\Generated_Source\PSoC5/USBFS_drv.c **** * Function Name: USBFS_InitializeStatusBlock
 776:.\Generated_Source\PSoC5/USBFS_drv.c **** ********************************************************************************
 777:.\Generated_Source\PSoC5/USBFS_drv.c **** *
 778:.\Generated_Source\PSoC5/USBFS_drv.c **** * Summary:
 779:.\Generated_Source\PSoC5/USBFS_drv.c **** *  Initialize the Completion Status Block for a Request.  The completion
 780:.\Generated_Source\PSoC5/USBFS_drv.c **** *  code is set to USB_XFER_IDLE.
 781:.\Generated_Source\PSoC5/USBFS_drv.c **** *
 782:.\Generated_Source\PSoC5/USBFS_drv.c **** *  Also, initializes USBFS_transferByteCount.  Save some space,
 783:.\Generated_Source\PSoC5/USBFS_drv.c **** *  this is the only consumer.
 784:.\Generated_Source\PSoC5/USBFS_drv.c **** *
 785:.\Generated_Source\PSoC5/USBFS_drv.c **** * Parameters:
 786:.\Generated_Source\PSoC5/USBFS_drv.c **** *  None.
 787:.\Generated_Source\PSoC5/USBFS_drv.c **** *
 788:.\Generated_Source\PSoC5/USBFS_drv.c **** * Return:
 789:.\Generated_Source\PSoC5/USBFS_drv.c **** *  None.
 790:.\Generated_Source\PSoC5/USBFS_drv.c **** *
 791:.\Generated_Source\PSoC5/USBFS_drv.c **** * Global variables:
ARM GAS  C:\USERS\LUKAS\APPDATA\LOCAL\TEMP\ccufjyak.s 			page 37


 792:.\Generated_Source\PSoC5/USBFS_drv.c **** *  USBFS_currentTD.pStatusBlock->status - set to XFER_IDLE.
 793:.\Generated_Source\PSoC5/USBFS_drv.c **** *  USBFS_currentTD.pStatusBlock->length - cleared.
 794:.\Generated_Source\PSoC5/USBFS_drv.c **** *  USBFS_transferByteCount - cleared.
 795:.\Generated_Source\PSoC5/USBFS_drv.c **** *
 796:.\Generated_Source\PSoC5/USBFS_drv.c **** * Reentrant:
 797:.\Generated_Source\PSoC5/USBFS_drv.c **** *  No.
 798:.\Generated_Source\PSoC5/USBFS_drv.c **** *
 799:.\Generated_Source\PSoC5/USBFS_drv.c **** *******************************************************************************/
 800:.\Generated_Source\PSoC5/USBFS_drv.c **** void USBFS_InitializeStatusBlock(void) 
 801:.\Generated_Source\PSoC5/USBFS_drv.c **** {
 1258              		.loc 1 801 0
 1259              		.cfi_startproc
 1260              		@ args = 0, pretend = 0, frame = 0
 1261              		@ frame_needed = 1, uses_anonymous_args = 0
 1262              		@ link register save eliminated.
 1263 0000 80B4     		push	{r7}
 1264              		.cfi_def_cfa_offset 4
 1265              		.cfi_offset 7, -4
 1266 0002 00AF     		add	r7, sp, #0
 1267              		.cfi_def_cfa_register 7
 802:.\Generated_Source\PSoC5/USBFS_drv.c ****     USBFS_transferByteCount = 0u;
 1268              		.loc 1 802 0
 1269 0004 094B     		ldr	r3, .L98
 1270 0006 0022     		movs	r2, #0
 1271 0008 1A80     		strh	r2, [r3]	@ movhi
 803:.\Generated_Source\PSoC5/USBFS_drv.c ****     if(USBFS_currentTD.pStatusBlock != NULL)
 1272              		.loc 1 803 0
 1273 000a 094B     		ldr	r3, .L98+4
 1274 000c 9B68     		ldr	r3, [r3, #8]
 1275 000e 002B     		cmp	r3, #0
 1276 0010 07D0     		beq	.L96
 804:.\Generated_Source\PSoC5/USBFS_drv.c ****     {
 805:.\Generated_Source\PSoC5/USBFS_drv.c ****         USBFS_currentTD.pStatusBlock->status = USBFS_XFER_IDLE;
 1277              		.loc 1 805 0
 1278 0012 074B     		ldr	r3, .L98+4
 1279 0014 9B68     		ldr	r3, [r3, #8]
 1280 0016 0022     		movs	r2, #0
 1281 0018 1A70     		strb	r2, [r3]
 806:.\Generated_Source\PSoC5/USBFS_drv.c ****         USBFS_currentTD.pStatusBlock->length = 0u;
 1282              		.loc 1 806 0
 1283 001a 054B     		ldr	r3, .L98+4
 1284 001c 9B68     		ldr	r3, [r3, #8]
 1285 001e 0022     		movs	r2, #0
 1286 0020 5A80     		strh	r2, [r3, #2]	@ movhi
 1287              	.L96:
 807:.\Generated_Source\PSoC5/USBFS_drv.c ****     }
 808:.\Generated_Source\PSoC5/USBFS_drv.c **** }
 1288              		.loc 1 808 0
 1289 0022 BD46     		mov	sp, r7
 1290              		.cfi_def_cfa_register 13
 1291              		@ sp needed
 1292 0024 5DF8047B 		ldr	r7, [sp], #4
 1293              		.cfi_restore 7
 1294              		.cfi_def_cfa_offset 0
 1295 0028 7047     		bx	lr
 1296              	.L99:
 1297 002a 00BF     		.align	2
ARM GAS  C:\USERS\LUKAS\APPDATA\LOCAL\TEMP\ccufjyak.s 			page 38


 1298              	.L98:
 1299 002c 00000000 		.word	USBFS_transferByteCount
 1300 0030 00000000 		.word	USBFS_currentTD
 1301              		.cfi_endproc
 1302              	.LFE15:
 1303              		.size	USBFS_InitializeStatusBlock, .-USBFS_InitializeStatusBlock
 1304              		.text
 1305              	.Letext0:
 1306              		.file 2 ".\\Generated_Source\\PSoC5\\cytypes.h"
 1307              		.file 3 ".\\Generated_Source\\PSoC5\\USBFS.h"