ARM GAS  C:\Users\LUKASC~1\AppData\Local\Temp\ccAgm3t8.s 			page 1


   1              		.syntax unified
   2              		.cpu cortex-m3
   3              		.fpu softvfp
   4              		.eabi_attribute 20, 1
   5              		.eabi_attribute 21, 1
   6              		.eabi_attribute 23, 3
   7              		.eabi_attribute 24, 1
   8              		.eabi_attribute 25, 1
   9              		.eabi_attribute 26, 1
  10              		.eabi_attribute 30, 1
  11              		.eabi_attribute 34, 1
  12              		.eabi_attribute 18, 4
  13              		.thumb
  14              		.file	"USBFS_1_std.c"
  15              		.text
  16              	.Ltext0:
  17              		.cfi_sections	.debug_frame
  18              		.section	.text.USBFS_1_ConfigReg,"ax",%progbits
  19              		.align	2
  20              		.global	USBFS_1_ConfigReg
  21              		.thumb
  22              		.thumb_func
  23              		.type	USBFS_1_ConfigReg, %function
  24              	USBFS_1_ConfigReg:
  25              	.LFB1:
  26              		.file 1 ".\\Generated_Source\\PSoC5\\USBFS_1_std.c"
   1:.\Generated_Source\PSoC5/USBFS_1_std.c **** /***************************************************************************//**
   2:.\Generated_Source\PSoC5/USBFS_1_std.c **** * \file USBFS_1_std.c
   3:.\Generated_Source\PSoC5/USBFS_1_std.c **** * \version 3.0
   4:.\Generated_Source\PSoC5/USBFS_1_std.c **** *
   5:.\Generated_Source\PSoC5/USBFS_1_std.c **** * \brief
   6:.\Generated_Source\PSoC5/USBFS_1_std.c **** *  This file contains the USB Standard request handler.
   7:.\Generated_Source\PSoC5/USBFS_1_std.c **** *
   8:.\Generated_Source\PSoC5/USBFS_1_std.c **** ********************************************************************************
   9:.\Generated_Source\PSoC5/USBFS_1_std.c **** * \copyright
  10:.\Generated_Source\PSoC5/USBFS_1_std.c **** * Copyright 2008-2015, Cypress Semiconductor Corporation.  All rights reserved.
  11:.\Generated_Source\PSoC5/USBFS_1_std.c **** * You may use this file only in accordance with the license, terms, conditions,
  12:.\Generated_Source\PSoC5/USBFS_1_std.c **** * disclaimers, and limitations in the end user license agreement accompanying
  13:.\Generated_Source\PSoC5/USBFS_1_std.c **** * the software package with which this file was provided.
  14:.\Generated_Source\PSoC5/USBFS_1_std.c **** *******************************************************************************/
  15:.\Generated_Source\PSoC5/USBFS_1_std.c **** 
  16:.\Generated_Source\PSoC5/USBFS_1_std.c **** #include "USBFS_1_pvt.h"
  17:.\Generated_Source\PSoC5/USBFS_1_std.c **** 
  18:.\Generated_Source\PSoC5/USBFS_1_std.c **** /***************************************
  19:.\Generated_Source\PSoC5/USBFS_1_std.c **** *   Static data allocation
  20:.\Generated_Source\PSoC5/USBFS_1_std.c **** ***************************************/
  21:.\Generated_Source\PSoC5/USBFS_1_std.c **** 
  22:.\Generated_Source\PSoC5/USBFS_1_std.c **** #if defined(USBFS_1_ENABLE_FWSN_STRING)
  23:.\Generated_Source\PSoC5/USBFS_1_std.c ****     static volatile uint8* USBFS_1_fwSerialNumberStringDescriptor;
  24:.\Generated_Source\PSoC5/USBFS_1_std.c ****     static volatile uint8  USBFS_1_snStringConfirm = USBFS_1_FALSE;
  25:.\Generated_Source\PSoC5/USBFS_1_std.c **** #endif  /* (USBFS_1_ENABLE_FWSN_STRING) */
  26:.\Generated_Source\PSoC5/USBFS_1_std.c **** 
  27:.\Generated_Source\PSoC5/USBFS_1_std.c **** #if defined(USBFS_1_ENABLE_FWSN_STRING)
  28:.\Generated_Source\PSoC5/USBFS_1_std.c ****     /***************************************************************************
  29:.\Generated_Source\PSoC5/USBFS_1_std.c ****     * Function Name: USBFS_1_SerialNumString
  30:.\Generated_Source\PSoC5/USBFS_1_std.c ****     ************************************************************************//**
  31:.\Generated_Source\PSoC5/USBFS_1_std.c ****     *
ARM GAS  C:\Users\LUKASC~1\AppData\Local\Temp\ccAgm3t8.s 			page 2


  32:.\Generated_Source\PSoC5/USBFS_1_std.c ****     *  This function is available only when the User Call Back option in the 
  33:.\Generated_Source\PSoC5/USBFS_1_std.c ****     *  Serial Number String descriptor properties is selected. Application 
  34:.\Generated_Source\PSoC5/USBFS_1_std.c ****     *  firmware can provide the source of the USB device serial number string 
  35:.\Generated_Source\PSoC5/USBFS_1_std.c ****     *  descriptor during run time. The default string is used if the application 
  36:.\Generated_Source\PSoC5/USBFS_1_std.c ****     *  firmware does not use this function or sets the wrong string descriptor.
  37:.\Generated_Source\PSoC5/USBFS_1_std.c ****     *
  38:.\Generated_Source\PSoC5/USBFS_1_std.c ****     *  \param snString:  Pointer to the user-defined string descriptor. The 
  39:.\Generated_Source\PSoC5/USBFS_1_std.c ****     *  string descriptor should meet the Universal Serial Bus Specification 
  40:.\Generated_Source\PSoC5/USBFS_1_std.c ****     *  revision 2.0 chapter 9.6.7
  41:.\Generated_Source\PSoC5/USBFS_1_std.c ****     *  Offset|Size|Value|Description
  42:.\Generated_Source\PSoC5/USBFS_1_std.c ****     *  ------|----|------|---------------------------------
  43:.\Generated_Source\PSoC5/USBFS_1_std.c ****     *  0     |1   |N     |Size of this descriptor in bytes
  44:.\Generated_Source\PSoC5/USBFS_1_std.c ****     *  1     |1   |0x03  |STRING Descriptor Type
  45:.\Generated_Source\PSoC5/USBFS_1_std.c ****     *  2     |N-2 |Number|UNICODE encoded string
  46:.\Generated_Source\PSoC5/USBFS_1_std.c ****     *  
  47:.\Generated_Source\PSoC5/USBFS_1_std.c ****     * *For example:* uint8 snString[16]={0x0E,0x03,'F',0,'W',0,'S',0,'N',0,'0',0,'1',0};
  48:.\Generated_Source\PSoC5/USBFS_1_std.c ****     *
  49:.\Generated_Source\PSoC5/USBFS_1_std.c ****     * \reentrant
  50:.\Generated_Source\PSoC5/USBFS_1_std.c ****     *  No.
  51:.\Generated_Source\PSoC5/USBFS_1_std.c ****     *
  52:.\Generated_Source\PSoC5/USBFS_1_std.c ****     ***************************************************************************/
  53:.\Generated_Source\PSoC5/USBFS_1_std.c ****     void  USBFS_1_SerialNumString(uint8 snString[]) 
  54:.\Generated_Source\PSoC5/USBFS_1_std.c ****     {
  55:.\Generated_Source\PSoC5/USBFS_1_std.c ****         USBFS_1_snStringConfirm = USBFS_1_FALSE;
  56:.\Generated_Source\PSoC5/USBFS_1_std.c ****         
  57:.\Generated_Source\PSoC5/USBFS_1_std.c ****         if (snString != NULL)
  58:.\Generated_Source\PSoC5/USBFS_1_std.c ****         {
  59:.\Generated_Source\PSoC5/USBFS_1_std.c ****             /* Check descriptor validation */
  60:.\Generated_Source\PSoC5/USBFS_1_std.c ****             if ((snString[0u] > 1u) && (snString[1u] == USBFS_1_DESCR_STRING))
  61:.\Generated_Source\PSoC5/USBFS_1_std.c ****             {
  62:.\Generated_Source\PSoC5/USBFS_1_std.c ****                 USBFS_1_fwSerialNumberStringDescriptor = snString;
  63:.\Generated_Source\PSoC5/USBFS_1_std.c ****                 USBFS_1_snStringConfirm = USBFS_1_TRUE;
  64:.\Generated_Source\PSoC5/USBFS_1_std.c ****             }
  65:.\Generated_Source\PSoC5/USBFS_1_std.c ****         }
  66:.\Generated_Source\PSoC5/USBFS_1_std.c ****     }
  67:.\Generated_Source\PSoC5/USBFS_1_std.c **** #endif  /* USBFS_1_ENABLE_FWSN_STRING */
  68:.\Generated_Source\PSoC5/USBFS_1_std.c **** 
  69:.\Generated_Source\PSoC5/USBFS_1_std.c **** 
  70:.\Generated_Source\PSoC5/USBFS_1_std.c **** /*******************************************************************************
  71:.\Generated_Source\PSoC5/USBFS_1_std.c **** * Function Name: USBFS_1_HandleStandardRqst
  72:.\Generated_Source\PSoC5/USBFS_1_std.c **** ****************************************************************************//**
  73:.\Generated_Source\PSoC5/USBFS_1_std.c **** *
  74:.\Generated_Source\PSoC5/USBFS_1_std.c **** *  This Routine dispatches standard requests
  75:.\Generated_Source\PSoC5/USBFS_1_std.c **** *
  76:.\Generated_Source\PSoC5/USBFS_1_std.c **** *
  77:.\Generated_Source\PSoC5/USBFS_1_std.c **** * \return
  78:.\Generated_Source\PSoC5/USBFS_1_std.c **** *  TRUE if request handled.
  79:.\Generated_Source\PSoC5/USBFS_1_std.c **** *
  80:.\Generated_Source\PSoC5/USBFS_1_std.c **** * \reentrant
  81:.\Generated_Source\PSoC5/USBFS_1_std.c **** *  No.
  82:.\Generated_Source\PSoC5/USBFS_1_std.c **** *
  83:.\Generated_Source\PSoC5/USBFS_1_std.c **** *******************************************************************************/
  84:.\Generated_Source\PSoC5/USBFS_1_std.c **** uint8 USBFS_1_HandleStandardRqst(void) 
  85:.\Generated_Source\PSoC5/USBFS_1_std.c **** {
  86:.\Generated_Source\PSoC5/USBFS_1_std.c ****     uint8 requestHandled = USBFS_1_FALSE;
  87:.\Generated_Source\PSoC5/USBFS_1_std.c ****     uint8 interfaceNumber;
  88:.\Generated_Source\PSoC5/USBFS_1_std.c ****     uint8 configurationN;
ARM GAS  C:\Users\LUKASC~1\AppData\Local\Temp\ccAgm3t8.s 			page 3


  89:.\Generated_Source\PSoC5/USBFS_1_std.c ****     uint8 bmRequestType = USBFS_1_bmRequestTypeReg;
  90:.\Generated_Source\PSoC5/USBFS_1_std.c **** 
  91:.\Generated_Source\PSoC5/USBFS_1_std.c **** #if defined(USBFS_1_ENABLE_STRINGS)
  92:.\Generated_Source\PSoC5/USBFS_1_std.c ****     volatile uint8 *pStr = 0u;
  93:.\Generated_Source\PSoC5/USBFS_1_std.c ****     #if defined(USBFS_1_ENABLE_DESCRIPTOR_STRINGS)
  94:.\Generated_Source\PSoC5/USBFS_1_std.c ****         uint8 nStr;
  95:.\Generated_Source\PSoC5/USBFS_1_std.c ****         uint8 descrLength;
  96:.\Generated_Source\PSoC5/USBFS_1_std.c ****     #endif /* (USBFS_1_ENABLE_DESCRIPTOR_STRINGS) */
  97:.\Generated_Source\PSoC5/USBFS_1_std.c **** #endif /* (USBFS_1_ENABLE_STRINGS) */
  98:.\Generated_Source\PSoC5/USBFS_1_std.c ****     
  99:.\Generated_Source\PSoC5/USBFS_1_std.c ****     static volatile uint8 USBFS_1_tBuffer[USBFS_1_STATUS_LENGTH_MAX];
 100:.\Generated_Source\PSoC5/USBFS_1_std.c ****     const T_USBFS_1_LUT CYCODE *pTmp;
 101:.\Generated_Source\PSoC5/USBFS_1_std.c **** 
 102:.\Generated_Source\PSoC5/USBFS_1_std.c ****     USBFS_1_currentTD.count = 0u;
 103:.\Generated_Source\PSoC5/USBFS_1_std.c **** 
 104:.\Generated_Source\PSoC5/USBFS_1_std.c ****     if (USBFS_1_RQST_DIR_D2H == (bmRequestType & USBFS_1_RQST_DIR_MASK))
 105:.\Generated_Source\PSoC5/USBFS_1_std.c ****     {
 106:.\Generated_Source\PSoC5/USBFS_1_std.c ****         /* Control Read */
 107:.\Generated_Source\PSoC5/USBFS_1_std.c ****         switch (USBFS_1_bRequestReg)
 108:.\Generated_Source\PSoC5/USBFS_1_std.c ****         {
 109:.\Generated_Source\PSoC5/USBFS_1_std.c ****             case USBFS_1_GET_DESCRIPTOR:
 110:.\Generated_Source\PSoC5/USBFS_1_std.c ****                 if (USBFS_1_DESCR_DEVICE ==USBFS_1_wValueHiReg)
 111:.\Generated_Source\PSoC5/USBFS_1_std.c ****                 {
 112:.\Generated_Source\PSoC5/USBFS_1_std.c ****                     pTmp = USBFS_1_GetDeviceTablePtr();
 113:.\Generated_Source\PSoC5/USBFS_1_std.c ****                     USBFS_1_currentTD.pData = (volatile uint8 *)pTmp->p_list;
 114:.\Generated_Source\PSoC5/USBFS_1_std.c ****                     USBFS_1_currentTD.count = USBFS_1_DEVICE_DESCR_LENGTH;
 115:.\Generated_Source\PSoC5/USBFS_1_std.c ****                     
 116:.\Generated_Source\PSoC5/USBFS_1_std.c ****                     requestHandled  = USBFS_1_InitControlRead();
 117:.\Generated_Source\PSoC5/USBFS_1_std.c ****                 }
 118:.\Generated_Source\PSoC5/USBFS_1_std.c ****                 else if (USBFS_1_DESCR_CONFIG == USBFS_1_wValueHiReg)
 119:.\Generated_Source\PSoC5/USBFS_1_std.c ****                 {
 120:.\Generated_Source\PSoC5/USBFS_1_std.c ****                     pTmp = USBFS_1_GetConfigTablePtr((uint8) USBFS_1_wValueLoReg);
 121:.\Generated_Source\PSoC5/USBFS_1_std.c ****                     
 122:.\Generated_Source\PSoC5/USBFS_1_std.c ****                     /* Verify that requested descriptor exists */
 123:.\Generated_Source\PSoC5/USBFS_1_std.c ****                     if (pTmp != NULL)
 124:.\Generated_Source\PSoC5/USBFS_1_std.c ****                     {
 125:.\Generated_Source\PSoC5/USBFS_1_std.c ****                         USBFS_1_currentTD.pData = (volatile uint8 *)pTmp->p_list;
 126:.\Generated_Source\PSoC5/USBFS_1_std.c ****                         USBFS_1_currentTD.count = (uint16)((uint16)(USBFS_1_currentTD.pData)[USBFS_
 127:.\Generated_Source\PSoC5/USBFS_1_std.c ****                                                                             (USBFS_1_currentTD.pDat
 128:.\Generated_Source\PSoC5/USBFS_1_std.c ****                         requestHandled  = USBFS_1_InitControlRead();
 129:.\Generated_Source\PSoC5/USBFS_1_std.c ****                     }
 130:.\Generated_Source\PSoC5/USBFS_1_std.c ****                 }
 131:.\Generated_Source\PSoC5/USBFS_1_std.c ****                 
 132:.\Generated_Source\PSoC5/USBFS_1_std.c ****             #if(USBFS_1_BOS_ENABLE)
 133:.\Generated_Source\PSoC5/USBFS_1_std.c ****                 else if (USBFS_1_DESCR_BOS == USBFS_1_wValueHiReg)
 134:.\Generated_Source\PSoC5/USBFS_1_std.c ****                 {
 135:.\Generated_Source\PSoC5/USBFS_1_std.c ****                     pTmp = USBFS_1_GetBOSPtr();
 136:.\Generated_Source\PSoC5/USBFS_1_std.c ****                     
 137:.\Generated_Source\PSoC5/USBFS_1_std.c ****                     /* Verify that requested descriptor exists */
 138:.\Generated_Source\PSoC5/USBFS_1_std.c ****                     if (pTmp != NULL)
 139:.\Generated_Source\PSoC5/USBFS_1_std.c ****                     {
 140:.\Generated_Source\PSoC5/USBFS_1_std.c ****                         USBFS_1_currentTD.pData = (volatile uint8 *)pTmp;
 141:.\Generated_Source\PSoC5/USBFS_1_std.c ****                         USBFS_1_currentTD.count = ((uint16)((uint16)(USBFS_1_currentTD.pData)[USBFS
 142:.\Generated_Source\PSoC5/USBFS_1_std.c ****                                                                              (USBFS_1_currentTD.pDa
 143:.\Generated_Source\PSoC5/USBFS_1_std.c ****                         requestHandled  = USBFS_1_InitControlRead();
 144:.\Generated_Source\PSoC5/USBFS_1_std.c ****                     }
 145:.\Generated_Source\PSoC5/USBFS_1_std.c ****                 }
ARM GAS  C:\Users\LUKASC~1\AppData\Local\Temp\ccAgm3t8.s 			page 4


 146:.\Generated_Source\PSoC5/USBFS_1_std.c ****             #endif /*(USBFS_1_BOS_ENABLE)*/
 147:.\Generated_Source\PSoC5/USBFS_1_std.c ****             
 148:.\Generated_Source\PSoC5/USBFS_1_std.c ****             #if defined(USBFS_1_ENABLE_STRINGS)
 149:.\Generated_Source\PSoC5/USBFS_1_std.c ****                 else if (USBFS_1_DESCR_STRING == USBFS_1_wValueHiReg)
 150:.\Generated_Source\PSoC5/USBFS_1_std.c ****                 {
 151:.\Generated_Source\PSoC5/USBFS_1_std.c ****                 /* Descriptor Strings */
 152:.\Generated_Source\PSoC5/USBFS_1_std.c ****                 #if defined(USBFS_1_ENABLE_DESCRIPTOR_STRINGS)
 153:.\Generated_Source\PSoC5/USBFS_1_std.c ****                     nStr = 0u;
 154:.\Generated_Source\PSoC5/USBFS_1_std.c ****                     pStr = (volatile uint8 *) &USBFS_1_STRING_DESCRIPTORS[0u];
 155:.\Generated_Source\PSoC5/USBFS_1_std.c ****                     
 156:.\Generated_Source\PSoC5/USBFS_1_std.c ****                     while ((USBFS_1_wValueLoReg > nStr) && (*pStr != 0u))
 157:.\Generated_Source\PSoC5/USBFS_1_std.c ****                     {
 158:.\Generated_Source\PSoC5/USBFS_1_std.c ****                         /* Read descriptor length from 1st byte */
 159:.\Generated_Source\PSoC5/USBFS_1_std.c ****                         descrLength = *pStr;
 160:.\Generated_Source\PSoC5/USBFS_1_std.c ****                         /* Move to next string descriptor */
 161:.\Generated_Source\PSoC5/USBFS_1_std.c ****                         pStr = &pStr[descrLength];
 162:.\Generated_Source\PSoC5/USBFS_1_std.c ****                         nStr++;
 163:.\Generated_Source\PSoC5/USBFS_1_std.c ****                     }
 164:.\Generated_Source\PSoC5/USBFS_1_std.c ****                 #endif /* (USBFS_1_ENABLE_DESCRIPTOR_STRINGS) */
 165:.\Generated_Source\PSoC5/USBFS_1_std.c ****                 
 166:.\Generated_Source\PSoC5/USBFS_1_std.c ****                 /* Microsoft OS String */
 167:.\Generated_Source\PSoC5/USBFS_1_std.c ****                 #if defined(USBFS_1_ENABLE_MSOS_STRING)
 168:.\Generated_Source\PSoC5/USBFS_1_std.c ****                     if (USBFS_1_STRING_MSOS == USBFS_1_wValueLoReg)
 169:.\Generated_Source\PSoC5/USBFS_1_std.c ****                     {
 170:.\Generated_Source\PSoC5/USBFS_1_std.c ****                         pStr = (volatile uint8 *)& USBFS_1_MSOS_DESCRIPTOR[0u];
 171:.\Generated_Source\PSoC5/USBFS_1_std.c ****                     }
 172:.\Generated_Source\PSoC5/USBFS_1_std.c ****                 #endif /* (USBFS_1_ENABLE_MSOS_STRING) */
 173:.\Generated_Source\PSoC5/USBFS_1_std.c ****                 
 174:.\Generated_Source\PSoC5/USBFS_1_std.c ****                 /* SN string */
 175:.\Generated_Source\PSoC5/USBFS_1_std.c ****                 #if defined(USBFS_1_ENABLE_SN_STRING)
 176:.\Generated_Source\PSoC5/USBFS_1_std.c ****                     if ((USBFS_1_wValueLoReg != 0u) && 
 177:.\Generated_Source\PSoC5/USBFS_1_std.c ****                         (USBFS_1_wValueLoReg == USBFS_1_DEVICE0_DESCR[USBFS_1_DEVICE_DESCR_SN_SHIFT
 178:.\Generated_Source\PSoC5/USBFS_1_std.c ****                     {
 179:.\Generated_Source\PSoC5/USBFS_1_std.c ****                     #if defined(USBFS_1_ENABLE_IDSN_STRING)
 180:.\Generated_Source\PSoC5/USBFS_1_std.c ****                         /* Read DIE ID and generate string descriptor in RAM */
 181:.\Generated_Source\PSoC5/USBFS_1_std.c ****                         USBFS_1_ReadDieID(USBFS_1_idSerialNumberStringDescriptor);
 182:.\Generated_Source\PSoC5/USBFS_1_std.c ****                         pStr = USBFS_1_idSerialNumberStringDescriptor;
 183:.\Generated_Source\PSoC5/USBFS_1_std.c ****                     #elif defined(USBFS_1_ENABLE_FWSN_STRING)
 184:.\Generated_Source\PSoC5/USBFS_1_std.c ****                         
 185:.\Generated_Source\PSoC5/USBFS_1_std.c ****                         if(USBFS_1_snStringConfirm != USBFS_1_FALSE)
 186:.\Generated_Source\PSoC5/USBFS_1_std.c ****                         {
 187:.\Generated_Source\PSoC5/USBFS_1_std.c ****                             pStr = USBFS_1_fwSerialNumberStringDescriptor;
 188:.\Generated_Source\PSoC5/USBFS_1_std.c ****                         }
 189:.\Generated_Source\PSoC5/USBFS_1_std.c ****                         else
 190:.\Generated_Source\PSoC5/USBFS_1_std.c ****                         {
 191:.\Generated_Source\PSoC5/USBFS_1_std.c ****                             pStr = (volatile uint8 *)&USBFS_1_SN_STRING_DESCRIPTOR[0u];
 192:.\Generated_Source\PSoC5/USBFS_1_std.c ****                         }
 193:.\Generated_Source\PSoC5/USBFS_1_std.c ****                     #else
 194:.\Generated_Source\PSoC5/USBFS_1_std.c ****                         pStr = (volatile uint8 *)&USBFS_1_SN_STRING_DESCRIPTOR[0u];
 195:.\Generated_Source\PSoC5/USBFS_1_std.c ****                     #endif  /* (USBFS_1_ENABLE_IDSN_STRING) */
 196:.\Generated_Source\PSoC5/USBFS_1_std.c ****                     }
 197:.\Generated_Source\PSoC5/USBFS_1_std.c ****                 #endif /* (USBFS_1_ENABLE_SN_STRING) */
 198:.\Generated_Source\PSoC5/USBFS_1_std.c ****                 
 199:.\Generated_Source\PSoC5/USBFS_1_std.c ****                     if (*pStr != 0u)
 200:.\Generated_Source\PSoC5/USBFS_1_std.c ****                     {
 201:.\Generated_Source\PSoC5/USBFS_1_std.c ****                         USBFS_1_currentTD.count = *pStr;
 202:.\Generated_Source\PSoC5/USBFS_1_std.c ****                         USBFS_1_currentTD.pData = pStr;
ARM GAS  C:\Users\LUKASC~1\AppData\Local\Temp\ccAgm3t8.s 			page 5


 203:.\Generated_Source\PSoC5/USBFS_1_std.c ****                         requestHandled  = USBFS_1_InitControlRead();
 204:.\Generated_Source\PSoC5/USBFS_1_std.c ****                     }
 205:.\Generated_Source\PSoC5/USBFS_1_std.c ****                 }
 206:.\Generated_Source\PSoC5/USBFS_1_std.c ****             #endif /*  USBFS_1_ENABLE_STRINGS */
 207:.\Generated_Source\PSoC5/USBFS_1_std.c ****                 else
 208:.\Generated_Source\PSoC5/USBFS_1_std.c ****                 {
 209:.\Generated_Source\PSoC5/USBFS_1_std.c ****                     requestHandled = USBFS_1_DispatchClassRqst();
 210:.\Generated_Source\PSoC5/USBFS_1_std.c ****                 }
 211:.\Generated_Source\PSoC5/USBFS_1_std.c ****                 break;
 212:.\Generated_Source\PSoC5/USBFS_1_std.c ****                 
 213:.\Generated_Source\PSoC5/USBFS_1_std.c ****             case USBFS_1_GET_STATUS:
 214:.\Generated_Source\PSoC5/USBFS_1_std.c ****                 switch (bmRequestType & USBFS_1_RQST_RCPT_MASK)
 215:.\Generated_Source\PSoC5/USBFS_1_std.c ****                 {
 216:.\Generated_Source\PSoC5/USBFS_1_std.c ****                     case USBFS_1_RQST_RCPT_EP:
 217:.\Generated_Source\PSoC5/USBFS_1_std.c ****                         USBFS_1_currentTD.count = USBFS_1_EP_STATUS_LENGTH;
 218:.\Generated_Source\PSoC5/USBFS_1_std.c ****                         USBFS_1_tBuffer[0u]     = USBFS_1_EP[USBFS_1_wIndexLoReg & USBFS_1_DIR_UNUS
 219:.\Generated_Source\PSoC5/USBFS_1_std.c ****                         USBFS_1_tBuffer[1u]     = 0u;
 220:.\Generated_Source\PSoC5/USBFS_1_std.c ****                         USBFS_1_currentTD.pData = &USBFS_1_tBuffer[0u];
 221:.\Generated_Source\PSoC5/USBFS_1_std.c ****                         
 222:.\Generated_Source\PSoC5/USBFS_1_std.c ****                         requestHandled  = USBFS_1_InitControlRead();
 223:.\Generated_Source\PSoC5/USBFS_1_std.c ****                         break;
 224:.\Generated_Source\PSoC5/USBFS_1_std.c ****                     case USBFS_1_RQST_RCPT_DEV:
 225:.\Generated_Source\PSoC5/USBFS_1_std.c ****                         USBFS_1_currentTD.count = USBFS_1_DEVICE_STATUS_LENGTH;
 226:.\Generated_Source\PSoC5/USBFS_1_std.c ****                         USBFS_1_tBuffer[0u]     = USBFS_1_deviceStatus;
 227:.\Generated_Source\PSoC5/USBFS_1_std.c ****                         USBFS_1_tBuffer[1u]     = 0u;
 228:.\Generated_Source\PSoC5/USBFS_1_std.c ****                         USBFS_1_currentTD.pData = &USBFS_1_tBuffer[0u];
 229:.\Generated_Source\PSoC5/USBFS_1_std.c ****                         
 230:.\Generated_Source\PSoC5/USBFS_1_std.c ****                         requestHandled  = USBFS_1_InitControlRead();
 231:.\Generated_Source\PSoC5/USBFS_1_std.c ****                         break;
 232:.\Generated_Source\PSoC5/USBFS_1_std.c ****                     default:    /* requestHandled is initialized as FALSE by default */
 233:.\Generated_Source\PSoC5/USBFS_1_std.c ****                         break;
 234:.\Generated_Source\PSoC5/USBFS_1_std.c ****                 }
 235:.\Generated_Source\PSoC5/USBFS_1_std.c ****                 break;
 236:.\Generated_Source\PSoC5/USBFS_1_std.c ****                 
 237:.\Generated_Source\PSoC5/USBFS_1_std.c ****             case USBFS_1_GET_CONFIGURATION:
 238:.\Generated_Source\PSoC5/USBFS_1_std.c ****                 USBFS_1_currentTD.count = 1u;
 239:.\Generated_Source\PSoC5/USBFS_1_std.c ****                 USBFS_1_currentTD.pData = (volatile uint8 *) &USBFS_1_configuration;
 240:.\Generated_Source\PSoC5/USBFS_1_std.c ****                 requestHandled  = USBFS_1_InitControlRead();
 241:.\Generated_Source\PSoC5/USBFS_1_std.c ****                 break;
 242:.\Generated_Source\PSoC5/USBFS_1_std.c ****                 
 243:.\Generated_Source\PSoC5/USBFS_1_std.c ****             case USBFS_1_GET_INTERFACE:
 244:.\Generated_Source\PSoC5/USBFS_1_std.c ****                 USBFS_1_currentTD.count = 1u;
 245:.\Generated_Source\PSoC5/USBFS_1_std.c ****                 USBFS_1_currentTD.pData = (volatile uint8 *) &USBFS_1_interfaceSetting[USBFS_1_wInd
 246:.\Generated_Source\PSoC5/USBFS_1_std.c ****                 requestHandled  = USBFS_1_InitControlRead();
 247:.\Generated_Source\PSoC5/USBFS_1_std.c ****                 break;
 248:.\Generated_Source\PSoC5/USBFS_1_std.c ****                 
 249:.\Generated_Source\PSoC5/USBFS_1_std.c ****             default: /* requestHandled is initialized as FALSE by default */
 250:.\Generated_Source\PSoC5/USBFS_1_std.c ****                 break;
 251:.\Generated_Source\PSoC5/USBFS_1_std.c ****         }
 252:.\Generated_Source\PSoC5/USBFS_1_std.c ****     }
 253:.\Generated_Source\PSoC5/USBFS_1_std.c ****     else
 254:.\Generated_Source\PSoC5/USBFS_1_std.c ****     {
 255:.\Generated_Source\PSoC5/USBFS_1_std.c ****         /* Control Write */
 256:.\Generated_Source\PSoC5/USBFS_1_std.c ****         switch (USBFS_1_bRequestReg)
 257:.\Generated_Source\PSoC5/USBFS_1_std.c ****         {
 258:.\Generated_Source\PSoC5/USBFS_1_std.c ****             case USBFS_1_SET_ADDRESS:
 259:.\Generated_Source\PSoC5/USBFS_1_std.c ****                 /* Store address to be set in USBFS_1_NoDataControlStatusStage(). */
ARM GAS  C:\Users\LUKASC~1\AppData\Local\Temp\ccAgm3t8.s 			page 6


 260:.\Generated_Source\PSoC5/USBFS_1_std.c ****                 USBFS_1_deviceAddress = (uint8) USBFS_1_wValueLoReg;
 261:.\Generated_Source\PSoC5/USBFS_1_std.c ****                 requestHandled = USBFS_1_InitNoDataControlTransfer();
 262:.\Generated_Source\PSoC5/USBFS_1_std.c ****                 break;
 263:.\Generated_Source\PSoC5/USBFS_1_std.c ****                 
 264:.\Generated_Source\PSoC5/USBFS_1_std.c ****             case USBFS_1_SET_CONFIGURATION:
 265:.\Generated_Source\PSoC5/USBFS_1_std.c ****                 configurationN = USBFS_1_wValueLoReg;
 266:.\Generated_Source\PSoC5/USBFS_1_std.c ****                 
 267:.\Generated_Source\PSoC5/USBFS_1_std.c ****                 /* Verify that configuration descriptor exists */
 268:.\Generated_Source\PSoC5/USBFS_1_std.c ****                 if(configurationN > 0u)
 269:.\Generated_Source\PSoC5/USBFS_1_std.c ****                 {
 270:.\Generated_Source\PSoC5/USBFS_1_std.c ****                     pTmp = USBFS_1_GetConfigTablePtr((uint8) configurationN - 1u);
 271:.\Generated_Source\PSoC5/USBFS_1_std.c ****                 }
 272:.\Generated_Source\PSoC5/USBFS_1_std.c ****                 
 273:.\Generated_Source\PSoC5/USBFS_1_std.c ****                 /* Responds with a Request Error when configuration number is invalid */
 274:.\Generated_Source\PSoC5/USBFS_1_std.c ****                 if (((configurationN > 0u) && (pTmp != NULL)) || (configurationN == 0u))
 275:.\Generated_Source\PSoC5/USBFS_1_std.c ****                 {
 276:.\Generated_Source\PSoC5/USBFS_1_std.c ****                     /* Set new configuration if it has been changed */
 277:.\Generated_Source\PSoC5/USBFS_1_std.c ****                     if(configurationN != USBFS_1_configuration)
 278:.\Generated_Source\PSoC5/USBFS_1_std.c ****                     {
 279:.\Generated_Source\PSoC5/USBFS_1_std.c ****                         USBFS_1_configuration = (uint8) configurationN;
 280:.\Generated_Source\PSoC5/USBFS_1_std.c ****                         USBFS_1_configurationChanged = USBFS_1_TRUE;
 281:.\Generated_Source\PSoC5/USBFS_1_std.c ****                         USBFS_1_Config(USBFS_1_TRUE);
 282:.\Generated_Source\PSoC5/USBFS_1_std.c ****                     }
 283:.\Generated_Source\PSoC5/USBFS_1_std.c ****                     requestHandled = USBFS_1_InitNoDataControlTransfer();
 284:.\Generated_Source\PSoC5/USBFS_1_std.c ****                 }
 285:.\Generated_Source\PSoC5/USBFS_1_std.c ****                 break;
 286:.\Generated_Source\PSoC5/USBFS_1_std.c ****                 
 287:.\Generated_Source\PSoC5/USBFS_1_std.c ****             case USBFS_1_SET_INTERFACE:
 288:.\Generated_Source\PSoC5/USBFS_1_std.c ****                 if (0u != USBFS_1_ValidateAlternateSetting())
 289:.\Generated_Source\PSoC5/USBFS_1_std.c ****                 {
 290:.\Generated_Source\PSoC5/USBFS_1_std.c ****                     /* Get interface number from the request. */
 291:.\Generated_Source\PSoC5/USBFS_1_std.c ****                     interfaceNumber = USBFS_1_wIndexLoReg;
 292:.\Generated_Source\PSoC5/USBFS_1_std.c ****                     USBFS_1_interfaceNumber = (uint8) USBFS_1_wIndexLoReg;
 293:.\Generated_Source\PSoC5/USBFS_1_std.c ****                      
 294:.\Generated_Source\PSoC5/USBFS_1_std.c ****                     /* Check if alternate settings is changed for interface. */
 295:.\Generated_Source\PSoC5/USBFS_1_std.c ****                     if (USBFS_1_interfaceSettingLast[interfaceNumber] != USBFS_1_interfaceSetting[i
 296:.\Generated_Source\PSoC5/USBFS_1_std.c ****                     {
 297:.\Generated_Source\PSoC5/USBFS_1_std.c ****                         USBFS_1_configurationChanged = USBFS_1_TRUE;
 298:.\Generated_Source\PSoC5/USBFS_1_std.c ****                     
 299:.\Generated_Source\PSoC5/USBFS_1_std.c ****                         /* Change alternate setting for the endpoints. */
 300:.\Generated_Source\PSoC5/USBFS_1_std.c ****                     #if (USBFS_1_EP_MANAGEMENT_MANUAL && USBFS_1_EP_ALLOC_DYNAMIC)
 301:.\Generated_Source\PSoC5/USBFS_1_std.c ****                         USBFS_1_Config(USBFS_1_FALSE);
 302:.\Generated_Source\PSoC5/USBFS_1_std.c ****                     #else
 303:.\Generated_Source\PSoC5/USBFS_1_std.c ****                         USBFS_1_ConfigAltChanged();
 304:.\Generated_Source\PSoC5/USBFS_1_std.c ****                     #endif /* (USBFS_1_EP_MANAGEMENT_MANUAL && USBFS_1_EP_ALLOC_DYNAMIC) */
 305:.\Generated_Source\PSoC5/USBFS_1_std.c ****                     }
 306:.\Generated_Source\PSoC5/USBFS_1_std.c ****                     
 307:.\Generated_Source\PSoC5/USBFS_1_std.c ****                     requestHandled = USBFS_1_InitNoDataControlTransfer();
 308:.\Generated_Source\PSoC5/USBFS_1_std.c ****                 }
 309:.\Generated_Source\PSoC5/USBFS_1_std.c ****                 break;
 310:.\Generated_Source\PSoC5/USBFS_1_std.c ****                 
 311:.\Generated_Source\PSoC5/USBFS_1_std.c ****             case USBFS_1_CLEAR_FEATURE:
 312:.\Generated_Source\PSoC5/USBFS_1_std.c ****                 switch (bmRequestType & USBFS_1_RQST_RCPT_MASK)
 313:.\Generated_Source\PSoC5/USBFS_1_std.c ****                 {
 314:.\Generated_Source\PSoC5/USBFS_1_std.c ****                     case USBFS_1_RQST_RCPT_EP:
 315:.\Generated_Source\PSoC5/USBFS_1_std.c ****                         if (USBFS_1_wValueLoReg == USBFS_1_ENDPOINT_HALT)
 316:.\Generated_Source\PSoC5/USBFS_1_std.c ****                         {
ARM GAS  C:\Users\LUKASC~1\AppData\Local\Temp\ccAgm3t8.s 			page 7


 317:.\Generated_Source\PSoC5/USBFS_1_std.c ****                             requestHandled = USBFS_1_ClearEndpointHalt();
 318:.\Generated_Source\PSoC5/USBFS_1_std.c ****                         }
 319:.\Generated_Source\PSoC5/USBFS_1_std.c ****                         break;
 320:.\Generated_Source\PSoC5/USBFS_1_std.c ****                     case USBFS_1_RQST_RCPT_DEV:
 321:.\Generated_Source\PSoC5/USBFS_1_std.c ****                         /* Clear device REMOTE_WAKEUP */
 322:.\Generated_Source\PSoC5/USBFS_1_std.c ****                         if (USBFS_1_wValueLoReg == USBFS_1_DEVICE_REMOTE_WAKEUP)
 323:.\Generated_Source\PSoC5/USBFS_1_std.c ****                         {
 324:.\Generated_Source\PSoC5/USBFS_1_std.c ****                             USBFS_1_deviceStatus &= (uint8)~USBFS_1_DEVICE_STATUS_REMOTE_WAKEUP;
 325:.\Generated_Source\PSoC5/USBFS_1_std.c ****                             requestHandled = USBFS_1_InitNoDataControlTransfer();
 326:.\Generated_Source\PSoC5/USBFS_1_std.c ****                         }
 327:.\Generated_Source\PSoC5/USBFS_1_std.c ****                         break;
 328:.\Generated_Source\PSoC5/USBFS_1_std.c ****                     case USBFS_1_RQST_RCPT_IFC:
 329:.\Generated_Source\PSoC5/USBFS_1_std.c ****                         /* Validate interfaceNumber */
 330:.\Generated_Source\PSoC5/USBFS_1_std.c ****                         if (USBFS_1_wIndexLoReg < USBFS_1_MAX_INTERFACES_NUMBER)
 331:.\Generated_Source\PSoC5/USBFS_1_std.c ****                         {
 332:.\Generated_Source\PSoC5/USBFS_1_std.c ****                             USBFS_1_interfaceStatus[USBFS_1_wIndexLoReg] &= (uint8) ~USBFS_1_wValue
 333:.\Generated_Source\PSoC5/USBFS_1_std.c ****                             requestHandled = USBFS_1_InitNoDataControlTransfer();
 334:.\Generated_Source\PSoC5/USBFS_1_std.c ****                         }
 335:.\Generated_Source\PSoC5/USBFS_1_std.c ****                         break;
 336:.\Generated_Source\PSoC5/USBFS_1_std.c ****                     default:    /* requestHandled is initialized as FALSE by default */
 337:.\Generated_Source\PSoC5/USBFS_1_std.c ****                         break;
 338:.\Generated_Source\PSoC5/USBFS_1_std.c ****                 }
 339:.\Generated_Source\PSoC5/USBFS_1_std.c ****                 break;
 340:.\Generated_Source\PSoC5/USBFS_1_std.c ****                 
 341:.\Generated_Source\PSoC5/USBFS_1_std.c ****             case USBFS_1_SET_FEATURE:
 342:.\Generated_Source\PSoC5/USBFS_1_std.c ****                 switch (bmRequestType & USBFS_1_RQST_RCPT_MASK)
 343:.\Generated_Source\PSoC5/USBFS_1_std.c ****                 {
 344:.\Generated_Source\PSoC5/USBFS_1_std.c ****                     case USBFS_1_RQST_RCPT_EP:
 345:.\Generated_Source\PSoC5/USBFS_1_std.c ****                         if (USBFS_1_wValueLoReg == USBFS_1_ENDPOINT_HALT)
 346:.\Generated_Source\PSoC5/USBFS_1_std.c ****                         {
 347:.\Generated_Source\PSoC5/USBFS_1_std.c ****                             requestHandled = USBFS_1_SetEndpointHalt();
 348:.\Generated_Source\PSoC5/USBFS_1_std.c ****                         }
 349:.\Generated_Source\PSoC5/USBFS_1_std.c ****                         break;
 350:.\Generated_Source\PSoC5/USBFS_1_std.c ****                         
 351:.\Generated_Source\PSoC5/USBFS_1_std.c ****                     case USBFS_1_RQST_RCPT_DEV:
 352:.\Generated_Source\PSoC5/USBFS_1_std.c ****                         /* Set device REMOTE_WAKEUP */
 353:.\Generated_Source\PSoC5/USBFS_1_std.c ****                         if (USBFS_1_wValueLoReg == USBFS_1_DEVICE_REMOTE_WAKEUP)
 354:.\Generated_Source\PSoC5/USBFS_1_std.c ****                         {
 355:.\Generated_Source\PSoC5/USBFS_1_std.c ****                             USBFS_1_deviceStatus |= USBFS_1_DEVICE_STATUS_REMOTE_WAKEUP;
 356:.\Generated_Source\PSoC5/USBFS_1_std.c ****                             requestHandled = USBFS_1_InitNoDataControlTransfer();
 357:.\Generated_Source\PSoC5/USBFS_1_std.c ****                         }
 358:.\Generated_Source\PSoC5/USBFS_1_std.c ****                         break;
 359:.\Generated_Source\PSoC5/USBFS_1_std.c ****                         
 360:.\Generated_Source\PSoC5/USBFS_1_std.c ****                     case USBFS_1_RQST_RCPT_IFC:
 361:.\Generated_Source\PSoC5/USBFS_1_std.c ****                         /* Validate interfaceNumber */
 362:.\Generated_Source\PSoC5/USBFS_1_std.c ****                         if (USBFS_1_wIndexLoReg < USBFS_1_MAX_INTERFACES_NUMBER)
 363:.\Generated_Source\PSoC5/USBFS_1_std.c ****                         {
 364:.\Generated_Source\PSoC5/USBFS_1_std.c ****                             USBFS_1_interfaceStatus[USBFS_1_wIndexLoReg] &= (uint8) ~USBFS_1_wValue
 365:.\Generated_Source\PSoC5/USBFS_1_std.c ****                             requestHandled = USBFS_1_InitNoDataControlTransfer();
 366:.\Generated_Source\PSoC5/USBFS_1_std.c ****                         }
 367:.\Generated_Source\PSoC5/USBFS_1_std.c ****                         break;
 368:.\Generated_Source\PSoC5/USBFS_1_std.c ****                     
 369:.\Generated_Source\PSoC5/USBFS_1_std.c ****                     default:    /* requestHandled is initialized as FALSE by default */
 370:.\Generated_Source\PSoC5/USBFS_1_std.c ****                         break;
 371:.\Generated_Source\PSoC5/USBFS_1_std.c ****                 }
 372:.\Generated_Source\PSoC5/USBFS_1_std.c ****                 break;
 373:.\Generated_Source\PSoC5/USBFS_1_std.c ****                 
ARM GAS  C:\Users\LUKASC~1\AppData\Local\Temp\ccAgm3t8.s 			page 8


 374:.\Generated_Source\PSoC5/USBFS_1_std.c ****             default:    /* requestHandled is initialized as FALSE by default */
 375:.\Generated_Source\PSoC5/USBFS_1_std.c ****                 break;
 376:.\Generated_Source\PSoC5/USBFS_1_std.c ****         }
 377:.\Generated_Source\PSoC5/USBFS_1_std.c ****     }
 378:.\Generated_Source\PSoC5/USBFS_1_std.c ****     
 379:.\Generated_Source\PSoC5/USBFS_1_std.c ****     return (requestHandled);
 380:.\Generated_Source\PSoC5/USBFS_1_std.c **** }
 381:.\Generated_Source\PSoC5/USBFS_1_std.c **** 
 382:.\Generated_Source\PSoC5/USBFS_1_std.c **** 
 383:.\Generated_Source\PSoC5/USBFS_1_std.c **** #if defined(USBFS_1_ENABLE_IDSN_STRING)
 384:.\Generated_Source\PSoC5/USBFS_1_std.c ****     /***************************************************************************
 385:.\Generated_Source\PSoC5/USBFS_1_std.c ****     * Function Name: USBFS_1_ReadDieID
 386:.\Generated_Source\PSoC5/USBFS_1_std.c ****     ************************************************************************//**
 387:.\Generated_Source\PSoC5/USBFS_1_std.c ****     *
 388:.\Generated_Source\PSoC5/USBFS_1_std.c ****     *  This routine read Die ID and generate Serial Number string descriptor.
 389:.\Generated_Source\PSoC5/USBFS_1_std.c ****     *
 390:.\Generated_Source\PSoC5/USBFS_1_std.c ****     *  \param descr:  pointer on string descriptor. This string size has to be equal or
 391:.\Generated_Source\PSoC5/USBFS_1_std.c ****     *          greater than USBFS_1_IDSN_DESCR_LENGTH.
 392:.\Generated_Source\PSoC5/USBFS_1_std.c ****     *
 393:.\Generated_Source\PSoC5/USBFS_1_std.c ****     *
 394:.\Generated_Source\PSoC5/USBFS_1_std.c ****     * \reentrant
 395:.\Generated_Source\PSoC5/USBFS_1_std.c ****     *  No.
 396:.\Generated_Source\PSoC5/USBFS_1_std.c ****     *
 397:.\Generated_Source\PSoC5/USBFS_1_std.c ****     ***************************************************************************/
 398:.\Generated_Source\PSoC5/USBFS_1_std.c ****     void USBFS_1_ReadDieID(uint8 descr[]) 
 399:.\Generated_Source\PSoC5/USBFS_1_std.c ****     {
 400:.\Generated_Source\PSoC5/USBFS_1_std.c ****         const char8 CYCODE hex[] = "0123456789ABCDEF";
 401:.\Generated_Source\PSoC5/USBFS_1_std.c ****         uint8 i;
 402:.\Generated_Source\PSoC5/USBFS_1_std.c ****         uint8 j = 0u;
 403:.\Generated_Source\PSoC5/USBFS_1_std.c ****         uint8 uniqueId[8u];
 404:.\Generated_Source\PSoC5/USBFS_1_std.c **** 
 405:.\Generated_Source\PSoC5/USBFS_1_std.c ****         if (NULL != descr)
 406:.\Generated_Source\PSoC5/USBFS_1_std.c ****         {
 407:.\Generated_Source\PSoC5/USBFS_1_std.c ****             /* Initialize descriptor header. */
 408:.\Generated_Source\PSoC5/USBFS_1_std.c ****             descr[0u] = USBFS_1_IDSN_DESCR_LENGTH;
 409:.\Generated_Source\PSoC5/USBFS_1_std.c ****             descr[1u] = USBFS_1_DESCR_STRING;
 410:.\Generated_Source\PSoC5/USBFS_1_std.c ****             
 411:.\Generated_Source\PSoC5/USBFS_1_std.c ****             /* Unique ID size is 8 bytes. */
 412:.\Generated_Source\PSoC5/USBFS_1_std.c ****             CyGetUniqueId((uint32 *) uniqueId);
 413:.\Generated_Source\PSoC5/USBFS_1_std.c **** 
 414:.\Generated_Source\PSoC5/USBFS_1_std.c ****             /* Fill descriptor with unique device ID. */
 415:.\Generated_Source\PSoC5/USBFS_1_std.c ****             for (i = 2u; i < USBFS_1_IDSN_DESCR_LENGTH; i += 4u)
 416:.\Generated_Source\PSoC5/USBFS_1_std.c ****             {
 417:.\Generated_Source\PSoC5/USBFS_1_std.c ****                 descr[i]      = (uint8) hex[(uniqueId[j] >> 4u)];
 418:.\Generated_Source\PSoC5/USBFS_1_std.c ****                 descr[i + 1u] = 0u;
 419:.\Generated_Source\PSoC5/USBFS_1_std.c ****                 descr[i + 2u] = (uint8) hex[(uniqueId[j] & 0x0Fu)];
 420:.\Generated_Source\PSoC5/USBFS_1_std.c ****                 descr[i + 3u] = 0u;
 421:.\Generated_Source\PSoC5/USBFS_1_std.c ****                 ++j;
 422:.\Generated_Source\PSoC5/USBFS_1_std.c ****             }
 423:.\Generated_Source\PSoC5/USBFS_1_std.c ****         }
 424:.\Generated_Source\PSoC5/USBFS_1_std.c ****     }
 425:.\Generated_Source\PSoC5/USBFS_1_std.c **** #endif /* (USBFS_1_ENABLE_IDSN_STRING) */
 426:.\Generated_Source\PSoC5/USBFS_1_std.c **** 
 427:.\Generated_Source\PSoC5/USBFS_1_std.c **** 
 428:.\Generated_Source\PSoC5/USBFS_1_std.c **** /*******************************************************************************
 429:.\Generated_Source\PSoC5/USBFS_1_std.c **** * Function Name: USBFS_1_ConfigReg
 430:.\Generated_Source\PSoC5/USBFS_1_std.c **** ****************************************************************************//**
ARM GAS  C:\Users\LUKASC~1\AppData\Local\Temp\ccAgm3t8.s 			page 9


 431:.\Generated_Source\PSoC5/USBFS_1_std.c **** *
 432:.\Generated_Source\PSoC5/USBFS_1_std.c **** *  This routine configures hardware registers from the variables.
 433:.\Generated_Source\PSoC5/USBFS_1_std.c **** *  It is called from USBFS_1_Config() function and from RestoreConfig
 434:.\Generated_Source\PSoC5/USBFS_1_std.c **** *  after Wakeup.
 435:.\Generated_Source\PSoC5/USBFS_1_std.c **** *
 436:.\Generated_Source\PSoC5/USBFS_1_std.c **** *******************************************************************************/
 437:.\Generated_Source\PSoC5/USBFS_1_std.c **** void USBFS_1_ConfigReg(void) 
 438:.\Generated_Source\PSoC5/USBFS_1_std.c **** {
  27              		.loc 1 438 0
  28              		.cfi_startproc
  29              		@ args = 0, pretend = 0, frame = 0
  30              		@ frame_needed = 0, uses_anonymous_args = 0
  31              		@ link register save eliminated.
  32 0000 70B4     		push	{r4, r5, r6}
  33              		.cfi_def_cfa_offset 12
  34              		.cfi_offset 4, -12
  35              		.cfi_offset 5, -8
  36              		.cfi_offset 6, -4
  37              	.LVL0:
 439:.\Generated_Source\PSoC5/USBFS_1_std.c ****     uint8 ep;
 440:.\Generated_Source\PSoC5/USBFS_1_std.c **** 
 441:.\Generated_Source\PSoC5/USBFS_1_std.c **** #if (USBFS_1_EP_MANAGEMENT_DMA_AUTO)
 442:.\Generated_Source\PSoC5/USBFS_1_std.c ****     uint8 epType = 0u;
  38              		.loc 1 442 0
  39 0002 0024     		movs	r4, #0
 443:.\Generated_Source\PSoC5/USBFS_1_std.c **** #endif /* (USBFS_1_EP_MANAGEMENT_DMA_AUTO) */
 444:.\Generated_Source\PSoC5/USBFS_1_std.c **** 
 445:.\Generated_Source\PSoC5/USBFS_1_std.c ****     /* Go thought all endpoints and set hardware configuration */
 446:.\Generated_Source\PSoC5/USBFS_1_std.c ****     for (ep = USBFS_1_EP1; ep < USBFS_1_MAX_EP; ++ep)
  40              		.loc 1 446 0
  41 0004 0123     		movs	r3, #1
  42 0006 2CE0     		b	.L2
  43              	.LVL1:
  44              	.L6:
 447:.\Generated_Source\PSoC5/USBFS_1_std.c ****     {
 448:.\Generated_Source\PSoC5/USBFS_1_std.c ****         USBFS_1_ARB_EP_BASE.arbEp[ep].epCfg = USBFS_1_ARB_EPX_CFG_DEFAULT;
  45              		.loc 1 448 0
  46 0008 2549     		ldr	r1, .L8
  47 000a 1A01     		lsls	r2, r3, #4
  48 000c 8D18     		adds	r5, r1, r2
  49 000e 0C26     		movs	r6, #12
  50 0010 8E54     		strb	r6, [r1, r2]
 449:.\Generated_Source\PSoC5/USBFS_1_std.c ****         
 450:.\Generated_Source\PSoC5/USBFS_1_std.c ****     #if (USBFS_1_EP_MANAGEMENT_DMA)
 451:.\Generated_Source\PSoC5/USBFS_1_std.c ****         /* Enable arbiter endpoint interrupt sources */
 452:.\Generated_Source\PSoC5/USBFS_1_std.c ****         USBFS_1_ARB_EP_BASE.arbEp[ep].epIntEn = USBFS_1_ARB_EPX_INT_MASK;
  51              		.loc 1 452 0
  52 0012 1D22     		movs	r2, #29
  53 0014 6A70     		strb	r2, [r5, #1]
 453:.\Generated_Source\PSoC5/USBFS_1_std.c ****     #endif /* (USBFS_1_EP_MANAGEMENT_DMA) */
 454:.\Generated_Source\PSoC5/USBFS_1_std.c ****     
 455:.\Generated_Source\PSoC5/USBFS_1_std.c ****         if (USBFS_1_EP[ep].epMode != USBFS_1_MODE_DISABLE)
  54              		.loc 1 455 0
  55 0016 03EB4302 		add	r2, r3, r3, lsl #1
  56 001a 9200     		lsls	r2, r2, #2
  57 001c 2149     		ldr	r1, .L8+4
  58 001e 0A44     		add	r2, r2, r1
ARM GAS  C:\Users\LUKASC~1\AppData\Local\Temp\ccAgm3t8.s 			page 10


  59 0020 5279     		ldrb	r2, [r2, #5]	@ zero_extendqisi2
  60 0022 12F0FF0F 		tst	r2, #255
  61 0026 15D0     		beq	.L3
 456:.\Generated_Source\PSoC5/USBFS_1_std.c ****         {
 457:.\Generated_Source\PSoC5/USBFS_1_std.c ****             if (0u != (USBFS_1_EP[ep].addr & USBFS_1_DIR_IN))
  62              		.loc 1 457 0
  63 0028 03EB4302 		add	r2, r3, r3, lsl #1
  64 002c 9200     		lsls	r2, r2, #2
  65 002e 0A44     		add	r2, r2, r1
  66 0030 1279     		ldrb	r2, [r2, #4]	@ zero_extendqisi2
  67 0032 12F0800F 		tst	r2, #128
  68 0036 03D0     		beq	.L4
 458:.\Generated_Source\PSoC5/USBFS_1_std.c ****             {
 459:.\Generated_Source\PSoC5/USBFS_1_std.c ****                 USBFS_1_SIE_EP_BASE.sieEp[ep].epCr0 = USBFS_1_MODE_NAK_IN;
  69              		.loc 1 459 0
  70 0038 1801     		lsls	r0, r3, #4
  71 003a 1B4A     		ldr	r2, .L8+8
  72 003c 1654     		strb	r6, [r2, r0]
  73 003e 0EE0     		b	.L5
  74              	.L4:
 460:.\Generated_Source\PSoC5/USBFS_1_std.c ****                 
 461:.\Generated_Source\PSoC5/USBFS_1_std.c ****             #if (USBFS_1_EP_MANAGEMENT_DMA_AUTO && CY_PSOC4)
 462:.\Generated_Source\PSoC5/USBFS_1_std.c ****                 /* Clear DMA_TERMIN for IN endpoint. */
 463:.\Generated_Source\PSoC5/USBFS_1_std.c ****                 USBFS_1_ARB_EP_BASE.arbEp[ep].epIntEn &= (uint32) ~USBFS_1_ARB_EPX_INT_DMA_TERMIN;
 464:.\Generated_Source\PSoC5/USBFS_1_std.c ****             #endif /* (USBFS_1_EP_MANAGEMENT_DMA_AUTO && CY_PSOC4) */
 465:.\Generated_Source\PSoC5/USBFS_1_std.c ****             }
 466:.\Generated_Source\PSoC5/USBFS_1_std.c ****             else
 467:.\Generated_Source\PSoC5/USBFS_1_std.c ****             {
 468:.\Generated_Source\PSoC5/USBFS_1_std.c ****                 USBFS_1_SIE_EP_BASE.sieEp[ep].epCr0 = USBFS_1_MODE_NAK_OUT;
  75              		.loc 1 468 0
  76 0040 1801     		lsls	r0, r3, #4
  77 0042 194A     		ldr	r2, .L8+8
  78 0044 0821     		movs	r1, #8
  79 0046 1154     		strb	r1, [r2, r0]
 469:.\Generated_Source\PSoC5/USBFS_1_std.c **** 
 470:.\Generated_Source\PSoC5/USBFS_1_std.c ****             #if (USBFS_1_EP_MANAGEMENT_DMA_AUTO)
 471:.\Generated_Source\PSoC5/USBFS_1_std.c ****                 /* (CY_PSOC4): DMA_TERMIN for OUT endpoint is set above. */
 472:.\Generated_Source\PSoC5/USBFS_1_std.c ****                 
 473:.\Generated_Source\PSoC5/USBFS_1_std.c ****                 /* Prepare endpoint type mask. */
 474:.\Generated_Source\PSoC5/USBFS_1_std.c ****                 epType |= (uint8) (0x01u << (ep - USBFS_1_EP1));
  80              		.loc 1 474 0
  81 0048 591E     		subs	r1, r3, #1
  82 004a 0122     		movs	r2, #1
  83 004c 8A40     		lsls	r2, r2, r1
  84 004e D2B2     		uxtb	r2, r2
  85 0050 1443     		orrs	r4, r4, r2
  86              	.LVL2:
  87 0052 04E0     		b	.L5
  88              	.L3:
 475:.\Generated_Source\PSoC5/USBFS_1_std.c ****             #endif /* (USBFS_1_EP_MANAGEMENT_DMA_AUTO) */
 476:.\Generated_Source\PSoC5/USBFS_1_std.c ****             }
 477:.\Generated_Source\PSoC5/USBFS_1_std.c ****         }
 478:.\Generated_Source\PSoC5/USBFS_1_std.c ****         else
 479:.\Generated_Source\PSoC5/USBFS_1_std.c ****         {
 480:.\Generated_Source\PSoC5/USBFS_1_std.c ****             USBFS_1_SIE_EP_BASE.sieEp[ep].epCr0 = USBFS_1_MODE_STALL_DATA_EP;
  89              		.loc 1 480 0
  90 0054 1901     		lsls	r1, r3, #4
ARM GAS  C:\Users\LUKASC~1\AppData\Local\Temp\ccAgm3t8.s 			page 11


  91 0056 154A     		ldr	r2, .L8+12
  92 0058 0A44     		add	r2, r2, r1
  93 005a 8021     		movs	r1, #128
  94 005c 9170     		strb	r1, [r2, #2]
  95              	.L5:
 446:.\Generated_Source\PSoC5/USBFS_1_std.c ****     {
  96              		.loc 1 446 0 discriminator 2
  97 005e 0133     		adds	r3, r3, #1
  98              	.LVL3:
  99 0060 DBB2     		uxtb	r3, r3
 100              	.LVL4:
 101              	.L2:
 446:.\Generated_Source\PSoC5/USBFS_1_std.c ****     {
 102              		.loc 1 446 0 is_stmt 0 discriminator 1
 103 0062 082B     		cmp	r3, #8
 104 0064 D0D9     		bls	.L6
 481:.\Generated_Source\PSoC5/USBFS_1_std.c ****         }
 482:.\Generated_Source\PSoC5/USBFS_1_std.c ****         
 483:.\Generated_Source\PSoC5/USBFS_1_std.c ****     #if (!USBFS_1_EP_MANAGEMENT_DMA_AUTO)
 484:.\Generated_Source\PSoC5/USBFS_1_std.c ****         #if (CY_PSOC4)
 485:.\Generated_Source\PSoC5/USBFS_1_std.c ****             USBFS_1_ARB_EP16_BASE.arbEp[ep].rwRa16  = (uint32) USBFS_1_EP[ep].buffOffset;
 486:.\Generated_Source\PSoC5/USBFS_1_std.c ****             USBFS_1_ARB_EP16_BASE.arbEp[ep].rwWa16  = (uint32) USBFS_1_EP[ep].buffOffset;
 487:.\Generated_Source\PSoC5/USBFS_1_std.c ****         #else
 488:.\Generated_Source\PSoC5/USBFS_1_std.c ****             USBFS_1_ARB_EP_BASE.arbEp[ep].rwRa    = LO8(USBFS_1_EP[ep].buffOffset);
 489:.\Generated_Source\PSoC5/USBFS_1_std.c ****             USBFS_1_ARB_EP_BASE.arbEp[ep].rwRaMsb = HI8(USBFS_1_EP[ep].buffOffset);
 490:.\Generated_Source\PSoC5/USBFS_1_std.c ****             USBFS_1_ARB_EP_BASE.arbEp[ep].rwWa    = LO8(USBFS_1_EP[ep].buffOffset);
 491:.\Generated_Source\PSoC5/USBFS_1_std.c ****             USBFS_1_ARB_EP_BASE.arbEp[ep].rwWaMsb = HI8(USBFS_1_EP[ep].buffOffset);
 492:.\Generated_Source\PSoC5/USBFS_1_std.c ****         #endif /* (CY_PSOC4) */
 493:.\Generated_Source\PSoC5/USBFS_1_std.c ****     #endif /* (!USBFS_1_EP_MANAGEMENT_DMA_AUTO) */
 494:.\Generated_Source\PSoC5/USBFS_1_std.c ****     }
 495:.\Generated_Source\PSoC5/USBFS_1_std.c **** 
 496:.\Generated_Source\PSoC5/USBFS_1_std.c **** #if (USBFS_1_EP_MANAGEMENT_DMA_AUTO)
 497:.\Generated_Source\PSoC5/USBFS_1_std.c ****      /* BUF_SIZE depend on DMA_THRESS value:0x55-32 bytes  0x44-16 bytes 0x33-8 bytes 0x22-4 bytes 
 498:.\Generated_Source\PSoC5/USBFS_1_std.c ****     USBFS_1_BUF_SIZE_REG = USBFS_1_DMA_BUF_SIZE;
 105              		.loc 1 498 0 is_stmt 1
 106 0066 5522     		movs	r2, #85
 107 0068 114B     		ldr	r3, .L8+16
 108              	.LVL5:
 109 006a 1A70     		strb	r2, [r3]
 499:.\Generated_Source\PSoC5/USBFS_1_std.c **** 
 500:.\Generated_Source\PSoC5/USBFS_1_std.c ****     /* Configure DMA burst threshold */
 501:.\Generated_Source\PSoC5/USBFS_1_std.c **** #if (CY_PSOC4)
 502:.\Generated_Source\PSoC5/USBFS_1_std.c ****     USBFS_1_DMA_THRES16_REG   = USBFS_1_DMA_BYTES_PER_BURST;
 503:.\Generated_Source\PSoC5/USBFS_1_std.c **** #else
 504:.\Generated_Source\PSoC5/USBFS_1_std.c ****     USBFS_1_DMA_THRES_REG     = USBFS_1_DMA_BYTES_PER_BURST;
 110              		.loc 1 504 0
 111 006c 2022     		movs	r2, #32
 112 006e 3033     		adds	r3, r3, #48
 113 0070 1A70     		strb	r2, [r3]
 505:.\Generated_Source\PSoC5/USBFS_1_std.c ****     USBFS_1_DMA_THRES_MSB_REG = 0u;
 114              		.loc 1 505 0
 115 0072 0022     		movs	r2, #0
 116 0074 0133     		adds	r3, r3, #1
 117 0076 1A70     		strb	r2, [r3]
 506:.\Generated_Source\PSoC5/USBFS_1_std.c **** #endif /* (CY_PSOC4) */
 507:.\Generated_Source\PSoC5/USBFS_1_std.c ****     USBFS_1_EP_ACTIVE_REG = USBFS_1_DEFAULT_ARB_INT_EN;
 118              		.loc 1 507 0
ARM GAS  C:\Users\LUKASC~1\AppData\Local\Temp\ccAgm3t8.s 			page 12


 119 0078 0222     		movs	r2, #2
 120 007a 2F3B     		subs	r3, r3, #47
 121 007c 1A70     		strb	r2, [r3]
 508:.\Generated_Source\PSoC5/USBFS_1_std.c ****     USBFS_1_EP_TYPE_REG   = epType;
 122              		.loc 1 508 0
 123 007e 0133     		adds	r3, r3, #1
 124 0080 1C70     		strb	r4, [r3]
 509:.\Generated_Source\PSoC5/USBFS_1_std.c ****     
 510:.\Generated_Source\PSoC5/USBFS_1_std.c ****     /* Cfg_cmp bit set to 1 once configuration is complete. */
 511:.\Generated_Source\PSoC5/USBFS_1_std.c ****     /* Lock arbiter configtuation */
 512:.\Generated_Source\PSoC5/USBFS_1_std.c ****     USBFS_1_ARB_CFG_REG |= (uint8)  USBFS_1_ARB_CFG_CFG_CMP;
 125              		.loc 1 512 0
 126 0082 0D33     		adds	r3, r3, #13
 127 0084 1A78     		ldrb	r2, [r3]	@ zero_extendqisi2
 128 0086 42F08002 		orr	r2, r2, #128
 129 008a 1A70     		strb	r2, [r3]
 513:.\Generated_Source\PSoC5/USBFS_1_std.c ****     /* Cfg_cmp bit set to 0 during configuration of PFSUSB Registers. */
 514:.\Generated_Source\PSoC5/USBFS_1_std.c ****     USBFS_1_ARB_CFG_REG &= (uint8) ~USBFS_1_ARB_CFG_CFG_CMP;
 130              		.loc 1 514 0
 131 008c 1A78     		ldrb	r2, [r3]	@ zero_extendqisi2
 132 008e 02F07F02 		and	r2, r2, #127
 133 0092 1A70     		strb	r2, [r3]
 515:.\Generated_Source\PSoC5/USBFS_1_std.c **** 
 516:.\Generated_Source\PSoC5/USBFS_1_std.c **** #endif /* (USBFS_1_EP_MANAGEMENT_DMA_AUTO) */
 517:.\Generated_Source\PSoC5/USBFS_1_std.c **** 
 518:.\Generated_Source\PSoC5/USBFS_1_std.c ****     /* Enable interrupt SIE interurpt source from EP0-EP1 */
 519:.\Generated_Source\PSoC5/USBFS_1_std.c ****     USBFS_1_SIE_EP_INT_EN_REG = (uint8) USBFS_1_DEFAULT_SIE_EP_INT_EN;
 134              		.loc 1 519 0
 135 0094 FF22     		movs	r2, #255
 136 0096 923B     		subs	r3, r3, #146
 137 0098 1A70     		strb	r2, [r3]
 520:.\Generated_Source\PSoC5/USBFS_1_std.c **** }
 138              		.loc 1 520 0
 139 009a 70BC     		pop	{r4, r5, r6}
 140              		.cfi_restore 6
 141              		.cfi_restore 5
 142              		.cfi_restore 4
 143              		.cfi_def_cfa_offset 0
 144              	.LVL6:
 145 009c 7047     		bx	lr
 146              	.L9:
 147 009e 00BF     		.align	2
 148              	.L8:
 149 00a0 70600040 		.word	1073766512
 150 00a4 00000000 		.word	USBFS_1_EP
 151 00a8 FE5F0040 		.word	1073766398
 152 00ac FC5F0040 		.word	1073766396
 153 00b0 8C600040 		.word	1073766540
 154              		.cfi_endproc
 155              	.LFE1:
 156              		.size	USBFS_1_ConfigReg, .-USBFS_1_ConfigReg
 157              		.section	.text.USBFS_1_EpStateInit,"ax",%progbits
 158              		.align	2
 159              		.global	USBFS_1_EpStateInit
 160              		.thumb
 161              		.thumb_func
 162              		.type	USBFS_1_EpStateInit, %function
ARM GAS  C:\Users\LUKASC~1\AppData\Local\Temp\ccAgm3t8.s 			page 13


 163              	USBFS_1_EpStateInit:
 164              	.LFB2:
 521:.\Generated_Source\PSoC5/USBFS_1_std.c **** 
 522:.\Generated_Source\PSoC5/USBFS_1_std.c **** 
 523:.\Generated_Source\PSoC5/USBFS_1_std.c **** /*******************************************************************************
 524:.\Generated_Source\PSoC5/USBFS_1_std.c **** * Function Name: USBFS_1_EpStateInit
 525:.\Generated_Source\PSoC5/USBFS_1_std.c **** ****************************************************************************//**
 526:.\Generated_Source\PSoC5/USBFS_1_std.c **** *
 527:.\Generated_Source\PSoC5/USBFS_1_std.c **** *  This routine initialize state of Data end points based of its type: 
 528:.\Generated_Source\PSoC5/USBFS_1_std.c **** *   IN  - USBFS_1_IN_BUFFER_EMPTY (USBFS_1_EVENT_PENDING)
 529:.\Generated_Source\PSoC5/USBFS_1_std.c **** *   OUT - USBFS_1_OUT_BUFFER_EMPTY (USBFS_1_NO_EVENT_PENDING)
 530:.\Generated_Source\PSoC5/USBFS_1_std.c **** *
 531:.\Generated_Source\PSoC5/USBFS_1_std.c **** *******************************************************************************/
 532:.\Generated_Source\PSoC5/USBFS_1_std.c **** void USBFS_1_EpStateInit(void) 
 533:.\Generated_Source\PSoC5/USBFS_1_std.c **** {
 165              		.loc 1 533 0
 166              		.cfi_startproc
 167              		@ args = 0, pretend = 0, frame = 0
 168              		@ frame_needed = 0, uses_anonymous_args = 0
 169              		@ link register save eliminated.
 170              	.LVL7:
 534:.\Generated_Source\PSoC5/USBFS_1_std.c ****     uint8 i;
 535:.\Generated_Source\PSoC5/USBFS_1_std.c **** 
 536:.\Generated_Source\PSoC5/USBFS_1_std.c ****     for (i = USBFS_1_EP1; i < USBFS_1_MAX_EP; i++)
 171              		.loc 1 536 0
 172 0000 0123     		movs	r3, #1
 173 0002 18E0     		b	.L11
 174              	.LVL8:
 175              	.L14:
 537:.\Generated_Source\PSoC5/USBFS_1_std.c ****     { 
 538:.\Generated_Source\PSoC5/USBFS_1_std.c ****         if (0u != (USBFS_1_EP[i].addr & USBFS_1_DIR_IN))
 176              		.loc 1 538 0
 177 0004 03EB4302 		add	r2, r3, r3, lsl #1
 178 0008 9200     		lsls	r2, r2, #2
 179 000a 0C49     		ldr	r1, .L15
 180 000c 0A44     		add	r2, r2, r1
 181 000e 1279     		ldrb	r2, [r2, #4]	@ zero_extendqisi2
 182 0010 12F0800F 		tst	r2, #128
 183 0014 06D0     		beq	.L12
 539:.\Generated_Source\PSoC5/USBFS_1_std.c ****         {
 540:.\Generated_Source\PSoC5/USBFS_1_std.c ****             /* IN Endpoint */
 541:.\Generated_Source\PSoC5/USBFS_1_std.c ****             USBFS_1_EP[i].apiEpState = USBFS_1_EVENT_PENDING;
 184              		.loc 1 541 0
 185 0016 03EB4302 		add	r2, r3, r3, lsl #1
 186 001a 9200     		lsls	r2, r2, #2
 187 001c 0A44     		add	r2, r2, r1
 188 001e 0121     		movs	r1, #1
 189 0020 5170     		strb	r1, [r2, #1]
 190 0022 06E0     		b	.L13
 191              	.L12:
 542:.\Generated_Source\PSoC5/USBFS_1_std.c ****         }
 543:.\Generated_Source\PSoC5/USBFS_1_std.c ****         else
 544:.\Generated_Source\PSoC5/USBFS_1_std.c ****         {
 545:.\Generated_Source\PSoC5/USBFS_1_std.c ****             /* OUT Endpoint */
 546:.\Generated_Source\PSoC5/USBFS_1_std.c ****             USBFS_1_EP[i].apiEpState = USBFS_1_NO_EVENT_PENDING;
 192              		.loc 1 546 0
 193 0024 03EB4302 		add	r2, r3, r3, lsl #1
ARM GAS  C:\Users\LUKASC~1\AppData\Local\Temp\ccAgm3t8.s 			page 14


 194 0028 9200     		lsls	r2, r2, #2
 195 002a 0449     		ldr	r1, .L15
 196 002c 0A44     		add	r2, r2, r1
 197 002e 0021     		movs	r1, #0
 198 0030 5170     		strb	r1, [r2, #1]
 199              	.L13:
 536:.\Generated_Source\PSoC5/USBFS_1_std.c ****     { 
 200              		.loc 1 536 0 discriminator 2
 201 0032 0133     		adds	r3, r3, #1
 202              	.LVL9:
 203 0034 DBB2     		uxtb	r3, r3
 204              	.LVL10:
 205              	.L11:
 536:.\Generated_Source\PSoC5/USBFS_1_std.c ****     { 
 206              		.loc 1 536 0 is_stmt 0 discriminator 1
 207 0036 082B     		cmp	r3, #8
 208 0038 E4D9     		bls	.L14
 547:.\Generated_Source\PSoC5/USBFS_1_std.c ****         }
 548:.\Generated_Source\PSoC5/USBFS_1_std.c ****     }
 549:.\Generated_Source\PSoC5/USBFS_1_std.c ****                     
 550:.\Generated_Source\PSoC5/USBFS_1_std.c **** }
 209              		.loc 1 550 0 is_stmt 1
 210 003a 7047     		bx	lr
 211              	.L16:
 212              		.align	2
 213              	.L15:
 214 003c 00000000 		.word	USBFS_1_EP
 215              		.cfi_endproc
 216              	.LFE2:
 217              		.size	USBFS_1_EpStateInit, .-USBFS_1_EpStateInit
 218              		.section	.text.USBFS_1_GetConfigTablePtr,"ax",%progbits
 219              		.align	2
 220              		.global	USBFS_1_GetConfigTablePtr
 221              		.thumb
 222              		.thumb_func
 223              		.type	USBFS_1_GetConfigTablePtr, %function
 224              	USBFS_1_GetConfigTablePtr:
 225              	.LFB5:
 551:.\Generated_Source\PSoC5/USBFS_1_std.c **** 
 552:.\Generated_Source\PSoC5/USBFS_1_std.c **** 
 553:.\Generated_Source\PSoC5/USBFS_1_std.c **** /*******************************************************************************
 554:.\Generated_Source\PSoC5/USBFS_1_std.c **** * Function Name: USBFS_1_Config
 555:.\Generated_Source\PSoC5/USBFS_1_std.c **** ****************************************************************************//**
 556:.\Generated_Source\PSoC5/USBFS_1_std.c **** *
 557:.\Generated_Source\PSoC5/USBFS_1_std.c **** *  This routine configures endpoints for the entire configuration by scanning
 558:.\Generated_Source\PSoC5/USBFS_1_std.c **** *  the configuration descriptor.
 559:.\Generated_Source\PSoC5/USBFS_1_std.c **** *
 560:.\Generated_Source\PSoC5/USBFS_1_std.c **** *  \param clearAltSetting: It configures the bAlternateSetting 0 for each interface.
 561:.\Generated_Source\PSoC5/USBFS_1_std.c **** *
 562:.\Generated_Source\PSoC5/USBFS_1_std.c **** * USBFS_1_interfaceClass - Initialized class array for each interface.
 563:.\Generated_Source\PSoC5/USBFS_1_std.c **** *   It is used for handling Class specific requests depend on interface class.
 564:.\Generated_Source\PSoC5/USBFS_1_std.c **** *   Different classes in multiple Alternate settings does not supported.
 565:.\Generated_Source\PSoC5/USBFS_1_std.c **** *
 566:.\Generated_Source\PSoC5/USBFS_1_std.c **** * \reentrant
 567:.\Generated_Source\PSoC5/USBFS_1_std.c **** *  No.
 568:.\Generated_Source\PSoC5/USBFS_1_std.c **** *
 569:.\Generated_Source\PSoC5/USBFS_1_std.c **** *******************************************************************************/
ARM GAS  C:\Users\LUKASC~1\AppData\Local\Temp\ccAgm3t8.s 			page 15


 570:.\Generated_Source\PSoC5/USBFS_1_std.c **** void USBFS_1_Config(uint8 clearAltSetting) 
 571:.\Generated_Source\PSoC5/USBFS_1_std.c **** {
 572:.\Generated_Source\PSoC5/USBFS_1_std.c ****     uint8 ep;
 573:.\Generated_Source\PSoC5/USBFS_1_std.c ****     uint8 curEp;
 574:.\Generated_Source\PSoC5/USBFS_1_std.c ****     uint8 i;
 575:.\Generated_Source\PSoC5/USBFS_1_std.c ****     uint8 epType;
 576:.\Generated_Source\PSoC5/USBFS_1_std.c ****     const uint8 *pDescr;
 577:.\Generated_Source\PSoC5/USBFS_1_std.c ****     
 578:.\Generated_Source\PSoC5/USBFS_1_std.c ****     #if (!USBFS_1_EP_MANAGEMENT_DMA_AUTO)
 579:.\Generated_Source\PSoC5/USBFS_1_std.c ****         uint16 buffCount = 0u;
 580:.\Generated_Source\PSoC5/USBFS_1_std.c ****     #endif /* (!USBFS_1_EP_MANAGEMENT_DMA_AUTO) */
 581:.\Generated_Source\PSoC5/USBFS_1_std.c **** 
 582:.\Generated_Source\PSoC5/USBFS_1_std.c ****     const T_USBFS_1_LUT CYCODE *pTmp;
 583:.\Generated_Source\PSoC5/USBFS_1_std.c ****     const T_USBFS_1_EP_SETTINGS_BLOCK CYCODE *pEP;
 584:.\Generated_Source\PSoC5/USBFS_1_std.c **** 
 585:.\Generated_Source\PSoC5/USBFS_1_std.c ****     /* Clear endpoints settings */
 586:.\Generated_Source\PSoC5/USBFS_1_std.c ****     for (ep = 0u; ep < USBFS_1_MAX_EP; ++ep)
 587:.\Generated_Source\PSoC5/USBFS_1_std.c ****     {
 588:.\Generated_Source\PSoC5/USBFS_1_std.c ****         USBFS_1_EP[ep].attrib     = 0u;
 589:.\Generated_Source\PSoC5/USBFS_1_std.c ****         USBFS_1_EP[ep].hwEpState  = 0u;
 590:.\Generated_Source\PSoC5/USBFS_1_std.c ****         USBFS_1_EP[ep].epToggle   = 0u;
 591:.\Generated_Source\PSoC5/USBFS_1_std.c ****         USBFS_1_EP[ep].bufferSize = 0u;
 592:.\Generated_Source\PSoC5/USBFS_1_std.c ****         USBFS_1_EP[ep].interface  = 0u;
 593:.\Generated_Source\PSoC5/USBFS_1_std.c ****         USBFS_1_EP[ep].apiEpState = USBFS_1_NO_EVENT_PENDING;
 594:.\Generated_Source\PSoC5/USBFS_1_std.c ****         USBFS_1_EP[ep].epMode     = USBFS_1_MODE_DISABLE;   
 595:.\Generated_Source\PSoC5/USBFS_1_std.c ****     }
 596:.\Generated_Source\PSoC5/USBFS_1_std.c **** 
 597:.\Generated_Source\PSoC5/USBFS_1_std.c ****     /* Clear Alternate settings for all interfaces. */
 598:.\Generated_Source\PSoC5/USBFS_1_std.c ****     if (0u != clearAltSetting)
 599:.\Generated_Source\PSoC5/USBFS_1_std.c ****     {
 600:.\Generated_Source\PSoC5/USBFS_1_std.c ****         for (i = 0u; i < USBFS_1_MAX_INTERFACES_NUMBER; ++i)
 601:.\Generated_Source\PSoC5/USBFS_1_std.c ****         {
 602:.\Generated_Source\PSoC5/USBFS_1_std.c ****             USBFS_1_interfaceSetting[i]     = 0u;
 603:.\Generated_Source\PSoC5/USBFS_1_std.c ****             USBFS_1_interfaceSettingLast[i] = 0u;
 604:.\Generated_Source\PSoC5/USBFS_1_std.c ****         }
 605:.\Generated_Source\PSoC5/USBFS_1_std.c ****     }
 606:.\Generated_Source\PSoC5/USBFS_1_std.c **** 
 607:.\Generated_Source\PSoC5/USBFS_1_std.c ****     /* Init Endpoints and Device Status if configured */
 608:.\Generated_Source\PSoC5/USBFS_1_std.c ****     if (USBFS_1_configuration > 0u)
 609:.\Generated_Source\PSoC5/USBFS_1_std.c ****     {
 610:.\Generated_Source\PSoC5/USBFS_1_std.c ****         #if defined(USBFS_1_ENABLE_CDC_CLASS)
 611:.\Generated_Source\PSoC5/USBFS_1_std.c ****             uint8 cdcComNums = 0u;
 612:.\Generated_Source\PSoC5/USBFS_1_std.c ****         #endif  /* (USBFS_1_ENABLE_CDC_CLASS) */  
 613:.\Generated_Source\PSoC5/USBFS_1_std.c **** 
 614:.\Generated_Source\PSoC5/USBFS_1_std.c ****         pTmp = USBFS_1_GetConfigTablePtr(USBFS_1_configuration - 1u);
 615:.\Generated_Source\PSoC5/USBFS_1_std.c ****         
 616:.\Generated_Source\PSoC5/USBFS_1_std.c ****         /* Set Power status for current configuration */
 617:.\Generated_Source\PSoC5/USBFS_1_std.c ****         pDescr = (const uint8 *)pTmp->p_list;
 618:.\Generated_Source\PSoC5/USBFS_1_std.c ****         if ((pDescr[USBFS_1_CONFIG_DESCR_ATTRIB] & USBFS_1_CONFIG_DESCR_ATTRIB_SELF_POWERED) != 0u)
 619:.\Generated_Source\PSoC5/USBFS_1_std.c ****         {
 620:.\Generated_Source\PSoC5/USBFS_1_std.c ****             USBFS_1_deviceStatus |= (uint8)  USBFS_1_DEVICE_STATUS_SELF_POWERED;
 621:.\Generated_Source\PSoC5/USBFS_1_std.c ****         }
 622:.\Generated_Source\PSoC5/USBFS_1_std.c ****         else
 623:.\Generated_Source\PSoC5/USBFS_1_std.c ****         {
 624:.\Generated_Source\PSoC5/USBFS_1_std.c ****             USBFS_1_deviceStatus &= (uint8) ~USBFS_1_DEVICE_STATUS_SELF_POWERED;
 625:.\Generated_Source\PSoC5/USBFS_1_std.c ****         }
 626:.\Generated_Source\PSoC5/USBFS_1_std.c ****         
ARM GAS  C:\Users\LUKASC~1\AppData\Local\Temp\ccAgm3t8.s 			page 16


 627:.\Generated_Source\PSoC5/USBFS_1_std.c ****         /* Move to next element */
 628:.\Generated_Source\PSoC5/USBFS_1_std.c ****         pTmp = &pTmp[1u];
 629:.\Generated_Source\PSoC5/USBFS_1_std.c ****         ep = pTmp->c;  /* For this table, c is the number of endpoints configurations  */
 630:.\Generated_Source\PSoC5/USBFS_1_std.c **** 
 631:.\Generated_Source\PSoC5/USBFS_1_std.c ****         #if (USBFS_1_EP_MANAGEMENT_MANUAL && USBFS_1_EP_ALLOC_DYNAMIC)
 632:.\Generated_Source\PSoC5/USBFS_1_std.c ****             /* Configure for dynamic EP memory allocation */
 633:.\Generated_Source\PSoC5/USBFS_1_std.c ****             /* p_list points the endpoint setting table. */
 634:.\Generated_Source\PSoC5/USBFS_1_std.c ****             pEP = (T_USBFS_1_EP_SETTINGS_BLOCK *) pTmp->p_list;
 635:.\Generated_Source\PSoC5/USBFS_1_std.c ****             
 636:.\Generated_Source\PSoC5/USBFS_1_std.c ****             for (i = 0u; i < ep; i++)
 637:.\Generated_Source\PSoC5/USBFS_1_std.c ****             {     
 638:.\Generated_Source\PSoC5/USBFS_1_std.c ****                 /* Compare current Alternate setting with EP Alt */
 639:.\Generated_Source\PSoC5/USBFS_1_std.c ****                 if (USBFS_1_interfaceSetting[pEP->interface] == pEP->altSetting)
 640:.\Generated_Source\PSoC5/USBFS_1_std.c ****                 {                                                          
 641:.\Generated_Source\PSoC5/USBFS_1_std.c ****                     curEp  = pEP->addr & USBFS_1_DIR_UNUSED;
 642:.\Generated_Source\PSoC5/USBFS_1_std.c ****                     epType = pEP->attributes & USBFS_1_EP_TYPE_MASK;
 643:.\Generated_Source\PSoC5/USBFS_1_std.c ****                     
 644:.\Generated_Source\PSoC5/USBFS_1_std.c ****                     USBFS_1_EP[curEp].addr       = pEP->addr;
 645:.\Generated_Source\PSoC5/USBFS_1_std.c ****                     USBFS_1_EP[curEp].attrib     = pEP->attributes;
 646:.\Generated_Source\PSoC5/USBFS_1_std.c ****                     USBFS_1_EP[curEp].bufferSize = pEP->bufferSize;
 647:.\Generated_Source\PSoC5/USBFS_1_std.c **** 
 648:.\Generated_Source\PSoC5/USBFS_1_std.c ****                     if (0u != (pEP->addr & USBFS_1_DIR_IN))
 649:.\Generated_Source\PSoC5/USBFS_1_std.c ****                     {
 650:.\Generated_Source\PSoC5/USBFS_1_std.c ****                         /* IN Endpoint */
 651:.\Generated_Source\PSoC5/USBFS_1_std.c ****                         USBFS_1_EP[curEp].epMode     = USBFS_1_GET_ACTIVE_IN_EP_CR0_MODE(epType);
 652:.\Generated_Source\PSoC5/USBFS_1_std.c ****                         USBFS_1_EP[curEp].apiEpState = USBFS_1_EVENT_PENDING;
 653:.\Generated_Source\PSoC5/USBFS_1_std.c ****                     
 654:.\Generated_Source\PSoC5/USBFS_1_std.c ****                     #if (defined(USBFS_1_ENABLE_MIDI_STREAMING) && (USBFS_1_MIDI_IN_BUFF_SIZE > 0))
 655:.\Generated_Source\PSoC5/USBFS_1_std.c ****                         if ((pEP->bMisc == USBFS_1_CLASS_AUDIO) && (epType == USBFS_1_EP_TYPE_BULK)
 656:.\Generated_Source\PSoC5/USBFS_1_std.c ****                         {
 657:.\Generated_Source\PSoC5/USBFS_1_std.c ****                             USBFS_1_midi_in_ep = curEp;
 658:.\Generated_Source\PSoC5/USBFS_1_std.c ****                         }
 659:.\Generated_Source\PSoC5/USBFS_1_std.c ****                     #endif  /* (USBFS_1_ENABLE_MIDI_STREAMING) */
 660:.\Generated_Source\PSoC5/USBFS_1_std.c ****                     }
 661:.\Generated_Source\PSoC5/USBFS_1_std.c ****                     else
 662:.\Generated_Source\PSoC5/USBFS_1_std.c ****                     {
 663:.\Generated_Source\PSoC5/USBFS_1_std.c ****                         /* OUT Endpoint */
 664:.\Generated_Source\PSoC5/USBFS_1_std.c ****                         USBFS_1_EP[curEp].epMode     = USBFS_1_GET_ACTIVE_OUT_EP_CR0_MODE(epType);
 665:.\Generated_Source\PSoC5/USBFS_1_std.c ****                         USBFS_1_EP[curEp].apiEpState = USBFS_1_NO_EVENT_PENDING;
 666:.\Generated_Source\PSoC5/USBFS_1_std.c ****                         
 667:.\Generated_Source\PSoC5/USBFS_1_std.c ****                     #if (defined(USBFS_1_ENABLE_MIDI_STREAMING) && (USBFS_1_MIDI_OUT_BUFF_SIZE > 0)
 668:.\Generated_Source\PSoC5/USBFS_1_std.c ****                         if ((pEP->bMisc == USBFS_1_CLASS_AUDIO) && (epType == USBFS_1_EP_TYPE_BULK)
 669:.\Generated_Source\PSoC5/USBFS_1_std.c ****                         {
 670:.\Generated_Source\PSoC5/USBFS_1_std.c ****                             USBFS_1_midi_out_ep = curEp;
 671:.\Generated_Source\PSoC5/USBFS_1_std.c ****                         }
 672:.\Generated_Source\PSoC5/USBFS_1_std.c ****                     #endif  /* (USBFS_1_ENABLE_MIDI_STREAMING) */
 673:.\Generated_Source\PSoC5/USBFS_1_std.c ****                     }
 674:.\Generated_Source\PSoC5/USBFS_1_std.c **** 
 675:.\Generated_Source\PSoC5/USBFS_1_std.c ****                 #if(defined (USBFS_1_ENABLE_CDC_CLASS))
 676:.\Generated_Source\PSoC5/USBFS_1_std.c ****                     if((pEP->bMisc == USBFS_1_CLASS_CDC_DATA) ||(pEP->bMisc == USBFS_1_CLASS_CDC))
 677:.\Generated_Source\PSoC5/USBFS_1_std.c ****                     {
 678:.\Generated_Source\PSoC5/USBFS_1_std.c ****                         cdcComNums = USBFS_1_Cdc_EpInit(pEP, curEp, cdcComNums);
 679:.\Generated_Source\PSoC5/USBFS_1_std.c ****                     }
 680:.\Generated_Source\PSoC5/USBFS_1_std.c ****                 #endif  /* (USBFS_1_ENABLE_CDC_CLASS) */
 681:.\Generated_Source\PSoC5/USBFS_1_std.c ****                 }
 682:.\Generated_Source\PSoC5/USBFS_1_std.c ****                 
 683:.\Generated_Source\PSoC5/USBFS_1_std.c ****                 pEP = &pEP[1u];
ARM GAS  C:\Users\LUKASC~1\AppData\Local\Temp\ccAgm3t8.s 			page 17


 684:.\Generated_Source\PSoC5/USBFS_1_std.c ****             }
 685:.\Generated_Source\PSoC5/USBFS_1_std.c ****             
 686:.\Generated_Source\PSoC5/USBFS_1_std.c ****         #else
 687:.\Generated_Source\PSoC5/USBFS_1_std.c ****             for (i = USBFS_1_EP1; i < USBFS_1_MAX_EP; ++i)
 688:.\Generated_Source\PSoC5/USBFS_1_std.c ****             {
 689:.\Generated_Source\PSoC5/USBFS_1_std.c ****                 /* p_list points the endpoint setting table. */
 690:.\Generated_Source\PSoC5/USBFS_1_std.c ****                 pEP = (const T_USBFS_1_EP_SETTINGS_BLOCK CYCODE *) pTmp->p_list;
 691:.\Generated_Source\PSoC5/USBFS_1_std.c ****                 /* Find max length for each EP and select it (length could be different in differen
 692:.\Generated_Source\PSoC5/USBFS_1_std.c ****                 /* but other settings should be correct with regards to Interface alt Setting */
 693:.\Generated_Source\PSoC5/USBFS_1_std.c ****                 
 694:.\Generated_Source\PSoC5/USBFS_1_std.c ****                 for (curEp = 0u; curEp < ep; ++curEp)
 695:.\Generated_Source\PSoC5/USBFS_1_std.c ****                 {
 696:.\Generated_Source\PSoC5/USBFS_1_std.c ****                     if (i == (pEP->addr & USBFS_1_DIR_UNUSED))
 697:.\Generated_Source\PSoC5/USBFS_1_std.c ****                     {
 698:.\Generated_Source\PSoC5/USBFS_1_std.c ****                         /* Compare endpoint buffers size with current size to find greater. */
 699:.\Generated_Source\PSoC5/USBFS_1_std.c ****                         if (USBFS_1_EP[i].bufferSize < pEP->bufferSize)
 700:.\Generated_Source\PSoC5/USBFS_1_std.c ****                         {
 701:.\Generated_Source\PSoC5/USBFS_1_std.c ****                             USBFS_1_EP[i].bufferSize = pEP->bufferSize;
 702:.\Generated_Source\PSoC5/USBFS_1_std.c ****                         }
 703:.\Generated_Source\PSoC5/USBFS_1_std.c ****                         
 704:.\Generated_Source\PSoC5/USBFS_1_std.c ****                         /* Compare current Alternate setting with EP Alt */
 705:.\Generated_Source\PSoC5/USBFS_1_std.c ****                         if (USBFS_1_interfaceSetting[pEP->interface] == pEP->altSetting)
 706:.\Generated_Source\PSoC5/USBFS_1_std.c ****                         {                            
 707:.\Generated_Source\PSoC5/USBFS_1_std.c ****                             USBFS_1_EP[i].addr = pEP->addr;
 708:.\Generated_Source\PSoC5/USBFS_1_std.c ****                             USBFS_1_EP[i].attrib = pEP->attributes;
 709:.\Generated_Source\PSoC5/USBFS_1_std.c ****                             
 710:.\Generated_Source\PSoC5/USBFS_1_std.c ****                             epType = pEP->attributes & USBFS_1_EP_TYPE_MASK;
 711:.\Generated_Source\PSoC5/USBFS_1_std.c ****                             
 712:.\Generated_Source\PSoC5/USBFS_1_std.c ****                             if (0u != (pEP->addr & USBFS_1_DIR_IN))
 713:.\Generated_Source\PSoC5/USBFS_1_std.c ****                             {
 714:.\Generated_Source\PSoC5/USBFS_1_std.c ****                                 /* IN Endpoint */
 715:.\Generated_Source\PSoC5/USBFS_1_std.c ****                                 USBFS_1_EP[i].epMode     = USBFS_1_GET_ACTIVE_IN_EP_CR0_MODE(epType
 716:.\Generated_Source\PSoC5/USBFS_1_std.c ****                                 USBFS_1_EP[i].apiEpState = USBFS_1_EVENT_PENDING;
 717:.\Generated_Source\PSoC5/USBFS_1_std.c ****                                 
 718:.\Generated_Source\PSoC5/USBFS_1_std.c ****                             #if (defined(USBFS_1_ENABLE_MIDI_STREAMING) && (USBFS_1_MIDI_IN_BUFF_SI
 719:.\Generated_Source\PSoC5/USBFS_1_std.c ****                                 if ((pEP->bMisc == USBFS_1_CLASS_AUDIO) && (epType == USBFS_1_EP_TY
 720:.\Generated_Source\PSoC5/USBFS_1_std.c ****                                 {
 721:.\Generated_Source\PSoC5/USBFS_1_std.c ****                                     USBFS_1_midi_in_ep = i;
 722:.\Generated_Source\PSoC5/USBFS_1_std.c ****                                 }
 723:.\Generated_Source\PSoC5/USBFS_1_std.c ****                             #endif  /* (USBFS_1_ENABLE_MIDI_STREAMING) */
 724:.\Generated_Source\PSoC5/USBFS_1_std.c ****                             }
 725:.\Generated_Source\PSoC5/USBFS_1_std.c ****                             else
 726:.\Generated_Source\PSoC5/USBFS_1_std.c ****                             {
 727:.\Generated_Source\PSoC5/USBFS_1_std.c ****                                 /* OUT Endpoint */
 728:.\Generated_Source\PSoC5/USBFS_1_std.c ****                                 USBFS_1_EP[i].epMode     = USBFS_1_GET_ACTIVE_OUT_EP_CR0_MODE(epTyp
 729:.\Generated_Source\PSoC5/USBFS_1_std.c ****                                 USBFS_1_EP[i].apiEpState = USBFS_1_NO_EVENT_PENDING;
 730:.\Generated_Source\PSoC5/USBFS_1_std.c ****                                 
 731:.\Generated_Source\PSoC5/USBFS_1_std.c ****                             #if (defined(USBFS_1_ENABLE_MIDI_STREAMING) && (USBFS_1_MIDI_OUT_BUFF_S
 732:.\Generated_Source\PSoC5/USBFS_1_std.c ****                                 if ((pEP->bMisc == USBFS_1_CLASS_AUDIO) && (epType == USBFS_1_EP_TY
 733:.\Generated_Source\PSoC5/USBFS_1_std.c ****                                 {
 734:.\Generated_Source\PSoC5/USBFS_1_std.c ****                                     USBFS_1_midi_out_ep = i;
 735:.\Generated_Source\PSoC5/USBFS_1_std.c ****                                 }
 736:.\Generated_Source\PSoC5/USBFS_1_std.c ****                             #endif  /* (USBFS_1_ENABLE_MIDI_STREAMING) */
 737:.\Generated_Source\PSoC5/USBFS_1_std.c ****                             }
 738:.\Generated_Source\PSoC5/USBFS_1_std.c **** 
 739:.\Generated_Source\PSoC5/USBFS_1_std.c ****                         #if (defined(USBFS_1_ENABLE_CDC_CLASS))
 740:.\Generated_Source\PSoC5/USBFS_1_std.c ****                             if((pEP->bMisc == USBFS_1_CLASS_CDC_DATA) ||(pEP->bMisc == USBFS_1_CLAS
ARM GAS  C:\Users\LUKASC~1\AppData\Local\Temp\ccAgm3t8.s 			page 18


 741:.\Generated_Source\PSoC5/USBFS_1_std.c ****                             {
 742:.\Generated_Source\PSoC5/USBFS_1_std.c ****                                 cdcComNums = USBFS_1_Cdc_EpInit(pEP, i, cdcComNums);
 743:.\Generated_Source\PSoC5/USBFS_1_std.c ****                             }
 744:.\Generated_Source\PSoC5/USBFS_1_std.c ****                         #endif  /* (USBFS_1_ENABLE_CDC_CLASS) */
 745:.\Generated_Source\PSoC5/USBFS_1_std.c **** 
 746:.\Generated_Source\PSoC5/USBFS_1_std.c ****                             #if (USBFS_1_EP_MANAGEMENT_DMA_AUTO)
 747:.\Generated_Source\PSoC5/USBFS_1_std.c ****                                 break;  /* Use first EP setting in Auto memory management */
 748:.\Generated_Source\PSoC5/USBFS_1_std.c ****                             #endif /* (USBFS_1_EP_MANAGEMENT_DMA_AUTO) */
 749:.\Generated_Source\PSoC5/USBFS_1_std.c ****                         }
 750:.\Generated_Source\PSoC5/USBFS_1_std.c ****                     }
 751:.\Generated_Source\PSoC5/USBFS_1_std.c ****                     
 752:.\Generated_Source\PSoC5/USBFS_1_std.c ****                     pEP = &pEP[1u];
 753:.\Generated_Source\PSoC5/USBFS_1_std.c ****                 }
 754:.\Generated_Source\PSoC5/USBFS_1_std.c ****             }
 755:.\Generated_Source\PSoC5/USBFS_1_std.c ****         #endif /*  (USBFS_1_EP_MANAGEMENT_MANUAL && USBFS_1_EP_ALLOC_DYNAMIC) */
 756:.\Generated_Source\PSoC5/USBFS_1_std.c **** 
 757:.\Generated_Source\PSoC5/USBFS_1_std.c ****         /* Init class array for each interface and interface number for each EP.
 758:.\Generated_Source\PSoC5/USBFS_1_std.c ****         *  It is used for handling Class specific requests directed to either an
 759:.\Generated_Source\PSoC5/USBFS_1_std.c ****         *  interface or the endpoint.
 760:.\Generated_Source\PSoC5/USBFS_1_std.c ****         */
 761:.\Generated_Source\PSoC5/USBFS_1_std.c ****         /* p_list points the endpoint setting table. */
 762:.\Generated_Source\PSoC5/USBFS_1_std.c ****         pEP = (const T_USBFS_1_EP_SETTINGS_BLOCK CYCODE *) pTmp->p_list;
 763:.\Generated_Source\PSoC5/USBFS_1_std.c ****         for (i = 0u; i < ep; i++)
 764:.\Generated_Source\PSoC5/USBFS_1_std.c ****         {
 765:.\Generated_Source\PSoC5/USBFS_1_std.c ****             /* Configure interface number for each EP */
 766:.\Generated_Source\PSoC5/USBFS_1_std.c ****             USBFS_1_EP[pEP->addr & USBFS_1_DIR_UNUSED].interface = pEP->interface;
 767:.\Generated_Source\PSoC5/USBFS_1_std.c ****             pEP = &pEP[1u];
 768:.\Generated_Source\PSoC5/USBFS_1_std.c ****         }
 769:.\Generated_Source\PSoC5/USBFS_1_std.c ****         
 770:.\Generated_Source\PSoC5/USBFS_1_std.c ****         /* Init pointer on interface class table */
 771:.\Generated_Source\PSoC5/USBFS_1_std.c ****         USBFS_1_interfaceClass = USBFS_1_GetInterfaceClassTablePtr();
 772:.\Generated_Source\PSoC5/USBFS_1_std.c ****         
 773:.\Generated_Source\PSoC5/USBFS_1_std.c ****     /* Set the endpoint buffer addresses */
 774:.\Generated_Source\PSoC5/USBFS_1_std.c ****     #if (!USBFS_1_EP_MANAGEMENT_DMA_AUTO)
 775:.\Generated_Source\PSoC5/USBFS_1_std.c ****         buffCount = 0u;
 776:.\Generated_Source\PSoC5/USBFS_1_std.c ****         for (ep = USBFS_1_EP1; ep < USBFS_1_MAX_EP; ++ep)
 777:.\Generated_Source\PSoC5/USBFS_1_std.c ****         {
 778:.\Generated_Source\PSoC5/USBFS_1_std.c ****             USBFS_1_EP[ep].buffOffset = buffCount;        
 779:.\Generated_Source\PSoC5/USBFS_1_std.c ****             buffCount += USBFS_1_EP[ep].bufferSize;
 780:.\Generated_Source\PSoC5/USBFS_1_std.c ****             
 781:.\Generated_Source\PSoC5/USBFS_1_std.c ****         #if (USBFS_1_GEN_16BITS_EP_ACCESS)
 782:.\Generated_Source\PSoC5/USBFS_1_std.c ****             /* Align EP buffers to be event size to access 16-bits DR register. */
 783:.\Generated_Source\PSoC5/USBFS_1_std.c ****             buffCount += (0u != (buffCount & 0x01u)) ? 1u : 0u;
 784:.\Generated_Source\PSoC5/USBFS_1_std.c ****         #endif /* (USBFS_1_GEN_16BITS_EP_ACCESS) */            
 785:.\Generated_Source\PSoC5/USBFS_1_std.c ****         }
 786:.\Generated_Source\PSoC5/USBFS_1_std.c ****     #endif /* (!USBFS_1_EP_MANAGEMENT_DMA_AUTO) */
 787:.\Generated_Source\PSoC5/USBFS_1_std.c **** 
 788:.\Generated_Source\PSoC5/USBFS_1_std.c ****         /* Configure hardware registers */
 789:.\Generated_Source\PSoC5/USBFS_1_std.c ****         USBFS_1_ConfigReg();
 790:.\Generated_Source\PSoC5/USBFS_1_std.c ****     }
 791:.\Generated_Source\PSoC5/USBFS_1_std.c **** }
 792:.\Generated_Source\PSoC5/USBFS_1_std.c **** 
 793:.\Generated_Source\PSoC5/USBFS_1_std.c **** 
 794:.\Generated_Source\PSoC5/USBFS_1_std.c **** /*******************************************************************************
 795:.\Generated_Source\PSoC5/USBFS_1_std.c **** * Function Name: USBFS_1_ConfigAltChanged
 796:.\Generated_Source\PSoC5/USBFS_1_std.c **** ****************************************************************************//**
 797:.\Generated_Source\PSoC5/USBFS_1_std.c **** *
ARM GAS  C:\Users\LUKASC~1\AppData\Local\Temp\ccAgm3t8.s 			page 19


 798:.\Generated_Source\PSoC5/USBFS_1_std.c **** *  This routine update configuration for the required endpoints only.
 799:.\Generated_Source\PSoC5/USBFS_1_std.c **** *  It is called after SET_INTERFACE request when Static memory allocation used.
 800:.\Generated_Source\PSoC5/USBFS_1_std.c **** *
 801:.\Generated_Source\PSoC5/USBFS_1_std.c **** * \reentrant
 802:.\Generated_Source\PSoC5/USBFS_1_std.c **** *  No.
 803:.\Generated_Source\PSoC5/USBFS_1_std.c **** *
 804:.\Generated_Source\PSoC5/USBFS_1_std.c **** *******************************************************************************/
 805:.\Generated_Source\PSoC5/USBFS_1_std.c **** void USBFS_1_ConfigAltChanged(void) 
 806:.\Generated_Source\PSoC5/USBFS_1_std.c **** {
 807:.\Generated_Source\PSoC5/USBFS_1_std.c ****     uint8 ep;
 808:.\Generated_Source\PSoC5/USBFS_1_std.c ****     uint8 curEp;
 809:.\Generated_Source\PSoC5/USBFS_1_std.c ****     uint8 epType;
 810:.\Generated_Source\PSoC5/USBFS_1_std.c ****     uint8 i;
 811:.\Generated_Source\PSoC5/USBFS_1_std.c ****     uint8 interfaceNum;
 812:.\Generated_Source\PSoC5/USBFS_1_std.c **** 
 813:.\Generated_Source\PSoC5/USBFS_1_std.c ****     const T_USBFS_1_LUT CYCODE *pTmp;
 814:.\Generated_Source\PSoC5/USBFS_1_std.c ****     const T_USBFS_1_EP_SETTINGS_BLOCK CYCODE *pEP;
 815:.\Generated_Source\PSoC5/USBFS_1_std.c **** 
 816:.\Generated_Source\PSoC5/USBFS_1_std.c ****     /* Init Endpoints and Device Status if configured */
 817:.\Generated_Source\PSoC5/USBFS_1_std.c ****     if (USBFS_1_configuration > 0u)
 818:.\Generated_Source\PSoC5/USBFS_1_std.c ****     {
 819:.\Generated_Source\PSoC5/USBFS_1_std.c ****         /* Get number of endpoints configurations (ep). */
 820:.\Generated_Source\PSoC5/USBFS_1_std.c ****         pTmp = USBFS_1_GetConfigTablePtr(USBFS_1_configuration - 1u);
 821:.\Generated_Source\PSoC5/USBFS_1_std.c ****         pTmp = &pTmp[1u];
 822:.\Generated_Source\PSoC5/USBFS_1_std.c ****         ep = pTmp->c;
 823:.\Generated_Source\PSoC5/USBFS_1_std.c **** 
 824:.\Generated_Source\PSoC5/USBFS_1_std.c ****         /* Get pointer to endpoints setting table (pEP). */
 825:.\Generated_Source\PSoC5/USBFS_1_std.c ****         pEP = (const T_USBFS_1_EP_SETTINGS_BLOCK CYCODE *) pTmp->p_list;
 826:.\Generated_Source\PSoC5/USBFS_1_std.c ****         
 827:.\Generated_Source\PSoC5/USBFS_1_std.c ****         /* Look through all possible endpoint configurations. Find endpoints 
 828:.\Generated_Source\PSoC5/USBFS_1_std.c ****         * which belong to current interface and alternate settings for 
 829:.\Generated_Source\PSoC5/USBFS_1_std.c ****         * re-configuration.
 830:.\Generated_Source\PSoC5/USBFS_1_std.c ****         */
 831:.\Generated_Source\PSoC5/USBFS_1_std.c ****         interfaceNum = USBFS_1_interfaceNumber;
 832:.\Generated_Source\PSoC5/USBFS_1_std.c ****         for (i = 0u; i < ep; i++)
 833:.\Generated_Source\PSoC5/USBFS_1_std.c ****         {
 834:.\Generated_Source\PSoC5/USBFS_1_std.c ****             /* Find endpoints which belong to current interface and alternate settings. */
 835:.\Generated_Source\PSoC5/USBFS_1_std.c ****             if ((interfaceNum == pEP->interface) && 
 836:.\Generated_Source\PSoC5/USBFS_1_std.c ****                 (USBFS_1_interfaceSetting[interfaceNum] == pEP->altSetting))
 837:.\Generated_Source\PSoC5/USBFS_1_std.c ****             {
 838:.\Generated_Source\PSoC5/USBFS_1_std.c ****                 curEp  = ((uint8) pEP->addr & USBFS_1_DIR_UNUSED);
 839:.\Generated_Source\PSoC5/USBFS_1_std.c ****                 epType = ((uint8) pEP->attributes & USBFS_1_EP_TYPE_MASK);
 840:.\Generated_Source\PSoC5/USBFS_1_std.c ****                 
 841:.\Generated_Source\PSoC5/USBFS_1_std.c ****                 /* Change the SIE mode for the selected EP to NAK ALL */
 842:.\Generated_Source\PSoC5/USBFS_1_std.c ****                 USBFS_1_EP[curEp].epToggle   = 0u;
 843:.\Generated_Source\PSoC5/USBFS_1_std.c ****                 USBFS_1_EP[curEp].addr       = pEP->addr;
 844:.\Generated_Source\PSoC5/USBFS_1_std.c ****                 USBFS_1_EP[curEp].attrib     = pEP->attributes;
 845:.\Generated_Source\PSoC5/USBFS_1_std.c ****                 USBFS_1_EP[curEp].bufferSize = pEP->bufferSize;
 846:.\Generated_Source\PSoC5/USBFS_1_std.c **** 
 847:.\Generated_Source\PSoC5/USBFS_1_std.c ****                 if (0u != (pEP->addr & USBFS_1_DIR_IN))
 848:.\Generated_Source\PSoC5/USBFS_1_std.c ****                 {
 849:.\Generated_Source\PSoC5/USBFS_1_std.c ****                     /* IN Endpoint */
 850:.\Generated_Source\PSoC5/USBFS_1_std.c ****                     USBFS_1_EP[curEp].epMode     = USBFS_1_GET_ACTIVE_IN_EP_CR0_MODE(epType);
 851:.\Generated_Source\PSoC5/USBFS_1_std.c ****                     USBFS_1_EP[curEp].apiEpState = USBFS_1_EVENT_PENDING;
 852:.\Generated_Source\PSoC5/USBFS_1_std.c ****                 }
 853:.\Generated_Source\PSoC5/USBFS_1_std.c ****                 else
 854:.\Generated_Source\PSoC5/USBFS_1_std.c ****                 {
ARM GAS  C:\Users\LUKASC~1\AppData\Local\Temp\ccAgm3t8.s 			page 20


 855:.\Generated_Source\PSoC5/USBFS_1_std.c ****                     /* OUT Endpoint */
 856:.\Generated_Source\PSoC5/USBFS_1_std.c ****                     USBFS_1_EP[curEp].epMode     = USBFS_1_GET_ACTIVE_OUT_EP_CR0_MODE(epType);
 857:.\Generated_Source\PSoC5/USBFS_1_std.c ****                     USBFS_1_EP[curEp].apiEpState = USBFS_1_NO_EVENT_PENDING;
 858:.\Generated_Source\PSoC5/USBFS_1_std.c ****                 }
 859:.\Generated_Source\PSoC5/USBFS_1_std.c ****                 
 860:.\Generated_Source\PSoC5/USBFS_1_std.c ****                 /* Make SIE to NAK any endpoint requests */
 861:.\Generated_Source\PSoC5/USBFS_1_std.c ****                 USBFS_1_SIE_EP_BASE.sieEp[curEp].epCr0 = USBFS_1_MODE_NAK_IN_OUT;
 862:.\Generated_Source\PSoC5/USBFS_1_std.c **** 
 863:.\Generated_Source\PSoC5/USBFS_1_std.c ****             #if (USBFS_1_EP_MANAGEMENT_DMA_AUTO)
 864:.\Generated_Source\PSoC5/USBFS_1_std.c ****                 /* Clear IN data ready. */
 865:.\Generated_Source\PSoC5/USBFS_1_std.c ****                 USBFS_1_ARB_EP_BASE.arbEp[curEp].epCfg &= (uint8) ~USBFS_1_ARB_EPX_CFG_IN_DATA_RDY;
 866:.\Generated_Source\PSoC5/USBFS_1_std.c **** 
 867:.\Generated_Source\PSoC5/USBFS_1_std.c ****                 /* Select endpoint number of reconfiguration */
 868:.\Generated_Source\PSoC5/USBFS_1_std.c ****                 USBFS_1_DYN_RECONFIG_REG = (uint8) ((curEp - 1u) << USBFS_1_DYN_RECONFIG_EP_SHIFT);
 869:.\Generated_Source\PSoC5/USBFS_1_std.c ****                 
 870:.\Generated_Source\PSoC5/USBFS_1_std.c ****                 /* Request for dynamic re-configuration of endpoint. */
 871:.\Generated_Source\PSoC5/USBFS_1_std.c ****                 USBFS_1_DYN_RECONFIG_REG |= USBFS_1_DYN_RECONFIG_ENABLE;
 872:.\Generated_Source\PSoC5/USBFS_1_std.c ****                 
 873:.\Generated_Source\PSoC5/USBFS_1_std.c ****                 /* Wait until block is ready for re-configuration */
 874:.\Generated_Source\PSoC5/USBFS_1_std.c ****                 while (0u == (USBFS_1_DYN_RECONFIG_REG & USBFS_1_DYN_RECONFIG_RDY_STS))
 875:.\Generated_Source\PSoC5/USBFS_1_std.c ****                 {
 876:.\Generated_Source\PSoC5/USBFS_1_std.c ****                 }
 877:.\Generated_Source\PSoC5/USBFS_1_std.c ****                 
 878:.\Generated_Source\PSoC5/USBFS_1_std.c ****                 /* Once DYN_RECONFIG_RDY_STS bit is set, FW can change the EP configuration. */
 879:.\Generated_Source\PSoC5/USBFS_1_std.c ****                 /* Change EP Type with new direction */
 880:.\Generated_Source\PSoC5/USBFS_1_std.c ****                 if (0u != (pEP->addr & USBFS_1_DIR_IN))
 881:.\Generated_Source\PSoC5/USBFS_1_std.c ****                 {
 882:.\Generated_Source\PSoC5/USBFS_1_std.c ****                     /* Set endpoint type: 0 - IN and 1 - OUT. */
 883:.\Generated_Source\PSoC5/USBFS_1_std.c ****                     USBFS_1_EP_TYPE_REG &= (uint8) ~(uint8)((uint8) 0x01u << (curEp - 1u));
 884:.\Generated_Source\PSoC5/USBFS_1_std.c ****                     
 885:.\Generated_Source\PSoC5/USBFS_1_std.c ****                 #if (CY_PSOC4)
 886:.\Generated_Source\PSoC5/USBFS_1_std.c ****                     /* Clear DMA_TERMIN for IN endpoint */
 887:.\Generated_Source\PSoC5/USBFS_1_std.c ****                     USBFS_1_ARB_EP_BASE.arbEp[curEp].epIntEn &= (uint32) ~USBFS_1_ARB_EPX_INT_DMA_T
 888:.\Generated_Source\PSoC5/USBFS_1_std.c ****                 #endif /* (CY_PSOC4) */
 889:.\Generated_Source\PSoC5/USBFS_1_std.c ****                 }
 890:.\Generated_Source\PSoC5/USBFS_1_std.c ****                 else
 891:.\Generated_Source\PSoC5/USBFS_1_std.c ****                 {
 892:.\Generated_Source\PSoC5/USBFS_1_std.c ****                     /* Set endpoint type: 0 - IN and 1- OUT. */
 893:.\Generated_Source\PSoC5/USBFS_1_std.c ****                     USBFS_1_EP_TYPE_REG |= (uint8) ((uint8) 0x01u << (curEp - 1u));
 894:.\Generated_Source\PSoC5/USBFS_1_std.c ****                     
 895:.\Generated_Source\PSoC5/USBFS_1_std.c ****                 #if (CY_PSOC4)
 896:.\Generated_Source\PSoC5/USBFS_1_std.c ****                     /* Set DMA_TERMIN for OUT endpoint */
 897:.\Generated_Source\PSoC5/USBFS_1_std.c ****                     USBFS_1_ARB_EP_BASE.arbEp[curEp].epIntEn |= (uint32) USBFS_1_ARB_EPX_INT_DMA_TE
 898:.\Generated_Source\PSoC5/USBFS_1_std.c ****                 #endif /* (CY_PSOC4) */
 899:.\Generated_Source\PSoC5/USBFS_1_std.c ****                 }
 900:.\Generated_Source\PSoC5/USBFS_1_std.c ****                 
 901:.\Generated_Source\PSoC5/USBFS_1_std.c ****                 /* Complete dynamic re-configuration: all endpoint related status and signals 
 902:.\Generated_Source\PSoC5/USBFS_1_std.c ****                 * are set into the default state.
 903:.\Generated_Source\PSoC5/USBFS_1_std.c ****                 */
 904:.\Generated_Source\PSoC5/USBFS_1_std.c ****                 USBFS_1_DYN_RECONFIG_REG &= (uint8) ~USBFS_1_DYN_RECONFIG_ENABLE;
 905:.\Generated_Source\PSoC5/USBFS_1_std.c **** 
 906:.\Generated_Source\PSoC5/USBFS_1_std.c ****             #else
 907:.\Generated_Source\PSoC5/USBFS_1_std.c ****                 USBFS_1_SIE_EP_BASE.sieEp[curEp].epCnt0 = HI8(USBFS_1_EP[curEp].bufferSize);
 908:.\Generated_Source\PSoC5/USBFS_1_std.c ****                 USBFS_1_SIE_EP_BASE.sieEp[curEp].epCnt1 = LO8(USBFS_1_EP[curEp].bufferSize);
 909:.\Generated_Source\PSoC5/USBFS_1_std.c ****                 
 910:.\Generated_Source\PSoC5/USBFS_1_std.c ****                 #if (CY_PSOC4)
 911:.\Generated_Source\PSoC5/USBFS_1_std.c ****                     USBFS_1_ARB_EP16_BASE.arbEp[curEp].rwRa16  = (uint32) USBFS_1_EP[curEp].buffOff
ARM GAS  C:\Users\LUKASC~1\AppData\Local\Temp\ccAgm3t8.s 			page 21


 912:.\Generated_Source\PSoC5/USBFS_1_std.c ****                     USBFS_1_ARB_EP16_BASE.arbEp[curEp].rwWa16  = (uint32) USBFS_1_EP[curEp].buffOff
 913:.\Generated_Source\PSoC5/USBFS_1_std.c ****                 #else
 914:.\Generated_Source\PSoC5/USBFS_1_std.c ****                     USBFS_1_ARB_EP_BASE.arbEp[curEp].rwRa    = LO8(USBFS_1_EP[curEp].buffOffset);
 915:.\Generated_Source\PSoC5/USBFS_1_std.c ****                     USBFS_1_ARB_EP_BASE.arbEp[curEp].rwRaMsb = HI8(USBFS_1_EP[curEp].buffOffset);
 916:.\Generated_Source\PSoC5/USBFS_1_std.c ****                     USBFS_1_ARB_EP_BASE.arbEp[curEp].rwWa    = LO8(USBFS_1_EP[curEp].buffOffset);
 917:.\Generated_Source\PSoC5/USBFS_1_std.c ****                     USBFS_1_ARB_EP_BASE.arbEp[curEp].rwWaMsb = HI8(USBFS_1_EP[curEp].buffOffset);
 918:.\Generated_Source\PSoC5/USBFS_1_std.c ****                 #endif /* (CY_PSOC4) */                
 919:.\Generated_Source\PSoC5/USBFS_1_std.c ****             #endif /* (USBFS_1_EP_MANAGEMENT_DMA_AUTO) */
 920:.\Generated_Source\PSoC5/USBFS_1_std.c ****             }
 921:.\Generated_Source\PSoC5/USBFS_1_std.c ****             
 922:.\Generated_Source\PSoC5/USBFS_1_std.c ****             pEP = &pEP[1u]; /* Get next EP element */
 923:.\Generated_Source\PSoC5/USBFS_1_std.c ****         }
 924:.\Generated_Source\PSoC5/USBFS_1_std.c ****         
 925:.\Generated_Source\PSoC5/USBFS_1_std.c ****         /* The main loop has to re-enable DMA and OUT endpoint */
 926:.\Generated_Source\PSoC5/USBFS_1_std.c ****     }
 927:.\Generated_Source\PSoC5/USBFS_1_std.c **** }
 928:.\Generated_Source\PSoC5/USBFS_1_std.c **** 
 929:.\Generated_Source\PSoC5/USBFS_1_std.c **** 
 930:.\Generated_Source\PSoC5/USBFS_1_std.c **** /*******************************************************************************
 931:.\Generated_Source\PSoC5/USBFS_1_std.c **** * Function Name: USBFS_1_GetConfigTablePtr
 932:.\Generated_Source\PSoC5/USBFS_1_std.c **** ****************************************************************************//**
 933:.\Generated_Source\PSoC5/USBFS_1_std.c **** *
 934:.\Generated_Source\PSoC5/USBFS_1_std.c **** *  This routine returns a pointer a configuration table entry
 935:.\Generated_Source\PSoC5/USBFS_1_std.c **** *
 936:.\Generated_Source\PSoC5/USBFS_1_std.c **** *  \param confIndex:  Configuration Index
 937:.\Generated_Source\PSoC5/USBFS_1_std.c **** *
 938:.\Generated_Source\PSoC5/USBFS_1_std.c **** * \return
 939:.\Generated_Source\PSoC5/USBFS_1_std.c **** *  Device Descriptor pointer or NULL when descriptor does not exist.
 940:.\Generated_Source\PSoC5/USBFS_1_std.c **** *
 941:.\Generated_Source\PSoC5/USBFS_1_std.c **** *******************************************************************************/
 942:.\Generated_Source\PSoC5/USBFS_1_std.c **** const T_USBFS_1_LUT CYCODE *USBFS_1_GetConfigTablePtr(uint8 confIndex)
 943:.\Generated_Source\PSoC5/USBFS_1_std.c ****                                                         
 944:.\Generated_Source\PSoC5/USBFS_1_std.c **** {
 226              		.loc 1 944 0
 227              		.cfi_startproc
 228              		@ args = 0, pretend = 0, frame = 0
 229              		@ frame_needed = 0, uses_anonymous_args = 0
 230              		@ link register save eliminated.
 231              	.LVL11:
 945:.\Generated_Source\PSoC5/USBFS_1_std.c ****     /* Device Table */
 946:.\Generated_Source\PSoC5/USBFS_1_std.c ****     const T_USBFS_1_LUT CYCODE *pTmp;
 947:.\Generated_Source\PSoC5/USBFS_1_std.c **** 
 948:.\Generated_Source\PSoC5/USBFS_1_std.c ****     pTmp = (const T_USBFS_1_LUT CYCODE *) USBFS_1_TABLE[USBFS_1_device].p_list;
 232              		.loc 1 948 0
 233 0000 074B     		ldr	r3, .L20
 234 0002 1B78     		ldrb	r3, [r3]	@ zero_extendqisi2
 235 0004 074A     		ldr	r2, .L20+4
 236 0006 02EBC302 		add	r2, r2, r3, lsl #3
 237 000a 5368     		ldr	r3, [r2, #4]
 238              	.LVL12:
 949:.\Generated_Source\PSoC5/USBFS_1_std.c **** 
 950:.\Generated_Source\PSoC5/USBFS_1_std.c ****     /* The first entry points to the Device Descriptor,
 951:.\Generated_Source\PSoC5/USBFS_1_std.c ****     *  the second entry point to the BOS Descriptor
 952:.\Generated_Source\PSoC5/USBFS_1_std.c ****     *  the rest configuration entries.
 953:.\Generated_Source\PSoC5/USBFS_1_std.c ****     *  Set pointer to the first Configuration Descriptor
 954:.\Generated_Source\PSoC5/USBFS_1_std.c ****     */
 955:.\Generated_Source\PSoC5/USBFS_1_std.c ****     pTmp = &pTmp[2u];
ARM GAS  C:\Users\LUKASC~1\AppData\Local\Temp\ccAgm3t8.s 			page 22


 956:.\Generated_Source\PSoC5/USBFS_1_std.c ****     /* For this table, c is the number of configuration descriptors  */
 957:.\Generated_Source\PSoC5/USBFS_1_std.c ****     if(confIndex >= pTmp->c)   /* Verify that required configuration descriptor exists */
 239              		.loc 1 957 0
 240 000c 1A7C     		ldrb	r2, [r3, #16]	@ zero_extendqisi2
 241 000e 8242     		cmp	r2, r0
 242 0010 03D9     		bls	.L19
 243 0012 03EBC003 		add	r3, r3, r0, lsl #3
 244              	.LVL13:
 958:.\Generated_Source\PSoC5/USBFS_1_std.c ****     {
 959:.\Generated_Source\PSoC5/USBFS_1_std.c ****         pTmp = (const T_USBFS_1_LUT CYCODE *) NULL;
 960:.\Generated_Source\PSoC5/USBFS_1_std.c ****     }
 961:.\Generated_Source\PSoC5/USBFS_1_std.c ****     else
 962:.\Generated_Source\PSoC5/USBFS_1_std.c ****     {
 963:.\Generated_Source\PSoC5/USBFS_1_std.c ****         pTmp = (const T_USBFS_1_LUT CYCODE *) pTmp[confIndex].p_list;
 245              		.loc 1 963 0
 246 0016 5869     		ldr	r0, [r3, #20]
 247              	.LVL14:
 248 0018 7047     		bx	lr
 249              	.LVL15:
 250              	.L19:
 959:.\Generated_Source\PSoC5/USBFS_1_std.c ****     }
 251              		.loc 1 959 0
 252 001a 0020     		movs	r0, #0
 253              	.LVL16:
 964:.\Generated_Source\PSoC5/USBFS_1_std.c ****     }
 965:.\Generated_Source\PSoC5/USBFS_1_std.c **** 
 966:.\Generated_Source\PSoC5/USBFS_1_std.c ****     return (pTmp);
 967:.\Generated_Source\PSoC5/USBFS_1_std.c **** }
 254              		.loc 1 967 0
 255 001c 7047     		bx	lr
 256              	.L21:
 257 001e 00BF     		.align	2
 258              	.L20:
 259 0020 00000000 		.word	USBFS_1_device
 260 0024 00000000 		.word	USBFS_1_TABLE
 261              		.cfi_endproc
 262              	.LFE5:
 263              		.size	USBFS_1_GetConfigTablePtr, .-USBFS_1_GetConfigTablePtr
 264              		.section	.text.USBFS_1_ConfigAltChanged,"ax",%progbits
 265              		.align	2
 266              		.global	USBFS_1_ConfigAltChanged
 267              		.thumb
 268              		.thumb_func
 269              		.type	USBFS_1_ConfigAltChanged, %function
 270              	USBFS_1_ConfigAltChanged:
 271              	.LFB4:
 806:.\Generated_Source\PSoC5/USBFS_1_std.c ****     uint8 ep;
 272              		.loc 1 806 0
 273              		.cfi_startproc
 274              		@ args = 0, pretend = 0, frame = 0
 275              		@ frame_needed = 0, uses_anonymous_args = 0
 276 0000 F8B5     		push	{r3, r4, r5, r6, r7, lr}
 277              		.cfi_def_cfa_offset 24
 278              		.cfi_offset 3, -24
 279              		.cfi_offset 4, -20
 280              		.cfi_offset 5, -16
 281              		.cfi_offset 6, -12
ARM GAS  C:\Users\LUKASC~1\AppData\Local\Temp\ccAgm3t8.s 			page 23


 282              		.cfi_offset 7, -8
 283              		.cfi_offset 14, -4
 817:.\Generated_Source\PSoC5/USBFS_1_std.c ****     {
 284              		.loc 1 817 0
 285 0002 464B     		ldr	r3, .L37
 286 0004 1B78     		ldrb	r3, [r3]	@ zero_extendqisi2
 287 0006 13F0FF0F 		tst	r3, #255
 288 000a 00F08680 		beq	.L22
 820:.\Generated_Source\PSoC5/USBFS_1_std.c ****         pTmp = &pTmp[1u];
 289              		.loc 1 820 0
 290 000e 434B     		ldr	r3, .L37
 291 0010 1878     		ldrb	r0, [r3]	@ zero_extendqisi2
 292 0012 0138     		subs	r0, r0, #1
 293 0014 C0B2     		uxtb	r0, r0
 294 0016 FFF7FEFF 		bl	USBFS_1_GetConfigTablePtr
 295              	.LVL17:
 822:.\Generated_Source\PSoC5/USBFS_1_std.c **** 
 296              		.loc 1 822 0
 297 001a 047A     		ldrb	r4, [r0, #8]	@ zero_extendqisi2
 298              	.LVL18:
 825:.\Generated_Source\PSoC5/USBFS_1_std.c ****         
 299              		.loc 1 825 0
 300 001c C268     		ldr	r2, [r0, #12]
 301              	.LVL19:
 831:.\Generated_Source\PSoC5/USBFS_1_std.c ****         for (i = 0u; i < ep; i++)
 302              		.loc 1 831 0
 303 001e 404B     		ldr	r3, .L37+4
 304 0020 1878     		ldrb	r0, [r3]	@ zero_extendqisi2
 305              	.LVL20:
 306 0022 C0B2     		uxtb	r0, r0
 307              	.LVL21:
 832:.\Generated_Source\PSoC5/USBFS_1_std.c ****         {
 308              		.loc 1 832 0
 309 0024 0023     		movs	r3, #0
 310 0026 76E0     		b	.L24
 311              	.LVL22:
 312              	.L33:
 835:.\Generated_Source\PSoC5/USBFS_1_std.c ****                 (USBFS_1_interfaceSetting[interfaceNum] == pEP->altSetting))
 313              		.loc 1 835 0
 314 0028 1178     		ldrb	r1, [r2]	@ zero_extendqisi2
 315 002a 8142     		cmp	r1, r0
 316 002c 70D1     		bne	.L25
 836:.\Generated_Source\PSoC5/USBFS_1_std.c ****             {
 317              		.loc 1 836 0 discriminator 1
 318 002e 3D49     		ldr	r1, .L37+8
 319 0030 095C     		ldrb	r1, [r1, r0]	@ zero_extendqisi2
 320 0032 C9B2     		uxtb	r1, r1
 321 0034 5578     		ldrb	r5, [r2, #1]	@ zero_extendqisi2
 835:.\Generated_Source\PSoC5/USBFS_1_std.c ****                 (USBFS_1_interfaceSetting[interfaceNum] == pEP->altSetting))
 322              		.loc 1 835 0 discriminator 1
 323 0036 A942     		cmp	r1, r5
 324 0038 6AD1     		bne	.L25
 838:.\Generated_Source\PSoC5/USBFS_1_std.c ****                 epType = ((uint8) pEP->attributes & USBFS_1_EP_TYPE_MASK);
 325              		.loc 1 838 0
 326 003a 9578     		ldrb	r5, [r2, #2]	@ zero_extendqisi2
 327 003c 05F07F05 		and	r5, r5, #127
 328              	.LVL23:
ARM GAS  C:\Users\LUKASC~1\AppData\Local\Temp\ccAgm3t8.s 			page 24


 839:.\Generated_Source\PSoC5/USBFS_1_std.c ****                 
 329              		.loc 1 839 0
 330 0040 D678     		ldrb	r6, [r2, #3]	@ zero_extendqisi2
 331 0042 06F00306 		and	r6, r6, #3
 332              	.LVL24:
 842:.\Generated_Source\PSoC5/USBFS_1_std.c ****                 USBFS_1_EP[curEp].addr       = pEP->addr;
 333              		.loc 1 842 0
 334 0046 DFF8E0E0 		ldr	lr, .L37+12
 335 004a 6900     		lsls	r1, r5, #1
 336 004c 2944     		add	r1, r1, r5
 337 004e 8900     		lsls	r1, r1, #2
 338 0050 0EEB0107 		add	r7, lr, r1
 339 0054 4FF0000C 		mov	ip, #0
 340 0058 87F803C0 		strb	ip, [r7, #3]
 843:.\Generated_Source\PSoC5/USBFS_1_std.c ****                 USBFS_1_EP[curEp].attrib     = pEP->attributes;
 341              		.loc 1 843 0
 342 005c 92F802C0 		ldrb	ip, [r2, #2]	@ zero_extendqisi2
 343 0060 87F804C0 		strb	ip, [r7, #4]
 844:.\Generated_Source\PSoC5/USBFS_1_std.c ****                 USBFS_1_EP[curEp].bufferSize = pEP->bufferSize;
 344              		.loc 1 844 0
 345 0064 92F803C0 		ldrb	ip, [r2, #3]	@ zero_extendqisi2
 346 0068 0EF801C0 		strb	ip, [lr, r1]
 845:.\Generated_Source\PSoC5/USBFS_1_std.c **** 
 347              		.loc 1 845 0
 348 006c 9188     		ldrh	r1, [r2, #4]
 349 006e 3981     		strh	r1, [r7, #8]	@ movhi
 847:.\Generated_Source\PSoC5/USBFS_1_std.c ****                 {
 350              		.loc 1 847 0
 351 0070 92F90210 		ldrsb	r1, [r2, #2]
 352 0074 0029     		cmp	r1, #0
 353 0076 0DDA     		bge	.L26
 850:.\Generated_Source\PSoC5/USBFS_1_std.c ****                     USBFS_1_EP[curEp].apiEpState = USBFS_1_EVENT_PENDING;
 354              		.loc 1 850 0
 355 0078 012E     		cmp	r6, #1
 356 007a 01D1     		bne	.L34
 357 007c 0727     		movs	r7, #7
 358 007e 00E0     		b	.L27
 359              	.L34:
 360 0080 0D27     		movs	r7, #13
 361              	.L27:
 850:.\Generated_Source\PSoC5/USBFS_1_std.c ****                     USBFS_1_EP[curEp].apiEpState = USBFS_1_EVENT_PENDING;
 362              		.loc 1 850 0 is_stmt 0 discriminator 4
 363 0082 6900     		lsls	r1, r5, #1
 364 0084 2944     		add	r1, r1, r5
 365 0086 8900     		lsls	r1, r1, #2
 366 0088 274E     		ldr	r6, .L37+12
 367              	.LVL25:
 368 008a 3144     		add	r1, r1, r6
 369 008c 4F71     		strb	r7, [r1, #5]
 851:.\Generated_Source\PSoC5/USBFS_1_std.c ****                 }
 370              		.loc 1 851 0 is_stmt 1 discriminator 4
 371 008e 0126     		movs	r6, #1
 372 0090 4E70     		strb	r6, [r1, #1]
 373 0092 0CE0     		b	.L28
 374              	.LVL26:
 375              	.L26:
 856:.\Generated_Source\PSoC5/USBFS_1_std.c ****                     USBFS_1_EP[curEp].apiEpState = USBFS_1_NO_EVENT_PENDING;
ARM GAS  C:\Users\LUKASC~1\AppData\Local\Temp\ccAgm3t8.s 			page 25


 376              		.loc 1 856 0
 377 0094 012E     		cmp	r6, #1
 378 0096 01D1     		bne	.L35
 379 0098 0527     		movs	r7, #5
 380 009a 00E0     		b	.L29
 381              	.L35:
 382 009c 0927     		movs	r7, #9
 383              	.L29:
 856:.\Generated_Source\PSoC5/USBFS_1_std.c ****                     USBFS_1_EP[curEp].apiEpState = USBFS_1_NO_EVENT_PENDING;
 384              		.loc 1 856 0 is_stmt 0 discriminator 4
 385 009e 6900     		lsls	r1, r5, #1
 386 00a0 2944     		add	r1, r1, r5
 387 00a2 8900     		lsls	r1, r1, #2
 388 00a4 204E     		ldr	r6, .L37+12
 389              	.LVL27:
 390 00a6 3144     		add	r1, r1, r6
 391 00a8 4F71     		strb	r7, [r1, #5]
 857:.\Generated_Source\PSoC5/USBFS_1_std.c ****                 }
 392              		.loc 1 857 0 is_stmt 1 discriminator 4
 393 00aa 0026     		movs	r6, #0
 394 00ac 4E70     		strb	r6, [r1, #1]
 395              	.L28:
 861:.\Generated_Source\PSoC5/USBFS_1_std.c **** 
 396              		.loc 1 861 0
 397 00ae 2901     		lsls	r1, r5, #4
 398 00b0 1E4E     		ldr	r6, .L37+16
 399 00b2 0127     		movs	r7, #1
 400 00b4 7754     		strb	r7, [r6, r1]
 865:.\Generated_Source\PSoC5/USBFS_1_std.c **** 
 401              		.loc 1 865 0
 402 00b6 1E4F     		ldr	r7, .L37+20
 403 00b8 7E5C     		ldrb	r6, [r7, r1]	@ zero_extendqisi2
 404 00ba 06F0FE06 		and	r6, r6, #254
 405 00be 7E54     		strb	r6, [r7, r1]
 868:.\Generated_Source\PSoC5/USBFS_1_std.c ****                 
 406              		.loc 1 868 0
 407 00c0 691E     		subs	r1, r5, #1
 408 00c2 4900     		lsls	r1, r1, #1
 409 00c4 C9B2     		uxtb	r1, r1
 410 00c6 1B4E     		ldr	r6, .L37+24
 411 00c8 3170     		strb	r1, [r6]
 871:.\Generated_Source\PSoC5/USBFS_1_std.c ****                 
 412              		.loc 1 871 0
 413 00ca 3178     		ldrb	r1, [r6]	@ zero_extendqisi2
 414 00cc 41F00101 		orr	r1, r1, #1
 415 00d0 3170     		strb	r1, [r6]
 416              	.L30:
 874:.\Generated_Source\PSoC5/USBFS_1_std.c ****                 {
 417              		.loc 1 874 0 discriminator 1
 418 00d2 1849     		ldr	r1, .L37+24
 419 00d4 0978     		ldrb	r1, [r1]	@ zero_extendqisi2
 420 00d6 11F0100F 		tst	r1, #16
 421 00da FAD0     		beq	.L30
 880:.\Generated_Source\PSoC5/USBFS_1_std.c ****                 {
 422              		.loc 1 880 0
 423 00dc 92F90210 		ldrsb	r1, [r2, #2]
 424 00e0 0029     		cmp	r1, #0
ARM GAS  C:\Users\LUKASC~1\AppData\Local\Temp\ccAgm3t8.s 			page 26


 425 00e2 08DA     		bge	.L31
 883:.\Generated_Source\PSoC5/USBFS_1_std.c ****                     
 426              		.loc 1 883 0
 427 00e4 144F     		ldr	r7, .L37+28
 428 00e6 3E78     		ldrb	r6, [r7]	@ zero_extendqisi2
 429 00e8 013D     		subs	r5, r5, #1
 430              	.LVL28:
 431 00ea 0121     		movs	r1, #1
 432 00ec A940     		lsls	r1, r1, r5
 433 00ee 26EA0101 		bic	r1, r6, r1
 434 00f2 3970     		strb	r1, [r7]
 435 00f4 07E0     		b	.L32
 436              	.LVL29:
 437              	.L31:
 893:.\Generated_Source\PSoC5/USBFS_1_std.c ****                     
 438              		.loc 1 893 0
 439 00f6 104E     		ldr	r6, .L37+28
 440 00f8 3778     		ldrb	r7, [r6]	@ zero_extendqisi2
 441 00fa 013D     		subs	r5, r5, #1
 442              	.LVL30:
 443 00fc 0121     		movs	r1, #1
 444 00fe A940     		lsls	r1, r1, r5
 445 0100 C9B2     		uxtb	r1, r1
 446 0102 3943     		orrs	r1, r1, r7
 447 0104 3170     		strb	r1, [r6]
 448              	.LVL31:
 449              	.L32:
 904:.\Generated_Source\PSoC5/USBFS_1_std.c **** 
 450              		.loc 1 904 0
 451 0106 0B4D     		ldr	r5, .L37+24
 452 0108 2978     		ldrb	r1, [r5]	@ zero_extendqisi2
 453 010a 01F0FE01 		and	r1, r1, #254
 454 010e 2970     		strb	r1, [r5]
 455              	.L25:
 922:.\Generated_Source\PSoC5/USBFS_1_std.c ****         }
 456              		.loc 1 922 0 discriminator 2
 457 0110 0832     		adds	r2, r2, #8
 458              	.LVL32:
 832:.\Generated_Source\PSoC5/USBFS_1_std.c ****         {
 459              		.loc 1 832 0 discriminator 2
 460 0112 0133     		adds	r3, r3, #1
 461              	.LVL33:
 462 0114 DBB2     		uxtb	r3, r3
 463              	.LVL34:
 464              	.L24:
 832:.\Generated_Source\PSoC5/USBFS_1_std.c ****         {
 465              		.loc 1 832 0 is_stmt 0 discriminator 1
 466 0116 A342     		cmp	r3, r4
 467 0118 86D3     		bcc	.L33
 468              	.LVL35:
 469              	.L22:
 470 011a F8BD     		pop	{r3, r4, r5, r6, r7, pc}
 471              	.L38:
 472              		.align	2
 473              	.L37:
 474 011c 00000000 		.word	USBFS_1_configuration
 475 0120 00000000 		.word	USBFS_1_interfaceNumber
ARM GAS  C:\Users\LUKASC~1\AppData\Local\Temp\ccAgm3t8.s 			page 27


 476 0124 00000000 		.word	USBFS_1_interfaceSetting
 477 0128 00000000 		.word	USBFS_1_EP
 478 012c FE5F0040 		.word	1073766398
 479 0130 70600040 		.word	1073766512
 480 0134 14600040 		.word	1073766420
 481 0138 8F600040 		.word	1073766543
 482              		.cfi_endproc
 483              	.LFE4:
 484              		.size	USBFS_1_ConfigAltChanged, .-USBFS_1_ConfigAltChanged
 485              		.section	.text.USBFS_1_GetDeviceTablePtr,"ax",%progbits
 486              		.align	2
 487              		.global	USBFS_1_GetDeviceTablePtr
 488              		.thumb
 489              		.thumb_func
 490              		.type	USBFS_1_GetDeviceTablePtr, %function
 491              	USBFS_1_GetDeviceTablePtr:
 492              	.LFB6:
 968:.\Generated_Source\PSoC5/USBFS_1_std.c **** 
 969:.\Generated_Source\PSoC5/USBFS_1_std.c **** 
 970:.\Generated_Source\PSoC5/USBFS_1_std.c **** #if (USBFS_1_BOS_ENABLE)
 971:.\Generated_Source\PSoC5/USBFS_1_std.c ****     /*******************************************************************************
 972:.\Generated_Source\PSoC5/USBFS_1_std.c ****     * Function Name: USBFS_1_GetBOSPtr
 973:.\Generated_Source\PSoC5/USBFS_1_std.c ****     ****************************************************************************//**
 974:.\Generated_Source\PSoC5/USBFS_1_std.c ****     *
 975:.\Generated_Source\PSoC5/USBFS_1_std.c ****     *  This routine returns a pointer a BOS table entry
 976:.\Generated_Source\PSoC5/USBFS_1_std.c ****     *
 977:.\Generated_Source\PSoC5/USBFS_1_std.c ****     *  
 978:.\Generated_Source\PSoC5/USBFS_1_std.c ****     *
 979:.\Generated_Source\PSoC5/USBFS_1_std.c ****     * \return
 980:.\Generated_Source\PSoC5/USBFS_1_std.c ****     *  BOS Descriptor pointer or NULL when descriptor does not exist.
 981:.\Generated_Source\PSoC5/USBFS_1_std.c ****     *
 982:.\Generated_Source\PSoC5/USBFS_1_std.c ****     *******************************************************************************/
 983:.\Generated_Source\PSoC5/USBFS_1_std.c ****     const T_USBFS_1_LUT CYCODE *USBFS_1_GetBOSPtr(void)
 984:.\Generated_Source\PSoC5/USBFS_1_std.c ****                                                             
 985:.\Generated_Source\PSoC5/USBFS_1_std.c ****     {
 986:.\Generated_Source\PSoC5/USBFS_1_std.c ****         /* Device Table */
 987:.\Generated_Source\PSoC5/USBFS_1_std.c ****         const T_USBFS_1_LUT CYCODE *pTmp;
 988:.\Generated_Source\PSoC5/USBFS_1_std.c **** 
 989:.\Generated_Source\PSoC5/USBFS_1_std.c ****         pTmp = (const T_USBFS_1_LUT CYCODE *) USBFS_1_TABLE[USBFS_1_device].p_list;
 990:.\Generated_Source\PSoC5/USBFS_1_std.c **** 
 991:.\Generated_Source\PSoC5/USBFS_1_std.c ****         /* The first entry points to the Device Descriptor,
 992:.\Generated_Source\PSoC5/USBFS_1_std.c ****         *  the second entry points to the BOS Descriptor
 993:.\Generated_Source\PSoC5/USBFS_1_std.c ****         */
 994:.\Generated_Source\PSoC5/USBFS_1_std.c ****         pTmp = &pTmp[1u];
 995:.\Generated_Source\PSoC5/USBFS_1_std.c ****         pTmp = (const T_USBFS_1_LUT CYCODE *) pTmp->p_list;
 996:.\Generated_Source\PSoC5/USBFS_1_std.c ****         return (pTmp);
 997:.\Generated_Source\PSoC5/USBFS_1_std.c ****     }
 998:.\Generated_Source\PSoC5/USBFS_1_std.c **** #endif /* (USBFS_1_BOS_ENABLE) */
 999:.\Generated_Source\PSoC5/USBFS_1_std.c **** 
1000:.\Generated_Source\PSoC5/USBFS_1_std.c **** 
1001:.\Generated_Source\PSoC5/USBFS_1_std.c **** /*******************************************************************************
1002:.\Generated_Source\PSoC5/USBFS_1_std.c **** * Function Name: USBFS_1_GetDeviceTablePtr
1003:.\Generated_Source\PSoC5/USBFS_1_std.c **** ****************************************************************************//**
1004:.\Generated_Source\PSoC5/USBFS_1_std.c **** *
1005:.\Generated_Source\PSoC5/USBFS_1_std.c **** *  This routine returns a pointer to the Device table
1006:.\Generated_Source\PSoC5/USBFS_1_std.c **** *
1007:.\Generated_Source\PSoC5/USBFS_1_std.c **** * \return
ARM GAS  C:\Users\LUKASC~1\AppData\Local\Temp\ccAgm3t8.s 			page 28


1008:.\Generated_Source\PSoC5/USBFS_1_std.c **** *  Device Table pointer
1009:.\Generated_Source\PSoC5/USBFS_1_std.c **** *
1010:.\Generated_Source\PSoC5/USBFS_1_std.c **** *******************************************************************************/
1011:.\Generated_Source\PSoC5/USBFS_1_std.c **** const T_USBFS_1_LUT CYCODE *USBFS_1_GetDeviceTablePtr(void)
1012:.\Generated_Source\PSoC5/USBFS_1_std.c ****                                                             
1013:.\Generated_Source\PSoC5/USBFS_1_std.c **** {
 493              		.loc 1 1013 0 is_stmt 1
 494              		.cfi_startproc
 495              		@ args = 0, pretend = 0, frame = 0
 496              		@ frame_needed = 0, uses_anonymous_args = 0
 497              		@ link register save eliminated.
1014:.\Generated_Source\PSoC5/USBFS_1_std.c ****     /* Device Table */
1015:.\Generated_Source\PSoC5/USBFS_1_std.c ****     return( (const T_USBFS_1_LUT CYCODE *) USBFS_1_TABLE[USBFS_1_device].p_list );
 498              		.loc 1 1015 0
 499 0000 034B     		ldr	r3, .L40
 500 0002 1A78     		ldrb	r2, [r3]	@ zero_extendqisi2
 501 0004 034B     		ldr	r3, .L40+4
 502 0006 03EBC203 		add	r3, r3, r2, lsl #3
1016:.\Generated_Source\PSoC5/USBFS_1_std.c **** }
 503              		.loc 1 1016 0
 504 000a 5868     		ldr	r0, [r3, #4]
 505 000c 7047     		bx	lr
 506              	.L41:
 507 000e 00BF     		.align	2
 508              	.L40:
 509 0010 00000000 		.word	USBFS_1_device
 510 0014 00000000 		.word	USBFS_1_TABLE
 511              		.cfi_endproc
 512              	.LFE6:
 513              		.size	USBFS_1_GetDeviceTablePtr, .-USBFS_1_GetDeviceTablePtr
 514              		.section	.text.USBFS_1_GetInterfaceClassTablePtr,"ax",%progbits
 515              		.align	2
 516              		.global	USBFS_1_GetInterfaceClassTablePtr
 517              		.thumb
 518              		.thumb_func
 519              		.type	USBFS_1_GetInterfaceClassTablePtr, %function
 520              	USBFS_1_GetInterfaceClassTablePtr:
 521              	.LFB7:
1017:.\Generated_Source\PSoC5/USBFS_1_std.c **** 
1018:.\Generated_Source\PSoC5/USBFS_1_std.c **** 
1019:.\Generated_Source\PSoC5/USBFS_1_std.c **** /*******************************************************************************
1020:.\Generated_Source\PSoC5/USBFS_1_std.c **** * Function Name: USB_GetInterfaceClassTablePtr
1021:.\Generated_Source\PSoC5/USBFS_1_std.c **** ****************************************************************************//**
1022:.\Generated_Source\PSoC5/USBFS_1_std.c **** *
1023:.\Generated_Source\PSoC5/USBFS_1_std.c **** *  This routine returns Interface Class table pointer, which contains
1024:.\Generated_Source\PSoC5/USBFS_1_std.c **** *  the relation between interface number and interface class.
1025:.\Generated_Source\PSoC5/USBFS_1_std.c **** *
1026:.\Generated_Source\PSoC5/USBFS_1_std.c **** * \return
1027:.\Generated_Source\PSoC5/USBFS_1_std.c **** *  Interface Class table pointer.
1028:.\Generated_Source\PSoC5/USBFS_1_std.c **** *
1029:.\Generated_Source\PSoC5/USBFS_1_std.c **** *******************************************************************************/
1030:.\Generated_Source\PSoC5/USBFS_1_std.c **** const uint8 CYCODE *USBFS_1_GetInterfaceClassTablePtr(void)
1031:.\Generated_Source\PSoC5/USBFS_1_std.c ****                                                         
1032:.\Generated_Source\PSoC5/USBFS_1_std.c **** {
 522              		.loc 1 1032 0
 523              		.cfi_startproc
 524              		@ args = 0, pretend = 0, frame = 0
ARM GAS  C:\Users\LUKASC~1\AppData\Local\Temp\ccAgm3t8.s 			page 29


 525              		@ frame_needed = 0, uses_anonymous_args = 0
 526 0000 08B5     		push	{r3, lr}
 527              		.cfi_def_cfa_offset 8
 528              		.cfi_offset 3, -8
 529              		.cfi_offset 14, -4
1033:.\Generated_Source\PSoC5/USBFS_1_std.c ****     const T_USBFS_1_LUT CYCODE *pTmp;
1034:.\Generated_Source\PSoC5/USBFS_1_std.c ****     const uint8 CYCODE *pInterfaceClass;
1035:.\Generated_Source\PSoC5/USBFS_1_std.c ****     uint8 currentInterfacesNum;
1036:.\Generated_Source\PSoC5/USBFS_1_std.c **** 
1037:.\Generated_Source\PSoC5/USBFS_1_std.c ****     pTmp = USBFS_1_GetConfigTablePtr(USBFS_1_configuration - 1u);
 530              		.loc 1 1037 0
 531 0002 074B     		ldr	r3, .L46
 532 0004 1878     		ldrb	r0, [r3]	@ zero_extendqisi2
 533 0006 0138     		subs	r0, r0, #1
 534 0008 C0B2     		uxtb	r0, r0
 535 000a FFF7FEFF 		bl	USBFS_1_GetConfigTablePtr
 536              	.LVL36:
1038:.\Generated_Source\PSoC5/USBFS_1_std.c ****     if (pTmp != NULL)
 537              		.loc 1 1038 0
 538 000e 28B1     		cbz	r0, .L44
1039:.\Generated_Source\PSoC5/USBFS_1_std.c ****     {
1040:.\Generated_Source\PSoC5/USBFS_1_std.c ****         currentInterfacesNum  = ((const uint8 *) pTmp->p_list)[USBFS_1_CONFIG_DESCR_NUM_INTERFACES]
 539              		.loc 1 1040 0
 540 0010 4268     		ldr	r2, [r0, #4]
 541 0012 1279     		ldrb	r2, [r2, #4]	@ zero_extendqisi2
 542              	.LVL37:
1041:.\Generated_Source\PSoC5/USBFS_1_std.c ****         /* Third entry in the LUT starts the Interface Table pointers */
1042:.\Generated_Source\PSoC5/USBFS_1_std.c ****         /* The INTERFACE_CLASS table is located after all interfaces */
1043:.\Generated_Source\PSoC5/USBFS_1_std.c ****         pTmp = &pTmp[currentInterfacesNum + 2u];
 543              		.loc 1 1043 0
 544 0014 00EBC203 		add	r3, r0, r2, lsl #3
 545              	.LVL38:
1044:.\Generated_Source\PSoC5/USBFS_1_std.c ****         pInterfaceClass = (const uint8 CYCODE *) pTmp->p_list;
 546              		.loc 1 1044 0
 547 0018 5869     		ldr	r0, [r3, #20]
 548              	.LVL39:
 549 001a 08BD     		pop	{r3, pc}
 550              	.LVL40:
 551              	.L44:
1045:.\Generated_Source\PSoC5/USBFS_1_std.c ****     }
1046:.\Generated_Source\PSoC5/USBFS_1_std.c ****     else
1047:.\Generated_Source\PSoC5/USBFS_1_std.c ****     {
1048:.\Generated_Source\PSoC5/USBFS_1_std.c ****         pInterfaceClass = (const uint8 CYCODE *) NULL;
 552              		.loc 1 1048 0
 553 001c 0020     		movs	r0, #0
 554              	.LVL41:
1049:.\Generated_Source\PSoC5/USBFS_1_std.c ****     }
1050:.\Generated_Source\PSoC5/USBFS_1_std.c **** 
1051:.\Generated_Source\PSoC5/USBFS_1_std.c ****     return (pInterfaceClass);
1052:.\Generated_Source\PSoC5/USBFS_1_std.c **** }
 555              		.loc 1 1052 0
 556 001e 08BD     		pop	{r3, pc}
 557              	.L47:
 558              		.align	2
 559              	.L46:
 560 0020 00000000 		.word	USBFS_1_configuration
 561              		.cfi_endproc
ARM GAS  C:\Users\LUKASC~1\AppData\Local\Temp\ccAgm3t8.s 			page 30


 562              	.LFE7:
 563              		.size	USBFS_1_GetInterfaceClassTablePtr, .-USBFS_1_GetInterfaceClassTablePtr
 564              		.section	.text.USBFS_1_Config,"ax",%progbits
 565              		.align	2
 566              		.global	USBFS_1_Config
 567              		.thumb
 568              		.thumb_func
 569              		.type	USBFS_1_Config, %function
 570              	USBFS_1_Config:
 571              	.LFB3:
 571:.\Generated_Source\PSoC5/USBFS_1_std.c ****     uint8 ep;
 572              		.loc 1 571 0
 573              		.cfi_startproc
 574              		@ args = 0, pretend = 0, frame = 0
 575              		@ frame_needed = 0, uses_anonymous_args = 0
 576              	.LVL42:
 577 0000 F8B5     		push	{r3, r4, r5, r6, r7, lr}
 578              		.cfi_def_cfa_offset 24
 579              		.cfi_offset 3, -24
 580              		.cfi_offset 4, -20
 581              		.cfi_offset 5, -16
 582              		.cfi_offset 6, -12
 583              		.cfi_offset 7, -8
 584              		.cfi_offset 14, -4
 585              	.LVL43:
 586:.\Generated_Source\PSoC5/USBFS_1_std.c ****     {
 586              		.loc 1 586 0
 587 0002 0022     		movs	r2, #0
 588 0004 0EE0     		b	.L49
 589              	.LVL44:
 590              	.L50:
 588:.\Generated_Source\PSoC5/USBFS_1_std.c ****         USBFS_1_EP[ep].hwEpState  = 0u;
 591              		.loc 1 588 0 discriminator 3
 592 0006 574E     		ldr	r6, .L73
 593 0008 5300     		lsls	r3, r2, #1
 594 000a 9D18     		adds	r5, r3, r2
 595 000c AD00     		lsls	r5, r5, #2
 596 000e 7419     		adds	r4, r6, r5
 597 0010 0021     		movs	r1, #0
 598 0012 7155     		strb	r1, [r6, r5]
 589:.\Generated_Source\PSoC5/USBFS_1_std.c ****         USBFS_1_EP[ep].epToggle   = 0u;
 599              		.loc 1 589 0 discriminator 3
 600 0014 A170     		strb	r1, [r4, #2]
 590:.\Generated_Source\PSoC5/USBFS_1_std.c ****         USBFS_1_EP[ep].bufferSize = 0u;
 601              		.loc 1 590 0 discriminator 3
 602 0016 E170     		strb	r1, [r4, #3]
 591:.\Generated_Source\PSoC5/USBFS_1_std.c ****         USBFS_1_EP[ep].interface  = 0u;
 603              		.loc 1 591 0 discriminator 3
 604 0018 2181     		strh	r1, [r4, #8]	@ movhi
 592:.\Generated_Source\PSoC5/USBFS_1_std.c ****         USBFS_1_EP[ep].apiEpState = USBFS_1_NO_EVENT_PENDING;
 605              		.loc 1 592 0 discriminator 3
 606 001a A172     		strb	r1, [r4, #10]
 593:.\Generated_Source\PSoC5/USBFS_1_std.c ****         USBFS_1_EP[ep].epMode     = USBFS_1_MODE_DISABLE;   
 607              		.loc 1 593 0 discriminator 3
 608 001c 6170     		strb	r1, [r4, #1]
 594:.\Generated_Source\PSoC5/USBFS_1_std.c ****     }
 609              		.loc 1 594 0 discriminator 3
ARM GAS  C:\Users\LUKASC~1\AppData\Local\Temp\ccAgm3t8.s 			page 31


 610 001e 6171     		strb	r1, [r4, #5]
 586:.\Generated_Source\PSoC5/USBFS_1_std.c ****     {
 611              		.loc 1 586 0 discriminator 3
 612 0020 0132     		adds	r2, r2, #1
 613              	.LVL45:
 614 0022 D2B2     		uxtb	r2, r2
 615              	.LVL46:
 616              	.L49:
 586:.\Generated_Source\PSoC5/USBFS_1_std.c ****     {
 617              		.loc 1 586 0 is_stmt 0 discriminator 1
 618 0024 082A     		cmp	r2, #8
 619 0026 EED9     		bls	.L50
 598:.\Generated_Source\PSoC5/USBFS_1_std.c ****     {
 620              		.loc 1 598 0 is_stmt 1
 621 0028 40B9     		cbnz	r0, .L69
 622 002a 0AE0     		b	.L52
 623              	.LVL47:
 624              	.L53:
 602:.\Generated_Source\PSoC5/USBFS_1_std.c ****             USBFS_1_interfaceSettingLast[i] = 0u;
 625              		.loc 1 602 0 discriminator 3
 626 002c 0022     		movs	r2, #0
 627 002e 4E49     		ldr	r1, .L73+4
 628 0030 CA54     		strb	r2, [r1, r3]
 603:.\Generated_Source\PSoC5/USBFS_1_std.c ****         }
 629              		.loc 1 603 0 discriminator 3
 630 0032 4E49     		ldr	r1, .L73+8
 631 0034 CA54     		strb	r2, [r1, r3]
 600:.\Generated_Source\PSoC5/USBFS_1_std.c ****         {
 632              		.loc 1 600 0 discriminator 3
 633 0036 0133     		adds	r3, r3, #1
 634              	.LVL48:
 635 0038 DBB2     		uxtb	r3, r3
 636              	.LVL49:
 637 003a 00E0     		b	.L51
 638              	.LVL50:
 639              	.L69:
 640 003c 0023     		movs	r3, #0
 641              	.LVL51:
 642              	.L51:
 600:.\Generated_Source\PSoC5/USBFS_1_std.c ****         {
 643              		.loc 1 600 0 is_stmt 0 discriminator 1
 644 003e 012B     		cmp	r3, #1
 645 0040 F4D9     		bls	.L53
 646              	.LVL52:
 647              	.L52:
 608:.\Generated_Source\PSoC5/USBFS_1_std.c ****     {
 648              		.loc 1 608 0 is_stmt 1
 649 0042 4B4B     		ldr	r3, .L73+12
 650 0044 1B78     		ldrb	r3, [r3]	@ zero_extendqisi2
 651 0046 13F0FF0F 		tst	r3, #255
 652 004a 00F08A80 		beq	.L48
 614:.\Generated_Source\PSoC5/USBFS_1_std.c ****         
 653              		.loc 1 614 0
 654 004e 484B     		ldr	r3, .L73+12
 655 0050 1878     		ldrb	r0, [r3]	@ zero_extendqisi2
 656              	.LVL53:
 657 0052 0138     		subs	r0, r0, #1
ARM GAS  C:\Users\LUKASC~1\AppData\Local\Temp\ccAgm3t8.s 			page 32


 658 0054 C0B2     		uxtb	r0, r0
 659 0056 FFF7FEFF 		bl	USBFS_1_GetConfigTablePtr
 660              	.LVL54:
 617:.\Generated_Source\PSoC5/USBFS_1_std.c ****         if ((pDescr[USBFS_1_CONFIG_DESCR_ATTRIB] & USBFS_1_CONFIG_DESCR_ATTRIB_SELF_POWERED) != 0u)
 661              		.loc 1 617 0
 662 005a 4368     		ldr	r3, [r0, #4]
 663              	.LVL55:
 618:.\Generated_Source\PSoC5/USBFS_1_std.c ****         {
 664              		.loc 1 618 0
 665 005c DB79     		ldrb	r3, [r3, #7]	@ zero_extendqisi2
 666              	.LVL56:
 667 005e 13F0400F 		tst	r3, #64
 668 0062 05D0     		beq	.L55
 620:.\Generated_Source\PSoC5/USBFS_1_std.c ****         }
 669              		.loc 1 620 0
 670 0064 434A     		ldr	r2, .L73+16
 671 0066 1378     		ldrb	r3, [r2]	@ zero_extendqisi2
 672 0068 43F00103 		orr	r3, r3, #1
 673 006c 1370     		strb	r3, [r2]
 674 006e 04E0     		b	.L56
 675              	.L55:
 624:.\Generated_Source\PSoC5/USBFS_1_std.c ****         }
 676              		.loc 1 624 0
 677 0070 404A     		ldr	r2, .L73+16
 678 0072 1378     		ldrb	r3, [r2]	@ zero_extendqisi2
 679 0074 03F0FE03 		and	r3, r3, #254
 680 0078 1370     		strb	r3, [r2]
 681              	.L56:
 682              	.LVL57:
 629:.\Generated_Source\PSoC5/USBFS_1_std.c **** 
 683              		.loc 1 629 0
 684 007a 057A     		ldrb	r5, [r0, #8]	@ zero_extendqisi2
 685              	.LVL58:
 687:.\Generated_Source\PSoC5/USBFS_1_std.c ****             {
 686              		.loc 1 687 0
 687 007c 0124     		movs	r4, #1
 688 007e 56E0     		b	.L57
 689              	.LVL59:
 690              	.L66:
 690:.\Generated_Source\PSoC5/USBFS_1_std.c ****                 /* Find max length for each EP and select it (length could be different in differen
 691              		.loc 1 690 0
 692 0080 C168     		ldr	r1, [r0, #12]
 693              	.LVL60:
 694:.\Generated_Source\PSoC5/USBFS_1_std.c ****                 {
 694              		.loc 1 694 0
 695 0082 0023     		movs	r3, #0
 696 0084 4FE0     		b	.L58
 697              	.LVL61:
 698              	.L65:
 696:.\Generated_Source\PSoC5/USBFS_1_std.c ****                     {
 699              		.loc 1 696 0
 700 0086 8A78     		ldrb	r2, [r1, #2]	@ zero_extendqisi2
 701 0088 02F07F02 		and	r2, r2, #127
 702 008c 9442     		cmp	r4, r2
 703 008e 47D1     		bne	.L59
 699:.\Generated_Source\PSoC5/USBFS_1_std.c ****                         {
 704              		.loc 1 699 0
ARM GAS  C:\Users\LUKASC~1\AppData\Local\Temp\ccAgm3t8.s 			page 33


 705 0090 2646     		mov	r6, r4
 706 0092 04EB4402 		add	r2, r4, r4, lsl #1
 707 0096 9200     		lsls	r2, r2, #2
 708 0098 324F     		ldr	r7, .L73
 709 009a 3A44     		add	r2, r2, r7
 710 009c 1289     		ldrh	r2, [r2, #8]
 711 009e 92B2     		uxth	r2, r2
 712 00a0 8F88     		ldrh	r7, [r1, #4]
 713 00a2 BA42     		cmp	r2, r7
 714 00a4 06D2     		bcs	.L60
 701:.\Generated_Source\PSoC5/USBFS_1_std.c ****                         }
 715              		.loc 1 701 0
 716 00a6 04EB4402 		add	r2, r4, r4, lsl #1
 717 00aa 9200     		lsls	r2, r2, #2
 718 00ac DFF8B4E0 		ldr	lr, .L73
 719 00b0 7244     		add	r2, r2, lr
 720 00b2 1781     		strh	r7, [r2, #8]	@ movhi
 721              	.L60:
 705:.\Generated_Source\PSoC5/USBFS_1_std.c ****                         {                            
 722              		.loc 1 705 0
 723 00b4 0A78     		ldrb	r2, [r1]	@ zero_extendqisi2
 724 00b6 2C4F     		ldr	r7, .L73+4
 725 00b8 BA5C     		ldrb	r2, [r7, r2]	@ zero_extendqisi2
 726 00ba D2B2     		uxtb	r2, r2
 727 00bc 4F78     		ldrb	r7, [r1, #1]	@ zero_extendqisi2
 728 00be BA42     		cmp	r2, r7
 729 00c0 2ED1     		bne	.L59
 707:.\Generated_Source\PSoC5/USBFS_1_std.c ****                             USBFS_1_EP[i].attrib = pEP->attributes;
 730              		.loc 1 707 0
 731 00c2 91F802E0 		ldrb	lr, [r1, #2]	@ zero_extendqisi2
 732 00c6 274A     		ldr	r2, .L73
 733 00c8 7300     		lsls	r3, r6, #1
 734              	.LVL62:
 735 00ca 3344     		add	r3, r3, r6
 736 00cc 9B00     		lsls	r3, r3, #2
 737 00ce D718     		adds	r7, r2, r3
 738 00d0 87F804E0 		strb	lr, [r7, #4]
 708:.\Generated_Source\PSoC5/USBFS_1_std.c ****                             
 739              		.loc 1 708 0
 740 00d4 CF78     		ldrb	r7, [r1, #3]	@ zero_extendqisi2
 741 00d6 D754     		strb	r7, [r2, r3]
 710:.\Generated_Source\PSoC5/USBFS_1_std.c ****                             
 742              		.loc 1 710 0
 743 00d8 CB78     		ldrb	r3, [r1, #3]	@ zero_extendqisi2
 744 00da 03F00303 		and	r3, r3, #3
 745              	.LVL63:
 712:.\Generated_Source\PSoC5/USBFS_1_std.c ****                             {
 746              		.loc 1 712 0
 747 00de 91F90220 		ldrsb	r2, [r1, #2]
 748 00e2 002A     		cmp	r2, #0
 749 00e4 0DDA     		bge	.L61
 715:.\Generated_Source\PSoC5/USBFS_1_std.c ****                                 USBFS_1_EP[i].apiEpState = USBFS_1_EVENT_PENDING;
 750              		.loc 1 715 0
 751 00e6 012B     		cmp	r3, #1
 752 00e8 01D1     		bne	.L70
 753 00ea 0727     		movs	r7, #7
 754 00ec 00E0     		b	.L62
ARM GAS  C:\Users\LUKASC~1\AppData\Local\Temp\ccAgm3t8.s 			page 34


 755              	.L70:
 756 00ee 0D27     		movs	r7, #13
 757              	.L62:
 715:.\Generated_Source\PSoC5/USBFS_1_std.c ****                                 USBFS_1_EP[i].apiEpState = USBFS_1_EVENT_PENDING;
 758              		.loc 1 715 0 is_stmt 0 discriminator 4
 759 00f0 1C49     		ldr	r1, .L73
 760              	.LVL64:
 761 00f2 7300     		lsls	r3, r6, #1
 762              	.LVL65:
 763 00f4 9A19     		adds	r2, r3, r6
 764 00f6 9200     		lsls	r2, r2, #2
 765 00f8 0A44     		add	r2, r2, r1
 766 00fa 5771     		strb	r7, [r2, #5]
 716:.\Generated_Source\PSoC5/USBFS_1_std.c ****                                 
 767              		.loc 1 716 0 is_stmt 1 discriminator 4
 768 00fc 0123     		movs	r3, #1
 769 00fe 5370     		strb	r3, [r2, #1]
 770 0100 13E0     		b	.L63
 771              	.LVL66:
 772              	.L61:
 728:.\Generated_Source\PSoC5/USBFS_1_std.c ****                                 USBFS_1_EP[i].apiEpState = USBFS_1_NO_EVENT_PENDING;
 773              		.loc 1 728 0
 774 0102 012B     		cmp	r3, #1
 775 0104 01D1     		bne	.L71
 776 0106 0527     		movs	r7, #5
 777 0108 00E0     		b	.L64
 778              	.L71:
 779 010a 0927     		movs	r7, #9
 780              	.L64:
 728:.\Generated_Source\PSoC5/USBFS_1_std.c ****                                 USBFS_1_EP[i].apiEpState = USBFS_1_NO_EVENT_PENDING;
 781              		.loc 1 728 0 is_stmt 0 discriminator 4
 782 010c 154A     		ldr	r2, .L73
 783 010e 7100     		lsls	r1, r6, #1
 784              	.LVL67:
 785 0110 8B19     		adds	r3, r1, r6
 786              	.LVL68:
 787 0112 9B00     		lsls	r3, r3, #2
 788 0114 1344     		add	r3, r3, r2
 789 0116 5F71     		strb	r7, [r3, #5]
 729:.\Generated_Source\PSoC5/USBFS_1_std.c ****                                 
 790              		.loc 1 729 0 is_stmt 1 discriminator 4
 791 0118 1E46     		mov	r6, r3
 792 011a 0023     		movs	r3, #0
 793 011c 7370     		strb	r3, [r6, #1]
 794 011e 04E0     		b	.L63
 795              	.LVL69:
 796              	.L59:
 752:.\Generated_Source\PSoC5/USBFS_1_std.c ****                 }
 797              		.loc 1 752 0 discriminator 2
 798 0120 0831     		adds	r1, r1, #8
 799              	.LVL70:
 694:.\Generated_Source\PSoC5/USBFS_1_std.c ****                 {
 800              		.loc 1 694 0 discriminator 2
 801 0122 0133     		adds	r3, r3, #1
 802              	.LVL71:
 803 0124 DBB2     		uxtb	r3, r3
 804              	.LVL72:
ARM GAS  C:\Users\LUKASC~1\AppData\Local\Temp\ccAgm3t8.s 			page 35


 805              	.L58:
 694:.\Generated_Source\PSoC5/USBFS_1_std.c ****                 {
 806              		.loc 1 694 0 is_stmt 0 discriminator 1
 807 0126 AB42     		cmp	r3, r5
 808 0128 ADD3     		bcc	.L65
 809              	.LVL73:
 810              	.L63:
 687:.\Generated_Source\PSoC5/USBFS_1_std.c ****             {
 811              		.loc 1 687 0 is_stmt 1 discriminator 2
 812 012a 0134     		adds	r4, r4, #1
 813              	.LVL74:
 814 012c E4B2     		uxtb	r4, r4
 815              	.LVL75:
 816              	.L57:
 687:.\Generated_Source\PSoC5/USBFS_1_std.c ****             {
 817              		.loc 1 687 0 is_stmt 0 discriminator 1
 818 012e 082C     		cmp	r4, #8
 819 0130 A6D9     		bls	.L66
 762:.\Generated_Source\PSoC5/USBFS_1_std.c ****         for (i = 0u; i < ep; i++)
 820              		.loc 1 762 0 is_stmt 1
 821 0132 C068     		ldr	r0, [r0, #12]
 822              	.LVL76:
 763:.\Generated_Source\PSoC5/USBFS_1_std.c ****         {
 823              		.loc 1 763 0
 824 0134 0022     		movs	r2, #0
 825 0136 0CE0     		b	.L67
 826              	.LVL77:
 827              	.L68:
 766:.\Generated_Source\PSoC5/USBFS_1_std.c ****             pEP = &pEP[1u];
 828              		.loc 1 766 0 discriminator 3
 829 0138 8378     		ldrb	r3, [r0, #2]	@ zero_extendqisi2
 830 013a 03F07F03 		and	r3, r3, #127
 831 013e 10F8084B 		ldrb	r4, [r0], #8	@ zero_extendqisi2
 832              	.LVL78:
 833 0142 03EB4303 		add	r3, r3, r3, lsl #1
 834 0146 9B00     		lsls	r3, r3, #2
 835 0148 0B49     		ldr	r1, .L73+20
 836 014a 0B44     		add	r3, r3, r1
 837 014c 9C70     		strb	r4, [r3, #2]
 838              	.LVL79:
 763:.\Generated_Source\PSoC5/USBFS_1_std.c ****         {
 839              		.loc 1 763 0 discriminator 3
 840 014e 0132     		adds	r2, r2, #1
 841              	.LVL80:
 842 0150 D2B2     		uxtb	r2, r2
 843              	.LVL81:
 844              	.L67:
 763:.\Generated_Source\PSoC5/USBFS_1_std.c ****         {
 845              		.loc 1 763 0 is_stmt 0 discriminator 1
 846 0152 AA42     		cmp	r2, r5
 847 0154 F0D3     		bcc	.L68
 771:.\Generated_Source\PSoC5/USBFS_1_std.c ****         
 848              		.loc 1 771 0 is_stmt 1
 849 0156 FFF7FEFF 		bl	USBFS_1_GetInterfaceClassTablePtr
 850              	.LVL82:
 851 015a 084B     		ldr	r3, .L73+24
 852 015c 1860     		str	r0, [r3]
ARM GAS  C:\Users\LUKASC~1\AppData\Local\Temp\ccAgm3t8.s 			page 36


 789:.\Generated_Source\PSoC5/USBFS_1_std.c ****     }
 853              		.loc 1 789 0
 854 015e FFF7FEFF 		bl	USBFS_1_ConfigReg
 855              	.LVL83:
 856              	.L48:
 857 0162 F8BD     		pop	{r3, r4, r5, r6, r7, pc}
 858              	.L74:
 859              		.align	2
 860              	.L73:
 861 0164 00000000 		.word	USBFS_1_EP
 862 0168 00000000 		.word	USBFS_1_interfaceSetting
 863 016c 00000000 		.word	USBFS_1_interfaceSettingLast
 864 0170 00000000 		.word	USBFS_1_configuration
 865 0174 00000000 		.word	USBFS_1_deviceStatus
 866 0178 08000000 		.word	USBFS_1_EP+8
 867 017c 00000000 		.word	USBFS_1_interfaceClass
 868              		.cfi_endproc
 869              	.LFE3:
 870              		.size	USBFS_1_Config, .-USBFS_1_Config
 871              		.section	.text.USBFS_1_TerminateEP,"ax",%progbits
 872              		.align	2
 873              		.global	USBFS_1_TerminateEP
 874              		.thumb
 875              		.thumb_func
 876              		.type	USBFS_1_TerminateEP, %function
 877              	USBFS_1_TerminateEP:
 878              	.LFB8:
1053:.\Generated_Source\PSoC5/USBFS_1_std.c **** 
1054:.\Generated_Source\PSoC5/USBFS_1_std.c **** 
1055:.\Generated_Source\PSoC5/USBFS_1_std.c **** /*******************************************************************************
1056:.\Generated_Source\PSoC5/USBFS_1_std.c **** * Function Name: USBFS_1_TerminateEP
1057:.\Generated_Source\PSoC5/USBFS_1_std.c **** ****************************************************************************//**
1058:.\Generated_Source\PSoC5/USBFS_1_std.c **** *
1059:.\Generated_Source\PSoC5/USBFS_1_std.c **** *  This function terminates the specified USBFS endpoint.
1060:.\Generated_Source\PSoC5/USBFS_1_std.c **** *  This function should be used before endpoint reconfiguration.
1061:.\Generated_Source\PSoC5/USBFS_1_std.c **** *
1062:.\Generated_Source\PSoC5/USBFS_1_std.c **** *  \param ep Contains the data endpoint number.
1063:.\Generated_Source\PSoC5/USBFS_1_std.c **** *
1064:.\Generated_Source\PSoC5/USBFS_1_std.c **** *  \reentrant
1065:.\Generated_Source\PSoC5/USBFS_1_std.c **** *  No.
1066:.\Generated_Source\PSoC5/USBFS_1_std.c **** *
1067:.\Generated_Source\PSoC5/USBFS_1_std.c **** * \sideeffect
1068:.\Generated_Source\PSoC5/USBFS_1_std.c **** * 
1069:.\Generated_Source\PSoC5/USBFS_1_std.c **** * The device responds with a NAK for any transactions on the selected endpoint.
1070:.\Generated_Source\PSoC5/USBFS_1_std.c **** *   
1071:.\Generated_Source\PSoC5/USBFS_1_std.c **** *******************************************************************************/
1072:.\Generated_Source\PSoC5/USBFS_1_std.c **** void USBFS_1_TerminateEP(uint8 epNumber) 
1073:.\Generated_Source\PSoC5/USBFS_1_std.c **** {
 879              		.loc 1 1073 0
 880              		.cfi_startproc
 881              		@ args = 0, pretend = 0, frame = 0
 882              		@ frame_needed = 0, uses_anonymous_args = 0
 883              		@ link register save eliminated.
 884              	.LVL84:
1074:.\Generated_Source\PSoC5/USBFS_1_std.c ****     /* Get endpoint number */
1075:.\Generated_Source\PSoC5/USBFS_1_std.c ****     epNumber &= USBFS_1_DIR_UNUSED;
 885              		.loc 1 1075 0
ARM GAS  C:\Users\LUKASC~1\AppData\Local\Temp\ccAgm3t8.s 			page 37


 886 0000 00F07F00 		and	r0, r0, #127
 887              	.LVL85:
1076:.\Generated_Source\PSoC5/USBFS_1_std.c **** 
1077:.\Generated_Source\PSoC5/USBFS_1_std.c ****     if ((epNumber > USBFS_1_EP0) && (epNumber < USBFS_1_MAX_EP))
 888              		.loc 1 1077 0
 889 0004 431E     		subs	r3, r0, #1
 890 0006 DBB2     		uxtb	r3, r3
 891 0008 072B     		cmp	r3, #7
 892 000a 19D8     		bhi	.L75
1078:.\Generated_Source\PSoC5/USBFS_1_std.c ****     {
1079:.\Generated_Source\PSoC5/USBFS_1_std.c ****         /* Set the endpoint Halt */
1080:.\Generated_Source\PSoC5/USBFS_1_std.c ****         USBFS_1_EP[epNumber].hwEpState |= USBFS_1_ENDPOINT_STATUS_HALT;
 893              		.loc 1 1080 0
 894 000c 4300     		lsls	r3, r0, #1
 895 000e 0344     		add	r3, r3, r0
 896 0010 9B00     		lsls	r3, r3, #2
 897 0012 0C4A     		ldr	r2, .L78
 898 0014 1344     		add	r3, r3, r2
 899 0016 9A78     		ldrb	r2, [r3, #2]	@ zero_extendqisi2
 900 0018 42F00102 		orr	r2, r2, #1
 901 001c 9A70     		strb	r2, [r3, #2]
1081:.\Generated_Source\PSoC5/USBFS_1_std.c **** 
1082:.\Generated_Source\PSoC5/USBFS_1_std.c ****         /* Clear the data toggle */
1083:.\Generated_Source\PSoC5/USBFS_1_std.c ****         USBFS_1_EP[epNumber].epToggle = 0u;
 902              		.loc 1 1083 0
 903 001e 0022     		movs	r2, #0
 904 0020 DA70     		strb	r2, [r3, #3]
1084:.\Generated_Source\PSoC5/USBFS_1_std.c ****         USBFS_1_EP[epNumber].apiEpState = USBFS_1_NO_EVENT_ALLOWED;
 905              		.loc 1 1084 0
 906 0022 0222     		movs	r2, #2
 907 0024 5A70     		strb	r2, [r3, #1]
1085:.\Generated_Source\PSoC5/USBFS_1_std.c **** 
1086:.\Generated_Source\PSoC5/USBFS_1_std.c ****         if ((USBFS_1_EP[epNumber].addr & USBFS_1_DIR_IN) != 0u)
 908              		.loc 1 1086 0
 909 0026 1B79     		ldrb	r3, [r3, #4]	@ zero_extendqisi2
 910 0028 13F0800F 		tst	r3, #128
 911 002c 04D0     		beq	.L77
1087:.\Generated_Source\PSoC5/USBFS_1_std.c ****         {   
1088:.\Generated_Source\PSoC5/USBFS_1_std.c ****             /* IN Endpoint */
1089:.\Generated_Source\PSoC5/USBFS_1_std.c ****             USBFS_1_SIE_EP_BASE.sieEp[epNumber].epCr0 = USBFS_1_MODE_NAK_IN;
 912              		.loc 1 1089 0
 913 002e 0001     		lsls	r0, r0, #4
 914              	.LVL86:
 915 0030 054B     		ldr	r3, .L78+4
 916 0032 0C22     		movs	r2, #12
 917 0034 1A54     		strb	r2, [r3, r0]
 918 0036 7047     		bx	lr
 919              	.LVL87:
 920              	.L77:
1090:.\Generated_Source\PSoC5/USBFS_1_std.c ****         }
1091:.\Generated_Source\PSoC5/USBFS_1_std.c ****         else
1092:.\Generated_Source\PSoC5/USBFS_1_std.c ****         {
1093:.\Generated_Source\PSoC5/USBFS_1_std.c ****             /* OUT Endpoint */
1094:.\Generated_Source\PSoC5/USBFS_1_std.c ****             USBFS_1_SIE_EP_BASE.sieEp[epNumber].epCr0 = USBFS_1_MODE_NAK_OUT;
 921              		.loc 1 1094 0
 922 0038 0001     		lsls	r0, r0, #4
 923              	.LVL88:
ARM GAS  C:\Users\LUKASC~1\AppData\Local\Temp\ccAgm3t8.s 			page 38


 924 003a 034B     		ldr	r3, .L78+4
 925 003c 0822     		movs	r2, #8
 926 003e 1A54     		strb	r2, [r3, r0]
 927              	.L75:
 928 0040 7047     		bx	lr
 929              	.L79:
 930 0042 00BF     		.align	2
 931              	.L78:
 932 0044 00000000 		.word	USBFS_1_EP
 933 0048 FE5F0040 		.word	1073766398
 934              		.cfi_endproc
 935              	.LFE8:
 936              		.size	USBFS_1_TerminateEP, .-USBFS_1_TerminateEP
 937              		.section	.text.USBFS_1_SetEndpointHalt,"ax",%progbits
 938              		.align	2
 939              		.global	USBFS_1_SetEndpointHalt
 940              		.thumb
 941              		.thumb_func
 942              		.type	USBFS_1_SetEndpointHalt, %function
 943              	USBFS_1_SetEndpointHalt:
 944              	.LFB9:
1095:.\Generated_Source\PSoC5/USBFS_1_std.c ****         }
1096:.\Generated_Source\PSoC5/USBFS_1_std.c ****     }
1097:.\Generated_Source\PSoC5/USBFS_1_std.c **** }
1098:.\Generated_Source\PSoC5/USBFS_1_std.c **** 
1099:.\Generated_Source\PSoC5/USBFS_1_std.c **** 
1100:.\Generated_Source\PSoC5/USBFS_1_std.c **** /*******************************************************************************
1101:.\Generated_Source\PSoC5/USBFS_1_std.c **** * Function Name: USBFS_1_SetEndpointHalt
1102:.\Generated_Source\PSoC5/USBFS_1_std.c **** ****************************************************************************//**
1103:.\Generated_Source\PSoC5/USBFS_1_std.c **** *
1104:.\Generated_Source\PSoC5/USBFS_1_std.c **** *  This routine handles set endpoint halt.
1105:.\Generated_Source\PSoC5/USBFS_1_std.c **** *
1106:.\Generated_Source\PSoC5/USBFS_1_std.c **** * \return
1107:.\Generated_Source\PSoC5/USBFS_1_std.c **** *  requestHandled.
1108:.\Generated_Source\PSoC5/USBFS_1_std.c **** *
1109:.\Generated_Source\PSoC5/USBFS_1_std.c **** * \reentrant
1110:.\Generated_Source\PSoC5/USBFS_1_std.c **** *  No.
1111:.\Generated_Source\PSoC5/USBFS_1_std.c **** *
1112:.\Generated_Source\PSoC5/USBFS_1_std.c **** *******************************************************************************/
1113:.\Generated_Source\PSoC5/USBFS_1_std.c **** uint8 USBFS_1_SetEndpointHalt(void) 
1114:.\Generated_Source\PSoC5/USBFS_1_std.c **** {
 945              		.loc 1 1114 0
 946              		.cfi_startproc
 947              		@ args = 0, pretend = 0, frame = 0
 948              		@ frame_needed = 0, uses_anonymous_args = 0
 949 0000 08B5     		push	{r3, lr}
 950              		.cfi_def_cfa_offset 8
 951              		.cfi_offset 3, -8
 952              		.cfi_offset 14, -4
 953              	.LVL89:
1115:.\Generated_Source\PSoC5/USBFS_1_std.c ****     uint8 requestHandled = USBFS_1_FALSE;
1116:.\Generated_Source\PSoC5/USBFS_1_std.c ****     uint8 ep;
1117:.\Generated_Source\PSoC5/USBFS_1_std.c ****     
1118:.\Generated_Source\PSoC5/USBFS_1_std.c ****     /* Set endpoint halt */
1119:.\Generated_Source\PSoC5/USBFS_1_std.c ****     ep = USBFS_1_wIndexLoReg & USBFS_1_DIR_UNUSED;
 954              		.loc 1 1119 0
 955 0002 154B     		ldr	r3, .L86
ARM GAS  C:\Users\LUKASC~1\AppData\Local\Temp\ccAgm3t8.s 			page 39


 956 0004 1A79     		ldrb	r2, [r3, #4]	@ zero_extendqisi2
 957 0006 02F07F02 		and	r2, r2, #127
 958              	.LVL90:
1120:.\Generated_Source\PSoC5/USBFS_1_std.c **** 
1121:.\Generated_Source\PSoC5/USBFS_1_std.c ****     if ((ep > USBFS_1_EP0) && (ep < USBFS_1_MAX_EP))
 959              		.loc 1 1121 0
 960 000a 531E     		subs	r3, r2, #1
 961 000c DBB2     		uxtb	r3, r3
 962 000e 072B     		cmp	r3, #7
 963 0010 20D8     		bhi	.L84
1122:.\Generated_Source\PSoC5/USBFS_1_std.c ****     {
1123:.\Generated_Source\PSoC5/USBFS_1_std.c ****         /* Set the endpoint Halt */
1124:.\Generated_Source\PSoC5/USBFS_1_std.c ****         USBFS_1_EP[ep].hwEpState |= (USBFS_1_ENDPOINT_STATUS_HALT);
 964              		.loc 1 1124 0
 965 0012 5300     		lsls	r3, r2, #1
 966 0014 1344     		add	r3, r3, r2
 967 0016 9B00     		lsls	r3, r3, #2
 968 0018 1049     		ldr	r1, .L86+4
 969 001a 0B44     		add	r3, r3, r1
 970 001c 9978     		ldrb	r1, [r3, #2]	@ zero_extendqisi2
 971 001e 41F00101 		orr	r1, r1, #1
 972 0022 9970     		strb	r1, [r3, #2]
1125:.\Generated_Source\PSoC5/USBFS_1_std.c **** 
1126:.\Generated_Source\PSoC5/USBFS_1_std.c ****         /* Clear the data toggle */
1127:.\Generated_Source\PSoC5/USBFS_1_std.c ****         USBFS_1_EP[ep].epToggle = 0u;
 973              		.loc 1 1127 0
 974 0024 0021     		movs	r1, #0
 975 0026 D970     		strb	r1, [r3, #3]
1128:.\Generated_Source\PSoC5/USBFS_1_std.c ****         USBFS_1_EP[ep].apiEpState |= USBFS_1_NO_EVENT_ALLOWED;
 976              		.loc 1 1128 0
 977 0028 5978     		ldrb	r1, [r3, #1]	@ zero_extendqisi2
 978 002a 41F00201 		orr	r1, r1, #2
 979 002e 5970     		strb	r1, [r3, #1]
1129:.\Generated_Source\PSoC5/USBFS_1_std.c **** 
1130:.\Generated_Source\PSoC5/USBFS_1_std.c ****         if ((USBFS_1_EP[ep].addr & USBFS_1_DIR_IN) != 0u)
 980              		.loc 1 1130 0
 981 0030 1B79     		ldrb	r3, [r3, #4]	@ zero_extendqisi2
 982 0032 13F0800F 		tst	r3, #128
 983 0036 05D0     		beq	.L82
1131:.\Generated_Source\PSoC5/USBFS_1_std.c ****         {
1132:.\Generated_Source\PSoC5/USBFS_1_std.c ****             /* IN Endpoint */
1133:.\Generated_Source\PSoC5/USBFS_1_std.c ****             USBFS_1_SIE_EP_BASE.sieEp[ep].epCr0 = (USBFS_1_MODE_STALL_DATA_EP | 
 984              		.loc 1 1133 0
 985 0038 1201     		lsls	r2, r2, #4
 986              	.LVL91:
 987 003a 094B     		ldr	r3, .L86+8
 988 003c 1344     		add	r3, r3, r2
 989 003e 8D22     		movs	r2, #141
 990 0040 9A70     		strb	r2, [r3, #2]
 991 0042 04E0     		b	.L83
 992              	.LVL92:
 993              	.L82:
1134:.\Generated_Source\PSoC5/USBFS_1_std.c ****                                                             USBFS_1_MODE_ACK_IN);
1135:.\Generated_Source\PSoC5/USBFS_1_std.c ****         }
1136:.\Generated_Source\PSoC5/USBFS_1_std.c ****         else
1137:.\Generated_Source\PSoC5/USBFS_1_std.c ****         {
1138:.\Generated_Source\PSoC5/USBFS_1_std.c ****             /* OUT Endpoint */
ARM GAS  C:\Users\LUKASC~1\AppData\Local\Temp\ccAgm3t8.s 			page 40


1139:.\Generated_Source\PSoC5/USBFS_1_std.c ****             USBFS_1_SIE_EP_BASE.sieEp[ep].epCr0 = (USBFS_1_MODE_STALL_DATA_EP | 
 994              		.loc 1 1139 0
 995 0044 1201     		lsls	r2, r2, #4
 996              	.LVL93:
 997 0046 064B     		ldr	r3, .L86+8
 998 0048 1344     		add	r3, r3, r2
 999 004a 8922     		movs	r2, #137
 1000 004c 9A70     		strb	r2, [r3, #2]
 1001              	.L83:
1140:.\Generated_Source\PSoC5/USBFS_1_std.c ****                                                             USBFS_1_MODE_ACK_OUT);
1141:.\Generated_Source\PSoC5/USBFS_1_std.c ****         }
1142:.\Generated_Source\PSoC5/USBFS_1_std.c ****         requestHandled = USBFS_1_InitNoDataControlTransfer();
 1002              		.loc 1 1142 0
 1003 004e FFF7FEFF 		bl	USBFS_1_InitNoDataControlTransfer
 1004              	.LVL94:
 1005 0052 08BD     		pop	{r3, pc}
 1006              	.LVL95:
 1007              	.L84:
1115:.\Generated_Source\PSoC5/USBFS_1_std.c ****     uint8 ep;
 1008              		.loc 1 1115 0
 1009 0054 0020     		movs	r0, #0
 1010              	.LVL96:
1143:.\Generated_Source\PSoC5/USBFS_1_std.c ****     }
1144:.\Generated_Source\PSoC5/USBFS_1_std.c **** 
1145:.\Generated_Source\PSoC5/USBFS_1_std.c ****     return (requestHandled);
1146:.\Generated_Source\PSoC5/USBFS_1_std.c **** }
 1011              		.loc 1 1146 0
 1012 0056 08BD     		pop	{r3, pc}
 1013              	.L87:
 1014              		.align	2
 1015              	.L86:
 1016 0058 00600040 		.word	1073766400
 1017 005c 00000000 		.word	USBFS_1_EP
 1018 0060 FC5F0040 		.word	1073766396
 1019              		.cfi_endproc
 1020              	.LFE9:
 1021              		.size	USBFS_1_SetEndpointHalt, .-USBFS_1_SetEndpointHalt
 1022              		.section	.text.USBFS_1_ClearEndpointHalt,"ax",%progbits
 1023              		.align	2
 1024              		.global	USBFS_1_ClearEndpointHalt
 1025              		.thumb
 1026              		.thumb_func
 1027              		.type	USBFS_1_ClearEndpointHalt, %function
 1028              	USBFS_1_ClearEndpointHalt:
 1029              	.LFB10:
1147:.\Generated_Source\PSoC5/USBFS_1_std.c **** 
1148:.\Generated_Source\PSoC5/USBFS_1_std.c **** 
1149:.\Generated_Source\PSoC5/USBFS_1_std.c **** /*******************************************************************************
1150:.\Generated_Source\PSoC5/USBFS_1_std.c **** * Function Name: USBFS_1_ClearEndpointHalt
1151:.\Generated_Source\PSoC5/USBFS_1_std.c **** ****************************************************************************//**
1152:.\Generated_Source\PSoC5/USBFS_1_std.c **** *
1153:.\Generated_Source\PSoC5/USBFS_1_std.c **** *  This routine handles clear endpoint halt.
1154:.\Generated_Source\PSoC5/USBFS_1_std.c **** *
1155:.\Generated_Source\PSoC5/USBFS_1_std.c **** * \return
1156:.\Generated_Source\PSoC5/USBFS_1_std.c **** *  requestHandled.
1157:.\Generated_Source\PSoC5/USBFS_1_std.c **** *
1158:.\Generated_Source\PSoC5/USBFS_1_std.c **** * \reentrant
ARM GAS  C:\Users\LUKASC~1\AppData\Local\Temp\ccAgm3t8.s 			page 41


1159:.\Generated_Source\PSoC5/USBFS_1_std.c **** *  No.
1160:.\Generated_Source\PSoC5/USBFS_1_std.c **** *
1161:.\Generated_Source\PSoC5/USBFS_1_std.c **** *******************************************************************************/
1162:.\Generated_Source\PSoC5/USBFS_1_std.c **** uint8 USBFS_1_ClearEndpointHalt(void) 
1163:.\Generated_Source\PSoC5/USBFS_1_std.c **** {
 1030              		.loc 1 1163 0
 1031              		.cfi_startproc
 1032              		@ args = 0, pretend = 0, frame = 0
 1033              		@ frame_needed = 0, uses_anonymous_args = 0
 1034              	.LVL97:
1164:.\Generated_Source\PSoC5/USBFS_1_std.c ****     uint8 requestHandled = USBFS_1_FALSE;
1165:.\Generated_Source\PSoC5/USBFS_1_std.c ****     uint8 ep;
1166:.\Generated_Source\PSoC5/USBFS_1_std.c **** 
1167:.\Generated_Source\PSoC5/USBFS_1_std.c ****     /* Clear endpoint halt */
1168:.\Generated_Source\PSoC5/USBFS_1_std.c ****     ep = USBFS_1_wIndexLoReg & USBFS_1_DIR_UNUSED;
 1035              		.loc 1 1168 0
 1036 0000 264B     		ldr	r3, .L97
 1037 0002 1B79     		ldrb	r3, [r3, #4]	@ zero_extendqisi2
 1038 0004 03F07F03 		and	r3, r3, #127
 1039              	.LVL98:
1169:.\Generated_Source\PSoC5/USBFS_1_std.c **** 
1170:.\Generated_Source\PSoC5/USBFS_1_std.c ****     if ((ep > USBFS_1_EP0) && (ep < USBFS_1_MAX_EP))
 1040              		.loc 1 1170 0
 1041 0008 5A1E     		subs	r2, r3, #1
 1042 000a D2B2     		uxtb	r2, r2
 1043 000c 072A     		cmp	r2, #7
 1044 000e 43D8     		bhi	.L94
1163:.\Generated_Source\PSoC5/USBFS_1_std.c ****     uint8 requestHandled = USBFS_1_FALSE;
 1045              		.loc 1 1163 0
 1046 0010 10B5     		push	{r4, lr}
 1047              		.cfi_def_cfa_offset 8
 1048              		.cfi_offset 4, -8
 1049              		.cfi_offset 14, -4
1171:.\Generated_Source\PSoC5/USBFS_1_std.c ****     {
1172:.\Generated_Source\PSoC5/USBFS_1_std.c ****         /* Clear the endpoint Halt */
1173:.\Generated_Source\PSoC5/USBFS_1_std.c ****         USBFS_1_EP[ep].hwEpState &= (uint8) ~USBFS_1_ENDPOINT_STATUS_HALT;
 1050              		.loc 1 1173 0
 1051 0012 5A00     		lsls	r2, r3, #1
 1052 0014 1A44     		add	r2, r2, r3
 1053 0016 9200     		lsls	r2, r2, #2
 1054 0018 2149     		ldr	r1, .L97+4
 1055 001a 0A44     		add	r2, r2, r1
 1056 001c 9178     		ldrb	r1, [r2, #2]	@ zero_extendqisi2
 1057 001e 01F0FE01 		and	r1, r1, #254
 1058 0022 9170     		strb	r1, [r2, #2]
1174:.\Generated_Source\PSoC5/USBFS_1_std.c **** 
1175:.\Generated_Source\PSoC5/USBFS_1_std.c ****         /* Clear the data toggle */
1176:.\Generated_Source\PSoC5/USBFS_1_std.c ****         USBFS_1_EP[ep].epToggle = 0u;
 1059              		.loc 1 1176 0
 1060 0024 0021     		movs	r1, #0
 1061 0026 D170     		strb	r1, [r2, #3]
1177:.\Generated_Source\PSoC5/USBFS_1_std.c ****         
1178:.\Generated_Source\PSoC5/USBFS_1_std.c ****         /* Clear toggle bit for already armed packet */
1179:.\Generated_Source\PSoC5/USBFS_1_std.c ****         USBFS_1_SIE_EP_BASE.sieEp[ep].epCnt0 = (uint8) ~(uint8)USBFS_1_EPX_CNT_DATA_TOGGLE;
 1062              		.loc 1 1179 0
 1063 0028 1901     		lsls	r1, r3, #4
 1064 002a 7F24     		movs	r4, #127
ARM GAS  C:\Users\LUKASC~1\AppData\Local\Temp\ccAgm3t8.s 			page 42


 1065 002c 1D48     		ldr	r0, .L97+8
 1066 002e 4454     		strb	r4, [r0, r1]
1180:.\Generated_Source\PSoC5/USBFS_1_std.c ****         
1181:.\Generated_Source\PSoC5/USBFS_1_std.c ****         /* Return API State as it was defined before */
1182:.\Generated_Source\PSoC5/USBFS_1_std.c ****         USBFS_1_EP[ep].apiEpState &= (uint8) ~USBFS_1_NO_EVENT_ALLOWED;
 1067              		.loc 1 1182 0
 1068 0030 5178     		ldrb	r1, [r2, #1]	@ zero_extendqisi2
 1069 0032 01F0FD01 		and	r1, r1, #253
 1070 0036 5170     		strb	r1, [r2, #1]
1183:.\Generated_Source\PSoC5/USBFS_1_std.c **** 
1184:.\Generated_Source\PSoC5/USBFS_1_std.c ****         if ((USBFS_1_EP[ep].addr & USBFS_1_DIR_IN) != 0u)
 1071              		.loc 1 1184 0
 1072 0038 1279     		ldrb	r2, [r2, #4]	@ zero_extendqisi2
 1073 003a 12F0800F 		tst	r2, #128
 1074 003e 14D0     		beq	.L90
1185:.\Generated_Source\PSoC5/USBFS_1_std.c ****         {
1186:.\Generated_Source\PSoC5/USBFS_1_std.c ****             /* IN Endpoint */
1187:.\Generated_Source\PSoC5/USBFS_1_std.c ****             if(USBFS_1_EP[ep].apiEpState == USBFS_1_IN_BUFFER_EMPTY)
 1075              		.loc 1 1187 0
 1076 0040 03EB4302 		add	r2, r3, r3, lsl #1
 1077 0044 9200     		lsls	r2, r2, #2
 1078 0046 1649     		ldr	r1, .L97+4
 1079 0048 0A44     		add	r2, r2, r1
 1080 004a 5278     		ldrb	r2, [r2, #1]	@ zero_extendqisi2
 1081 004c D2B2     		uxtb	r2, r2
 1082 004e 012A     		cmp	r2, #1
 1083 0050 05D1     		bne	.L91
1188:.\Generated_Source\PSoC5/USBFS_1_std.c ****             {       
1189:.\Generated_Source\PSoC5/USBFS_1_std.c ****                 /* Wait for next packet from application */
1190:.\Generated_Source\PSoC5/USBFS_1_std.c ****                 USBFS_1_SIE_EP_BASE.sieEp[ep].epCr0 = USBFS_1_MODE_NAK_IN;
 1084              		.loc 1 1190 0
 1085 0052 1B01     		lsls	r3, r3, #4
 1086              	.LVL99:
 1087 0054 0246     		mov	r2, r0
 1088 0056 1A44     		add	r2, r2, r3
 1089 0058 0C23     		movs	r3, #12
 1090 005a 9370     		strb	r3, [r2, #2]
 1091 005c 19E0     		b	.L92
 1092              	.LVL100:
 1093              	.L91:
1191:.\Generated_Source\PSoC5/USBFS_1_std.c ****             }
1192:.\Generated_Source\PSoC5/USBFS_1_std.c ****             else    /* Continue armed transfer */
1193:.\Generated_Source\PSoC5/USBFS_1_std.c ****             {
1194:.\Generated_Source\PSoC5/USBFS_1_std.c ****                 USBFS_1_SIE_EP_BASE.sieEp[ep].epCr0 = USBFS_1_MODE_ACK_IN;
 1094              		.loc 1 1194 0
 1095 005e 1B01     		lsls	r3, r3, #4
 1096              	.LVL101:
 1097 0060 104A     		ldr	r2, .L97+8
 1098 0062 1A44     		add	r2, r2, r3
 1099 0064 0D23     		movs	r3, #13
 1100 0066 9370     		strb	r3, [r2, #2]
 1101 0068 13E0     		b	.L92
 1102              	.LVL102:
 1103              	.L90:
1195:.\Generated_Source\PSoC5/USBFS_1_std.c ****             }
1196:.\Generated_Source\PSoC5/USBFS_1_std.c ****         }
1197:.\Generated_Source\PSoC5/USBFS_1_std.c ****         else
ARM GAS  C:\Users\LUKASC~1\AppData\Local\Temp\ccAgm3t8.s 			page 43


1198:.\Generated_Source\PSoC5/USBFS_1_std.c ****         {
1199:.\Generated_Source\PSoC5/USBFS_1_std.c ****             /* OUT Endpoint */
1200:.\Generated_Source\PSoC5/USBFS_1_std.c ****             if (USBFS_1_EP[ep].apiEpState == USBFS_1_OUT_BUFFER_FULL)
 1104              		.loc 1 1200 0
 1105 006a 03EB4302 		add	r2, r3, r3, lsl #1
 1106 006e 9200     		lsls	r2, r2, #2
 1107 0070 0B49     		ldr	r1, .L97+4
 1108 0072 0A44     		add	r2, r2, r1
 1109 0074 5278     		ldrb	r2, [r2, #1]	@ zero_extendqisi2
 1110 0076 D2B2     		uxtb	r2, r2
 1111 0078 012A     		cmp	r2, #1
 1112 007a 05D1     		bne	.L93
1201:.\Generated_Source\PSoC5/USBFS_1_std.c ****             {       
1202:.\Generated_Source\PSoC5/USBFS_1_std.c ****                 /* Allow application to read full buffer */
1203:.\Generated_Source\PSoC5/USBFS_1_std.c ****                 USBFS_1_SIE_EP_BASE.sieEp[ep].epCr0 = USBFS_1_MODE_NAK_OUT;
 1113              		.loc 1 1203 0
 1114 007c 1B01     		lsls	r3, r3, #4
 1115              	.LVL103:
 1116 007e 094A     		ldr	r2, .L97+8
 1117 0080 1A44     		add	r2, r2, r3
 1118 0082 0823     		movs	r3, #8
 1119 0084 9370     		strb	r3, [r2, #2]
 1120 0086 04E0     		b	.L92
 1121              	.LVL104:
 1122              	.L93:
1204:.\Generated_Source\PSoC5/USBFS_1_std.c ****             }
1205:.\Generated_Source\PSoC5/USBFS_1_std.c ****             else    /* Mark endpoint as empty, so it will be reloaded */
1206:.\Generated_Source\PSoC5/USBFS_1_std.c ****             {
1207:.\Generated_Source\PSoC5/USBFS_1_std.c ****                 USBFS_1_SIE_EP_BASE.sieEp[ep].epCr0 = USBFS_1_MODE_ACK_OUT;
 1123              		.loc 1 1207 0
 1124 0088 1B01     		lsls	r3, r3, #4
 1125              	.LVL105:
 1126 008a 064A     		ldr	r2, .L97+8
 1127 008c 1A44     		add	r2, r2, r3
 1128 008e 0923     		movs	r3, #9
 1129 0090 9370     		strb	r3, [r2, #2]
 1130              	.L92:
1208:.\Generated_Source\PSoC5/USBFS_1_std.c ****             }
1209:.\Generated_Source\PSoC5/USBFS_1_std.c ****         }
1210:.\Generated_Source\PSoC5/USBFS_1_std.c ****         
1211:.\Generated_Source\PSoC5/USBFS_1_std.c ****         requestHandled = USBFS_1_InitNoDataControlTransfer();
 1131              		.loc 1 1211 0
 1132 0092 FFF7FEFF 		bl	USBFS_1_InitNoDataControlTransfer
 1133              	.LVL106:
 1134 0096 10BD     		pop	{r4, pc}
 1135              	.LVL107:
 1136              	.L94:
 1137              		.cfi_def_cfa_offset 0
 1138              		.cfi_restore 4
 1139              		.cfi_restore 14
1164:.\Generated_Source\PSoC5/USBFS_1_std.c ****     uint8 ep;
 1140              		.loc 1 1164 0
 1141 0098 0020     		movs	r0, #0
 1142 009a 7047     		bx	lr
 1143              	.L98:
 1144              		.align	2
 1145              	.L97:
ARM GAS  C:\Users\LUKASC~1\AppData\Local\Temp\ccAgm3t8.s 			page 44


 1146 009c 00600040 		.word	1073766400
 1147 00a0 00000000 		.word	USBFS_1_EP
 1148 00a4 FC5F0040 		.word	1073766396
 1149              		.cfi_endproc
 1150              	.LFE10:
 1151              		.size	USBFS_1_ClearEndpointHalt, .-USBFS_1_ClearEndpointHalt
 1152              		.section	.text.USBFS_1_ValidateAlternateSetting,"ax",%progbits
 1153              		.align	2
 1154              		.global	USBFS_1_ValidateAlternateSetting
 1155              		.thumb
 1156              		.thumb_func
 1157              		.type	USBFS_1_ValidateAlternateSetting, %function
 1158              	USBFS_1_ValidateAlternateSetting:
 1159              	.LFB11:
1212:.\Generated_Source\PSoC5/USBFS_1_std.c ****     }
1213:.\Generated_Source\PSoC5/USBFS_1_std.c **** 
1214:.\Generated_Source\PSoC5/USBFS_1_std.c ****     return(requestHandled);
1215:.\Generated_Source\PSoC5/USBFS_1_std.c **** }
1216:.\Generated_Source\PSoC5/USBFS_1_std.c **** 
1217:.\Generated_Source\PSoC5/USBFS_1_std.c **** 
1218:.\Generated_Source\PSoC5/USBFS_1_std.c **** /*******************************************************************************
1219:.\Generated_Source\PSoC5/USBFS_1_std.c **** * Function Name: USBFS_1_ValidateAlternateSetting
1220:.\Generated_Source\PSoC5/USBFS_1_std.c **** ****************************************************************************//**
1221:.\Generated_Source\PSoC5/USBFS_1_std.c **** *
1222:.\Generated_Source\PSoC5/USBFS_1_std.c **** *  Validates (and records) a SET INTERFACE request.
1223:.\Generated_Source\PSoC5/USBFS_1_std.c **** *
1224:.\Generated_Source\PSoC5/USBFS_1_std.c **** * \return
1225:.\Generated_Source\PSoC5/USBFS_1_std.c **** *  requestHandled.
1226:.\Generated_Source\PSoC5/USBFS_1_std.c **** *
1227:.\Generated_Source\PSoC5/USBFS_1_std.c **** * \reentrant
1228:.\Generated_Source\PSoC5/USBFS_1_std.c **** *  No.
1229:.\Generated_Source\PSoC5/USBFS_1_std.c **** *
1230:.\Generated_Source\PSoC5/USBFS_1_std.c **** *******************************************************************************/
1231:.\Generated_Source\PSoC5/USBFS_1_std.c **** uint8 USBFS_1_ValidateAlternateSetting(void) 
1232:.\Generated_Source\PSoC5/USBFS_1_std.c **** {
 1160              		.loc 1 1232 0
 1161              		.cfi_startproc
 1162              		@ args = 0, pretend = 0, frame = 0
 1163              		@ frame_needed = 0, uses_anonymous_args = 0
 1164 0000 10B5     		push	{r4, lr}
 1165              		.cfi_def_cfa_offset 8
 1166              		.cfi_offset 4, -8
 1167              		.cfi_offset 14, -4
 1168              	.LVL108:
1233:.\Generated_Source\PSoC5/USBFS_1_std.c ****     uint8 requestHandled = USBFS_1_FALSE;
1234:.\Generated_Source\PSoC5/USBFS_1_std.c ****     
1235:.\Generated_Source\PSoC5/USBFS_1_std.c ****     uint8 interfaceNum;
1236:.\Generated_Source\PSoC5/USBFS_1_std.c ****     uint8 curInterfacesNum;
1237:.\Generated_Source\PSoC5/USBFS_1_std.c ****     const T_USBFS_1_LUT CYCODE *pTmp;
1238:.\Generated_Source\PSoC5/USBFS_1_std.c ****     
1239:.\Generated_Source\PSoC5/USBFS_1_std.c ****     /* Get interface number from the request. */
1240:.\Generated_Source\PSoC5/USBFS_1_std.c ****     interfaceNum = (uint8) USBFS_1_wIndexLoReg;
 1169              		.loc 1 1240 0
 1170 0002 0E4B     		ldr	r3, .L104
 1171 0004 1C79     		ldrb	r4, [r3, #4]	@ zero_extendqisi2
 1172 0006 E4B2     		uxtb	r4, r4
 1173              	.LVL109:
ARM GAS  C:\Users\LUKASC~1\AppData\Local\Temp\ccAgm3t8.s 			page 45


1241:.\Generated_Source\PSoC5/USBFS_1_std.c ****     
1242:.\Generated_Source\PSoC5/USBFS_1_std.c ****     /* Get number of interfaces for current configuration. */
1243:.\Generated_Source\PSoC5/USBFS_1_std.c ****     pTmp = USBFS_1_GetConfigTablePtr(USBFS_1_configuration - 1u);
 1174              		.loc 1 1243 0
 1175 0008 0D4B     		ldr	r3, .L104+4
 1176 000a 1878     		ldrb	r0, [r3]	@ zero_extendqisi2
 1177 000c 0138     		subs	r0, r0, #1
 1178 000e C0B2     		uxtb	r0, r0
 1179 0010 FFF7FEFF 		bl	USBFS_1_GetConfigTablePtr
 1180              	.LVL110:
1244:.\Generated_Source\PSoC5/USBFS_1_std.c ****     curInterfacesNum  = ((const uint8 *) pTmp->p_list)[USBFS_1_CONFIG_DESCR_NUM_INTERFACES];
 1181              		.loc 1 1244 0
 1182 0014 4368     		ldr	r3, [r0, #4]
 1183 0016 1B79     		ldrb	r3, [r3, #4]	@ zero_extendqisi2
 1184              	.LVL111:
1245:.\Generated_Source\PSoC5/USBFS_1_std.c **** 
1246:.\Generated_Source\PSoC5/USBFS_1_std.c ****     /* Validate that interface number is within range. */
1247:.\Generated_Source\PSoC5/USBFS_1_std.c ****     if ((interfaceNum <= curInterfacesNum) || (interfaceNum <= USBFS_1_MAX_INTERFACES_NUMBER))
 1185              		.loc 1 1247 0
 1186 0018 9C42     		cmp	r4, r3
 1187 001a 01D9     		bls	.L100
 1188              		.loc 1 1247 0 is_stmt 0 discriminator 1
 1189 001c 022C     		cmp	r4, #2
 1190 001e 0AD8     		bhi	.L102
 1191              	.L100:
1248:.\Generated_Source\PSoC5/USBFS_1_std.c ****     {
1249:.\Generated_Source\PSoC5/USBFS_1_std.c ****         /* Save current and new alternate settings (come with request) to make 
1250:.\Generated_Source\PSoC5/USBFS_1_std.c ****         * desicion about following endpoint re-configuration.
1251:.\Generated_Source\PSoC5/USBFS_1_std.c ****         */
1252:.\Generated_Source\PSoC5/USBFS_1_std.c ****         USBFS_1_interfaceSettingLast[interfaceNum] = USBFS_1_interfaceSetting[interfaceNum];
 1192              		.loc 1 1252 0 is_stmt 1
 1193 0020 084A     		ldr	r2, .L104+8
 1194 0022 135D     		ldrb	r3, [r2, r4]	@ zero_extendqisi2
 1195              	.LVL112:
 1196 0024 DBB2     		uxtb	r3, r3
 1197 0026 0849     		ldr	r1, .L104+12
 1198 0028 0B55     		strb	r3, [r1, r4]
1253:.\Generated_Source\PSoC5/USBFS_1_std.c ****         USBFS_1_interfaceSetting[interfaceNum]     = (uint8) USBFS_1_wValueLoReg;
 1199              		.loc 1 1253 0
 1200 002a 044B     		ldr	r3, .L104
 1201 002c 9B78     		ldrb	r3, [r3, #2]	@ zero_extendqisi2
 1202 002e DBB2     		uxtb	r3, r3
 1203 0030 1355     		strb	r3, [r2, r4]
 1204              	.LVL113:
1254:.\Generated_Source\PSoC5/USBFS_1_std.c ****         
1255:.\Generated_Source\PSoC5/USBFS_1_std.c ****         requestHandled = USBFS_1_TRUE;
 1205              		.loc 1 1255 0
 1206 0032 0120     		movs	r0, #1
 1207              	.LVL114:
 1208 0034 10BD     		pop	{r4, pc}
 1209              	.LVL115:
 1210              	.L102:
1233:.\Generated_Source\PSoC5/USBFS_1_std.c ****     
 1211              		.loc 1 1233 0
 1212 0036 0020     		movs	r0, #0
 1213              	.LVL116:
1256:.\Generated_Source\PSoC5/USBFS_1_std.c ****     }
ARM GAS  C:\Users\LUKASC~1\AppData\Local\Temp\ccAgm3t8.s 			page 46


1257:.\Generated_Source\PSoC5/USBFS_1_std.c **** 
1258:.\Generated_Source\PSoC5/USBFS_1_std.c ****     return (requestHandled);
1259:.\Generated_Source\PSoC5/USBFS_1_std.c **** }
 1214              		.loc 1 1259 0
 1215 0038 10BD     		pop	{r4, pc}
 1216              	.LVL117:
 1217              	.L105:
 1218 003a 00BF     		.align	2
 1219              	.L104:
 1220 003c 00600040 		.word	1073766400
 1221 0040 00000000 		.word	USBFS_1_configuration
 1222 0044 00000000 		.word	USBFS_1_interfaceSetting
 1223 0048 00000000 		.word	USBFS_1_interfaceSettingLast
 1224              		.cfi_endproc
 1225              	.LFE11:
 1226              		.size	USBFS_1_ValidateAlternateSetting, .-USBFS_1_ValidateAlternateSetting
 1227              		.section	.text.USBFS_1_HandleStandardRqst,"ax",%progbits
 1228              		.align	2
 1229              		.global	USBFS_1_HandleStandardRqst
 1230              		.thumb
 1231              		.thumb_func
 1232              		.type	USBFS_1_HandleStandardRqst, %function
 1233              	USBFS_1_HandleStandardRqst:
 1234              	.LFB0:
  85:.\Generated_Source\PSoC5/USBFS_1_std.c ****     uint8 requestHandled = USBFS_1_FALSE;
 1235              		.loc 1 85 0
 1236              		.cfi_startproc
 1237              		@ args = 0, pretend = 0, frame = 0
 1238              		@ frame_needed = 0, uses_anonymous_args = 0
 1239 0000 10B5     		push	{r4, lr}
 1240              		.cfi_def_cfa_offset 8
 1241              		.cfi_offset 4, -8
 1242              		.cfi_offset 14, -4
 1243              	.LVL118:
  89:.\Generated_Source\PSoC5/USBFS_1_std.c **** 
 1244              		.loc 1 89 0
 1245 0002 9A4B     		ldr	r3, .L160
 1246 0004 1B78     		ldrb	r3, [r3]	@ zero_extendqisi2
 1247 0006 DBB2     		uxtb	r3, r3
 1248              	.LVL119:
 102:.\Generated_Source\PSoC5/USBFS_1_std.c **** 
 1249              		.loc 1 102 0
 1250 0008 0021     		movs	r1, #0
 1251 000a 994A     		ldr	r2, .L160+4
 1252 000c 1180     		strh	r1, [r2]	@ movhi
 104:.\Generated_Source\PSoC5/USBFS_1_std.c ****     {
 1253              		.loc 1 104 0
 1254 000e 13F0800F 		tst	r3, #128
 1255 0012 00F09C80 		beq	.L107
 107:.\Generated_Source\PSoC5/USBFS_1_std.c ****         {
 1256              		.loc 1 107 0
 1257 0016 954A     		ldr	r2, .L160
 1258 0018 5278     		ldrb	r2, [r2, #1]	@ zero_extendqisi2
 1259 001a D2B2     		uxtb	r2, r2
 1260 001c 0A2A     		cmp	r2, #10
 1261 001e 00F25D81 		bhi	.L139
 1262 0022 DFE812F0 		tbh	[pc, r2, lsl #1]
ARM GAS  C:\Users\LUKASC~1\AppData\Local\Temp\ccAgm3t8.s 			page 47


 1263              	.L110:
 1264 0026 5800     		.2byte	(.L109-.L110)/2
 1265 0028 5B01     		.2byte	(.L139-.L110)/2
 1266 002a 5B01     		.2byte	(.L139-.L110)/2
 1267 002c 5B01     		.2byte	(.L139-.L110)/2
 1268 002e 5B01     		.2byte	(.L139-.L110)/2
 1269 0030 5B01     		.2byte	(.L139-.L110)/2
 1270 0032 0B00     		.2byte	(.L111-.L110)/2
 1271 0034 5B01     		.2byte	(.L139-.L110)/2
 1272 0036 8100     		.2byte	(.L112-.L110)/2
 1273 0038 5B01     		.2byte	(.L139-.L110)/2
 1274 003a 8900     		.2byte	(.L113-.L110)/2
 1275              		.p2align 1
 1276              	.L111:
 110:.\Generated_Source\PSoC5/USBFS_1_std.c ****                 {
 1277              		.loc 1 110 0
 1278 003c 8B4B     		ldr	r3, .L160
 1279              	.LVL120:
 1280 003e DB78     		ldrb	r3, [r3, #3]	@ zero_extendqisi2
 1281 0040 DBB2     		uxtb	r3, r3
 1282 0042 012B     		cmp	r3, #1
 1283 0044 09D1     		bne	.L114
 112:.\Generated_Source\PSoC5/USBFS_1_std.c ****                     USBFS_1_currentTD.pData = (volatile uint8 *)pTmp->p_list;
 1284              		.loc 1 112 0
 1285 0046 FFF7FEFF 		bl	USBFS_1_GetDeviceTablePtr
 1286              	.LVL121:
 113:.\Generated_Source\PSoC5/USBFS_1_std.c ****                     USBFS_1_currentTD.count = USBFS_1_DEVICE_DESCR_LENGTH;
 1287              		.loc 1 113 0
 1288 004a 4268     		ldr	r2, [r0, #4]
 1289 004c 884B     		ldr	r3, .L160+4
 1290 004e 5A60     		str	r2, [r3, #4]
 114:.\Generated_Source\PSoC5/USBFS_1_std.c ****                     
 1291              		.loc 1 114 0
 1292 0050 1222     		movs	r2, #18
 1293 0052 1A80     		strh	r2, [r3]	@ movhi
 116:.\Generated_Source\PSoC5/USBFS_1_std.c ****                 }
 1294              		.loc 1 116 0
 1295 0054 FFF7FEFF 		bl	USBFS_1_InitControlRead
 1296              	.LVL122:
 1297 0058 10BD     		pop	{r4, pc}
 1298              	.LVL123:
 1299              	.L114:
 118:.\Generated_Source\PSoC5/USBFS_1_std.c ****                 {
 1300              		.loc 1 118 0
 1301 005a 844B     		ldr	r3, .L160
 1302 005c DB78     		ldrb	r3, [r3, #3]	@ zero_extendqisi2
 1303 005e DBB2     		uxtb	r3, r3
 1304 0060 022B     		cmp	r3, #2
 1305 0062 13D1     		bne	.L115
 120:.\Generated_Source\PSoC5/USBFS_1_std.c ****                     
 1306              		.loc 1 120 0
 1307 0064 814B     		ldr	r3, .L160
 1308 0066 9878     		ldrb	r0, [r3, #2]	@ zero_extendqisi2
 1309 0068 FFF7FEFF 		bl	USBFS_1_GetConfigTablePtr
 1310              	.LVL124:
 123:.\Generated_Source\PSoC5/USBFS_1_std.c ****                     {
 1311              		.loc 1 123 0
ARM GAS  C:\Users\LUKASC~1\AppData\Local\Temp\ccAgm3t8.s 			page 48


 1312 006c 0028     		cmp	r0, #0
 1313 006e 00F03781 		beq	.L140
 125:.\Generated_Source\PSoC5/USBFS_1_std.c ****                         USBFS_1_currentTD.count = (uint16)((uint16)(USBFS_1_currentTD.pData)[USBFS_
 1314              		.loc 1 125 0
 1315 0072 4268     		ldr	r2, [r0, #4]
 1316 0074 7E4B     		ldr	r3, .L160+4
 1317 0076 5A60     		str	r2, [r3, #4]
 126:.\Generated_Source\PSoC5/USBFS_1_std.c ****                                                                             (USBFS_1_currentTD.pDat
 1318              		.loc 1 126 0
 1319 0078 5A68     		ldr	r2, [r3, #4]
 1320 007a D178     		ldrb	r1, [r2, #3]	@ zero_extendqisi2
 127:.\Generated_Source\PSoC5/USBFS_1_std.c ****                         requestHandled  = USBFS_1_InitControlRead();
 1321              		.loc 1 127 0
 1322 007c 5A68     		ldr	r2, [r3, #4]
 1323 007e 9278     		ldrb	r2, [r2, #2]	@ zero_extendqisi2
 126:.\Generated_Source\PSoC5/USBFS_1_std.c ****                                                                             (USBFS_1_currentTD.pDat
 1324              		.loc 1 126 0
 1325 0080 42EA0122 		orr	r2, r2, r1, lsl #8
 1326 0084 1A80     		strh	r2, [r3]	@ movhi
 128:.\Generated_Source\PSoC5/USBFS_1_std.c ****                     }
 1327              		.loc 1 128 0
 1328 0086 FFF7FEFF 		bl	USBFS_1_InitControlRead
 1329              	.LVL125:
 1330 008a 10BD     		pop	{r4, pc}
 1331              	.LVL126:
 1332              	.L115:
 149:.\Generated_Source\PSoC5/USBFS_1_std.c ****                 {
 1333              		.loc 1 149 0
 1334 008c 774B     		ldr	r3, .L160
 1335 008e DB78     		ldrb	r3, [r3, #3]	@ zero_extendqisi2
 1336 0090 DBB2     		uxtb	r3, r3
 1337 0092 032B     		cmp	r3, #3
 1338 0094 05D0     		beq	.L141
 1339 0096 1BE0     		b	.L155
 1340              	.LVL127:
 1341              	.L119:
 159:.\Generated_Source\PSoC5/USBFS_1_std.c ****                         /* Move to next string descriptor */
 1342              		.loc 1 159 0
 1343 0098 0A78     		ldrb	r2, [r1]	@ zero_extendqisi2
 1344              	.LVL128:
 161:.\Generated_Source\PSoC5/USBFS_1_std.c ****                         nStr++;
 1345              		.loc 1 161 0
 1346 009a 1144     		add	r1, r1, r2
 1347              	.LVL129:
 162:.\Generated_Source\PSoC5/USBFS_1_std.c ****                     }
 1348              		.loc 1 162 0
 1349 009c 0133     		adds	r3, r3, #1
 1350              	.LVL130:
 1351 009e DBB2     		uxtb	r3, r3
 1352              	.LVL131:
 1353 00a0 01E0     		b	.L116
 1354              	.LVL132:
 1355              	.L141:
 1356 00a2 0023     		movs	r3, #0
 1357 00a4 7349     		ldr	r1, .L160+8
 1358              	.LVL133:
 1359              	.L116:
ARM GAS  C:\Users\LUKASC~1\AppData\Local\Temp\ccAgm3t8.s 			page 49


 156:.\Generated_Source\PSoC5/USBFS_1_std.c ****                     {
 1360              		.loc 1 156 0
 1361 00a6 714A     		ldr	r2, .L160
 1362 00a8 9278     		ldrb	r2, [r2, #2]	@ zero_extendqisi2
 1363 00aa D2B2     		uxtb	r2, r2
 1364 00ac 9A42     		cmp	r2, r3
 1365 00ae 03D9     		bls	.L118
 156:.\Generated_Source\PSoC5/USBFS_1_std.c ****                     {
 1366              		.loc 1 156 0 is_stmt 0 discriminator 1
 1367 00b0 0A78     		ldrb	r2, [r1]	@ zero_extendqisi2
 1368 00b2 12F0FF0F 		tst	r2, #255
 1369 00b6 EFD1     		bne	.L119
 1370              	.L118:
 199:.\Generated_Source\PSoC5/USBFS_1_std.c ****                     {
 1371              		.loc 1 199 0 is_stmt 1
 1372 00b8 0B78     		ldrb	r3, [r1]	@ zero_extendqisi2
 1373              	.LVL134:
 1374 00ba 13F0FF0F 		tst	r3, #255
 1375 00be 00F01181 		beq	.L142
 201:.\Generated_Source\PSoC5/USBFS_1_std.c ****                         USBFS_1_currentTD.pData = pStr;
 1376              		.loc 1 201 0
 1377 00c2 0B78     		ldrb	r3, [r1]	@ zero_extendqisi2
 1378 00c4 6A4A     		ldr	r2, .L160+4
 1379 00c6 1380     		strh	r3, [r2]	@ movhi
 202:.\Generated_Source\PSoC5/USBFS_1_std.c ****                         requestHandled  = USBFS_1_InitControlRead();
 1380              		.loc 1 202 0
 1381 00c8 5160     		str	r1, [r2, #4]
 203:.\Generated_Source\PSoC5/USBFS_1_std.c ****                     }
 1382              		.loc 1 203 0
 1383 00ca FFF7FEFF 		bl	USBFS_1_InitControlRead
 1384              	.LVL135:
 1385 00ce 10BD     		pop	{r4, pc}
 1386              	.LVL136:
 1387              	.L155:
 209:.\Generated_Source\PSoC5/USBFS_1_std.c ****                 }
 1388              		.loc 1 209 0
 1389 00d0 FFF7FEFF 		bl	USBFS_1_DispatchClassRqst
 1390              	.LVL137:
 1391 00d4 10BD     		pop	{r4, pc}
 1392              	.LVL138:
 1393              	.L109:
 214:.\Generated_Source\PSoC5/USBFS_1_std.c ****                 {
 1394              		.loc 1 214 0
 1395 00d6 13F00303 		ands	r3, r3, #3
 1396              	.LVL139:
 1397 00da 17D0     		beq	.L120
 1398 00dc 022B     		cmp	r3, #2
 1399 00de 40F00381 		bne	.L156
 217:.\Generated_Source\PSoC5/USBFS_1_std.c ****                         USBFS_1_tBuffer[0u]     = USBFS_1_EP[USBFS_1_wIndexLoReg & USBFS_1_DIR_UNUS
 1400              		.loc 1 217 0
 1401 00e2 6349     		ldr	r1, .L160+4
 1402 00e4 0B80     		strh	r3, [r1]	@ movhi
 218:.\Generated_Source\PSoC5/USBFS_1_std.c ****                         USBFS_1_tBuffer[1u]     = 0u;
 1403              		.loc 1 218 0
 1404 00e6 614B     		ldr	r3, .L160
 1405 00e8 1B79     		ldrb	r3, [r3, #4]	@ zero_extendqisi2
 1406 00ea 03F07F03 		and	r3, r3, #127
ARM GAS  C:\Users\LUKASC~1\AppData\Local\Temp\ccAgm3t8.s 			page 50


 1407 00ee 03EB4303 		add	r3, r3, r3, lsl #1
 1408 00f2 9B00     		lsls	r3, r3, #2
 1409 00f4 604A     		ldr	r2, .L160+12
 1410 00f6 1344     		add	r3, r3, r2
 1411 00f8 9A78     		ldrb	r2, [r3, #2]	@ zero_extendqisi2
 1412 00fa D2B2     		uxtb	r2, r2
 1413 00fc 5F4B     		ldr	r3, .L160+16
 1414 00fe 1A70     		strb	r2, [r3]
 219:.\Generated_Source\PSoC5/USBFS_1_std.c ****                         USBFS_1_currentTD.pData = &USBFS_1_tBuffer[0u];
 1415              		.loc 1 219 0
 1416 0100 0022     		movs	r2, #0
 1417 0102 5A70     		strb	r2, [r3, #1]
 220:.\Generated_Source\PSoC5/USBFS_1_std.c ****                         
 1418              		.loc 1 220 0
 1419 0104 4B60     		str	r3, [r1, #4]
 222:.\Generated_Source\PSoC5/USBFS_1_std.c ****                         break;
 1420              		.loc 1 222 0
 1421 0106 FFF7FEFF 		bl	USBFS_1_InitControlRead
 1422              	.LVL140:
 223:.\Generated_Source\PSoC5/USBFS_1_std.c ****                     case USBFS_1_RQST_RCPT_DEV:
 1423              		.loc 1 223 0
 1424 010a 10BD     		pop	{r4, pc}
 1425              	.LVL141:
 1426              	.L120:
 225:.\Generated_Source\PSoC5/USBFS_1_std.c ****                         USBFS_1_tBuffer[0u]     = USBFS_1_deviceStatus;
 1427              		.loc 1 225 0
 1428 010c 5849     		ldr	r1, .L160+4
 1429 010e 0223     		movs	r3, #2
 1430 0110 0B80     		strh	r3, [r1]	@ movhi
 226:.\Generated_Source\PSoC5/USBFS_1_std.c ****                         USBFS_1_tBuffer[1u]     = 0u;
 1431              		.loc 1 226 0
 1432 0112 5B4B     		ldr	r3, .L160+20
 1433 0114 1A78     		ldrb	r2, [r3]	@ zero_extendqisi2
 1434 0116 D2B2     		uxtb	r2, r2
 1435 0118 584B     		ldr	r3, .L160+16
 1436 011a 1A70     		strb	r2, [r3]
 227:.\Generated_Source\PSoC5/USBFS_1_std.c ****                         USBFS_1_currentTD.pData = &USBFS_1_tBuffer[0u];
 1437              		.loc 1 227 0
 1438 011c 0022     		movs	r2, #0
 1439 011e 5A70     		strb	r2, [r3, #1]
 228:.\Generated_Source\PSoC5/USBFS_1_std.c ****                         
 1440              		.loc 1 228 0
 1441 0120 4B60     		str	r3, [r1, #4]
 230:.\Generated_Source\PSoC5/USBFS_1_std.c ****                         break;
 1442              		.loc 1 230 0
 1443 0122 FFF7FEFF 		bl	USBFS_1_InitControlRead
 1444              	.LVL142:
 231:.\Generated_Source\PSoC5/USBFS_1_std.c ****                     default:    /* requestHandled is initialized as FALSE by default */
 1445              		.loc 1 231 0
 1446 0126 10BD     		pop	{r4, pc}
 1447              	.LVL143:
 1448              	.L112:
 238:.\Generated_Source\PSoC5/USBFS_1_std.c ****                 USBFS_1_currentTD.pData = (volatile uint8 *) &USBFS_1_configuration;
 1449              		.loc 1 238 0
 1450 0128 514B     		ldr	r3, .L160+4
 1451              	.LVL144:
 1452 012a 0122     		movs	r2, #1
ARM GAS  C:\Users\LUKASC~1\AppData\Local\Temp\ccAgm3t8.s 			page 51


 1453 012c 1A80     		strh	r2, [r3]	@ movhi
 239:.\Generated_Source\PSoC5/USBFS_1_std.c ****                 requestHandled  = USBFS_1_InitControlRead();
 1454              		.loc 1 239 0
 1455 012e 554A     		ldr	r2, .L160+24
 1456 0130 5A60     		str	r2, [r3, #4]
 240:.\Generated_Source\PSoC5/USBFS_1_std.c ****                 break;
 1457              		.loc 1 240 0
 1458 0132 FFF7FEFF 		bl	USBFS_1_InitControlRead
 1459              	.LVL145:
 241:.\Generated_Source\PSoC5/USBFS_1_std.c ****                 
 1460              		.loc 1 241 0
 1461 0136 10BD     		pop	{r4, pc}
 1462              	.LVL146:
 1463              	.L113:
 244:.\Generated_Source\PSoC5/USBFS_1_std.c ****                 USBFS_1_currentTD.pData = (volatile uint8 *) &USBFS_1_interfaceSetting[USBFS_1_wInd
 1464              		.loc 1 244 0
 1465 0138 4D4A     		ldr	r2, .L160+4
 1466 013a 0123     		movs	r3, #1
 1467              	.LVL147:
 1468 013c 1380     		strh	r3, [r2]	@ movhi
 245:.\Generated_Source\PSoC5/USBFS_1_std.c ****                 requestHandled  = USBFS_1_InitControlRead();
 1469              		.loc 1 245 0
 1470 013e 4B4B     		ldr	r3, .L160
 1471 0140 1B79     		ldrb	r3, [r3, #4]	@ zero_extendqisi2
 1472 0142 5149     		ldr	r1, .L160+28
 1473 0144 0B44     		add	r3, r3, r1
 1474 0146 5360     		str	r3, [r2, #4]
 246:.\Generated_Source\PSoC5/USBFS_1_std.c ****                 break;
 1475              		.loc 1 246 0
 1476 0148 FFF7FEFF 		bl	USBFS_1_InitControlRead
 1477              	.LVL148:
 247:.\Generated_Source\PSoC5/USBFS_1_std.c ****                 
 1478              		.loc 1 247 0
 1479 014c 10BD     		pop	{r4, pc}
 1480              	.LVL149:
 1481              	.L107:
 256:.\Generated_Source\PSoC5/USBFS_1_std.c ****         {
 1482              		.loc 1 256 0
 1483 014e 474A     		ldr	r2, .L160
 1484 0150 5278     		ldrb	r2, [r2, #1]	@ zero_extendqisi2
 1485 0152 013A     		subs	r2, r2, #1
 1486 0154 0A2A     		cmp	r2, #10
 1487 0156 00F2C980 		bhi	.L144
 1488 015a DFE812F0 		tbh	[pc, r2, lsl #1]
 1489              	.L123:
 1490 015e 4B00     		.2byte	(.L122-.L123)/2
 1491 0160 C700     		.2byte	(.L144-.L123)/2
 1492 0162 7800     		.2byte	(.L124-.L123)/2
 1493 0164 C700     		.2byte	(.L144-.L123)/2
 1494 0166 0B00     		.2byte	(.L125-.L123)/2
 1495 0168 C700     		.2byte	(.L144-.L123)/2
 1496 016a C700     		.2byte	(.L144-.L123)/2
 1497 016c C700     		.2byte	(.L144-.L123)/2
 1498 016e 1300     		.2byte	(.L126-.L123)/2
 1499 0170 C700     		.2byte	(.L144-.L123)/2
 1500 0172 3000     		.2byte	(.L127-.L123)/2
 1501              		.p2align 1
ARM GAS  C:\Users\LUKASC~1\AppData\Local\Temp\ccAgm3t8.s 			page 52


 1502              	.L125:
 260:.\Generated_Source\PSoC5/USBFS_1_std.c ****                 requestHandled = USBFS_1_InitNoDataControlTransfer();
 1503              		.loc 1 260 0
 1504 0174 3D4B     		ldr	r3, .L160
 1505              	.LVL150:
 1506 0176 9B78     		ldrb	r3, [r3, #2]	@ zero_extendqisi2
 1507 0178 DBB2     		uxtb	r3, r3
 1508 017a 444A     		ldr	r2, .L160+32
 1509 017c 1370     		strb	r3, [r2]
 261:.\Generated_Source\PSoC5/USBFS_1_std.c ****                 break;
 1510              		.loc 1 261 0
 1511 017e FFF7FEFF 		bl	USBFS_1_InitNoDataControlTransfer
 1512              	.LVL151:
 262:.\Generated_Source\PSoC5/USBFS_1_std.c ****                 
 1513              		.loc 1 262 0
 1514 0182 10BD     		pop	{r4, pc}
 1515              	.LVL152:
 1516              	.L126:
 265:.\Generated_Source\PSoC5/USBFS_1_std.c ****                 
 1517              		.loc 1 265 0
 1518 0184 394B     		ldr	r3, .L160
 1519              	.LVL153:
 1520 0186 9B78     		ldrb	r3, [r3, #2]	@ zero_extendqisi2
 1521              	.LVL154:
 268:.\Generated_Source\PSoC5/USBFS_1_std.c ****                 {
 1522              		.loc 1 268 0
 1523 0188 03F0FF04 		and	r4, r3, #255
 1524 018c 1BB1     		cbz	r3, .L128
 270:.\Generated_Source\PSoC5/USBFS_1_std.c ****                 }
 1525              		.loc 1 270 0
 1526 018e 601E     		subs	r0, r4, #1
 1527 0190 C0B2     		uxtb	r0, r0
 1528 0192 FFF7FEFF 		bl	USBFS_1_GetConfigTablePtr
 1529              	.LVL155:
 1530              	.L128:
 274:.\Generated_Source\PSoC5/USBFS_1_std.c ****                 {
 1531              		.loc 1 274 0
 1532 0196 04B1     		cbz	r4, .L129
 274:.\Generated_Source\PSoC5/USBFS_1_std.c ****                 {
 1533              		.loc 1 274 0 is_stmt 0 discriminator 1
 1534 0198 10B9     		cbnz	r0, .L130
 1535              	.L129:
 274:.\Generated_Source\PSoC5/USBFS_1_std.c ****                 {
 1536              		.loc 1 274 0 discriminator 3
 1537 019a 002C     		cmp	r4, #0
 1538 019c 40F0A880 		bne	.L145
 1539              	.L130:
 277:.\Generated_Source\PSoC5/USBFS_1_std.c ****                     {
 1540              		.loc 1 277 0 is_stmt 1
 1541 01a0 384B     		ldr	r3, .L160+24
 1542 01a2 1B78     		ldrb	r3, [r3]	@ zero_extendqisi2
 1543 01a4 DBB2     		uxtb	r3, r3
 1544 01a6 9C42     		cmp	r4, r3
 1545 01a8 06D0     		beq	.L131
 279:.\Generated_Source\PSoC5/USBFS_1_std.c ****                         USBFS_1_configurationChanged = USBFS_1_TRUE;
 1546              		.loc 1 279 0
 1547 01aa 364B     		ldr	r3, .L160+24
ARM GAS  C:\Users\LUKASC~1\AppData\Local\Temp\ccAgm3t8.s 			page 53


 1548 01ac 1C70     		strb	r4, [r3]
 280:.\Generated_Source\PSoC5/USBFS_1_std.c ****                         USBFS_1_Config(USBFS_1_TRUE);
 1549              		.loc 1 280 0
 1550 01ae 0120     		movs	r0, #1
 1551              	.LVL156:
 1552 01b0 374B     		ldr	r3, .L160+36
 1553 01b2 1870     		strb	r0, [r3]
 281:.\Generated_Source\PSoC5/USBFS_1_std.c ****                     }
 1554              		.loc 1 281 0
 1555 01b4 FFF7FEFF 		bl	USBFS_1_Config
 1556              	.LVL157:
 1557              	.L131:
 283:.\Generated_Source\PSoC5/USBFS_1_std.c ****                 }
 1558              		.loc 1 283 0
 1559 01b8 FFF7FEFF 		bl	USBFS_1_InitNoDataControlTransfer
 1560              	.LVL158:
 1561 01bc 10BD     		pop	{r4, pc}
 1562              	.LVL159:
 1563              	.L127:
 288:.\Generated_Source\PSoC5/USBFS_1_std.c ****                 {
 1564              		.loc 1 288 0
 1565 01be FFF7FEFF 		bl	USBFS_1_ValidateAlternateSetting
 1566              	.LVL160:
 1567 01c2 0028     		cmp	r0, #0
 1568 01c4 00F09680 		beq	.L146
 291:.\Generated_Source\PSoC5/USBFS_1_std.c ****                     USBFS_1_interfaceNumber = (uint8) USBFS_1_wIndexLoReg;
 1569              		.loc 1 291 0
 1570 01c8 284A     		ldr	r2, .L160
 1571 01ca 1379     		ldrb	r3, [r2, #4]	@ zero_extendqisi2
 1572 01cc DBB2     		uxtb	r3, r3
 1573              	.LVL161:
 292:.\Generated_Source\PSoC5/USBFS_1_std.c ****                      
 1574              		.loc 1 292 0
 1575 01ce 1279     		ldrb	r2, [r2, #4]	@ zero_extendqisi2
 1576 01d0 D2B2     		uxtb	r2, r2
 1577 01d2 3049     		ldr	r1, .L160+40
 1578 01d4 0A70     		strb	r2, [r1]
 295:.\Generated_Source\PSoC5/USBFS_1_std.c ****                     {
 1579              		.loc 1 295 0
 1580 01d6 304A     		ldr	r2, .L160+44
 1581 01d8 D25C     		ldrb	r2, [r2, r3]	@ zero_extendqisi2
 1582 01da 2B49     		ldr	r1, .L160+28
 1583 01dc C95C     		ldrb	r1, [r1, r3]	@ zero_extendqisi2
 1584 01de D3B2     		uxtb	r3, r2
 1585              	.LVL162:
 1586 01e0 8B42     		cmp	r3, r1
 1587 01e2 04D0     		beq	.L132
 297:.\Generated_Source\PSoC5/USBFS_1_std.c ****                     
 1588              		.loc 1 297 0
 1589 01e4 0122     		movs	r2, #1
 1590 01e6 2A4B     		ldr	r3, .L160+36
 1591 01e8 1A70     		strb	r2, [r3]
 303:.\Generated_Source\PSoC5/USBFS_1_std.c ****                     #endif /* (USBFS_1_EP_MANAGEMENT_MANUAL && USBFS_1_EP_ALLOC_DYNAMIC) */
 1592              		.loc 1 303 0
 1593 01ea FFF7FEFF 		bl	USBFS_1_ConfigAltChanged
 1594              	.LVL163:
 1595              	.L132:
ARM GAS  C:\Users\LUKASC~1\AppData\Local\Temp\ccAgm3t8.s 			page 54


 307:.\Generated_Source\PSoC5/USBFS_1_std.c ****                 }
 1596              		.loc 1 307 0
 1597 01ee FFF7FEFF 		bl	USBFS_1_InitNoDataControlTransfer
 1598              	.LVL164:
 1599 01f2 10BD     		pop	{r4, pc}
 1600              	.LVL165:
 1601              	.L122:
 312:.\Generated_Source\PSoC5/USBFS_1_std.c ****                 {
 1602              		.loc 1 312 0
 1603 01f4 03F00303 		and	r3, r3, #3
 1604              	.LVL166:
 1605 01f8 012B     		cmp	r3, #1
 1606 01fa 17D0     		beq	.L133
 1607 01fc 4BB1     		cbz	r3, .L134
 1608 01fe 022B     		cmp	r3, #2
 1609 0200 7AD1     		bne	.L157
 315:.\Generated_Source\PSoC5/USBFS_1_std.c ****                         {
 1610              		.loc 1 315 0
 1611 0202 1A4B     		ldr	r3, .L160
 1612 0204 9B78     		ldrb	r3, [r3, #2]	@ zero_extendqisi2
 1613 0206 13F0FF0F 		tst	r3, #255
 1614 020a 77D1     		bne	.L148
 317:.\Generated_Source\PSoC5/USBFS_1_std.c ****                         }
 1615              		.loc 1 317 0
 1616 020c FFF7FEFF 		bl	USBFS_1_ClearEndpointHalt
 1617              	.LVL167:
 1618 0210 10BD     		pop	{r4, pc}
 1619              	.LVL168:
 1620              	.L134:
 322:.\Generated_Source\PSoC5/USBFS_1_std.c ****                         {
 1621              		.loc 1 322 0
 1622 0212 164B     		ldr	r3, .L160
 1623 0214 9B78     		ldrb	r3, [r3, #2]	@ zero_extendqisi2
 1624 0216 DBB2     		uxtb	r3, r3
 1625 0218 012B     		cmp	r3, #1
 1626 021a 71D1     		bne	.L149
 324:.\Generated_Source\PSoC5/USBFS_1_std.c ****                             requestHandled = USBFS_1_InitNoDataControlTransfer();
 1627              		.loc 1 324 0
 1628 021c 184A     		ldr	r2, .L160+20
 1629 021e 1378     		ldrb	r3, [r2]	@ zero_extendqisi2
 1630 0220 03F0FD03 		and	r3, r3, #253
 1631 0224 1370     		strb	r3, [r2]
 325:.\Generated_Source\PSoC5/USBFS_1_std.c ****                         }
 1632              		.loc 1 325 0
 1633 0226 FFF7FEFF 		bl	USBFS_1_InitNoDataControlTransfer
 1634              	.LVL169:
 1635 022a 10BD     		pop	{r4, pc}
 1636              	.LVL170:
 1637              	.L133:
 330:.\Generated_Source\PSoC5/USBFS_1_std.c ****                         {
 1638              		.loc 1 330 0
 1639 022c 0F4B     		ldr	r3, .L160
 1640 022e 1B79     		ldrb	r3, [r3, #4]	@ zero_extendqisi2
 1641 0230 DBB2     		uxtb	r3, r3
 1642 0232 012B     		cmp	r3, #1
 1643 0234 66D8     		bhi	.L150
 332:.\Generated_Source\PSoC5/USBFS_1_std.c ****                             requestHandled = USBFS_1_InitNoDataControlTransfer();
ARM GAS  C:\Users\LUKASC~1\AppData\Local\Temp\ccAgm3t8.s 			page 55


 1644              		.loc 1 332 0
 1645 0236 0D4B     		ldr	r3, .L160
 1646 0238 9878     		ldrb	r0, [r3, #2]	@ zero_extendqisi2
 1647 023a 1B79     		ldrb	r3, [r3, #4]	@ zero_extendqisi2
 1648 023c DBB2     		uxtb	r3, r3
 1649 023e 1749     		ldr	r1, .L160+48
 1650 0240 CA5C     		ldrb	r2, [r1, r3]	@ zero_extendqisi2
 1651 0242 22EA0002 		bic	r2, r2, r0
 1652 0246 CA54     		strb	r2, [r1, r3]
 333:.\Generated_Source\PSoC5/USBFS_1_std.c ****                         }
 1653              		.loc 1 333 0
 1654 0248 FFF7FEFF 		bl	USBFS_1_InitNoDataControlTransfer
 1655              	.LVL171:
 1656 024c 10BD     		pop	{r4, pc}
 1657              	.LVL172:
 1658              	.L124:
 342:.\Generated_Source\PSoC5/USBFS_1_std.c ****                 {
 1659              		.loc 1 342 0
 1660 024e 03F00303 		and	r3, r3, #3
 1661              	.LVL173:
 1662 0252 012B     		cmp	r3, #1
 1663 0254 31D0     		beq	.L136
 1664 0256 1BB3     		cbz	r3, .L137
 1665 0258 022B     		cmp	r3, #2
 1666 025a 55D1     		bne	.L158
 345:.\Generated_Source\PSoC5/USBFS_1_std.c ****                         {
 1667              		.loc 1 345 0
 1668 025c 034B     		ldr	r3, .L160
 1669 025e 9B78     		ldrb	r3, [r3, #2]	@ zero_extendqisi2
 1670 0260 13F0FF0F 		tst	r3, #255
 1671 0264 52D1     		bne	.L152
 347:.\Generated_Source\PSoC5/USBFS_1_std.c ****                         }
 1672              		.loc 1 347 0
 1673 0266 FFF7FEFF 		bl	USBFS_1_SetEndpointHalt
 1674              	.LVL174:
 1675 026a 10BD     		pop	{r4, pc}
 1676              	.L161:
 1677              		.align	2
 1678              	.L160:
 1679 026c 00600040 		.word	1073766400
 1680 0270 00000000 		.word	USBFS_1_currentTD
 1681 0274 00000000 		.word	USBFS_1_STRING_DESCRIPTORS
 1682 0278 00000000 		.word	USBFS_1_EP
 1683 027c 00000000 		.word	.LANCHOR0
 1684 0280 00000000 		.word	USBFS_1_deviceStatus
 1685 0284 00000000 		.word	USBFS_1_configuration
 1686 0288 00000000 		.word	USBFS_1_interfaceSetting
 1687 028c 00000000 		.word	USBFS_1_deviceAddress
 1688 0290 00000000 		.word	USBFS_1_configurationChanged
 1689 0294 00000000 		.word	USBFS_1_interfaceNumber
 1690 0298 00000000 		.word	USBFS_1_interfaceSettingLast
 1691 029c 00000000 		.word	USBFS_1_interfaceStatus
 1692              	.LVL175:
 1693              	.L137:
 353:.\Generated_Source\PSoC5/USBFS_1_std.c ****                         {
 1694              		.loc 1 353 0
 1695 02a0 1D4B     		ldr	r3, .L162
ARM GAS  C:\Users\LUKASC~1\AppData\Local\Temp\ccAgm3t8.s 			page 56


 1696 02a2 9B78     		ldrb	r3, [r3, #2]	@ zero_extendqisi2
 1697 02a4 DBB2     		uxtb	r3, r3
 1698 02a6 012B     		cmp	r3, #1
 1699 02a8 32D1     		bne	.L153
 355:.\Generated_Source\PSoC5/USBFS_1_std.c ****                             requestHandled = USBFS_1_InitNoDataControlTransfer();
 1700              		.loc 1 355 0
 1701 02aa 1C4A     		ldr	r2, .L162+4
 1702 02ac 1378     		ldrb	r3, [r2]	@ zero_extendqisi2
 1703 02ae 43F00203 		orr	r3, r3, #2
 1704 02b2 1370     		strb	r3, [r2]
 356:.\Generated_Source\PSoC5/USBFS_1_std.c ****                         }
 1705              		.loc 1 356 0
 1706 02b4 FFF7FEFF 		bl	USBFS_1_InitNoDataControlTransfer
 1707              	.LVL176:
 1708 02b8 10BD     		pop	{r4, pc}
 1709              	.LVL177:
 1710              	.L136:
 362:.\Generated_Source\PSoC5/USBFS_1_std.c ****                         {
 1711              		.loc 1 362 0
 1712 02ba 174B     		ldr	r3, .L162
 1713 02bc 1B79     		ldrb	r3, [r3, #4]	@ zero_extendqisi2
 1714 02be DBB2     		uxtb	r3, r3
 1715 02c0 012B     		cmp	r3, #1
 1716 02c2 27D8     		bhi	.L154
 364:.\Generated_Source\PSoC5/USBFS_1_std.c ****                             requestHandled = USBFS_1_InitNoDataControlTransfer();
 1717              		.loc 1 364 0
 1718 02c4 144B     		ldr	r3, .L162
 1719 02c6 9878     		ldrb	r0, [r3, #2]	@ zero_extendqisi2
 1720 02c8 1B79     		ldrb	r3, [r3, #4]	@ zero_extendqisi2
 1721 02ca DBB2     		uxtb	r3, r3
 1722 02cc 1449     		ldr	r1, .L162+8
 1723 02ce CA5C     		ldrb	r2, [r1, r3]	@ zero_extendqisi2
 1724 02d0 22EA0002 		bic	r2, r2, r0
 1725 02d4 CA54     		strb	r2, [r1, r3]
 365:.\Generated_Source\PSoC5/USBFS_1_std.c ****                         }
 1726              		.loc 1 365 0
 1727 02d6 FFF7FEFF 		bl	USBFS_1_InitNoDataControlTransfer
 1728              	.LVL178:
 1729 02da 10BD     		pop	{r4, pc}
 1730              	.LVL179:
 1731              	.L139:
  86:.\Generated_Source\PSoC5/USBFS_1_std.c ****     uint8 interfaceNumber;
 1732              		.loc 1 86 0
 1733 02dc 0020     		movs	r0, #0
 1734 02de 10BD     		pop	{r4, pc}
 1735              	.LVL180:
 1736              	.L140:
 1737 02e0 0020     		movs	r0, #0
 1738              	.LVL181:
 1739 02e2 10BD     		pop	{r4, pc}
 1740              	.LVL182:
 1741              	.L142:
 1742 02e4 0020     		movs	r0, #0
 1743 02e6 10BD     		pop	{r4, pc}
 1744              	.LVL183:
 1745              	.L156:
 1746 02e8 0020     		movs	r0, #0
ARM GAS  C:\Users\LUKASC~1\AppData\Local\Temp\ccAgm3t8.s 			page 57


 1747 02ea 10BD     		pop	{r4, pc}
 1748              	.LVL184:
 1749              	.L144:
 1750 02ec 0020     		movs	r0, #0
 1751 02ee 10BD     		pop	{r4, pc}
 1752              	.LVL185:
 1753              	.L145:
 1754 02f0 0020     		movs	r0, #0
 1755              	.LVL186:
 1756 02f2 10BD     		pop	{r4, pc}
 1757              	.L146:
 1758 02f4 0020     		movs	r0, #0
 1759 02f6 10BD     		pop	{r4, pc}
 1760              	.L157:
 1761 02f8 0020     		movs	r0, #0
 1762 02fa 10BD     		pop	{r4, pc}
 1763              	.L148:
 1764 02fc 0020     		movs	r0, #0
 1765 02fe 10BD     		pop	{r4, pc}
 1766              	.L149:
 1767 0300 0020     		movs	r0, #0
 1768 0302 10BD     		pop	{r4, pc}
 1769              	.L150:
 1770 0304 0020     		movs	r0, #0
 1771 0306 10BD     		pop	{r4, pc}
 1772              	.L158:
 1773 0308 0020     		movs	r0, #0
 1774 030a 10BD     		pop	{r4, pc}
 1775              	.L152:
 1776 030c 0020     		movs	r0, #0
 1777 030e 10BD     		pop	{r4, pc}
 1778              	.L153:
 1779 0310 0020     		movs	r0, #0
 1780 0312 10BD     		pop	{r4, pc}
 1781              	.L154:
 1782 0314 0020     		movs	r0, #0
 1783              	.LVL187:
 380:.\Generated_Source\PSoC5/USBFS_1_std.c **** 
 1784              		.loc 1 380 0
 1785 0316 10BD     		pop	{r4, pc}
 1786              	.L163:
 1787              		.align	2
 1788              	.L162:
 1789 0318 00600040 		.word	1073766400
 1790 031c 00000000 		.word	USBFS_1_deviceStatus
 1791 0320 00000000 		.word	USBFS_1_interfaceStatus
 1792              		.cfi_endproc
 1793              	.LFE0:
 1794              		.size	USBFS_1_HandleStandardRqst, .-USBFS_1_HandleStandardRqst
 1795              		.bss
 1796              		.align	2
 1797              		.set	.LANCHOR0,. + 0
 1798              		.type	USBFS_1_tBuffer.5212, %object
 1799              		.size	USBFS_1_tBuffer.5212, 2
 1800              	USBFS_1_tBuffer.5212:
 1801 0000 0000     		.space	2
 1802 0002 0000     		.text
ARM GAS  C:\Users\LUKASC~1\AppData\Local\Temp\ccAgm3t8.s 			page 58


 1803              	.Letext0:
 1804              		.file 2 ".\\Generated_Source\\PSoC5\\cytypes.h"
 1805              		.file 3 ".\\Generated_Source\\PSoC5\\USBFS_1.h"
 1806              		.file 4 ".\\Generated_Source\\PSoC5\\USBFS_1_pvt.h"