ARM GAS  C:\Users\LUKASC~1\AppData\Local\Temp\ccAgm3t8.s 			page 1


   1              		.syntax unified
   2              		.cpu cortex-m3
   3              		.fpu softvfp
   4              		.eabi_attribute 20, 1
   5              		.eabi_attribute 21, 1
   6              		.eabi_attribute 23, 3
   7              		.eabi_attribute 24, 1
   8              		.eabi_attribute 25, 1
   9              		.eabi_attribute 26, 1
  10              		.eabi_attribute 30, 1
  11              		.eabi_attribute 34, 1
  12              		.eabi_attribute 18, 4
  13              		.thumb
  14              		.file	"USBFS_1_std.c"
  15              		.text
  16              	.Ltext0:
  17              		.cfi_sections	.debug_frame
  18              		.section	.text.USBFS_1_ConfigReg,"ax",%progbits
  19              		.align	2
  20              		.global	USBFS_1_ConfigReg
  21              		.thumb
  22              		.thumb_func
  23              		.type	USBFS_1_ConfigReg, %function
  24              	USBFS_1_ConfigReg:
  25              	.LFB1:
  26              		.file 1 ".\\Generated_Source\\PSoC5\\USBFS_1_std.c"
   1:.\Generated_Source\PSoC5/USBFS_1_std.c **** /***************************************************************************//**
   2:.\Generated_Source\PSoC5/USBFS_1_std.c **** * \file USBFS_1_std.c
   3:.\Generated_Source\PSoC5/USBFS_1_std.c **** * \version 3.0
   4:.\Generated_Source\PSoC5/USBFS_1_std.c **** *
   5:.\Generated_Source\PSoC5/USBFS_1_std.c **** * \brief
   6:.\Generated_Source\PSoC5/USBFS_1_std.c **** *  This file contains the USB Standard request handler.
   7:.\Generated_Source\PSoC5/USBFS_1_std.c **** *
   8:.\Generated_Source\PSoC5/USBFS_1_std.c **** ********************************************************************************
   9:.\Generated_Source\PSoC5/USBFS_1_std.c **** * \copyright
  10:.\Generated_Source\PSoC5/USBFS_1_std.c **** * Copyright 2008-2015, Cypress Semiconductor Corporation.  All rights reserved.
  11:.\Generated_Source\PSoC5/USBFS_1_std.c **** * You may use this file only in accordance with the license, terms, conditions,
  12:.\Generated_Source\PSoC5/USBFS_1_std.c **** * disclaimers, and limitations in the end user license agreement accompanying
  13:.\Generated_Source\PSoC5/USBFS_1_std.c **** * the software package with which this file was provided.
  14:.\Generated_Source\PSoC5/USBFS_1_std.c **** *******************************************************************************/
  15:.\Generated_Source\PSoC5/USBFS_1_std.c **** 
  16:.\Generated_Source\PSoC5/USBFS_1_std.c **** #include "USBFS_1_pvt.h"
  17:.\Generated_Source\PSoC5/USBFS_1_std.c **** 
  18:.\Generated_Source\PSoC5/USBFS_1_std.c **** /***************************************
  19:.\Generated_Source\PSoC5/USBFS_1_std.c **** *   Static data allocation
  20:.\Generated_Source\PSoC5/USBFS_1_std.c **** ***************************************/
  21:.\Generated_Source\PSoC5/USBFS_1_std.c **** 
  22:.\Generated_Source\PSoC5/USBFS_1_std.c **** #if defined(USBFS_1_ENABLE_FWSN_STRING)
  23:.\Generated_Source\PSoC5/USBFS_1_std.c ****     static volatile uint8* USBFS_1_fwSerialNumberStringDescriptor;
  24:.\Generated_Source\PSoC5/USBFS_1_std.c ****     static volatile uint8  USBFS_1_snStringConfirm = USBFS_1_FALSE;
  25:.\Generated_Source\PSoC5/USBFS_1_std.c **** #endif  /* (USBFS_1_ENABLE_FWSN_STRING) */
  26:.\Generated_Source\PSoC5/USBFS_1_std.c **** 
  27:.\Generated_Source\PSoC5/USBFS_1_std.c **** #if defined(USBFS_1_ENABLE_FWSN_STRING)
  28:.\Generated_Source\PSoC5/USBFS_1_std.c ****     /***************************************************************************
  29:.\Generated_Source\PSoC5/USBFS_1_std.c ****     * Function Name: USBFS_1_SerialNumString
  30:.\Generated_Source\PSoC5/USBFS_1_std.c ****     ************************************************************************//**
  31:.\Generated_Source\PSoC5/USBFS_1_std.c ****     *
ARM GAS  C:\Users\LUKASC~1\AppData\Local\Temp\ccAgm3t8.s 			page 2


  32:.\Generated_Source\PSoC5/USBFS_1_std.c ****     *  This function is available only when the User Call Back option in the 
  33:.\Generated_Source\PSoC5/USBFS_1_std.c ****     *  Serial Number String descriptor properties is selected. Application 
  34:.\Generated_Source\PSoC5/USBFS_1_std.c ****     *  firmware can provide the source of the USB device serial number string 
  35:.\Generated_Source\PSoC5/USBFS_1_std.c ****     *  descriptor during run time. The default string is used if the application 
  36:.\Generated_Source\PSoC5/USBFS_1_std.c ****     *  firmware does not use this function or sets the wrong string descriptor.
  37:.\Generated_Source\PSoC5/USBFS_1_std.c ****     *
  38:.\Generated_Source\PSoC5/USBFS_1_std.c ****     *  \param snString:  Pointer to the user-defined string descriptor. The 
  39:.\Generated_Source\PSoC5/USBFS_1_std.c ****     *  string descriptor should meet the Universal Serial Bus Specification 
  40:.\Generated_Source\PSoC5/USBFS_1_std.c ****     *  revision 2.0 chapter 9.6.7
  41:.\Generated_Source\PSoC5/USBFS_1_std.c ****     *  Offset|Size|Value|Description
  42:.\Generated_Source\PSoC5/USBFS_1_std.c ****     *  ------|----|------|---------------------------------
  43:.\Generated_Source\PSoC5/USBFS_1_std.c ****     *  0     |1   |N     |Size of this descriptor in bytes
  44:.\Generated_Source\PSoC5/USBFS_1_std.c ****     *  1     |1   |0x03  |STRING Descriptor Type
  45:.\Generated_Source\PSoC5/USBFS_1_std.c ****     *  2     |N-2 |Number|UNICODE encoded string
  46:.\Generated_Source\PSoC5/USBFS_1_std.c ****     *  
  47:.\Generated_Source\PSoC5/USBFS_1_std.c ****     * *For example:* uint8 snString[16]={0x0E,0x03,'F',0,'W',0,'S',0,'N',0,'0',0,'1',0};
  48:.\Generated_Source\PSoC5/USBFS_1_std.c ****     *
  49:.\Generated_Source\PSoC5/USBFS_1_std.c ****     * \reentrant
  50:.\Generated_Source\PSoC5/USBFS_1_std.c ****     *  No.
  51:.\Generated_Source\PSoC5/USBFS_1_std.c ****     *
  52:.\Generated_Source\PSoC5/USBFS_1_std.c ****     ***************************************************************************/
  53:.\Generated_Source\PSoC5/USBFS_1_std.c ****     void  USBFS_1_SerialNumString(uint8 snString[]) 
  54:.\Generated_Source\PSoC5/USBFS_1_std.c ****     {
  55:.\Generated_Source\PSoC5/USBFS_1_std.c ****         USBFS_1_snStringConfirm = USBFS_1_FALSE;
  56:.\Generated_Source\PSoC5/USBFS_1_std.c ****         
  57:.\Generated_Source\PSoC5/USBFS_1_std.c ****         if (snString != NULL)
  58:.\Generated_Source\PSoC5/USBFS_1_std.c ****         {
  59:.\Generated_Source\PSoC5/USBFS_1_std.c ****             /* Check descriptor validation */
  60:.\Generated_Source\PSoC5/USBFS_1_std.c ****             if ((snString[0u] > 1u) && (snString[1u] == USBFS_1_DESCR_STRING))
  61:.\Generated_Source\PSoC5/USBFS_1_std.c ****             {
  62:.\Generated_Source\PSoC5/USBFS_1_std.c ****                 USBFS_1_fwSerialNumberStringDescriptor = snString;
  63:.\Generated_Source\PSoC5/USBFS_1_std.c ****                 USBFS_1_snStringConfirm = USBFS_1_TRUE;
  64:.\Generated_Source\PSoC5/USBFS_1_std.c ****             }
  65:.\Generated_Source\PSoC5/USBFS_1_std.c ****         }
  66:.\Generated_Source\PSoC5/USBFS_1_std.c ****     }
  67:.\Generated_Source\PSoC5/USBFS_1_std.c **** #endif  /* USBFS_1_ENABLE_FWSN_STRING */
  68:.\Generated_Source\PSoC5/USBFS_1_std.c **** 
  69:.\Generated_Source\PSoC5/USBFS_1_std.c **** 
  70:.\Generated_Source\PSoC5/USBFS_1_std.c **** /*******************************************************************************
  71:.\Generated_Source\PSoC5/USBFS_1_std.c **** * Function Name: USBFS_1_HandleStandardRqst
  72:.\Generated_Source\PSoC5/USBFS_1_std.c **** ****************************************************************************//**
  73:.\Generated_Source\PSoC5/USBFS_1_std.c **** *
  74:.\Generated_Source\PSoC5/USBFS_1_std.c **** *  This Routine dispatches standard requests
  75:.\Generated_Source\PSoC5/USBFS_1_std.c **** *
  76:.\Generated_Source\PSoC5/USBFS_1_std.c **** *
  77:.\Generated_Source\PSoC5/USBFS_1_std.c **** * \return
  78:.\Generated_Source\PSoC5/USBFS_1_std.c **** *  TRUE if request handled.
  79:.\Generated_Source\PSoC5/USBFS_1_std.c **** *
  80:.\Generated_Source\PSoC5/USBFS_1_std.c **** * \reentrant
  81:.\Generated_Source\PSoC5/USBFS_1_std.c **** *  No.
  82:.\Generated_Source\PSoC5/USBFS_1_std.c **** *
  83:.\Generated_Source\PSoC5/USBFS_1_std.c **** *******************************************************************************/
  84:.\Generated_Source\PSoC5/USBFS_1_std.c **** uint8 USBFS_1_HandleStandardRqst(void) 
  85:.\Generated_Source\PSoC5/USBFS_1_std.c **** {
  86:.\Generated_Source\PSoC5/USBFS_1_std.c ****     uint8 requestHandled = USBFS_1_FALSE;
  87:.\Generated_Source\PSoC5/USBFS_1_std.c ****     uint8 interfaceNumber;
  88:.\Generated_Source\PSoC5/USBFS_1_std.c ****     uint8 configurationN;
ARM GAS  C:\Users\LUKASC~1\AppData\Local\Temp\ccAgm3t8.s 			page 3


  89:.\Generated_Source\PSoC5/USBFS_1_std.c ****     uint8 bmRequestType = USBFS_1_bmRequestTypeReg;
  90:.\Generated_Source\PSoC5/USBFS_1_std.c **** 
  91:.\Generated_Source\PSoC5/USBFS_1_std.c **** #if defined(USBFS_1_ENABLE_STRINGS)
  92:.\Generated_Source\PSoC5/USBFS_1_std.c ****     volatile uint8 *pStr = 0u;
  93:.\Generated_Source\PSoC5/USBFS_1_std.c ****     #if defined(USBFS_1_ENABLE_DESCRIPTOR_STRINGS)
  94:.\Generated_Source\PSoC5/USBFS_1_std.c ****         uint8 nStr;
  95:.\Generated_Source\PSoC5/USBFS_1_std.c ****         uint8 descrLength;
  96:.\Generated_Source\PSoC5/USBFS_1_std.c ****     #endif /* (USBFS_1_ENABLE_DESCRIPTOR_STRINGS) */
  97:.\Generated_Source\PSoC5/USBFS_1_std.c **** #endif /* (USBFS_1_ENABLE_STRINGS) */
  98:.\Generated_Source\PSoC5/USBFS_1_std.c ****     
  99:.\Generated_Source\PSoC5/USBFS_1_std.c ****     static volatile uint8 USBFS_1_tBuffer[USBFS_1_STATUS_LENGTH_MAX];
 100:.\Generated_Source\PSoC5/USBFS_1_std.c ****     const T_USBFS_1_LUT CYCODE *pTmp;
 101:.\Generated_Source\PSoC5/USBFS_1_std.c **** 
 102:.\Generated_Source\PSoC5/USBFS_1_std.c ****     USBFS_1_currentTD.count = 0u;
 103:.\Generated_Source\PSoC5/USBFS_1_std.c **** 
 104:.\Generated_Source\PSoC5/USBFS_1_std.c ****     if (USBFS_1_RQST_DIR_D2H == (bmRequestType & USBFS_1_RQST_DIR_MASK))
 105:.\Generated_Source\PSoC5/USBFS_1_std.c ****     {
 106:.\Generated_Source\PSoC5/USBFS_1_std.c ****         /* Control Read */
 107:.\Generated_Source\PSoC5/USBFS_1_std.c ****         switch (USBFS_1_bRequestReg)
 108:.\Generated_Source\PSoC5/USBFS_1_std.c ****         {
 109:.\Generated_Source\PSoC5/USBFS_1_std.c ****             case USBFS_1_GET_DESCRIPTOR:
 110:.\Generated_Source\PSoC5/USBFS_1_std.c ****                 if (USBFS_1_DESCR_DEVICE ==USBFS_1_wValueHiReg)
 111:.\Generated_Source\PSoC5/USBFS_1_std.c ****                 {
 112:.\Generated_Source\PSoC5/USBFS_1_std.c ****                     pTmp = USBFS_1_GetDeviceTablePtr();
 113:.\Generated_Source\PSoC5/USBFS_1_std.c ****                     USBFS_1_currentTD.pData = (volatile uint8 *)pTmp->p_list;
 114:.\Generated_Source\PSoC5/USBFS_1_std.c ****                     USBFS_1_currentTD.count = USBFS_1_DEVICE_DESCR_LENGTH;
 115:.\Generated_Source\PSoC5/USBFS_1_std.c ****                     
 116:.\Generated_Source\PSoC5/USBFS_1_std.c ****                     requestHandled  = USBFS_1_InitControlRead();
 117:.\Generated_Source\PSoC5/USBFS_1_std.c ****                 }
 118:.\Generated_Source\PSoC5/USBFS_1_std.c ****                 else if (USBFS_1_DESCR_CONFIG == USBFS_1_wValueHiReg)
 119:.\Generated_Source\PSoC5/USBFS_1_std.c ****                 {
 120:.\Generated_Source\PSoC5/USBFS_1_std.c ****                     pTmp = USBFS_1_GetConfigTablePtr((uint8) USBFS_1_wValueLoReg);
 121:.\Generated_Source\PSoC5/USBFS_1_std.c ****                     
 122:.\Generated_Source\PSoC5/USBFS_1_std.c ****                     /* Verify that requested descriptor exists */
 123:.\Generated_Source\PSoC5/USBFS_1_std.c ****                     if (pTmp != NULL)
 124:.\Generated_Source\PSoC5/USBFS_1_std.c ****                     {
 125:.\Generated_Source\PSoC5/USBFS_1_std.c ****                         USBFS_1_currentTD.pData = (volatile uint8 *)pTmp->p_list;
 126:.\Generated_Source\PSoC5/USBFS_1_std.c ****                         USBFS_1_currentTD.count = (uint16)((uint16)(USBFS_1_currentTD.pData)[USBFS_
 127:.\Generated_Source\PSoC5/USBFS_1_std.c ****                                                                             (USBFS_1_currentTD.pDat
 128:.\Generated_Source\PSoC5/USBFS_1_std.c ****                         requestHandled  = USBFS_1_InitControlRead();
 129:.\Generated_Source\PSoC5/USBFS_1_std.c ****                     }
 130:.\Generated_Source\PSoC5/USBFS_1_std.c ****                 }
 131:.\Generated_Source\PSoC5/USBFS_1_std.c ****                 
 132:.\Generated_Source\PSoC5/USBFS_1_std.c ****             #if(USBFS_1_BOS_ENABLE)
 133:.\Generated_Source\PSoC5/USBFS_1_std.c ****                 else if (USBFS_1_DESCR_BOS == USBFS_1_wValueHiReg)
 134:.\Generated_Source\PSoC5/USBFS_1_std.c ****                 {
 135:.\Generated_Source\PSoC5/USBFS_1_std.c ****                     pTmp = USBFS_1_GetBOSPtr();
 136:.\Generated_Source\PSoC5/USBFS_1_std.c ****                     
 137:.\Generated_Source\PSoC5/USBFS_1_std.c ****                     /* Verify that requested descriptor exists */
 138:.\Generated_Source\PSoC5/USBFS_1_std.c ****                     if (pTmp != NULL)
 139:.\Generated_Source\PSoC5/USBFS_1_std.c ****                     {
 140:.\Generated_Source\PSoC5/USBFS_1_std.c ****                         USBFS_1_currentTD.pData = (volatile uint8 *)pTmp;
 141:.\Generated_Source\PSoC5/USBFS_1_std.c ****                         USBFS_1_currentTD.count = ((uint16)((uint16)(USBFS_1_currentTD.pData)[USBFS
 142:.\Generated_Source\PSoC5/USBFS_1_std.c ****                                                                              (USBFS_1_currentTD.pDa
 143:.\Generated_Source\PSoC5/USBFS_1_std.c ****                         requestHandled  = USBFS_1_InitControlRead();
 144:.\Generated_Source\PSoC5/USBFS_1_std.c ****                     }
 145:.\Generated_Source\PSoC5/USBFS_1_std.c ****                 }
ARM GAS  C:\Users\LUKASC~1\AppData\Local\Temp\ccAgm3t8.s 			page 4


 146:.\Generated_Source\PSoC5/USBFS_1_std.c ****             #endif /*(USBFS_1_BOS_ENABLE)*/
 147:.\Generated_Source\PSoC5/USBFS_1_std.c ****             
 148:.\Generated_Source\PSoC5/USBFS_1_std.c ****             #if defined(USBFS_1_ENABLE_STRINGS)
 149:.\Generated_Source\PSoC5/USBFS_1_std.c ****                 else if (USBFS_1_DESCR_STRING == USBFS_1_wValueHiReg)
 150:.\Generated_Source\PSoC5/USBFS_1_std.c ****                 {
 151:.\Generated_Source\PSoC5/USBFS_1_std.c ****                 /* Descriptor Strings */
 152:.\Generated_Source\PSoC5/USBFS_1_std.c ****                 #if defined(USBFS_1_ENABLE_DESCRIPTOR_STRINGS)
 153:.\Generated_Source\PSoC5/USBFS_1_std.c ****                     nStr = 0u;
 154:.\Generated_Source\PSoC5/USBFS_1_std.c ****                     pStr = (volatile uint8 *) &USBFS_1_STRING_DESCRIPTORS[0u];
 155:.\Generated_Source\PSoC5/USBFS_1_std.c ****                     
 156:.\Generated_Source\PSoC5/USBFS_1_std.c ****                     while ((USBFS_1_wValueLoReg > nStr) && (*pStr != 0u))
 157:.\Generated_Source\PSoC5/USBFS_1_std.c ****                     {
 158:.\Generated_Source\PSoC5/USBFS_1_std.c ****                         /* Read descriptor length from 1st byte */
 159:.\Generated_Source\PSoC5/USBFS_1_std.c ****                         descrLength = *pStr;
 160:.\Generated_Source\PSoC5/USBFS_1_std.c ****                         /* Move to next string descriptor */
 161:.\Generated_Source\PSoC5/USBFS_1_std.c ****                         pStr = &pStr[descrLength];
 162:.\Generated_Source\PSoC5/USBFS_1_std.c ****                         nStr++;
 163:.\Generated_Source\PSoC5/USBFS_1_std.c ****                     }
 164:.\Generated_Source\PSoC5/USBFS_1_std.c ****                 #endif /* (USBFS_1_ENABLE_DESCRIPTOR_STRINGS) */
 165:.\Generated_Source\PSoC5/USBFS_1_std.c ****                 
 166:.\Generated_Source\PSoC5/USBFS_1_std.c ****                 /* Microsoft OS String */
 167:.\Generated_Source\PSoC5/USBFS_1_std.c ****                 #if defined(USBFS_1_ENABLE_MSOS_STRING)
 168:.\Generated_Source\PSoC5/USBFS_1_std.c ****                     if (USBFS_1_STRING_MSOS == USBFS_1_wValueLoReg)
 169:.\Generated_Source\PSoC5/USBFS_1_std.c ****                     {
 170:.\Generated_Source\PSoC5/USBFS_1_std.c ****                         pStr = (volatile uint8 *)& USBFS_1_MSOS_DESCRIPTOR[0u];
 171:.\Generated_Source\PSoC5/USBFS_1_std.c ****                     }
 172:.\Generated_Source\PSoC5/USBFS_1_std.c ****                 #endif /* (USBFS_1_ENABLE_MSOS_STRING) */
 173:.\Generated_Source\PSoC5/USBFS_1_std.c ****                 
 174:.\Generated_Source\PSoC5/USBFS_1_std.c ****                 /* SN string */
 175:.\Generated_Source\PSoC5/USBFS_1_std.c ****                 #if defined(USBFS_1_ENABLE_SN_STRING)
 176:.\Generated_Source\PSoC5/USBFS_1_std.c ****                     if ((USBFS_1_wValueLoReg != 0u) && 
 177:.\Generated_Source\PSoC5/USBFS_1_std.c ****                         (USBFS_1_wValueLoReg == USBFS_1_DEVICE0_DESCR[USBFS_1_DEVICE_DESCR_SN_SHIFT
 178:.\Generated_Source\PSoC5/USBFS_1_std.c ****                     {
 179:.\Generated_Source\PSoC5/USBFS_1_std.c ****                     #if defined(USBFS_1_ENABLE_IDSN_STRING)
 180:.\Generated_Source\PSoC5/USBFS_1_std.c ****                         /* Read DIE ID and generate string descriptor in RAM */
 181:.\Generated_Source\PSoC5/USBFS_1_std.c ****                         USBFS_1_ReadDieID(USBFS_1_idSerialNumberStringDescriptor);
 182:.\Generated_Source\PSoC5/USBFS_1_std.c ****                         pStr = USBFS_1_idSerialNumberStringDescriptor;
 183:.\Generated_Source\PSoC5/USBFS_1_std.c ****                     #elif defined(USBFS_1_ENABLE_FWSN_STRING)
 184:.\Generated_Source\PSoC5/USBFS_1_std.c ****                         
 185:.\Generated_Source\PSoC5/USBFS_1_std.c ****                         if(USBFS_1_snStringConfirm != USBFS_1_FALSE)
 186:.\Generated_Source\PSoC5/USBFS_1_std.c ****                         {
 187:.\Generated_Source\PSoC5/USBFS_1_std.c ****                             pStr = USBFS_1_fwSerialNumberStringDescriptor;
 188:.\Generated_Source\PSoC5/USBFS_1_std.c ****                         }
 189:.\Generated_Source\PSoC5/USBFS_1_std.c ****                         else
 190:.\Generated_Source\PSoC5/USBFS_1_std.c ****                         {
 191:.\Generated_Source\PSoC5/USBFS_1_std.c ****                             pStr = (volatile uint8 *)&USBFS_1_SN_STRING_DESCRIPTOR[0u];
 192:.\Generated_Source\PSoC5/USBFS_1_std.c ****                         }
 193:.\Generated_Source\PSoC5/USBFS_1_std.c ****                     #else
 194:.\Generated_Source\PSoC5/USBFS_1_std.c ****                         pStr = (volatile uint8 *)&USBFS_1_SN_STRING_DESCRIPTOR[0u];
 195:.\Generated_Source\PSoC5/USBFS_1_std.c ****                     #endif  /* (USBFS_1_ENABLE_IDSN_STRING) */
 196:.\Generated_Source\PSoC5/USBFS_1_std.c ****                     }
 197:.\Generated_Source\PSoC5/USBFS_1_std.c ****                 #endif /* (USBFS_1_ENABLE_SN_STRING) */
 198:.\Generated_Source\PSoC5/USBFS_1_std.c ****                 
 199:.\Generated_Source\PSoC5/USBFS_1_std.c ****                     if (*pStr != 0u)
 200:.\Generated_Source\PSoC5/USBFS_1_std.c ****                     {
 201:.\Generated_Source\PSoC5/USBFS_1_std.c ****                         USBFS_1_currentTD.count = *pStr;
 202:.\Generated_Source\PSoC5/USBFS_1_std.c ****                         USBFS_1_currentTD.pData = pStr;
ARM GAS  C:\Users\LUKASC~1\AppData\Local\Temp\ccAgm3t8.s 			page 5


 203:.\Generated_Source\PSoC5/USBFS_1_std.c ****                         requestHandled  = USBFS_1_InitControlRead();
 204:.\Generated_Source\PSoC5/USBFS_1_std.c ****                     }
 205:.\Generated_Source\PSoC5/USBFS_1_std.c ****                 }
 206:.\Generated_Source\PSoC5/USBFS_1_std.c ****             #endif /*  USBFS_1_ENABLE_STRINGS */
 207:.\Generated_Source\PSoC5/USBFS_1_std.c ****                 else
 208:.\Generated_Source\PSoC5/USBFS_1_std.c ****                 {
 209:.\Generated_Source\PSoC5/USBFS_1_std.c ****                     requestHandled = USBFS_1_DispatchClassRqst();
 210:.\Generated_Source\PSoC5/USBFS_1_std.c ****                 }
 211:.\Generated_Source\PSoC5/USBFS_1_std.c ****                 break;
 212:.\Generated_Source\PSoC5/USBFS_1_std.c ****                 
 213:.\Generated_Source\PSoC5/USBFS_1_std.c ****             case USBFS_1_GET_STATUS:
 214:.\Generated_Source\PSoC5/USBFS_1_std.c ****                 switch (bmRequestType & USBFS_1_RQST_RCPT_MASK)
 215:.\Generated_Source\PSoC5/USBFS_1_std.c ****                 {
 216:.\Generated_Source\PSoC5/USBFS_1_std.c ****                     case USBFS_1_RQST_RCPT_EP:
 217:.\Generated_Source\PSoC5/USBFS_1_std.c ****                         USBFS_1_currentTD.count = USBFS_1_EP_STATUS_LENGTH;
 218:.\Generated_Source\PSoC5/USBFS_1_std.c ****                         USBFS_1_tBuffer[0u]     = USBFS_1_EP[USBFS_1_wIndexLoReg & USBFS_1_DIR_UNUS
 219:.\Generated_Source\PSoC5/USBFS_1_std.c ****                         USBFS_1_tBuffer[1u]     = 0u;
 220:.\Generated_Source\PSoC5/USBFS_1_std.c ****                         USBFS_1_currentTD.pData = &USBFS_1_tBuffer[0u];
 221:.\Generated_Source\PSoC5/USBFS_1_std.c ****                         
 222:.\Generated_Source\PSoC5/USBFS_1_std.c ****                         requestHandled  = USBFS_1_InitControlRead();
 223:.\Generated_Source\PSoC5/USBFS_1_std.c ****                         break;
 224:.\Generated_Source\PSoC5/USBFS_1_std.c ****                     case USBFS_1_RQST_RCPT_DEV:
 225:.\Generated_Source\PSoC5/USBFS_1_std.c ****                         USBFS_1_currentTD.count = USBFS_1_DEVICE_STATUS_LENGTH;
 226:.\Generated_Source\PSoC5/USBFS_1_std.c ****                         USBFS_1_tBuffer[0u]     = USBFS_1_deviceStatus;
 227:.\Generated_Source\PSoC5/USBFS_1_std.c ****                         USBFS_1_tBuffer[1u]     = 0u;
 228:.\Generated_Source\PSoC5/USBFS_1_std.c ****                         USBFS_1_currentTD.pData = &USBFS_1_tBuffer[0u];
 229:.\Generated_Source\PSoC5/USBFS_1_std.c ****                         
 230:.\Generated_Source\PSoC5/USBFS_1_std.c ****                         requestHandled  = USBFS_1_InitControlRead();
 231:.\Generated_Source\PSoC5/USBFS_1_std.c ****                         break;
 232:.\Generated_Source\PSoC5/USBFS_1_std.c ****                     default:    /* requestHandled is initialized as FALSE by default */
 233:.\Generated_Source\PSoC5/USBFS_1_std.c ****                         break;
 234:.\Generated_Source\PSoC5/USBFS_1_std.c ****                 }
 235:.\Generated_Source\PSoC5/USBFS_1_std.c ****                 break;
 236:.\Generated_Source\PSoC5/USBFS_1_std.c ****                 
 237:.\Generated_Source\PSoC5/USBFS_1_std.c ****             case USBFS_1_GET_CONFIGURATION:
 238:.\Generated_Source\PSoC5/USBFS_1_std.c ****                 USBFS_1_currentTD.count = 1u;
 239:.\Generated_Source\PSoC5/USBFS_1_std.c ****                 USBFS_1_currentTD.pData = (volatile uint8 *) &USBFS_1_configuration;
 240:.\Generated_Source\PSoC5/USBFS_1_std.c ****                 requestHandled  = USBFS_1_InitControlRead();
 241:.\Generated_Source\PSoC5/USBFS_1_std.c ****                 break;
 242:.\Generated_Source\PSoC5/USBFS_1_std.c ****                 
 243:.\Generated_Source\PSoC5/USBFS_1_std.c ****             case USBFS_1_GET_INTERFACE:
 244:.\Generated_Source\PSoC5/USBFS_1_std.c ****                 USBFS_1_currentTD.count = 1u;
 245:.\Generated_Source\PSoC5/USBFS_1_std.c ****                 USBFS_1_currentTD.pData = (volatile uint8 *) &USBFS_1_interfaceSetting[USBFS_1_wInd
 246:.\Generated_Source\PSoC5/USBFS_1_std.c ****                 requestHandled  = USBFS_1_InitControlRead();
 247:.\Generated_Source\PSoC5/USBFS_1_std.c ****                 break;
 248:.\Generated_Source\PSoC5/USBFS_1_std.c ****                 
 249:.\Generated_Source\PSoC5/USBFS_1_std.c ****             default: /* requestHandled is initialized as FALSE by default */
 250:.\Generated_Source\PSoC5/USBFS_1_std.c ****                 break;
 251:.\Generated_Source\PSoC5/USBFS_1_std.c ****         }
 252:.\Generated_Source\PSoC5/USBFS_1_std.c ****     }
 253:.\Generated_Source\PSoC5/USBFS_1_std.c ****     else
 254:.\Generated_Source\PSoC5/USBFS_1_std.c ****     {
 255:.\Generated_Source\PSoC5/USBFS_1_std.c ****         /* Control Write */
 256:.\Generated_Source\PSoC5/USBFS_1_std.c ****         switch (USBFS_1_bRequestReg)
 257:.\Generated_Source\PSoC5/USBFS_1_std.c ****         {
 258:.\Generated_Source\PSoC5/USBFS_1_std.c ****             case USBFS_1_SET_ADDRESS:
 259:.\Generated_Source\PSoC5/USBFS_1_std.c ****                 /* Store address to be set in USBFS_1_NoDataControlStatusStage(). */
ARM GAS  C:\Users\LUKASC~1\AppData\Local\Temp\ccAgm3t8.s 			page 6


 260:.\Generated_Source\PSoC5/USBFS_1_std.c ****                 USBFS_1_deviceAddress = (uint8) USBFS_1_wValueLoReg;
 261:.\Generated_Source\PSoC5/USBFS_1_std.c ****                 requestHandled = USBFS_1_InitNoDataControlTransfer();
 262:.\Generated_Source\PSoC5/USBFS_1_std.c ****                 break;
 263:.\Generated_Source\PSoC5/USBFS_1_std.c ****                 
 264:.\Generated_Source\PSoC5/USBFS_1_std.c ****             case USBFS_1_SET_CONFIGURATION:
 265:.\Generated_Source\PSoC5/USBFS_1_std.c ****                 configurationN = USBFS_1_wValueLoReg;
 266:.\Generated_Source\PSoC5/USBFS_1_std.c ****                 
 267:.\Generated_Source\PSoC5/USBFS_1_std.c ****                 /* Verify that configuration descriptor exists */
 268:.\Generated_Source\PSoC5/USBFS_1_std.c ****                 if(configurationN > 0u)
 269:.\Generated_Source\PSoC5/USBFS_1_std.c ****                 {
 270:.\Generated_Source\PSoC5/USBFS_1_std.c ****                     pTmp = USBFS_1_GetConfigTablePtr((uint8) configurationN - 1u);
 271:.\Generated_Source\PSoC5/USBFS_1_std.c ****                 }
 272:.\Generated_Source\PSoC5/USBFS_1_std.c ****                 
 273:.\Generated_Source\PSoC5/USBFS_1_std.c ****                 /* Responds with a Request Error when configuration number is invalid */
 274:.\Generated_Source\PSoC5/USBFS_1_std.c ****                 if (((configurationN > 0u) && (pTmp != NULL)) || (configurationN == 0u))
 275:.\Generated_Source\PSoC5/USBFS_1_std.c ****                 {
 276:.\Generated_Source\PSoC5/USBFS_1_std.c ****                     /* Set new configuration if it has been changed */
 277:.\Generated_Source\PSoC5/USBFS_1_std.c ****                     if(configurationN != USBFS_1_configuration)
 278:.\Generated_Source\PSoC5/USBFS_1_std.c ****                     {
 279:.\Generated_Source\PSoC5/USBFS_1_std.c ****                         USBFS_1_configuration = (uint8) configurationN;
 280:.\Generated_Source\PSoC5/USBFS_1_std.c ****                         USBFS_1_configurationChanged = USBFS_1_TRUE;
 281:.\Generated_Source\PSoC5/USBFS_1_std.c ****                         USBFS_1_Config(USBFS_1_TRUE);
 282:.\Generated_Source\PSoC5/USBFS_1_std.c ****                     }
 283:.\Generated_Source\PSoC5/USBFS_1_std.c ****                     requestHandled = USBFS_1_InitNoDataControlTransfer();
 284:.\Generated_Source\PSoC5/USBFS_1_std.c ****                 }
 285:.\Generated_Source\PSoC5/USBFS_1_std.c ****                 break;
 286:.\Generated_Source\PSoC5/USBFS_1_std.c ****                 
 287:.\Generated_Source\PSoC5/USBFS_1_std.c ****             case USBFS_1_SET_INTERFACE:
 288:.\Generated_Source\PSoC5/USBFS_1_std.c ****                 if (0u != USBFS_1_ValidateAlternateSetting())
 289:.\Generated_Source\PSoC5/USBFS_1_std.c ****                 {
 290:.\Generated_Source\PSoC5/USBFS_1_std.c ****                     /* Get interface number from the request. */
 291:.\Generated_Source\PSoC5/USBFS_1_std.c ****                     interfaceNumber = USBFS_1_wIndexLoReg;
 292:.\Generated_Source\PSoC5/USBFS_1_std.c ****                     USBFS_1_interfaceNumber = (uint8) USBFS_1_wIndexLoReg;
 293:.\Generated_Source\PSoC5/USBFS_1_std.c ****                      
 294:.\Generated_Source\PSoC5/USBFS_1_std.c ****                     /* Check if alternate settings is changed for interface. */
 295:.\Generated_Source\PSoC5/USBFS_1_std.c ****                     if (USBFS_1_interfaceSettingLast[interfaceNumber] != USBFS_1_interfaceSetting[i
 296:.\Generated_Source\PSoC5/USBFS_1_std.c ****                     {
 297:.\Generated_Source\PSoC5/USBFS_1_std.c ****                         USBFS_1_configurationChanged = USBFS_1_TRUE;
 298:.\Generated_Source\PSoC5/USBFS_1_std.c ****                     
 299:.\Generated_Source\PSoC5/USBFS_1_std.c ****                         /* Change alternate setting for the endpoints. */
 300:.\Generated_Source\PSoC5/USBFS_1_std.c ****                     #if (USBFS_1_EP_MANAGEMENT_MANUAL && USBFS_1_EP_ALLOC_DYNAMIC)
 301:.\Generated_Source\PSoC5/USBFS_1_std.c ****                         USBFS_1_Config(USBFS_1_FALSE);
 302:.\Generated_Source\PSoC5/USBFS_1_std.c ****                     #else
 303:.\Generated_Source\PSoC5/USBFS_1_std.c ****                         USBFS_1_ConfigAltChanged();
 304:.\Generated_Source\PSoC5/USBFS_1_std.c ****                     #endif /* (USBFS_1_EP_MANAGEMENT_MANUAL && USBFS_1_EP_ALLOC_DYNAMIC) */
 305:.\Generated_Source\PSoC5/USBFS_1_std.c ****                     }
 306:.\Generated_Source\PSoC5/USBFS_1_std.c ****                     
 307:.\Generated_Source\PSoC5/USBFS_1_std.c ****                     requestHandled = USBFS_1_InitNoDataControlTransfer();
 308:.\Generated_Source\PSoC5/USBFS_1_std.c ****                 }
 309:.\Generated_Source\PSoC5/USBFS_1_std.c ****                 break;
 310:.\Generated_Source\PSoC5/USBFS_1_std.c ****                 
 311:.\Generated_Source\PSoC5/USBFS_1_std.c ****             case USBFS_1_CLEAR_FEATURE:
 312:.\Generated_Source\PSoC5/USBFS_1_std.c ****                 switch (bmRequestType & USBFS_1_RQST_RCPT_MASK)
 313:.\Generated_Source\PSoC5/USBFS_1_std.c ****                 {
 314:.\Generated_Source\PSoC5/USBFS_1_std.c ****                     case USBFS_1_RQST_RCPT_EP:
 315:.\Generated_Source\PSoC5/USBFS_1_std.c ****                         if (USBFS_1_wValueLoReg == USBFS_1_ENDPOINT_HALT)
 316:.\Generated_Source\PSoC5/USBFS_1_std.c ****                         {
ARM GAS  C:\Users\LUKASC~1\AppData\Local\Temp\ccAgm3t8.s 			page 7


 317:.\Generated_Source\PSoC5/USBFS_1_std.c ****                             requestHandled = USBFS_1_ClearEndpointHalt();
 318:.\Generated_Source\PSoC5/USBFS_1_std.c ****                         }
 319:.\Generated_Source\PSoC5/USBFS_1_std.c ****                         break;
 320:.\Generated_Source\PSoC5/USBFS_1_std.c ****                     case USBFS_1_RQST_RCPT_DEV:
 321:.\Generated_Source\PSoC5/USBFS_1_std.c ****                         /* Clear device REMOTE_WAKEUP */
 322:.\Generated_Source\PSoC5/USBFS_1_std.c ****                         if (USBFS_1_wValueLoReg == USBFS_1_DEVICE_REMOTE_WAKEUP)
 323:.\Generated_Source\PSoC5/USBFS_1_std.c ****                         {
 324:.\Generated_Source\PSoC5/USBFS_1_std.c ****                             USBFS_1_deviceStatus &= (uint8)~USBFS_1_DEVICE_STATUS_REMOTE_WAKEUP;
 325:.\Generated_Source\PSoC5/USBFS_1_std.c ****                             requestHandled = USBFS_1_InitNoDataControlTransfer();
 326:.\Generated_Source\PSoC5/USBFS_1_std.c ****                         }
 327:.\Generated_Source\PSoC5/USBFS_1_std.c ****                         break;
 328:.\Generated_Source\PSoC5/USBFS_1_std.c ****                     case USBFS_1_RQST_RCPT_IFC:
 329:.\Generated_Source\PSoC5/USBFS_1_std.c ****                         /* Validate interfaceNumber */
 330:.\Generated_Source\PSoC5/USBFS_1_std.c ****                         if (USBFS_1_wIndexLoReg < USBFS_1_MAX_INTERFACES_NUMBER)
 331:.\Generated_Source\PSoC5/USBFS_1_std.c ****                         {
 332:.\Generated_Source\PSoC5/USBFS_1_std.c ****                             USBFS_1_interfaceStatus[USBFS_1_wIndexLoReg] &= (uint8) ~USBFS_1_wValue
 333:.\Generated_Source\PSoC5/USBFS_1_std.c ****                             requestHandled = USBFS_1_InitNoDataControlTransfer();
 334:.\Generated_Source\PSoC5/USBFS_1_std.c ****                         }
 335:.\Generated_Source\PSoC5/USBFS_1_std.c ****                         break;
 336:.\Generated_Source\PSoC5/USBFS_1_std.c ****                     default:    /* requestHandled is initialized as FALSE by default */
 337:.\Generated_Source\PSoC5/USBFS_1_std.c ****                         break;
 338:.\Generated_Source\PSoC5/USBFS_1_std.c ****                 }
 339:.\Generated_Source\PSoC5/USBFS_1_std.c ****                 break;
 340:.\Generated_Source\PSoC5/USBFS_1_std.c ****                 
 341:.\Generated_Source\PSoC5/USBFS_1_std.c ****             case USBFS_1_SET_FEATURE:
 342:.\Generated_Source\PSoC5/USBFS_1_std.c ****                 switch (bmRequestType & USBFS_1_RQST_RCPT_MASK)
 343:.\Generated_Source\PSoC5/USBFS_1_std.c ****                 {
 344:.\Generated_Source\PSoC5/USBFS_1_std.c ****                     case USBFS_1_RQST_RCPT_EP:
 345:.\Generated_Source\PSoC5/USBFS_1_std.c ****                         if (USBFS_1_wValueLoReg == USBFS_1_ENDPOINT_HALT)
 346:.\Generated_Source\PSoC5/USBFS_1_std.c ****                         {
 347:.\Generated_Source\PSoC5/USBFS_1_std.c ****                             requestHandled = USBFS_1_SetEndpointHalt();
 348:.\Generated_Source\PSoC5/USBFS_1_std.c ****                         }
 349:.\Generated_Source\PSoC5/USBFS_1_std.c ****                         break;
 350:.\Generated_Source\PSoC5/USBFS_1_std.c ****                         
 351:.\Generated_Source\PSoC5/USBFS_1_std.c ****                     case USBFS_1_RQST_RCPT_DEV:
 352:.\Generated_Source\PSoC5/USBFS_1_std.c ****                         /* Set device REMOTE_WAKEUP */
 353:.\Generated_Source\PSoC5/USBFS_1_std.c ****                         if (USBFS_1_wValueLoReg == USBFS_1_DEVICE_REMOTE_WAKEUP)
 354:.\Generated_Source\PSoC5/USBFS_1_std.c ****                         {
 355:.\Generated_Source\PSoC5/USBFS_1_std.c ****                             USBFS_1_deviceStatus |= USBFS_1_DEVICE_STATUS_REMOTE_WAKEUP;
 356:.\Generated_Source\PSoC5/USBFS_1_std.c ****                             requestHandled = USBFS_1_InitNoDataControlTransfer();
 357:.\Generated_Source\PSoC5/USBFS_1_std.c ****                         }
 358:.\Generated_Source\PSoC5/USBFS_1_std.c ****                         break;
 359:.\Generated_Source\PSoC5/USBFS_1_std.c ****                         
 360:.\Generated_Source\PSoC5/USBFS_1_std.c ****                     case USBFS_1_RQST_RCPT_IFC:
 361:.\Generated_Source\PSoC5/USBFS_1_std.c ****                         /* Validate interfaceNumber */
 362:.\Generated_Source\PSoC5/USBFS_1_std.c ****                         if (USBFS_1_wIndexLoReg < USBFS_1_MAX_INTERFACES_NUMBER)
 363:.\Generated_Source\PSoC5/USBFS_1_std.c ****                         {
 364:.\Generated_Source\PSoC5/USBFS_1_std.c ****                             USBFS_1_interfaceStatus[USBFS_1_wIndexLoReg] &= (uint8) ~USBFS_1_wValue
 365:.\Generated_Source\PSoC5/USBFS_1_std.c ****                             requestHandled = USBFS_1_InitNoDataControlTransfer();
 366:.\Generated_Source\PSoC5/USBFS_1_std.c ****                         }
 367:.\Generated_Source\PSoC5/USBFS_1_std.c ****                         break;
 368:.\Generated_Source\PSoC5/USBFS_1_std.c ****                     
 369:.\Generated_Source\PSoC5/USBFS_1_std.c ****                     default:    /* requestHandled is initialized as FALSE by default */
 370:.\Generated_Source\PSoC5/USBFS_1_std.c ****                         break;
 371:.\Generated_Source\PSoC5/USBFS_1_std.c ****                 }
 372:.\Generated_Source\PSoC5/USBFS_1_std.c ****                 break;
 373:.\Generated_Source\PSoC5/USBFS_1_std.c ****                 
ARM GAS  C:\Users\LUKASC~1\AppData\Local\Temp\ccAgm3t8.s 			page 8


 374:.\Generated_Source\PSoC5/USBFS_1_std.c ****             default:    /* requestHandled is initialized as FALSE by default */
 375:.\Generated_Source\PSoC5/USBFS_1_std.c ****                 break;
 376:.\Generated_Source\PSoC5/USBFS_1_std.c ****         }
 377:.\Generated_Source\PSoC5/USBFS_1_std.c ****     }
 378:.\Generated_Source\PSoC5/USBFS_1_std.c ****     
 379:.\Generated_Source\PSoC5/USBFS_1_std.c ****     return (requestHandled);
 380:.\Generated_Source\PSoC5/USBFS_1_std.c **** }
 381:.\Generated_Source\PSoC5/USBFS_1_std.c **** 
 382:.\Generated_Source\PSoC5/USBFS_1_std.c **** 
 383:.\Generated_Source\PSoC5/USBFS_1_std.c **** #if defined(USBFS_1_ENABLE_IDSN_STRING)
 384:.\Generated_Source\PSoC5/USBFS_1_std.c ****     /***************************************************************************
 385:.\Generated_Source\PSoC5/USBFS_1_std.c ****     * Function Name: USBFS_1_ReadDieID
 386:.\Generated_Source\PSoC5/USBFS_1_std.c ****     ************************************************************************//**
 387:.\Generated_Source\PSoC5/USBFS_1_std.c ****     *
 388:.\Generated_Source\PSoC5/USBFS_1_std.c ****     *  This routine read Die ID and generate Serial Number string descriptor.
 389:.\Generated_Source\PSoC5/USBFS_1_std.c ****     *
 390:.\Generated_Source\PSoC5/USBFS_1_std.c ****     *  \param descr:  pointer on string descriptor. This string size has to be equal or
 391:.\Generated_Source\PSoC5/USBFS_1_std.c ****     *          greater than USBFS_1_IDSN_DESCR_LENGTH.
 392:.\Generated_Source\PSoC5/USBFS_1_std.c ****     *
 393:.\Generated_Source\PSoC5/USBFS_1_std.c ****     *
 394:.\Generated_Source\PSoC5/USBFS_1_std.c ****     * \reentrant
 395:.\Generated_Source\PSoC5/USBFS_1_std.c ****     *  No.
 396:.\Generated_Source\PSoC5/USBFS_1_std.c ****     *
 397:.\Generated_Source\PSoC5/USBFS_1_std.c ****     ***************************************************************************/
 398:.\Generated_Source\PSoC5/USBFS_1_std.c ****     void USBFS_1_ReadDieID(uint8 descr[]) 
 399:.\Generated_Source\PSoC5/USBFS_1_std.c ****     {
 400:.\Generated_Source\PSoC5/USBFS_1_std.c ****         const char8 CYCODE hex[] = "0123456789ABCDEF";
 401:.\Generated_Source\PSoC5/USBFS_1_std.c ****         uint8 i;
 402:.\Generated_Source\PSoC5/USBFS_1_std.c ****         uint8 j = 0u;
 403:.\Generated_Source\PSoC5/USBFS_1_std.c ****         uint8 uniqueId[8u];
 404:.\Generated_Source\PSoC5/USBFS_1_std.c **** 
 405:.\Generated_Source\PSoC5/USBFS_1_std.c ****         if (NULL != descr)
 406:.\Generated_Source\PSoC5/USBFS_1_std.c ****         {
 407:.\Generated_Source\PSoC5/USBFS_1_std.c ****             /* Initialize descriptor header. */
 408:.\Generated_Source\PSoC5/USBFS_1_std.c ****             descr[0u] = USBFS_1_IDSN_DESCR_LENGTH;
 409:.\Generated_Source\PSoC5/USBFS_1_std.c ****             descr[1u] = USBFS_1_DESCR_STRING;
 410:.\Generated_Source\PSoC5/USBFS_1_std.c ****             
 411:.\Generated_Source\PSoC5/USBFS_1_std.c ****             /* Unique ID size is 8 bytes. */
 412:.\Generated_Source\PSoC5/USBFS_1_std.c ****             CyGetUniqueId((uint32 *) uniqueId);
 413:.\Generated_Source\PSoC5/USBFS_1_std.c **** 
 414:.\Generated_Source\PSoC5/USBFS_1_std.c ****             /* Fill descriptor with unique device ID. */
 415:.\Generated_Source\PSoC5/USBFS_1_std.c ****             for (i = 2u; i < USBFS_1_IDSN_DESCR_LENGTH; i += 4u)
 416:.\Generated_Source\PSoC5/USBFS_1_std.c ****             {
 417:.\Generated_Source\PSoC5/USBFS_1_std.c ****                 descr[i]      = (uint8) hex[(uniqueId[j] >> 4u)];
 418:.\Generated_Source\PSoC5/USBFS_1_std.c ****                 descr[i + 1u] = 0u;
 419:.\Generated_Source\PSoC5/USBFS_1_std.c ****                 descr[i + 2u] = (uint8) hex[(uniqueId[j] & 0x0Fu)];
 420:.\Generated_Source\PSoC5/USBFS_1_std.c ****                 descr[i + 3u] = 0u;
 421:.\Generated_Source\PSoC5/USBFS_1_std.c ****                 ++j;
 422:.\Generated_Source\PSoC5/USBFS_1_std.c ****             }
 423:.\Generated_Source\PSoC5/USBFS_1_std.c ****         }
 424:.\Generated_Source\PSoC5/USBFS_1_std.c ****     }
 425:.\Generated_Source\PSoC5/USBFS_1_std.c **** #endif /* (USBFS_1_ENABLE_IDSN_STRING) */
 426:.\Generated_Source\PSoC5/USBFS_1_std.c **** 
 427:.\Generated_Source\PSoC5/USBFS_1_std.c **** 
 428:.\Generated_Source\PSoC5/USBFS_1_std.c **** /*******************************************************************************
 429:.\Generated_Source\PSoC5/USBFS_1_std.c **** * Function Name: USBFS_1_ConfigReg
 430:.\Generated_Source\PSoC5/USBFS_1_std.c **** ****************************************************************************//**
ARM GAS  C:\Users\LUKASC~1\AppData\Local\Temp\ccAgm3t8.s 			page 9


 431:.\Generated_Source\PSoC5/USBFS_1_std.c **** *
 432:.\Generated_Source\PSoC5/USBFS_1_std.c **** *  This routine configures hardware registers from the variables.
 433:.\Generated_Source\PSoC5/USBFS_1_std.c **** *  It is called from USBFS_1_Config() function and from RestoreConfig
 434:.\Generated_Source\PSoC5/USBFS_1_std.c **** *  after Wakeup.
 435:.\Generated_Source\PSoC5/USBFS_1_std.c **** *
 436:.\Generated_Source\PSoC5/USBFS_1_std.c **** *******************************************************************************/
 437:.\Generated_Source\PSoC5/USBFS_1_std.c **** void USBFS_1_ConfigReg(void) 
 438:.\Generated_Source\PSoC5/USBFS_1_std.c **** {
  27              		.loc 1 438 0
  28              		.cfi_startproc
  29              		@ args = 0, pretend = 0, frame = 0
  30              		@ frame_needed = 0, uses_anonymous_args = 0
  31              		@ link register save eliminated.
  32 0000 70B4     		push	{r4, r5, r6}
  33              		.cfi_def_cfa_offset 12
  34              		.cfi_offset 4, -12
  35              		.cfi_offset 5, -8
  36              		.cfi_offset 6, -4
  37              	.LVL0:
 439:.\Generated_Source\PSoC5/USBFS_1_std.c ****     uint8 ep;
 440:.\Generated_Source\PSoC5/USBFS_1_std.c **** 
 441:.\Generated_Source\PSoC5/USBFS_1_std.c **** #if (USBFS_1_EP_MANAGEMENT_DMA_AUTO)
 442:.\Generated_Source\PSoC5/USBFS_1_std.c ****     uint8 epType = 0u;
  38              		.loc 1 442 0
  39 0002 0024     		movs	r4, #0
 443:.\Generated_Source\PSoC5/USBFS_1_std.c **** #endif /* (USBFS_1_EP_MANAGEMENT_DMA_AUTO) */
 444:.\Generated_Source\PSoC5/USBFS_1_std.c **** 
 445:.\Generated_Source\PSoC5/USBFS_1_std.c ****     /* Go thought all endpoints and set hardware configuration */
 446:.\Generated_Source\PSoC5/USBFS_1_std.c ****     for (ep = USBFS_1_EP1; ep < USBFS_1_MAX_EP; ++ep)
  40              		.loc 1 446 0
  41 0004 0123     		movs	r3, #1
  42 0006 2CE0     		b	.L2
  43              	.LVL1:
  44              	.L6:
 447:.\Generated_Source\PSoC5/USBFS_1_std.c ****     {
 448:.\Generated_Source\PSoC5/USBFS_1_std.c ****         USBFS_1_ARB_EP_BASE.arbEp[ep].epCfg = USBFS_1_ARB_EPX_CFG_DEFAULT;
  45              		.loc 1 448 0
  46 0008 2549     		ldr	r1, .L8
  47 000a 1A01     		lsls	r2, r3, #4
  48 000c 8D18     		adds	r5, r1, r2
  49 000e 0C26     		movs	r6, #12
  50 0010 8E54     		strb	r6, [r1, r2]
 449:.\Generated_Source\PSoC5/USBFS_1_std.c ****         
 450:.\Generated_Source\PSoC5/USBFS_1_std.c ****     #if (USBFS_1_EP_MANAGEMENT_DMA)
 451:.\Generated_Source\PSoC5/USBFS_1_std.c ****         /* Enable arbiter endpoint interrupt sources */
 452:.\Generated_Source\PSoC5/USBFS_1_std.c ****         USBFS_1_ARB_EP_BASE.arbEp[ep].epIntEn = USBFS_1_ARB_EPX_INT_MASK;
  51              		.loc 1 452 0
  52 0012 1D22     		movs	r2, #29
  53 0014 6A70     		strb	r2, [r5, #1]
 453:.\Generated_Source\PSoC5/USBFS_1_std.c ****     #endif /* (USBFS_1_EP_MANAGEMENT_DMA) */
 454:.\Generated_Source\PSoC5/USBFS_1_std.c ****     
 455:.\Generated_Source\PSoC5/USBFS_1_std.c ****         if (USBFS_1_EP[ep].epMode != USBFS_1_MODE_DISABLE)
  54              		.loc 1 455 0
  55 0016 03EB4302 		add	r2, r3, r3, lsl #1
  56 001a 9200     		lsls	r2, r2, #2
  57 001c 2149     		ldr	r1, .L8+4
  58 001e 0A44     		add	r2, r2, r1
ARM GAS  C:\Users\LUKASC~1\AppData\Local\Temp\ccAgm3t8.s 			page 10


  59 0020 5279     		ldrb	r2, [r2, #5]	@ zero_extendqisi2
  60 0022 12F0FF0F 		tst	r2, #255
  61 0026 15D0     		beq	.L3
 456:.\Generated_Source\PSoC5/USBFS_1_std.c ****         {
 457:.\Generated_Source\PSoC5/USBFS_1_std.c ****             if (0u != (USBFS_1_EP[ep].addr & USBFS_1_DIR_IN))
  62              		.loc 1 457 0
  63 0028 03EB4302 		add	r2, r3, r3, lsl #1
  64 002c 9200     		lsls	r2, r2, #2
  65 002e 0A44     		add	r2, r2, r1
  66 0030 1279     		ldrb	r2, [r2, #4]	@ zero_extendqisi2
  67 0032 12F0800F 		tst	r2, #128
  68 0036 03D0     		beq	.L4
 458:.\Generated_Source\PSoC5/USBFS_1_std.c ****             {
 459:.\Generated_Source\PSoC5/USBFS_1_std.c ****                 USBFS_1_SIE_EP_BASE.sieEp[ep].epCr0 = USBFS_1_MODE_NAK_IN;
  69              		.loc 1 459 0
  70 0038 1801     		lsls	r0, r3, #4
  71 003a 1B4A     		ldr	r2, .L8+8
  72 003c 1654     		strb	r6, [r2, r0]
  73 003e 0EE0     		b	.L5
  74              	.L4:
 460:.\Generated_Source\PSoC5/USBFS_1_std.c ****                 
 461:.\Generated_Source\PSoC5/USBFS_1_std.c ****             #if (USBFS_1_EP_MANAGEMENT_DMA_AUTO && CY_PSOC4)
 462:.\Generated_Source\PSoC5/USBFS_1_std.c ****                 /* Clear DMA_TERMIN for IN endpoint. */
 463:.\Generated_Source\PSoC5/USBFS_1_std.c ****                 USBFS_1_ARB_EP_BASE.arbEp[ep].epIntEn &= (uint32) ~USBFS_1_ARB_EPX_INT_DMA_TERMIN;
 464:.\Generated_Source\PSoC5/USBFS_1_std.c ****             #endif /* (USBFS_1_EP_MANAGEMENT_DMA_AUTO && CY_PSOC4) */
 465:.\Generated_Source\PSoC5/USBFS_1_std.c ****             }
 466:.\Generated_Source\PSoC5/USBFS_1_std.c ****             else
 467:.\Generated_Source\PSoC5/USBFS_1_std.c ****             {
 468:.\Generated_Source\PSoC5/USBFS_1_std.c ****                 USBFS_1_SIE_EP_BASE.sieEp[ep].epCr0 = USBFS_1_MODE_NAK_OUT;
  75              		.loc 1 468 0
  76 0040 1801     		lsls	r0, r3, #4
  77 0042 194A     		ldr	r2, .L8+8
  78 0044 0821     		movs	r1, #8
  79 0046 1154     		strb	r1, [r2, r0]
 469:.\Generated_Source\PSoC5/USBFS_1_std.c **** 
 470:.\Generated_Source\PSoC5/USBFS_1_std.c ****             #if (USBFS_1_EP_MANAGEMENT_DMA_AUTO)
 471:.\Generated_Source\PSoC5/USBFS_1_std.c ****                 /* (CY_PSOC4): DMA_TERMIN for OUT endpoint is set above. */
 472:.\Generated_Source\PSoC5/USBFS_1_std.c ****                 
 473:.\Generated_Source\PSoC5/USBFS_1_std.c ****                 /* Prepare endpoint type mask. */
 474:.\Generated_Source\PSoC5/USBFS_1_std.c ****                 epType |= (uint8) (0x01u << (ep - USBFS_1_EP1));
  80              		.loc 1 474 0
  81 0048 591E     		subs	r1, r3, #1
  82 004a 0122     		movs	r2, #1
  83 004c 8A40     		lsls	r2, r2, r1
  84 004e D2B2     		uxtb	r2, r2
  85 0050 1443     		orrs	r4, r4, r2
  86              	.LVL2:
  87 0052 04E0     		b	.L5
  88              	.L3:
 475:.\Generated_Source\PSoC5/USBFS_1_std.c ****             #endif /* (USBFS_1_EP_MANAGEMENT_DMA_AUTO) */
 476:.\Generated_Source\PSoC5/USBFS_1_std.c ****             }
 477:.\Generated_Source\PSoC5/USBFS_1_std.c ****         }
 478:.\Generated_Source\PSoC5/USBFS_1_std.c ****         else
 479:.\Generated_Source\PSoC5/USBFS_1_std.c ****         {
 480:.\Generated_Source\PSoC5/USBFS_1_std.c ****             USBFS_1_SIE_EP_BASE.sieEp[ep].epCr0 = USBFS_1_MODE_STALL_DATA_EP;
  89              		.loc 1 480 0
  90 0054 1901     		lsls	r1, r3, #4
ARM GAS  C:\Users\LUKASC~1\AppData\Local\Temp\ccAgm3t8.s 			page 11


  91 0056 154A     		ldr	r2, .L8+12
  92 0058 0A44     		add	r2, r2, r1
  93 005a 8021     		movs	r1, #128
  94 005c 9170     		strb	r1, [r2, #2]
  95              	.L5:
 446:.\Generated_Source\PSoC5/USBFS_1_std.c ****     {
  96              		.loc 1 446 0 discriminator 2
  97 005e 0133     		adds	r3, r3, #1
  98              	.LVL3:
  99 0060 DBB2     		uxtb	r3, r3
 100              	.LVL4:
 101              	.L2:
 446:.\Generated_Source\PSoC5/USBFS_1_std.c ****     {
 102              		.loc 1 446 0 is_stmt 0 discriminator 1
 103 0062 082B     		cmp	r3, #8
 104 0064 D0D9     		bls	.L6
 481:.\Generated_Source\PSoC5/USBFS_1_std.c ****         }
 482:.\Generated_Source\PSoC5/USBFS_1_std.c ****         
 483:.\Generated_Source\PSoC5/USBFS_1_std.c ****     #if (!USBFS_1_EP_MANAGEMENT_DMA_AUTO)
 484:.\Generated_Source\PSoC5/USBFS_1_std.c ****         #if (CY_PSOC4)
 485:.\Generated_Source\PSoC5/USBFS_1_std.c ****             USBFS_1_ARB_EP16_BASE.arbEp[ep].rwRa16  = (uint32) USBFS_1_EP[ep].buffOffset;
 486:.\Generated_Source\PSoC5/USBFS_1_std.c ****             USBFS_1_ARB_EP16_BASE.arbEp[ep].rwWa16  = (uint32) USBFS_1_EP[ep].buffOffset;
 487:.\Generated_Source\PSoC5/USBFS_1_std.c ****         #else
 488:.\Generated_Source\PSoC5/USBFS_1_std.c ****             USBFS_1_ARB_EP_BASE.arbEp[ep].rwRa    = LO8(USBFS_1_EP[ep].buffOffset);
 489:.\Generated_Source\PSoC5/USBFS_1_std.c ****             USBFS_1_ARB_EP_BASE.arbEp[ep].rwRaMsb = HI8(USBFS_1_EP[ep].buffOffset);
 490:.\Generated_Source\PSoC5/USBFS_1_std.c ****             USBFS_1_ARB_EP_BASE.arbEp[ep].rwWa    = LO8(USBFS_1_EP[ep].buffOffset);
 491:.\Generated_Source\PSoC5/USBFS_1_std.c ****             USBFS_1_ARB_EP_BASE.arbEp[ep].rwWaMsb = HI8(USBFS_1_EP[ep].buffOffset);
 492:.\Generated_Source\PSoC5/USBFS_1_std.c ****         #endif /* (CY_PSOC4) */
 493:.\Generated_Source\PSoC5/USBFS_1_std.c ****     #endif /* (!USBFS_1_EP_MANAGEMENT_DMA_AUTO) */
 494:.\Generated_Source\PSoC5/USBFS_1_std.c ****     }
 495:.\Generated_Source\PSoC5/USBFS_1_std.c **** 
 496:.\Generated_Source\PSoC5/USBFS_1_std.c **** #if (USBFS_1_EP_MANAGEMENT_DMA_AUTO)
 497:.\Generated_Source\PSoC5/USBFS_1_std.c ****      /* BUF_SIZE depend on DMA_THRESS value:0x55-32 bytes  0x44-16 bytes 0x33-8 bytes 0x22-4 bytes 
 498:.\Generated_Source\PSoC5/USBFS_1_std.c ****     USBFS_1_BUF_SIZE_REG = USBFS_1_DMA_BUF_SIZE;
 105              		.loc 1 498 0 is_stmt 1
 106 0066 5522     		movs	r2, #85
 107 0068 114B     		ldr	r3, .L8+16
 108              	.LVL5:
 109 006a 1A70     		strb	r2, [r3]
 499:.\Generated_Source\PSoC5/USBFS_1_std.c **** 
 500:.\Generated_Source\PSoC5/USBFS_1_std.c ****     /* Configure DMA burst threshold */
 501:.\Generated_Source\PSoC5/USBFS_1_std.c **** #if (CY_PSOC4)
 502:.\Generated_Source\PSoC5/USBFS_1_std.c ****     USBFS_1_DMA_THRES16_REG   = USBFS_1_DMA_BYTES_PER_BURST;
 503:.\Generated_Source\PSoC5/USBFS_1_std.c **** #else
 504:.\Generated_Source\PSoC5/USBFS_1_std.c ****     USBFS_1_DMA_THRES_REG     = USBFS_1_DMA_BYTES_PER_BURST;
 110              		.loc 1 504 0
 111 006c 2022     		movs	r2, #32
 112 006e 3033     		adds	r3, r3, #48
 113 0070 1A70     		strb	r2, [r3]
 505:.\Generated_Source\PSoC5/USBFS_1_std.c ****     USBFS_1_DMA_THRES_MSB_REG = 0u;
 114              		.loc 1 505 0
 115 0072 0022     		movs	r2, #0
 116 0074 0133     		adds	r3, r3, #1
 117 0076 1A70     		strb	r2, [r3]
 506:.\Generated_Source\PSoC5/USBFS_1_std.c **** #endif /* (CY_PSOC4) */
 507:.\Generated_Source\PSoC5/USBFS_1_std.c ****     USBFS_1_EP_ACTIVE_REG = USBFS_1_DEFAULT_ARB_INT_EN;
 118              		.loc 1 507 0
ARM GAS  C:\Users\LUKASC~1\AppData\Local\Temp\ccAgm3t8.s 			page 12


 119 0078 0222     		movs	r2, #2
 120 007a 2F3B     		subs	r3, r3, #47
 121 007c 1A70     		strb	r2, [r3]
 508:.\Generated_Source\PSoC5/USBFS_1_std.c ****     USBFS_1_EP_TYPE_REG   = epType;
 122              		.loc 1 508 0
 123 007e 0133     		adds	r3, r3, #1
 124 0080 1C70     		strb	r4, [r3]
 509:.\Generated_Source\PSoC5/USBFS_1_std.c ****     
 510:.\Generated_Source\PSoC5/USBFS_1_std.c ****     /* Cfg_cmp bit set to 1 once configuration is complete. */
 511:.\Generated_Source\PSoC5/USBFS_1_std.c ****     /* Lock arbiter configtuation */
 512:.\Generated_Source\PSoC5/USBFS_1_std.c ****     USBFS_1_ARB_CFG_REG |= (uint8)  USBFS_1_ARB_CFG_CFG_CMP;
 125              		.loc 1 512 0
 126 0082 0D33     		adds	r3, r3, #13
 127 0084 1A78     		ldrb	r2, [r3]	@ zero_extendqisi2
 128 0086 42F08002 		orr	r2, r2, #128
 129 008a 1A70     		strb	r2, [r3]
 513:.\Generated_Source\PSoC5/USBFS_1_std.c ****     /* Cfg_cmp bit set to 0 during configuration of PFSUSB Registers. */
 514:.\Generated_Source\PSoC5/USBFS_1_std.c ****     USBFS_1_ARB_CFG_REG &= (uint8) ~USBFS_1_ARB_CFG_CFG_CMP;
 130              		.loc 1 514 0
 131 008c 1A78     		ldrb	r2, [r3]	@ zero_extendqisi2
 132 008e 02F07F02 		and	r2, r2, #127
 133 0092 1A70     		strb	r2, [r3]
 515:.\Generated_Source\PSoC5/USBFS_1_std.c **** 
 516:.\Generated_Source\PSoC5/USBFS_1_std.c **** #endif /* (USBFS_1_EP_MANAGEMENT_DMA_AUTO) */
 517:.\Generated_Source\PSoC5/USBFS_1_std.c **** 
 518:.\Generated_Source\PSoC5/USBFS_1_std.c ****     /* Enable interrupt SIE interurpt source from EP0-EP1 */
 519:.\Generated_Source\PSoC5/USBFS_1_std.c ****     USBFS_1_SIE_EP_INT_EN_REG = (uint8) USBFS_1_DEFAULT_SIE_EP_INT_EN;
 134              		.loc 1 519 0
 135 0094 FF22     		movs	r2, #255
 136 0096 923B     		subs	r3, r3, #146
 137 0098 1A70     		strb	r2, [r3]
 520:.\Generated_Source\PSoC5/USBFS_1_std.c **** }
 138              		.loc 1 520 0
 139 009a 70BC     		pop	{r4, r5, r6}
 140              		.cfi_restore 6
 141              		.cfi_restore 5
 142              		.cfi_restore 4
 143              		.cfi_def_cfa_offset 0
 144              	.LVL6:
 145 009c 7047     		bx	lr
 146              	.L9:
 147 009e 00BF     		.align	2
 148              	.L8:
 149 00a0 70600040 		.word	1073766512
 150 00a4 00000000 		.word	USBFS_1_EP
 151 00a8 FE5F0040 		.word	1073766398
 152 00ac FC5F0040 		.word	1073766396
 153 00b0 8C600040 		.word	1073766540
 154              		.cfi_endproc
 155              	.LFE1:
 156              		.size	USBFS_1_ConfigReg, .-USBFS_1_ConfigReg
 157              		.section	.text.USBFS_1_EpStateInit,"ax",%progbits
 158              		.align	2
 159              		.global	USBFS_1_EpStateInit
 160              		.thumb
 161              		.thumb_func
 162              		.type	USBFS_1_EpStateInit, %function
ARM GAS  C:\Users\LUKASC~1\AppData\Local\Temp\ccAgm3t8.s 			page 13


 163              	USBFS_1_EpStateInit:
 164              	.LFB2:
 521:.\Generated_Source\PSoC5/USBFS_1_std.c **** 
 522:.\Generated_Source\PSoC5/USBFS_1_std.c **** 
 523:.\Generated_Source\PSoC5/USBFS_1_std.c **** /*******************************************************************************
 524:.\Generated_Source\PSoC5/USBFS_1_std.c **** * Function Name: USBFS_1_EpStateInit
 525:.\Generated_Source\PSoC5/USBFS_1_std.c **** ****************************************************************************//**
 526:.\Generated_Source\PSoC5/USBFS_1_std.c **** *
 527:.\Generated_Source\PSoC5/USBFS_1_std.c **** *  This routine initialize state of Data end points based of its type: 
 528:.\Generated_Source\PSoC5/USBFS_1_std.c **** *   IN  - USBFS_1_IN_BUFFER_EMPTY (USBFS_1_EVENT_PENDING)
 529:.\Generated_Source\PSoC5/USBFS_1_std.c **** *   OUT - USBFS_1_OUT_BUFFER_EMPTY (USBFS_1_NO_EVENT_PENDING)
 530:.\Generated_Source\PSoC5/USBFS_1_std.c **** *
 531:.\Generated_Source\PSoC5/USBFS_1_std.c **** *******************************************************************************/
 532:.\Generated_Source\PSoC5/USBFS_1_std.c **** void USBFS_1_EpStateInit(void) 
 533:.\Generated_Source\PSoC5/USBFS_1_std.c **** {
 165              		.loc 1 533 0
 166              		.cfi_startproc
 167              		@ args = 0, pretend = 0, frame = 0
 168              		@ frame_needed = 0, uses_anonymous_args = 0
 169              		@ link register save eliminated.
 170              	.LVL7:
 534:.\Generated_Source\PSoC5/USBFS_1_std.c ****     uint8 i;
 535:.\Generated_Source\PSoC5/USBFS_1_std.c **** 
 536:.\Generated_Source\PSoC5/USBFS_1_std.c ****     for (i = USBFS_1_EP1; i < USBFS_1_MAX_EP; i++)
 171              		.loc 1 536 0
 172 0000 0123     		movs	r3, #1
 173 0002 18E0     		b	.L11
 174              	.LVL8:
 175              	.L14:
 537:.\Generated_Source\PSoC5/USBFS_1_std.c ****     { 
 538:.\Generated_Source\PSoC5/USBFS_1_std.c ****         if (0u != (USBFS_1_EP[i].addr & USBFS_1_DIR_IN))
 176              		.loc 1 538 0
 177 0004 03EB4302 		add	r2, r3, r3, lsl #1
 178 0008 9200     		lsls	r2, r2, #2
 179 000a 0C49     		ldr	r1, .L15
 180 000c 0A44     		add	r2, r2, r1
 181 000e 1279     		ldrb	r2, [r2, #4]	@ zero_extendqisi2
 182 0010 12F0800F 		tst	r2, #128
 183 0014 06D0     		beq	.L12
 539:.\Generated_Source\PSoC5/USBFS_1_std.c ****         {
 540:.\Generated_Source\PSoC5/USBFS_1_std.c ****             /* IN Endpoint */
 541:.\Generated_Source\PSoC5/USBFS_1_std.c ****             USBFS_1_EP[i].apiEpState = USBFS_1_EVENT_PENDING;
 184              		.loc 1 541 0
 185 0016 03EB4302 		add	r2, r3, r3, lsl #1
 186 001a 9200     		lsls	r2, r2, #2
 187 001c 0A44     		add	r2, r2, r1
 188 001e 0121     		movs	r1, #1
 189 0020 5170     		strb	r1, [r2, #1]
 190 0022 06E0     		b	.L13
 191              	.L12:
 542:.\Generated_Source\PSoC5/USBFS_1_std.c ****         }
 543:.\Generated_Source\PSoC5/USBFS_1_std.c ****         else
 544:.\Generated_Source\PSoC5/USBFS_1_std.c ****         {
 545:.\Generated_Source\PSoC5/USBFS_1_std.c ****             /* OUT Endpoint */
 546:.\Generated_Source\PSoC5/USBFS_1_std.c ****             USBFS_1_EP[i].apiEpState = USBFS_1_NO_EVENT_PENDING;
 192              		.loc 1 546 0
 193 0024 03EB4302 		add	r2, r3, r3, lsl #1
ARM GAS  C:\Users\LUKASC~1\AppData\Local\Temp\ccAgm3t8.s 			page 14


 194 0028 9200     		lsls	r2, r2, #2
 195 002a 0449     		ldr	r1, .L15
 196 002c 0A44     		add	r2, r2, r1
 197 002e 0021     		movs	r1, #0
 198 0030 5170     		strb	r1, [r2, #1]
 199              	.L13:
 536:.\Generated_Source\PSoC5/USBFS_1_std.c ****     { 
 200              		.loc 1 536 0 discriminator 2
 201 0032 0133     		adds	r3, r3, #1
 202              	.LVL9:
 203 0034 DBB2     		uxtb	r3, r3
 204              	.LVL10:
 205              	.L11:
 536:.\Generated_Source\PSoC5/USBFS_1_std.c ****     { 
 206              		.loc 1 536 0 is_stmt 0 discriminator 1
 207 0036 082B     		cmp	r3, #8
 208 0038 E4D9     		bls	.L14
 547:.\Generated_Source\PSoC5/USBFS_1_std.c ****         }
 548:.\Generated_Source\PSoC5/USBFS_1_std.c ****     }
 549:.\Generated_Source\PSoC5/USBFS_1_std.c ****                     
 550:.\Generated_Source\PSoC5/USBFS_1_std.c **** }
 209              		.loc 1 550 0 is_stmt 1
 210 003a 7047     		bx	lr
 211              	.L16:
 212              		.align	2
 213              	.L15:
 214 003c 00000000 		.word	USBFS_1_EP
 215              		.cfi_endproc
 216              	.LFE2:
 217              		.size	USBFS_1_EpStateInit, .-USBFS_1_EpStateInit
 218              		.section	.text.USBFS_1_GetConfigTablePtr,"ax",%progbits
 219              		.align	2
 220              		.global	USBFS_1_GetConfigTablePtr
 221              		.thumb
 222              		.thumb_func
 223              		.type	USBFS_1_GetConfigTablePtr, %function
 224              	USBFS_1_GetConfigTablePtr:
 225              	.LFB5:
 551:.\Generated_Source\PSoC5/USBFS_1_std.c **** 
 552:.\Generated_Source\PSoC5/USBFS_1_std.c **** 
 553:.\Generated_Source\PSoC5/USBFS_1_std.c **** /*******************************************************************************
 554:.\Generated_Source\PSoC5/USBFS_1_std.c **** * Function Name: USBFS_1_Config
 555:.\Generated_Source\PSoC5/USBFS_1_std.c **** ****************************************************************************//**
 556:.\Generated_Source\PSoC5/USBFS_1_std.c **** *
 557:.\Generated_Source\PSoC5/USBFS_1_std.c **** *  This routine configures endpoints for the entire configuration by scanning
 558:.\Generated_Source\PSoC5/USBFS_1_std.c **** *  the configuration descriptor.
 559:.\Generated_Source\PSoC5/USBFS_1_std.c **** *
 560:.\Generated_Source\PSoC5/USBFS_1_std.c **** *  \param clearAltSetting: It configures the bAlternateSetting 0 for each interface.
 561:.\Generated_Source\PSoC5/USBFS_1_std.c **** *
 562:.\Generated_Source\PSoC5/USBFS_1_std.c **** * USBFS_1_interfaceClass - Initialized class array for each interface.
 563:.\Generated_Source\PSoC5/USBFS_1_std.c **** *   It is used for handling Class specific requests depend on interface class.
 564:.\Generated_Source\PSoC5/USBFS_1_std.c **** *   Different classes in multiple Alternate settings does not supported.
 565:.\Generated_Source\PSoC5/USBFS_1_std.c **** *
 566:.\Generated_Source\PSoC5/USBFS_1_std.c **** * \reentrant
 567:.\Generated_Source\PSoC5/USBFS_1_std.c **** *  No.
 568:.\Generated_Source\PSoC5/USBFS_1_std.c **** *
 569:.\Generated_Source\PSoC5/USBFS_1_std.c **** *******************************************************************************/
ARM GAS  C:\Users\LUKASC~1\AppData\Local\Temp\ccAgm3t8.s 			page 15


 570:.\Generated_Source\PSoC5/USBFS_1_std.c **** void USBFS_1_Config(uint8 clearAltSetting) 
 571:.\Generated_Source\PSoC5/USBFS_1_std.c **** {
 572:.\Generated_Source\PSoC5/USBFS_1_std.c ****     uint8 ep;
 573:.\Generated_Source\PSoC5/USBFS_1_std.c ****     uint8 curEp;
 574:.\Generated_Source\PSoC5/USBFS_1_std.c ****     uint8 i;
 575:.\Generated_Source\PSoC5/USBFS_1_std.c ****     uint8 epType;
 576:.\Generated_Source\PSoC5/USBFS_1_std.c ****     const uint8 *pDescr;
 577:.\Generated_Source\PSoC5/USBFS_1_std.c ****     
 578:.\Generated_Source\PSoC5/USBFS_1_std.c ****     #if (!USBFS_1_EP_MANAGEMENT_DMA_AUTO)
 579:.\Generated_Source\PSoC5/USBFS_1_std.c ****         uint16 buffCount = 0u;
 580:.\Generated_Source\PSoC5/USBFS_1_std.c ****     #endif /* (!USBFS_1_EP_MANAGEMENT_DMA_AUTO) */
 581:.\Generated_Source\PSoC5/USBFS_1_std.c **** 
 582:.\Generated_Source\PSoC5/USBFS_1_std.c ****     const T_USBFS_1_LUT CYCODE *pTmp;
 583:.\Generated_Source\PSoC5/USBFS_1_std.c ****     const T_USBFS_1_EP_SETTINGS_BLOCK CYCODE *pEP;
 584:.\Generated_Source\PSoC5/USBFS_1_std.c **** 
 585:.\Generated_Source\PSoC5/USBFS_1_std.c ****     /* Clear endpoints settings */
 586:.\Generated_Source\PSoC5/USBFS_1_std.c ****     for (ep = 0u; ep < USBFS_1_MAX_EP; ++ep)
 587:.\Generated_Source\PSoC5/USBFS_1_std.c ****     {
 588:.\Generated_Source\PSoC5/USBFS_1_std.c ****         USBFS_1_EP[ep].attrib     = 0u;
 589:.\Generated_Source\PSoC5/USBFS_1_std.c ****         USBFS_1_EP[ep].hwEpState  = 0u;
 590:.\Generated_Source\PSoC5/USBFS_1_std.c ****         USBFS_1_EP[ep].epToggle   = 0u;
 591:.\Generated_Source\PSoC5/USBFS_1_std.c ****         USBFS_1_EP[ep].bufferSize = 0u;
 592:.\Generated_Source\PSoC5/USBFS_1_std.c ****         USBFS_1_EP[ep].interface  = 0u;
 593:.\Generated_Source\PSoC5/USBFS_1_std.c ****         USBFS_1_EP[ep].apiEpState = USBFS_1_NO_EVENT_PENDING;
 594:.\Generated_Source\PSoC5/USBFS_1_std.c ****         USBFS_1_EP[ep].epMode     = USBFS_1_MODE_DISABLE;   
 595:.\Generated_Source\PSoC5/USBFS_1_std.c ****     }
 596:.\Generated_Source\PSoC5/USBFS_1_std.c **** 
 597:.\Generated_Source\PSoC5/USBFS_1_std.c ****     /* Clear Alternate settings for all interfaces. */
 598:.\Generated_Source\PSoC5/USBFS_1_std.c ****     if (0u != clearAltSetting)
 599:.\Generated_Source\PSoC5/USBFS_1_std.c ****     {
 600:.\Generated_Source\PSoC5/USBFS_1_std.c ****         for (i = 0u; i < USBFS_1_MAX_INTERFACES_NUMBER; ++i)
 601:.\Generated_Source\PSoC5/USBFS_1_std.c ****         {
 602:.\Generated_Source\PSoC5/USBFS_1_std.c ****             USBFS_1_interfaceSetting[i]     = 0u;
 603:.\Generated_Source\PSoC5/USBFS_1_std.c ****             USBFS_1_interfaceSettingLast[i] = 0u;
 604:.\Generated_Source\PSoC5/USBFS_1_std.c ****         }
 605:.\Generated_Source\PSoC5/USBFS_1_std.c ****     }
 606:.\Generated_Source\PSoC5/USBFS_1_std.c **** 
 607:.\Generated_Source\PSoC5/USBFS_1_std.c ****     /* Init Endpoints and Device Status if configured */
 608:.\Generated_Source\PSoC5/USBFS_1_std.c ****     if (USBFS_1_configuration > 0u)
 609:.\Generated_Source\PSoC5/USBFS_1_std.c ****     {
 610:.\Generated_Source\PSoC5/USBFS_1_std.c ****         #if defined(USBFS_1_ENABLE_CDC_CLASS)
 611:.\Generated_Source\PSoC5/USBFS_1_std.c ****             uint8 cdcComNums = 0u;
 612:.\Generated_Source\PSoC5/USBFS_1_std.c ****         #endif  /* (USBFS_1_ENABLE_CDC_CLASS) */  
 613:.\Generated_Source\PSoC5/USBFS_1_std.c **** 
 614:.\Generated_Source\PSoC5/USBFS_1_std.c ****         pTmp = USBFS_1_GetConfigTablePtr(USBFS_1_configuration - 1u);
 615:.\Generated_Source\PSoC5/USBFS_1_std.c ****         
 616:.\Generated_Source\PSoC5/USBFS_1_std.c ****         /* Set Power status for current configuration */
 617:.\Generated_Source\PSoC5/USBFS_1_std.c ****         pDescr = (const uint8 *)pTmp->p_list;
 618:.\Generated_Source\PSoC5/USBFS_1_std.c ****         if ((pDescr[USBFS_1_CONFIG_DESCR_ATTRIB] & USBFS_1_CONFIG_DESCR_ATTRIB_SELF_POWERED) != 0u)
 619:.\Generated_Source\PSoC5/USBFS_1_std.c ****         {
 620:.\Generated_Source\PSoC5/USBFS_1_std.c ****             USBFS_1_deviceStatus |= (uint8)  USBFS_1_DEVICE_STATUS_SELF_POWERED;
 621:.\Generated_Source\PSoC5/USBFS_1_std.c ****         }
 622:.\Generated_Source\PSoC5/USBFS_1_std.c ****         else
 623:.\Generated_Source\PSoC5/USBFS_1_std.c ****         {
 624:.\Generated_Source\PSoC5/USBFS_1_std.c ****             USBFS_1_deviceStatus &= (uint8) ~USBFS_1_DEVICE_STATUS_SELF_POWERED;
 625:.\Generated_Source\PSoC5/USBFS_1_std.c ****         }
 626:.\Generated_Source\PSoC5/USBFS_1_std.c ****         
ARM GAS  C:\Users\LUKASC~1\AppData\Local\Temp\ccAgm3t8.s 			page 16


 627:.\Generated_Source\PSoC5/USBFS_1_std.c ****         /* Move to next element */
 628:.\Generated_Source\PSoC5/USBFS_1_std.c ****         pTmp = &pTmp[1u];
 629:.\Generated_Source\PSoC5/USBFS_1_std.c ****         ep = pTmp->c;  /* For this table, c is the number of endpoints configurations  */
 630:.\Generated_Source\PSoC5/USBFS_1_std.c **** 
 631:.\Generated_Source\PSoC5/USBFS_1_std.c ****         #if (USBFS_1_EP_MANAGEMENT_MANUAL && USBFS_1_EP_ALLOC_DYNAMIC)
 632:.\Generated_Source\PSoC5/USBFS_1_std.c ****             /* Configure for dynamic EP memory allocation */
 633:.\Generated_Source\PSoC5/USBFS_1_std.c ****             /* p_list points the endpoint setting table. */
 634:.\Generated_Source\PSoC5/USBFS_1_std.c ****             pEP = (T_USBFS_1_EP_SETTINGS_BLOCK *) pTmp->p_list;
 635:.\Generated_Source\PSoC5/USBFS_1_std.c ****             
 636:.\Generated_Source\PSoC5/USBFS_1_std.c ****             for (i = 0u; i < ep; i++)
 637:.\Generated_Source\PSoC5/USBFS_1_std.c ****             {     
 638:.\Generated_Source\PSoC5/USBFS_1_std.c ****                 /* Compare current Alternate setting with EP Alt */
 639:.\Generated_Source\PSoC5/USBFS_1_std.c ****                 if (USBFS_1_interfaceSetting[pEP->interface] == pEP->altSetting)
 640:.\Generated_Source\PSoC5/USBFS_1_std.c ****                 {                                                          
 641:.\Generated_Source\PSoC5/USBFS_1_std.c ****                     curEp  = pEP->addr & USBFS_1_DIR_UNUSED;
 642:.\Generated_Source\PSoC5/USBFS_1_std.c ****                     epType = pEP->attributes & USBFS_1_EP_TYPE_MASK;
 643:.\Generated_Source\PSoC5/USBFS_1_std.c ****                     
 644:.\Generated_Source\PSoC5/USBFS_1_std.c ****                     USBFS_1_EP[curEp].addr       = pEP->addr;
 645:.\Generated_Source\PSoC5/USBFS_1_std.c ****                     USBFS_1_EP[curEp].attrib     = pEP->attributes;
 646:.\Generated_Source\PSoC5/USBFS_1_std.c ****                     USBFS_1_EP[curEp].bufferSize = pEP->bufferSize;
 647:.\Generated_Source\PSoC5/USBFS_1_std.c **** 
 648:.\Generated_Source\PSoC5/USBFS_1_std.c ****                     if (0u != (pEP->addr & USBFS_1_DIR_IN))
 649:.\Generated_Source\PSoC5/USBFS_1_std.c ****                     {
 650:.\Generated_Source\PSoC5/USBFS_1_std.c ****                         /* IN Endpoint */
 651:.\Generated_Source\PSoC5/USBFS_1_std.c ****                         USBFS_1_EP[curEp].epMode     = USBFS_1_GET_ACTIVE_IN_EP_CR0_MODE(epType);
 652:.\Generated_Source\PSoC5/USBFS_1_std.c ****                         USBFS_1_EP[curEp].apiEpState = USBFS_1_EVENT_PENDING;
 653:.\Generated_Source\PSoC5/USBFS_1_std.c ****                     
 654:.\Generated_Source\PSoC5/USBFS_1_std.c ****                     #if (defined(USBFS_1_ENABLE_MIDI_STREAMING) && (USBFS_1_MIDI_IN_BUFF_SIZE > 0))
 655:.\Generated_Source\PSoC5/USBFS_1_std.c ****                         if ((pEP->bMisc == USBFS_1_CLASS_AUDIO) && (epType == USBFS_1_EP_TYPE_BULK)
 656:.\Generated_Source\PSoC5/USBFS_1_std.c ****                         {
 657:.\Generated_Source\PSoC5/USBFS_1_std.c ****                             USBFS_1_midi_in_ep = curEp;
 658:.\Generated_Source\PSoC5/USBFS_1_std.c ****                         }
 659:.\Generated_Source\PSoC5/USBFS_1_std.c ****                     #endif  /* (USBFS_1_ENABLE_MIDI_STREAMING) */
 660:.\Generated_Source\PSoC5/USBFS_1_std.c ****                     }
 661:.\Generated_Source\PSoC5/USBFS_1_std.c ****                     else
 662:.\Generated_Source\PSoC5/USBFS_1_std.c ****                     {
 663:.\Generated_Source\PSoC5/USBFS_1_std.c ****                         /* OUT Endpoint */
 664:.\Generated_Source\PSoC5/USBFS_1_std.c ****                         USBFS_1_EP[curEp].epMode     = USBFS_1_GET_ACTIVE_OUT_EP_CR0_MODE(epType);
 665:.\Generated_Source\PSoC5/USBFS_1_std.c ****                         USBFS_1_EP[curEp].apiEpState = USBFS_1_NO_EVENT_PENDING;
 666:.\Generated_Source\PSoC5/USBFS_1_std.c ****                         
 667:.\Generated_Source\PSoC5/USBFS_1_std.c ****                     #if (defined(USBFS_1_ENABLE_MIDI_STREAMING) && (USBFS_1_MIDI_OUT_BUFF_SIZE > 0)
 668:.\Generated_Source\PSoC5/USBFS_1_std.c ****                         if ((pEP->bMisc == USBFS_1_CLASS_AUDIO) && (epType == USBFS_1_EP_TYPE_BULK)
 669:.\Generated_Source\PSoC5/USBFS_1_std.c ****                         {
 670:.\Generated_Source\PSoC5/USBFS_1_std.c ****                             USBFS_1_midi_out_ep = curEp;
 671:.\Generated_Source\PSoC5/USBFS_1_std.c ****                         }
 672:.\Generated_Source\PSoC5/USBFS_1_std.c ****                     #endif  /* (USBFS_1_ENABLE_MIDI_STREAMING) */
 673:.\Generated_Source\PSoC5/USBFS_1_std.c ****                     }
 674:.\Generated_Source\PSoC5/USBFS_1_std.c **** 
 675:.\Generated_Source\PSoC5/USBFS_1_std.c ****                 #if(defined (USBFS_1_ENABLE_CDC_CLASS))
 676:.\Generated_Source\PSoC5/USBFS_1_std.c ****                     if((pEP->bMisc == USBFS_1_CLASS_CDC_DATA) ||(pEP->bMisc == USBFS_1_CLASS_CDC))
 677:.\Generated_Source\PSoC5/USBFS_1_std.c ****                     {
 678:.\Generated_Source\PSoC5/USBFS_1_std.c ****                         cdcComNums = USBFS_1_Cdc_EpInit(pEP, curEp, cdcComNums);
 679:.\Generated_Source\PSoC5/USBFS_1_std.c ****                     }
 680:.\Generated_Source\PSoC5/USBFS_1_std.c ****                 #endif  /* (USBFS_1_ENABLE_CDC_CLASS) */
 681:.\Generated_Source\PSoC5/USBFS_1_std.c ****                 }
 682:.\Generated_Source\PSoC5/USBFS_1_std.c ****                 
 683:.\Generated_Source\PSoC5/USBFS_1_std.c ****                 pEP = &pEP[1u];
ARM GAS  C:\Users\LUKASC~1\AppData\Local\Temp\ccAgm3t8.s 			page 17


 684:.\Generated_Source\PSoC5/USBFS_1_std.c ****             }
 685:.\Generated_Source\PSoC5/USBFS_1_std.c ****             
 686:.\Generated_Source\PSoC5/USBFS_1_std.c ****         #else
 687:.\Generated_Source\PSoC5/USBFS_1_std.c ****             for (i = USBFS_1_EP1; i < USBFS_1_MAX_EP; ++i)
 688:.\Generated_Source\PSoC5/USBFS_1_std.c ****             {
 689:.\Generated_Source\PSoC5/USBFS_1_std.c ****                 /* p_list points the endpoint setting table. */
 690:.\Generated_Source\PSoC5/USBFS_1_std.c ****                 pEP = (const T_USBFS_1_EP_SETTINGS_BLOCK CYCODE *) pTmp->p_list;
 691:.\Generated_Source\PSoC5/USBFS_1_std.c ****                 /* Find max length for each EP and select it (length could be different in differen
 692:.\Generated_Source\PSoC5/USBFS_1_std.c ****                 /* but other settings should be correct with regards to Interface alt Setting */
 693:.\Generated_Source\PSoC5/USBFS_1_std.c ****                 
 694:.\Generated_Source\PSoC5/USBFS_1_std.c ****                 for (curEp = 0u; curEp < ep; ++curEp)
 695:.\Generated_Source\PSoC5/USBFS_1_std.c ****                 {
 696:.\Generated_Source\PSoC5/USBFS_1_std.c ****                     if (i == (pEP->addr & USBFS_1_DIR_UNUSED))
 697:.\Generated_Source\PSoC5/USBFS_1_std.c ****                     {
 698:.\Generated_Source\PSoC5/USBFS_1_std.c ****                         /* Compare endpoint buffers size with current size to find greater. */
 699:.\Generated_Source\PSoC5/USBFS_1_std.c ****                         if (USBFS_1_EP[i].bufferSize < pEP->bufferSize)
 700:.\Generated_Source\PSoC5/USBFS_1_std.c ****                         {
 701:.\Generated_Source\PSoC5/USBFS_1_std.c ****                             USBFS_1_EP[i].bufferSize = pEP->bufferSize;
 702:.\Generated_Source\PSoC5/USBFS_1_std.c ****                         }
 703:.\Generated_Source\PSoC5/USBFS_1_std.c ****                         
 704:.\Generated_Source\PSoC5/USBFS_1_std.c ****                         /* Compare current Alternate setting with EP Alt */
 705:.\Generated_Source\PSoC5/USBFS_1_std.c ****                         if (USBFS_1_interfaceSetting[pEP->interface] == pEP->altSetting)
 706:.\Generated_Source\PSoC5/USBFS_1_std.c ****                         {                            
 707:.\Generated_Source\PSoC5/USBFS_1_std.c ****                             USBFS_1_EP[i].addr = pEP->addr;
 708:.\Generated_Source\PSoC5/USBFS_1_std.c ****                             USBFS_1_EP[i].attrib = pEP->attributes;
 709:.\Generated_Source\PSoC5/USBFS_1_std.c ****                             
 710:.\Generated_Source\PSoC5/USBFS_1_std.c ****                             epType = pEP->attributes & USBFS_1_EP_TYPE_MASK;
 711:.\Generated_Source\PSoC5/USBFS_1_std.c ****                             
 712:.\Generated_Source\PSoC5/USBFS_1_std.c ****                             if (0u != (pEP->addr & USBFS_1_DIR_IN))
 713:.\Generated_Source\PSoC5/USBFS_1_std.c ****                             {
 714:.\Generated_Source\PSoC5/USBFS_1_std.c ****                                 /* IN Endpoint */
 715:.\Generated_Source\PSoC5/USBFS_1_std.c ****                                 USBFS_1_EP[i].epMode     = USBFS_1_GET_ACTIVE_IN_EP_CR0_MODE(epType
 716:.\Generated_Source\PSoC5/USBFS_1_std.c ****                                 USBFS_1_EP[i].apiEpState = USBFS_1_EVENT_PENDING;
 717:.\Generated_Source\PSoC5/USBFS_1_std.c ****                                 
 718:.\Generated_Source\PSoC5/USBFS_1_std.c ****                             #if (defined(USBFS_1_ENABLE_MIDI_STREAMING) && (USBFS_1_MIDI_IN_BUFF_SI
 719:.\Generated_Source\PSoC5/USBFS_1_std.c ****                                 if ((pEP->bMisc == USBFS_1_CLASS_AUDIO) && (epType == USBFS_1_EP_TY
 720:.\Generated_Source\PSoC5/USBFS_1_std.c ****                                 {
 721:.\Generated_Source\PSoC5/USBFS_1_std.c ****                                     USBFS_1_midi_in_ep = i;
 722:.\Generated_Source\PSoC5/USBFS_1_std.c ****                                 }
 723:.\Generated_Source\PSoC5/USBFS_1_std.c ****                             #endif  /* (USBFS_1_ENABLE_MIDI_STREAMING) */
 724:.\Generated_Source\PSoC5/USBFS_1_std.c ****                             }
 725:.\Generated_Source\PSoC5/USBFS_1_std.c ****                             else
 726:.\Generated_Source\PSoC5/USBFS_1_std.c ****                             {
 727:.\Generated_Source\PSoC5/USBFS_1_std.c ****                                 /* OUT Endpoint */
 728:.\Generated_Source\PSoC5/USBFS_1_std.c ****                                 USBFS_1_EP[i].epMode     = USBFS_1_GET_ACTIVE_OUT_EP_CR0_MODE(epTyp
 729:.\Generated_Source\PSoC5/USBFS_1_std.c ****                                 USBFS_1_EP[i].apiEpState = USBFS_1_NO_EVENT_PENDING;
 730:.\Generated_Source\PSoC5/USBFS_1_std.c ****                                 
 731:.\Generated_Source\PSoC5/USBFS_1_std.c ****                             #if (defined(USBFS_1_ENABLE_MIDI_STREAMING) && (USBFS_1_MIDI_OUT_BUFF_S
 732:.\Generated_Source\PSoC5/USBFS_1_std.c ****                                 if ((pEP->bMisc == USBFS_1_CLASS_AUDIO) && (epType == USBFS_1_EP_TY
 733:.\Generated_Source\PSoC5/USBFS_1_std.c ****                                 {
 734:.\Generated_Source\PSoC5/USBFS_1_std.c ****                                     USBFS_1_midi_out_ep = i;
 735:.\Generated_Source\PSoC5/USBFS_1_std.c ****                                 }
 736:.\Generated_Source\PSoC5/USBFS_1_std.c ****                             #endif  /* (USBFS_1_ENABLE_MIDI_STREAMING) */
 737:.\Generated_Source\PSoC5/USBFS_1_std.c ****                             }
 738:.\Generated_Source\PSoC5/USBFS_1_std.c **** 
 739:.\Generated_Source\PSoC5/USBFS_1_std.c ****                         #if (defined(USBFS_1_ENABLE_CDC_CLASS))
 740:.\Generated_Source\PSoC5/USBFS_1_std.c ****                             if((pEP->bMisc == USBFS_1_CLASS_CDC_DATA) ||(pEP->bMisc == USBFS_1_CLAS
ARM GAS  C:\Users\LUKASC~1\AppData\Local\Temp\ccAgm3t8.s 			page 18


 741:.\Generated_Source\PSoC5/USBFS_1_std.c ****                             {
 742:.\Generated_Source\PSoC5/USBFS_1_std.c ****                                 cdcComNums = USBFS_1_Cdc_EpInit(pEP, i, cdcComNums);
 743:.\Generated_Source\PSoC5/USBFS_1_std.c ****                             }
 744:.\Generated_Source\PSoC5/USBFS_1_std.c ****                         #endif  /* (USBFS_1_ENABLE_CDC_CLASS) */
 745:.\Generated_Source\PSoC5/USBFS_1_std.c **** 
 746:.\Generated_Source\PSoC5/USBFS_1_std.c ****                             #if (USBFS_1_EP_MANAGEMENT_DMA_AUTO)
 747:.\Generated_Source\PSoC5/USBFS_1_std.c ****                                 break;  /* Use first EP setting in Auto memory management */
 748:.\Generated_Source\PSoC5/USBFS_1_std.c ****                             #endif /* (USBFS_1_EP_MANAGEMENT_DMA_AUTO) */
 749:.\Generated_Source\PSoC5/USBFS_1_std.c ****                         }
 750:.\Generated_Source\PSoC5/USBFS_1_std.c ****                     }
 751:.\Generated_Source\PSoC5/USBFS_1_std.c ****                     
 752:.\Generated_Source\PSoC5/USBFS_1_std.c ****                     pEP = &pEP[1u];
 753:.\Generated_Source\PSoC5/USBFS_1_std.c ****                 }
 754:.\Generated_Source\PSoC5/USBFS_1_std.c ****             }
 755:.\Generated_Source\PSoC5/USBFS_1_std.c ****         #endif /*  (USBFS_1_EP_MANAGEMENT_MANUAL && USBFS_1_EP_ALLOC_DYNAMIC) */
 756:.\Generated_Source\PSoC5/USBFS_1_std.c **** 
 757:.\Generated_Source\PSoC5/USBFS_1_std.c ****         /* Init class array for each interface and interface number for each EP.
 758:.\Generated_Source\PSoC5/USBFS_1_std.c ****         *  It is used for handling Class specific requests directed to either an
 759:.\Generated_Source\PSoC5/USBFS_1_std.c ****         *  interface or the endpoint.
 760:.\Generated_Source\PSoC5/USBFS_1_std.c ****         */
 761:.\Generated_Source\PSoC5/USBFS_1_std.c ****         /* p_list points the endpoint setting table. */
 762:.\Generated_Source\PSoC5/USBFS_1_std.c ****         pEP = (const T_USBFS_1_EP_SETTINGS_BLOCK CYCODE *) pTmp->p_list;
 763:.\Generated_Source\PSoC5/USBFS_1_std.c ****         for (i = 0u; i < ep; i++)
 764:.\Generated_Source\PSoC5/USBFS_1_std.c ****         {
 765:.\Generated_Source\PSoC5/USBFS_1_std.c ****             /* Configure interface number for each EP */
 766:.\Generated_Source\PSoC5/USBFS_1_std.c ****             USBFS_1_EP[pEP->addr & USBFS_1_DIR_UNUSED].interface = pEP->interface;
 767:.\Generated_Source\PSoC5/USBFS_1_std.c ****             pEP = &pEP[1u];
 768:.\Generated_Source\PSoC5/USBFS_1_std.c ****         }
 769:.\Generated_Source\PSoC5/USBFS_1_std.c ****         
 770:.\Generated_Source\PSoC5/USBFS_1_std.c ****         /* Init pointer on interface class table */
 771:.\Generated_Source\PSoC5/USBFS_1_std.c ****         USBFS_1_interfaceClass = USBFS_1_GetInterfaceClassTablePtr();
 772:.\Generated_Source\PSoC5/USBFS_1_std.c ****         
 773:.\Generated_Source\PSoC5/USBFS_1_std.c ****     /* Set the endpoint buffer addresses */
 774:.\Generated_Source\PSoC5/USBFS_1_std.c ****     #if (!USBFS_1_EP_MANAGEMENT_DMA_AUTO)
 775:.\Generated_Source\PSoC5/USBFS_1_std.c ****         buffCount = 0u;
 776:.\Generated_Source\PSoC5/USBFS_1_std.c ****         for (ep = USBFS_1_EP1; ep < USBFS_1_MAX_EP; ++ep)
 777:.\Generated_Source\PSoC5/USBFS_1_std.c ****         {
 778:.\Generated_Source\PSoC5/USBFS_1_std.c ****             USBFS_1_EP[ep].buffOffset = buffCount;        
 779:.\Generated_Source\PSoC5/USBFS_1_std.c ****             buffCount += USBFS_1_EP[ep].bufferSize;
 780:.\Generated_Source\PSoC5/USBFS_1_std.c ****             
 781:.\Generated_Source\PSoC5/USBFS_1_std.c ****         #if (USBFS_1_GEN_16BITS_EP_ACCESS)
 782:.\Generated_Source\PSoC5/USBFS_1_std.c ****             /* Align EP buffers to be event size to access 16-bits DR register. */
 783:.\Generated_Source\PSoC5/USBFS_1_std.c ****             buffCount += (0u != (buffCount & 0x01u)) ? 1u : 0u;
 784:.\Generated_Source\PSoC5/USBFS_1_std.c ****         #endif /* (USBFS_1_GEN_16BITS_EP_ACCESS) */            
 785:.\Generated_Source\PSoC5/USBFS_1_std.c ****         }
 786:.\Generated_Source\PSoC5/USBFS_1_std.c ****     #endif /* (!USBFS_1_EP_MANAGEMENT_DMA_AUTO) */
 787:.\Generated_Source\PSoC5/USBFS_1_std.c **** 
 788:.\Generated_Source\PSoC5/USBFS_1_std.c ****         /* Configure hardware registers */
 789:.\Generated_Source\PSoC5/USBFS_1_std.c ****         USBFS_1_ConfigReg();
 790:.\Generated_Source\PSoC5/USBFS_1_std.c ****     }
 791:.\Generated_Source\PSoC5/USBFS_1_std.c **** }
 792:.\Generated_Source\PSoC5/USBFS_1_std.c **** 
 793:.\Generated_Source\PSoC5/USBFS_1_std.c **** 
 794:.\Generated_Source\PSoC5/USBFS_1_std.c **** /*******************************************************************************
 795:.\Generated_Source\PSoC5/USBFS_1_std.c **** * Function Name: USBFS_1_ConfigAltChanged
 796:.\Generated_Source\PSoC5/USBFS_1_std.c **** ****************************************************************************//**
 797:.\Generated_Source\PSoC5/USBFS_1_std.c **** *
ARM GAS  C:\Users\LUKASC~1\AppData\Local\Temp\ccAgm3t8.s 			page 19


 798:.\Generated_Source\PSoC5/USBFS_1_std.c **** *  This routine update configuration for the required endpoints only.
 799:.\Generated_Source\PSoC5/USBFS_1_std.c **** *  It is called after SET_INTERFACE request when Static memory allocation used.
 800:.\Generated_Source\PSoC5/USBFS_1_std.c **** *
 801:.\Generated_Source\PSoC5/USBFS_1_std.c **** * \reentrant
 802:.\Generated_Source\PSoC5/USBFS_1_std.c **** *  No.
 803:.\Generated_Source\PSoC5/USBFS_1_std.c **** *
 804:.\Generated_Source\PSoC5/USBFS_1_std.c **** *******************************************************************************/
 805:.\Generated_Source\PSoC5/USBFS_1_std.c **** void USBFS_1_ConfigAltChanged(void) 
 806:.\Generated_Source\PSoC5/USBFS_1_std.c **** {
 807:.\Generated_Source\PSoC5/USBFS_1_std.c ****     uint8 ep;
 808:.\Generated_Source\PSoC5/USBFS_1_std.c ****     uint8 curEp;
 809:.\Generated_Source\PSoC5/USBFS_1_std.c ****     uint8 epType;
 810:.\Generated_Source\PSoC5/USBFS_1_std.c ****     uint8 i;
 811:.\Generated_Source\PSoC5/USBFS_1_std.c ****     uint8 interfaceNum;
 812:.\Generated_Source\PSoC5/USBFS_1_std.c **** 
 813:.\Generated_Source\PSoC5/USBFS_1_std.c ****     const T_USBFS_1_LUT CYCODE *pTmp;
 814:.\Generated_Source\PSoC5/USBFS_1_std.c ****     const T_USBFS_1_EP_SETTINGS_BLOCK CYCODE *pEP;
 815:.\Generated_Source\PSoC5/USBFS_1_std.c **** 
 816:.\Generated_Source\PSoC5/USBFS_1_std.c ****     /* Init Endpoints and Device Status if configured */
 817:.\Generated_Source\PSoC5/USBFS_1_std.c ****     if (USBFS_1_configuration > 0u)
 818:.\Generated_Source\PSoC5/USBFS_1_std.c ****     {
 819:.\Generated_Source\PSoC5/USBFS_1_std.c ****         /* Get number of endpoints configurations (ep). */
 820:.\Generated_Source\PSoC5/USBFS_1_std.c ****         pTmp = USBFS_1_GetConfigTablePtr(USBFS_1_configuration - 1u);
 821:.\Generated_Source\PSoC5/USBFS_1_std.c ****         pTmp = &pTmp[1u];
 822:.\Generated_Source\PSoC5/USBFS_1_std.c ****         ep = pTmp->c;
 823:.\Generated_Source\PSoC5/USBFS_1_std.c **** 
 824:.\Generated_Source\PSoC5/USBFS_1_std.c ****         /* Get pointer to endpoints setting table (pEP). */
 825:.\Generated_Source\PSoC5/USBFS_1_std.c ****         pEP = (const T_USBFS_1_EP_SETTINGS_BLOCK CYCODE *) pTmp->p_list;
 826:.\Generated_Source\PSoC5/USBFS_1_std.c ****         
 827:.\Generated_Source\PSoC5/USBFS_1_std.c ****         /* Look through all possible endpoint configurations. Find endpoints 
 828:.\Generated_Source\PSoC5/USBFS_1_std.c ****         * which belong to current interface and alternate settings for 
 829:.\Generated_Source\PSoC5/USBFS_1_std.c ****         * re-configuration.
 830:.\Generated_Source\PSoC5/USBFS_1_std.c ****         */
 831:.\Generated_Source\PSoC5/USBFS_1_std.c ****         interfaceNum = USBFS_1_interfaceNumber;
 832:.\Generated_Source\PSoC5/USBFS_1_std.c ****         for (i = 0u; i < ep; i++)
 833:.\Generated_Source\PSoC5/USBFS_1_std.c ****         {
 834:.\Generated_Source\PSoC5/USBFS_1_std.c ****             /* Find endpoints which belong to current interface and alternate settings. */
 835:.\Generated_Source\PSoC5/USBFS_1_std.c ****             if ((interfaceNum == pEP->interface) && 
 836:.\Generated_Source\PSoC5/USBFS_1_std.c ****                 (USBFS_1_interfaceSetting[interfaceNum] == pEP->altSetting))
 837:.\Generated_Source\PSoC5/USBFS_1_std.c ****             {
 838:.\Generated_Source\PSoC5/USBFS_1_std.c ****                 curEp  = ((uint8) pEP->addr & USBFS_1_DIR_UNUSED);
 839:.\Generated_Source\PSoC5/USBFS_1_std.c ****                 epType = ((uint8) pEP->attributes & USBFS_1_EP_TYPE_MASK);
 840:.\Generated_Source\PSoC5/USBFS_1_std.c ****                 
 841:.\Generated_Source\PSoC5/USBFS_1_std.c ****                 /* Change the SIE mode for the selected EP to NAK ALL */
 842:.\Generated_Source\PSoC5/USBFS_1_std.c ****                 USBFS_1_EP[curEp].epToggle   = 0u;
 843:.\Generated_Source\PSoC5/USBFS_1_std.c ****                 USBFS_1_EP[curEp].addr       = pEP->addr;
 844:.\Generated_Source\PSoC5/USBFS_1_std.c ****                 USBFS_1_EP[curEp].attrib     = pEP->attributes;
 845:.\Generated_Source\PSoC5/USBFS_1_std.c ****                 USBFS_1_EP[curEp].bufferSize = pEP->bufferSize;
 846:.\Generated_Source\PSoC5/USBFS_1_std.c **** 
 847:.\Generated_Source\PSoC5/USBFS_1_std.c ****                 if (0u != (pEP->addr & USBFS_1_DIR_IN))
 848:.\Generated_Source\PSoC5/USBFS_1_std.c ****                 {
 849:.\Generated_Source\PSoC5/USBFS_1_std.c ****                     /* IN Endpoint */
 850:.\Generated_Source\PSoC5/USBFS_1_std.c ****                     USBFS_1_EP[curEp].epMode     = USBFS_1_GET_ACTIVE_IN_EP_CR0_MODE(epType);
 851:.\Generated_Source\PSoC5/USBFS_1_std.c ****                     USBFS_1_EP[curEp].apiEpState = USBFS_1_EVENT_PENDING;
 852:.\Generated_Source\PSoC5/USBFS_1_std.c ****                 }
 853:.\Generated_Source\PSoC5/USBFS_1_std.c ****                 else
 854:.\Generated_Source\PSoC5/USBFS_1_std.c ****                 {
ARM GAS  C:\Users\LUKASC~1\AppData\Local\Temp\ccAgm3t8.s 			page 20


 855:.\Generated_Source\PSoC5/USBFS_1_std.c ****                     /* OUT Endpoint */
 856:.\Generated_Source\PSoC5/USBFS_1_std.c ****                     USBFS_1_EP[curEp].epMode     = USBFS_1_GET_ACTIVE_OUT_EP_CR0_MODE(epType);
 857:.\Generated_Source\PSoC5/USBFS_1_std.c ****                     USBFS_1_EP[curEp].apiEpState = USBFS_1_NO_EVENT_PENDING;
 858:.\Generated_Source\PSoC5/USBFS_1_std.c ****                 }
 859:.\Generated_Source\PSoC5/USBFS_1_std.c ****                 
 860:.\Generated_Source\PSoC5/USBFS_1_std.c ****                 /* Make SIE to NAK any endpoint requests */
 861:.\Generated_Source\PSoC5/USBFS_1_std.c ****                 USBFS_1_SIE_EP_BASE.sieEp[curEp].epCr0 = USBFS_1_MODE_NAK_IN_OUT;
 862:.\Generated_Source\PSoC5/USBFS_1_std.c **** 
 863:.\Generated_Source\PSoC5/USBFS_1_std.c ****             #if (USBFS_1_EP_MANAGEMENT_DMA_AUTO)
 864:.\Generated_Source\PSoC5/USBFS_1_std.c ****                 /* Clear IN data ready. */
 865:.\Generated_Source\PSoC5/USBFS_1_std.c ****                 USBFS_1_ARB_EP_BASE.arbEp[curEp].epCfg &= (uint8) ~USBFS_1_ARB_EPX_CFG_IN_DATA_RDY;
 866:.\Generated_Source\PSoC5/USBFS_1_std.c **** 
 867:.\Generated_Source\PSoC5/USBFS_1_std.c ****                 /* Select endpoint number of reconfiguration */
 868:.\Generated_Source\PSoC5/USBFS_1_std.c ****                 USBFS_1_DYN_RECONFIG_REG = (uint8) ((curEp - 1u) << USBFS_1_DYN_RECONFIG_EP_SHIFT);
 869:.\Generated_Source\PSoC5/USBFS_1_std.c ****                 
 870:.\Generated_Source\PSoC5/USBFS_1_std.c ****                 /* Request for dynamic re-configuration of endpoint. */
 871:.\Generated_Source\PSoC5/USBFS_1_std.c ****                 USBFS_1_DYN_RECONFIG_REG |= USBFS_1_DYN_RECONFIG_ENABLE;
 872:.\Generated_Source\PSoC5/USBFS_1_std.c ****                 
 873:.\Generated_Source\PSoC5/USBFS_1_std.c ****                 /* Wait until block is ready for re-configuration */
 874:.\Generated_Source\PSoC5/USBFS_1_std.c ****                 while (0u == (USBFS_1_DYN_RECONFIG_REG & USBFS_1_DYN_RECONFIG_RDY_STS))
 875:.\Generated_Source\PSoC5/USBFS_1_std.c ****                 {
 876:.\Generated_Source\PSoC5/USBFS_1_std.c ****                 }
 877:.\Generated_Source\PSoC5/USBFS_1_std.c ****                 
 878:.\Generated_Source\PSoC5/USBFS_1_std.c ****                 /* Once DYN_RECONFIG_RDY_STS bit is set, FW can change the EP configuration. */
 879:.\Generated_Source\PSoC5/USBFS_1_std.c ****                 /* Change EP Type with new direction */
 880:.\Generated_Source\PSoC5/USBFS_1_std.c ****                 if (0u != (pEP->addr & USBFS_1_DIR_IN))
 881:.\Generated_Source\PSoC5/USBFS_1_std.c ****                 {
 882:.\Generated_Source\PSoC5/USBFS_1_std.c ****                     /* Set endpoint type: 0 - IN and 1 - OUT. */
 883:.\Generated_Source\PSoC5/USBFS_1_std.c ****                     USBFS_1_EP_TYPE_REG &= (uint8) ~(uint8)((uint8) 0x01u << (curEp - 1u));
 884:.\Generated_Source\PSoC5/USBFS_1_std.c ****                     
 885:.\Generated_Source\PSoC5/USBFS_1_std.c ****                 #if (CY_PSOC4)
 886:.\Generated_Source\PSoC5/USBFS_1_std.c ****                     /* Clear DMA_TERMIN for IN endpoint */
 887:.\Generated_Source\PSoC5/USBFS_1_std.c ****                     USBFS_1_ARB_EP_BASE.arbEp[curEp].epIntEn &= (uint32) ~USBFS_1_ARB_EPX_INT_DMA_T
 888:.\Generated_Source\PSoC5/USBFS_1_std.c ****                 #endif /* (CY_PSOC4) */
 889:.\Generated_Source\PSoC5/USBFS_1_std.c ****                 }
 890:.\Generated_Source\PSoC5/USBFS_1_std.c ****                 else
 891:.\Generated_Source\PSoC5/USBFS_1_std.c ****                 {
 892:.\Generated_Source\PSoC5/USBFS_1_std.c ****                     /* Set endpoint type: 0 - IN and 1- OUT. */
 893:.\Generated_Source\PSoC5/USBFS_1_std.c ****                     USBFS_1_EP_TYPE_REG |= (uint8) ((uint8) 0x01u << (curEp - 1u));
 894:.\Generated_Source\PSoC5/USBFS_1_std.c ****                     
 895:.\Generated_Source\PSoC5/USBFS_1_std.c ****                 #if (CY_PSOC4)
 896:.\Generated_Source\PSoC5/USBFS_1_std.c ****                     /* Set DMA_TERMIN for OUT endpoint */
 897:.\Generated_Source\PSoC5/USBFS_1_std.c ****                     USBFS_1_ARB_EP_BASE.arbEp[curEp].epIntEn |= (uint32) USBFS_1_ARB_EPX_INT_DMA_TE
 898:.\Generated_Source\PSoC5/USBFS_1_std.c ****                 #endif /* (CY_PSOC4) */
 899:.\Generated_Source\PSoC5/USBFS_1_std.c ****                 }
 900:.\Generated_Source\PSoC5/USBFS_1_std.c ****                 
 901:.\Generated_Source\PSoC5/USBFS_1_std.c ****                 /* Complete dynamic re-configuration: all endpoint related status and signals 
 902:.\Generated_Source\PSoC5/USBFS_1_std.c ****                 * are set into the default state.
 903:.\Generated_Source\PSoC5/USBFS_1_std.c ****                 */
 904:.\Generated_Source\PSoC5/USBFS_1_std.c ****                 USBFS_1_DYN_RECONFIG_REG &= (uint8) ~USBFS_1_DYN_RECONFIG_ENABLE;
 905:.\Generated_Source\PSoC5/USBFS_1_std.c **** 
 906:.\Generated_Source\PSoC5/USBFS_1_std.c ****             #else
 907:.\Generated_Source\PSoC5/USBFS_1_std.c ****                 USBFS_1_SIE_EP_BASE.sieEp[curEp].epCnt0 = HI8(USBFS_1_EP[curEp].bufferSize);
 908:.\Generated_Source\PSoC5/USBFS_1_std.c ****                 USBFS_1_SIE_EP_BASE.sieEp[curEp].epCnt1 = LO8(USBFS_1_EP[curEp].bufferSize);
 909:.\Generated_Source\PSoC5/USBFS_1_std.c ****                 
 910:.\Generated_Source\PSoC5/USBFS_1_std.c ****                 #if (CY_PSOC4)
 911:.\Generated_Source\PSoC5/USBFS_1_std.c ****                     USBFS_1_ARB_EP16_BASE.arbEp[curEp].rwRa16  = (uint32) USBFS_1_EP[curEp].buffOff
ARM GAS  C:\Users\LUKASC~1\AppData\Local\Temp\ccAgm3t8.s 			page 21


 912:.\Generated_Source\PSoC5/USBFS_1_std.c ****                     USBFS_1_ARB_EP16_BASE.arbEp[curEp].rwWa16  = (uint32) USBFS_1_EP[curEp].buffOff
 913:.\Generated_Source\PSoC5/USBFS_1_std.c ****                 #else
 914:.\Generated_Source\PSoC5/USBFS_1_std.c ****                     USBFS_1_ARB_EP_BASE.arbEp[curEp].rwRa    = LO8(USBFS_1_EP[curEp].buffOffset);
 915:.\Generated_Source\PSoC5/USBFS_1_std.c ****                     USBFS_1_ARB_EP_BASE.arbEp[curEp].rwRaMsb = HI8(USBFS_1_EP[curEp].buffOffset);
 916:.\Generated_Source\PSoC5/USBFS_1_std.c ****                     USBFS_1_ARB_EP_BASE.arbEp[curEp].rwWa    = LO8(USBFS_1_EP[curEp].buffOffset);
 917:.\Generated_Source\PSoC5/USBFS_1_std.c ****                     USBFS_1_ARB_EP_BASE.arbEp[curEp].rwWaMsb = HI8(USBFS_1_EP[curEp].buffOffset);
 918:.\Generated_Source\PSoC5/USBFS_1_std.c ****                 #endif /* (CY_PSOC4) */                
 919:.\Generated_Source\PSoC5/USBFS_1_std.c ****             #endif /* (USBFS_1_EP_MANAGEMENT_DMA_AUTO) */
 920:.\Generated_Source\PSoC5/USBFS_1_std.c ****             }
 921:.\Generated_Source\PSoC5/USBFS_1_std.c ****             
 922:.\Generated_Source\PSoC5/USBFS_1_std.c ****             pEP = &pEP[1u]; /* Get next EP element */
 923:.\Generated_Source\PSoC5/USBFS_1_std.c ****         }
 924:.\Generated_Source\PSoC5/USBFS_1_std.c ****         
 925:.\Generated_Source\PSoC5/USBFS_1_std.c ****         /* The main loop has to re-enable DMA and OUT endpoint */
 926:.\Generated_Source\PSoC5/USBFS_1_std.c ****     }
 927:.\Generated_Source\PSoC5/USBFS_1_std.c **** }
 928:.\Generated_Source\PSoC5/USBFS_1_std.c **** 
 929:.\Generated_Source\PSoC5/USBFS_1_std.c **** 
 930:.\Generated_Source\PSoC5/USBFS_1_std.c **** /*******************************************************************************
 931:.\Generated_Source\PSoC5/USBFS_1_std.c **** * Function Name: USBFS_1_GetConfigTablePtr
 932:.\Generated_Source\PSoC5/USBFS_1_std.c **** ****************************************************************************//**
 933:.\Generated_Source\PSoC5/USBFS_1_std.c **** *
 934:.\Generated_Source\PSoC5/USBFS_1_std.c **** *  This routine returns a pointer a configuration table entry
 935:.\Generated_Source\PSoC5/USBFS_1_std.c **** *
 936:.\Generated_Source\PSoC5/USBFS_1_std.c **** *  \param confIndex:  Configuration Index
 937:.\Generated_Source\PSoC5/USBFS_1_std.c **** *
 938:.\Generated_Source\PSoC5/USBFS_1_std.c **** * \return
 939:.\Generated_Source\PSoC5/USBFS_1_std.c **** *  Device Descriptor pointer or NULL when descriptor does not exist.
 940:.\Generated_Source\PSoC5/USBFS_1_std.c **** *
 941:.\Generated_Source\PSoC5/USBFS_1_std.c **** *******************************************************************************/
 942:.\Generated_Source\PSoC5/USBFS_1_std.c **** const T_USBFS_1_LUT CYCODE *USBFS_1_GetConfigTablePtr(uint8 confIndex)
 943:.\Generated_Source\PSoC5/USBFS_1_std.c ****                                                         
 944:.\Generated_Source\PSoC5/USBFS_1_std.c **** {
 226              		.loc 1 944 0
 227              		.cfi_startproc
 228              		@ args = 0, pretend = 0, frame = 0
 229              		@ frame_needed = 0, uses_anonymous_args = 0
 230              		@ link register save eliminated.
 231              	.LVL11:
 945:.\Generated_Source\PSoC5/USBFS_1_std.c ****     /* Device Table */
 946:.\Generated_Source\PSoC5/USBFS_1_std.c ****     const T_USBFS_1_LUT CYCODE *pTmp;
 947:.\Generated_Source\PSoC5/USBFS_1_std.c **** 
 948:.\Generated_Source\PSoC5/USBFS_1_std.c ****     pTmp = (const T_USBFS_1_LUT CYCODE *) USBFS_1_TABLE[USBFS_1_device].p_list;
 232              		.loc 1 948 0
 233 0000 074B     		ldr	r3, .L20
 234 0002 1B78     		ldrb	r3, [r3]	@ zero_extendqisi2
 235 0004 074A     		ldr	r2, .L20+4
 236 0006 02EBC302 		add	r2, r2, r3, lsl #3
 237 000a 5368     		ldr	r3, [r2, #4]
 238              	.LVL12:
 949:.\Generated_Source\PSoC5/USBFS_1_std.c **** 
 950:.\Generated_Source\PSoC5/USBFS_1_std.c ****     /* The first entry points to the Device Descriptor,
 951:.\Generated_Source\PSoC5/USBFS_1_std.c ****     *  the second entry point to the BOS Descriptor
 952:.\Generated_Source\PSoC5/USBFS_1_std.c ****     *  the rest configuration entries.
 953:.\Generated_Source\PSoC5/USBFS_1_std.c ****     *  Set pointer to the first Configuration Descriptor
 954:.\Generated_Source\PSoC5/USBFS_1_std.c ****     */
 955:.\Generated_Source\PSoC5/USBFS_1_std.c ****     pTmp = &pTmp[2u];
ARM GAS  C:\Users\LUKASC~1\AppData\Local\Temp\ccAgm3t8.s 			page 22


 956:.\Generated_Source\PSoC5/USBFS_1_std.c ****     /* For this table, c is the number of configuration descriptors  */
 957:.\Generated_Source\PSoC5/USBFS_1_std.c ****     if(confIndex >= pTmp->c)   /* Verify that required configuration descriptor exists */
 239              		.loc 1 957 0
 240 000c 1A7C     		ldrb	r2, [r3, #16]	@ zero_extendqisi2
 241 000e 8242     		cmp	r2, r0
 242 0010 03D9     		bls	.L19
 243 0012 03EBC003 		add	r3, r3, r0, lsl #3
 244              	.LVL13:
 958:.\Generated_Source\PSoC5/USBFS_1_std.c ****     {
 959:.\Generated_Source\PSoC5/USBFS_1_std.c ****         pTmp = (const T_USBFS_1_LUT CYCODE *) NULL;
 960:.\Generated_Source\PSoC5/USBFS_1_std.c ****     }
 961:.\Generated_Source\PSoC5/USBFS_1_std.c ****     else
 962:.\Generated_Source\PSoC5/USBFS_1_std.c ****     {
 963:.\Generated_Source\PSoC5/USBFS_1_std.c ****         pTmp = (const T_USBFS_1_LUT CYCODE *) pTmp[confIndex].p_list;
 245              		.loc 1 963 0
 246 0016 5869     		ldr	r0, [r3, #20]
 247              	.LVL14:
 248 0018 7047     		bx	lr
 249              	.LVL15:
 250              	.L19:
 959:.\Generated_Source\PSoC5/USBFS_1_std.c ****     }
 251              		.loc 1 959 0
 252 001a 0020     		movs	r0, #0
 253              	.LVL16:
 964:.\Generated_Source\PSoC5/USBFS_1_std.c ****     }
 965:.\Generated_Source\PSoC5/USBFS_1_std.c **** 
 966:.\Generated_Source\PSoC5/USBFS_1_std.c ****     return (pTmp);
 967:.\Generated_Source\PSoC5/USBFS_1_std.c **** }
 254              		.loc 1 967 0
 255 001c 7047     		bx	lr
 256              	.L21:
 257 001e 00BF     		.align	2
 258              	.L20:
 259 0020 00000000 		.word	USBFS_1_device
 260 0024 00000000 		.word	USBFS_1_TABLE
 261              		.cfi_endproc
 262              	.LFE5:
 263              		.size	USBFS_1_GetConfigTablePtr, .-USBFS_1_GetConfigTablePtr
 264              		.section	.text.USBFS_1_ConfigAltChanged,"ax",%progbits
 265              		.align	2
 266              		.global	USBFS_1_ConfigAltChanged
 267              		.thumb
 268              		.thumb_func
 269              		.type	USBFS_1_ConfigAltChanged, %function
 270              	USBFS_1_ConfigAltChanged:
 271              	.LFB4:
 806:.\Generated_Source\PSoC5/USBFS_1_std.c ****     uint8 ep;
 272              		.loc 1 806 0
 273              		.cfi_startproc
 274              		@ args = 0, pretend = 0, frame = 0
 275              		@ frame_needed = 0, uses_anonymous_args = 0
 276 0000 F8B5     		push	{r3, r4, r5, r6, r7, lr}
 277              		.cfi_def_cfa_offset 24
 278              		.cfi_offset 3, -24
 279              		.cfi_offset 4, -20
 280              		.cfi_offset 5, -16
 281              		.cfi_offset 6, -12
ARM GAS  C:\Users\LUKASC~1\AppData\Local\Temp\ccAgm3t8.s 			page 23


 282              		.cfi_offset 7, -8
 283              		.cfi_offset 14, -4
 817:.\Generated_Source\PSoC5/USBFS_1_std.c ****     {
 284              		.loc 1 817 0
 285 0002 464B     		ldr	r3, .L37
 286 0004 1B78     		ldrb	r3, [r3]	@ zero_extendqisi2
 287 0006 13F0FF0F 		tst	r3, #255
 288 000a 00F08680 		beq	.L22
 820:.\Generated_Source\PSoC5/USBFS_1_std.c ****         pTmp = &pTmp[1u];
 289              		.loc 1 820 0
 290 000e 434B     		ldr	r3, .L37
 291 0010 1878     		ldrb	r0, [r3]	@ zero_extendqisi2
 292 0012 0138     		subs	r0, r0, #1
 293 0014 C0B2     		uxtb	r0, r0
 294 0016 FFF7FEFF 		bl	USBFS_1_GetConfigTablePtr
 295              	.LVL17:
 822:.\Generated_Source\PSoC5/USBFS_1_std.c **** 
 296              		.loc 1 822 0
 297 001a 047A     		ldrb	r4, [r0, #8]	@ zero_extendqisi2
 298              	.LVL18:
 825:.\Generated_Source\PSoC5/USBFS_1_std.c ****         
 299              		.loc 1 825 0
 300 001c C268     		ldr	r2, [r0, #12]
 301              	.LVL19:
 831:.\Generated_Source\PSoC5/USBFS_1_std.c ****         for (i = 0u; i < ep; i++)
 302              		.loc 1 831 0
 303 001e 404B     		ldr	r3, .L37+4
 304 0020 1878     		ldrb	r0, [r3]	@ zero_extendqisi2
 305              	.LVL20:
 306 0022 C0B2     		uxtb	r0, r0
 307              	.LVL21:
 832:.\Generated_Source\PSoC5/USBFS_1_std.c ****         {
 308              		.loc 1 832 0
 309 0024 0023     		movs	r3, #0
 310 0026 76E0     		b	.L24
 311              	.LVL22:
 312              	.L33:
 835:.\Generated_Source\PSoC5/USBFS_1_std.c ****                 (USBFS_1_interfaceSetting[interfaceNum] == pEP->altSetting))
 313              		.loc 1 835 0
 314 0028 1178     		ldrb	r1, [r2]	@ zero_extendqisi2
 315 002a 8142     		cmp	r1, r0
 316 002c 70D1     		bne	.L25
 836:.\Generated_Source\PSoC5/USBFS_1_std.c ****             {
 317              		.loc 1 836 0 discriminator 1
 318 002e 3D49     		ldr	r1, .L37+8
 319 0030 095C     		ldrb	r1, [r1, r0]	@ zero_extendqisi2
 320 0032 C9B2     		uxtb	r1, r1
 321 0034 5578     		ldrb	r5, [r2, #1]	@ zero_extendqisi2
 835:.\Generated_Source\PSoC5/USBFS_1_std.c ****                 (USBFS_1_interfaceSetting[interfaceNum] == pEP->altSetting))
 322              		.loc 1 835 0 discriminator 1
 323 0036 A942     		cmp	r1, r5
 324 0038 6AD1     		bne	.L25
 838:.\Generated_Source\PSoC5/USBFS_1_std.c ****                 epType = ((uint8) pEP->attributes & USBFS_1_EP_TYPE_MASK);
 325              		.loc 1 838 0
 326 003a 9578     		ldrb	r5, [r2, #2]	@ zero_extendqisi2
 327 003c 05F07F05 		and	r5, r5, #127
 328              	.LVL23:
ARM GAS  C:\Users\LUKASC~1\AppData\Local\Temp\ccAgm3t8.s 			page 24


 839:.\Generated_Source\PSoC5/USBFS_1_std.c ****                 
 329              		.loc 1 839 0
 330 0040 D678     		ldrb	r6, [r2, #3]	@ zero_extendqisi2
 331 0042 06F00306 		and	r6, r6, #3
 332              	.LVL24:
 842:.\Generated_Source\PSoC5/USBFS_1_std.c ****                 USBFS_1_EP[curEp].addr       = pEP->addr;
 333              		.loc 1 842 0
 334 0046 DFF8E0E0 		ldr	lr, .L37+12
 335 004a 6900     		lsls	r1, r5, #1
 336 004c 2944     		add	r1, r1, r5
 337 004e 8900     		lsls	r1, r1, #2
 338 0050 0EEB0107 		add	r7, lr, r1
 339 0054 4FF0000C 		mov	ip, #0
 340 0058 87F803C0 		strb	ip, [r7, #3]
 843:.\Generated_Source\PSoC5/USBFS_1_std.c ****                 USBFS_1_EP[curEp].attrib     = pEP->attributes;
 341              		.loc 1 843 0
 342 005c 92F802C0 		ldrb	ip, [r2, #2]	@ zero_extendqisi2
 343 0060 87F804C0 		strb	ip, [r7, #4]
 844:.\Generated_Source\PSoC5/USBFS_1_std.c ****                 USBFS_1_EP[curEp].bufferSize = pEP->bufferSize;
 344              		.loc 1 844 0
 345 0064 92F803C0 		ldrb	ip, [r2, #3]	@ zero_extendqisi2
 346 0068 0EF801C0 		strb	ip, [lr, r1]
 845:.\Generated_Source\PSoC5/USBFS_1_std.c **** 
 347              		.loc 1 845 0
 348 006c 9188     		ldrh	r1, [r2, #4]
 349 006e 3981     		strh	r1, [r7, #8]	@ movhi
 847:.\Generated_Source\PSoC5/USBFS_1_std.c ****                 {
 350              		.loc 1 847 0
 351 0070 92F90210 		ldrsb	r1, [r2, #2]
 352 0074 0029     		cmp	r1, #0
 353 0076 0DDA     		bge	.L26
 850:.\Generated_Source\PSoC5/USBFS_1_std.c ****                     USBFS_1_EP[curEp].apiEpState = USBFS_1_EVENT_PENDING;
 354              		.loc 1 850 0
 355 0078 012E     		cmp	r6, #1
 356 007a 01D1     		bne	.L34
 357 007c 0727     		movs	r7, #7
 358 007e 00E0     		b	.L27
 359              	.L34:
 360 0080 0D27     		movs	r7, #13
 361              	.L27:
 850:.\Generated_Source\PSoC5/USBFS_1_std.c ****                     USBFS_1_EP[curEp].apiEpState = USBFS_1_EVENT_PENDING;
 362              		.loc 1 850 0 is_stmt 0 discriminator 4
 363 0082 6900     		lsls	r1, r5, #1
 364 0084 2944     		add	r1, r1, r5
 365 0086 8900     		lsls	r1, r1, #2
 366 0088 274E     		ldr	r6, .L37+12
 367              	.LVL25:
 368 008a 3144     		add	r1, r1, r6
 369 008c 4F71     		strb	r7, [r1, #5]
 851:.\Generated_Source\PSoC5/USBFS_1_std.c ****                 }
 370              		.loc 1 851 0 is_stmt 1 discriminator 4
 371 008e 0126     		movs	r6, #1
 372 0090 4E70     		strb	r6, [r1, #1]
 373 0092 0CE0     		b	.L28
 374              	.LVL26:
 375              	.L26:
 856:.\Generated_Source\PSoC5/USBFS_1_std.c ****                     USBFS_1_EP[curEp].apiEpState = USBFS_1_NO_EVENT_PENDING;
ARM GAS  C:\Users\LUKASC~1\AppData\Local\Temp\ccAgm3t8.s 			page 25


 376              		.loc 1 856 0
 377 0094 012E     		cmp	r6, #1
 378 0096 01D1     		bne	.L35
 379 0098 0527     		movs	r7, #5
 380 009a 00E0     		b	.L29
 381              	.L35:
 382 009c 0927     		movs	r7, #9
 383              	.L29:
 856:.\Generated_Source\PSoC5/USBFS_1_std.c ****                     USBFS_1_EP[curEp].apiEpState = USBFS_1_NO_EVENT_PENDING;
 384              		.loc 1 856 0 is_stmt 0 discriminator 4
 385 009e 6900     		lsls	r1, r5, #1
 386 00a0 2944     		add	r1, r1, r5
 387 00a2 8900     		lsls	r1, r1, #2
 388 00a4 204E     		ldr	r6, .L37+12
 389              	.LVL27:
 390 00a6 3144     		add	r1, r1, r6
 391 00a8 4F71     		strb	r7, [r1, #5]
 857:.\Generated_Source\PSoC5/USBFS_1_std.c ****                 }
 392              		.loc 1 857 0 is_stmt 1 discriminator 4
 393 00aa 0026     		movs	r6, #0
 394 00ac 4E70     		strb	r6, [r1, #1]
 395              	.L28:
 861:.\Generated_Source\PSoC5/USBFS_1_std.c **** 
 396              		.loc 1 861 0
 397 00ae 2901     		lsls	r1, r5, #4
 398 00b0 1E4E     		ldr	r6, .L37+16
 399 00b2 0127     		movs	r7, #1
 400 00b4 7754     		strb	r7, [r6, r1]
 865:.\Generated_Source\PSoC5/USBFS_1_std.c **** 
 401              		.loc 1 865 0
 402 00b6 1E4F     		ldr	r7, .L37+20
 403 00b8 7E5C     		ldrb	r6, [r7, r1]	@ zero_extendqisi2
 404 00ba 06F0FE06 		and	r6, r6, #254
 405 00be 7E54     		strb	r6, [r7, r1]
 868:.\Generated_Source\PSoC5/USBFS_1_std.c ****                 
 406              		.loc 1 868 0
 407 00c0 691E     		subs	r1, r5, #1
 408 00c2 4900     		lsls	r1, r1, #1
 409 00c4 C9B2     		uxtb	r1, r1
 410 00c6 1B4E     		ldr	r6, .L37+24
 411 00c8 3170     		strb	r1, [r6]
 871:.\Generated_Source\PSoC5/USBFS_1_std.c ****                 
 412              		.loc 1 871 0
 413 00ca 3178     		ldrb	r1, [r6]	@ zero_extendqisi2
 414 00cc 41F00101 		orr	r1, r1, #1
 415 00d0 3170     		strb	r1, [r6]
 416              	.L30:
 874:.\Generated_Source\PSoC5/USBFS_1_std.c ****                 {
 417              		.loc 1 874 0 discriminator 1
 418 00d2 1849     		ldr	r1, .L37+24
 419 00d4 0978     		ldrb	r1, [r1]	@ zero_extendqisi2
 420 00d6 11F0100F 		tst	r1, #16
 421 00da FAD0     		beq	.L30
 880:.\Generated_Source\PSoC5/USBFS_1_std.c ****                 {
 422              		.loc 1 880 0
 423 00dc 92F90210 		ldrsb	r1, [r2, #2]
 424 00e0 0029     		cmp	r1, #0
ARM GAS  C:\Users\LUKASC~1\AppData\Local\Temp\ccAgm3t8.s 			page 26


 425 00e2 08DA     		bge	.L31
 883:.\Generated_Source\PSoC5/USBFS_1_std.c ****                     
 426              		.loc 1 883 0
 427 00e4 144F     		ldr	r7, .L37+28
 428 00e6 3E78     		ldrb	r6, [r7]	@ zero_extendqisi2
 429 00e8 013D     		subs	r5, r5, #1
 430              	.LVL28:
 431 00ea 0121     		movs	r1, #1
 432 00ec A940     		lsls	r1, r1, r5
 433 00ee 26EA0101 		bic	r1, r6, r1
 434 00f2 3970     		strb	r1, [r7]
 435 00f4 07E0     		b	.L32
 436              	.LVL29:
 437              	.L31:
 893:.\Generated_Source\PSoC5/USBFS_1_std.c ****                     
 438              		.loc 1 893 0
 439 00f6 104E     		ldr	r6, .L37+28
 440 00f8 3778     		ldrb	r7, [r6]	@ zero_extendqisi2
 441 00fa 013D     		subs	r5, r5, #1
 442              	.LVL30:
 443 00fc 0121     		movs	r1, #1
 444 00fe A940     		lsls	r1, r1, r5
 445 0100 C9B2     		uxtb	r1, r1
 446 0102 3943     		orrs	r1, r1, r7
 447 0104 3170     		strb	r1, [r6]
 448              	.LVL31:
 449              	.L32:
 904:.\Generated_Source\PSoC5/USBFS_1_std.c **** 
 450              		.loc 1 904 0
 451 0106 0B4D     		ldr	r5, .L37+24
 452 0108 2978     		ldrb	r1, [r5]	@ zero_extendqisi2
 453 010a 01F0FE01 		and	r1, r1, #254
 454 010e 2970     		strb	r1, [r5]
 455              	.L25:
 922:.\Generated_Source\PSoC5/USBFS_1_std.c ****         }
 456              		.loc 1 922 0 discriminator 2
 457 0110 0832     		adds	r2, r2, #8
 458              	.LVL32:
 832:.\Generated_Source\PSoC5/USBFS_1_std.c ****         {
 459              		.loc 1 832 0 discriminator 2
 460 0112 0133     		adds	r3, r3, #1
 461              	.LVL33:
 462 0114 DBB2     		uxtb	r3, r3
 463              	.LVL34:
 464              	.L24:
 832:.\Generated_Source\PSoC5/USBFS_1_std.c ****         {
 465              		.loc 1 832 0 is_stmt 0 discriminator 1
 466 0116 A342     		cmp	r3, r4
 467 0118 86D3     		bcc	.L33
 468              	.LVL35:
 469              	.L22:
 470 011a F8BD     		pop	{r3, r4, r5, r6, r7, pc}
 471              	.L38:
 472              		.align	2
 473              	.L37:
 474 011c 00000000 		.word	USBFS_1_configuration
 475 0120 00000000 		.word	USBFS_1_interfaceNumber
ARM GAS  C:\Users\LUKASC~1\AppData\Local\Temp\ccAgm3t8.s 			page 27


 476 0124 00000000 		.word	USBFS_1_interfaceSetting
 477 0128 00000000 		.word	USBFS_1_EP
 478 012c FE5F0040 		.word	1073766398
 479 0130 70600040 		.word	1073766512
 480 0134 14600040 		.word	1073766420
 481 0138 8F600040 		.word	1073766543
 482              		.cfi_endproc
 483              	.LFE4:
 484              		.size	USBFS_1_ConfigAltChanged, .-USBFS_1_ConfigAltChanged
 485              		.section	.text.USBFS_1_GetDeviceTablePtr,"ax",%progbits
 486              		.align	2
 487              		.global	USBFS_1_GetDeviceTablePtr
 488              		.thumb
 489              		.thumb_func
 490              		.type	USBFS_1_GetDeviceTablePtr, %function
 491              	USBFS_1_GetDeviceTablePtr:
 492              	.LFB6:
 968:.\Generated_Source\PSoC5/USBFS_1_std.c **** 
 969:.\Generated_Source\PSoC5/USBFS_1_std.c **** 
 970:.\Generated_Source\PSoC5/USBFS_1_std.c **** #if (USBFS_1_BOS_ENABLE)
 971:.\Generated_Source\PSoC5/USBFS_1_std.c ****     /*******************************************************************************
 972:.\Generated_Source\PSoC5/USBFS_1_std.c ****     * Function Name: USBFS_1_GetBOSPtr
 973:.\Generated_Source\PSoC5/USBFS_1_std.c ****     ****************************************************************************//**
 974:.\Generated_Source\PSoC5/USBFS_1_std.c ****     *
 975:.\Generated_Source\PSoC5/USBFS_1_std.c ****     *  This routine returns a pointer a BOS table entry
 976:.\Generated_Source\PSoC5/USBFS_1_std.c ****     *
 977:.\Generated_Source\PSoC5/USBFS_1_std.c ****     *  
 978:.\Generated_Source\PSoC5/USBFS_1_std.c ****     *
 979:.\Generated_Source\PSoC5/USBFS_1_std.c ****     * \return
 980:.\Generated_Source\PSoC5/USBFS_1_std.c ****     *  BOS Descriptor pointer or NULL when descriptor does not exist.
 981:.\Generated_Source\PSoC5/USBFS_1_std.c ****     *
 982:.\Generated_Source\PSoC5/USBFS_1_std.c ****     *******************************************************************************/
 983:.\Generated_Source\PSoC5/USBFS_1_std.c ****     const T_USBFS_1_LUT CYCODE *USBFS_1_GetBOSPtr(void)
 984:.\Generated_Source\PSoC5/USBFS_1_std.c ****                                                             
 985:.\Generated_Source\PSoC5/USBFS_1_std.c ****     {
 986:.\Generated_Source\PSoC5/USBFS_1_std.c ****         /* Device Table */
 987:.\Generated_Source\PSoC5/USBFS_1_std.c ****         const T_USBFS_1_LUT CYCODE *pTmp;
 988:.\Generated_Source\PSoC5/USBFS_1_std.c **** 
 989:.\Generated_Source\PSoC5/USBFS_1_std.c ****         pTmp = (const T_USBFS_1_LUT CYCODE *) USBFS_1_TABLE[USBFS_1_device].p_list;
 990:.\Generated_Source\PSoC5/USBFS_1_std.c **** 
 991:.\Generated_Source\PSoC5/USBFS_1_std.c ****         /* The first entry points to the Device Descriptor,
 992:.\Generated_Source\PSoC5/USBFS_1_std.c ****         *  the second entry points to the BOS Descriptor
 993:.\Generated_Source\PSoC5/USBFS_1_std.c ****         */
 994:.\Generated_Source\PSoC5/USBFS_1_std.c ****         pTmp = &pTmp[1u];
 995:.\Generated_Source\PSoC5/USBFS_1_std.c ****         pTmp = (const T_USBFS_1_LUT CYCODE *) pTmp->p_list;
 996:.\Generated_Source\PSoC5/USBFS_1_std.c ****         return (pTmp);
 997:.\Generated_Source\PSoC5/USBFS_1_std.c ****     }
 998:.\Generated_Source\PSoC5/USBFS_1_std.c **** #endif /* (USBFS_1_BOS_ENABLE) */
 999:.\Generated_Source\PSoC5/USBFS_1_std.c **** 
1000:.\Generated_Source\PSoC5/USBFS_1_std.c **** 
1001:.\Generated_Source\PSoC5/USBFS_1_std.c **** /*******************************************************************************
1002:.\Generated_Source\PSoC5/USBFS_1_std.c **** * Function Name: USBFS_1_GetDeviceTablePtr
1003:.\Generated_Source\PSoC5/USBFS_1_std.c **** ****************************************************************************//**
1004:.\Generated_Source\PSoC5/USBFS_1_std.c **** *
1005:.\Generated_Source\PSoC5/USBFS_1_std.c **** *  This routine returns a pointer to the Device table
1006:.\Generated_Source\PSoC5/USBFS_1_std.c **** *
1007:.\Generated_Source\PSoC5/USBFS_1_std.c **** * \return
ARM GAS  C:\Users\LUKASC~1\AppData\Local\Temp\ccAgm3t8.s 			page 28


1008:.\Generated_Source\PSoC5/USBFS_1_std.c **** *  Device Table pointer
1009:.\Generated_Source\PSoC5/USBFS_1_std.c **** *
1010:.\Generated_Source\PSoC5/USBFS_1_std.c **** *******************************************************************************/
1011:.\Generated_Source\PSoC5/USBFS_1_std.c **** const T_USBFS_1_LUT CYCODE *USBFS_1_GetDeviceTablePtr(void)
1012:.\Generated_Source\PSoC5/USBFS_1_std.c ****                                                             
1013:.\Generated_Source\PSoC5/USBFS_1_std.c **** {
 493              		.loc 1 1013 0 is_stmt 1
 494              		.cfi_startproc
 495              		@ args = 0, pretend = 0, frame = 0
 496              		@ frame_needed = 0, uses_anonymous_args = 0
 497              		@ link register save eliminated.
1014:.\Generated_Source\PSoC5/USBFS_1_std.c ****     /* Device Table */
1015:.\Generated_Source\PSoC5/USBFS_1_std.c ****     return( (const T_USBFS_1_LUT CYCODE *) USBFS_1_TABLE[USBFS_1_device].p_list );
 498              		.loc 1 1015 0
 499 0000 034B     		ldr	r3, .L40
 500 0002 1A78     		ldrb	r2, [r3]	@ zero_extendqisi2
 501 0004 034B     		ldr	r3, .L40+4
 502 0006 03EBC203 		add	r3, r3, r2, lsl #3
1016:.\Generated_Source\PSoC5/USBFS_1_std.c **** }
 503              		.loc 1 1016 0
 504 000a 5868     		ldr	r0, [r3, #4]
 505 000c 7047     		bx	lr
 506              	.L41:
 507 000e 00BF     		.align	2
 508              	.L40:
 509 0010 00000000 		.word	USBFS_1_device
 510 0014 00000000 		.word	USBFS_1_TABLE
 511              		.cfi_endproc
 512              	.LFE6:
 513              		.size	USBFS_1_GetDeviceTablePtr, .-USBFS_1_GetDeviceTablePtr
 514              		.section	.text.USBFS_1_GetInterfaceClassTablePtr,"ax",%progbits
 515              		.align	2
 516              		.global	USBFS_1_GetInterfaceClassTablePtr
 517              		.thumb
 518              		.thumb_func
 519              		.type	USBFS_1_GetInterfaceClassTablePtr, %function
 520              	USBFS_1_GetInterfaceClassTablePtr:
 521              	.LFB7:
1017:.\Generated_Source\PSoC5/USBFS_1_std.c **** 
1018:.\Generated_Source\PSoC5/USBFS_1_std.c **** 
1019:.\Generated_Source\PSoC5/USBFS_1_std.c **** /*******************************************************************************
1020:.\Generated_Source\PSoC5/USBFS_1_std.c **** * Function Name: USB_GetInterfaceClassTablePtr
1021:.\Generated_Source\PSoC5/USBFS_1_std.c **** ****************************************************************************//**
1022:.\Generated_Source\PSoC5/USBFS_1_std.c **** *
1023:.\Generated_Source\PSoC5/USBFS_1_std.c **** *  This routine returns Interface Class table pointer, which contains
1024:.\Generated_Source\PSoC5/USBFS_1_std.c **** *  the relation between interface number and interface class.
1025:.\Generated_Source\PSoC5/USBFS_1_std.c **** *
1026:.\Generated_Source\PSoC5/USBFS_1_std.c **** * \return
1027:.\Generated_Source\PSoC5/USBFS_1_std.c **** *  Interface Class table pointer.
1028:.\Generated_Source\PSoC5/USBFS_1_std.c **** *
1029:.\Generated_Source\PSoC5/USBFS_1_std.c **** *******************************************************************************/
1030:.\Generated_Source\PSoC5/USBFS_1_std.c **** const uint8 CYCODE *USBFS_1_GetInterfaceClassTablePtr(void)
1031:.\Generated_Source\PSoC5/USBFS_1_std.c ****                                                         
1032:.\Generated_Source\PSoC5/USBFS_1_std.c **** {
 522              		.loc 1 1032 0
 523              		.cfi_startproc
 524              		@ args = 0, pretend = 0, frame = 0
ARM GAS  C:\Users\LUKASC~1\AppData\Local\Temp\ccAgm3t8.s 			page 29


 525              		@ frame_needed = 0, uses_anonymous_args = 0
 526 0000 08B5     		push	{r3, lr}
 527              		.cfi_def_cfa_offset 8
 528              		.cfi_offset 3, -8
 529              		.cfi_offset 14, -4
1033:.\Generated_Source\PSoC5/USBFS_1_std.c ****     const T_USBFS_1_LUT CYCODE *pTmp;
1034:.\Generated_Source\PSoC5/USBFS_1_std.c ****     const uint8 CYCODE *pInterfaceClass;
1035:.\Generated_Source\PSoC5/USBFS_1_std.c ****     uint8 currentInterfacesNum;
1036:.\Generated_Source\PSoC5/USBFS_1_std.c **** 
1037:.\Generated_Source\PSoC5/USBFS_1_std.c ****     pTmp = USBFS_1_GetConfigTablePtr(USBFS_1_configuration - 1u);
 530              		.loc 1 1037 0
 531 0002 074B     		ldr	r3, .L46
 532 0004 1878     		ldrb	r0, [r3]	@ zero_extendqisi2
 533 0006 0138     		subs	r0, r0, #1
 534 0008 C0B2     		uxtb	r0, r0
 535 000a FFF7FEFF 		bl	USBFS_1_GetConfigTablePtr
 536              	.LVL36:
1038:.\Generated_Source\PSoC5/USBFS_1_std.c ****     if (pTmp != NULL)
 537              		.loc 1 1038 0
 538 000e 28B1     		cbz	r0, .L44
1039:.\Generated_Source\PSoC5/USBFS_1_std.c ****     {
1040:.\Generated_Source\PSoC5/USBFS_1_std.c ****         currentInterfacesNum  = ((const uint8 *) pTmp->p_list)[USBFS_1_CONFIG_DESCR_NUM_INTERFACES]
 539              		.loc 1 1040 0
 540 0010 4268     		ldr	r2, [r0, #4]
 541 0012 1279     		ldrb	r2, [r2, #4]	@ zero_extendqisi2
 542              	.LVL37:
1041:.\Generated_Source\PSoC5/USBFS_1_std.c ****         /* Third entry in the LUT starts the Interface Table pointers */
1042:.\Generated_Source\PSoC5/USBFS_1_std.c ****         /* The INTERFACE_CLASS table is located after all interfaces */
1043:.\Generated_Source\PSoC5/USBFS_1_std.c ****         pTmp = &pTmp[currentInterfacesNum + 2u];
 543              		.loc 1 1043 0
 544 0014 00EBC203 		add	r3, r0, r2, lsl #3
 545              	.LVL38:
1044:.\Generated_Source\PSoC5/USBFS_1_std.c ****         pInterfaceClass = (const uint8 CYCODE *) pTmp->p_list;
 546              		.loc 1 1044 0
 547 0018 5869     		ldr	r0, [r3, #20]
 548              	.LVL39:
 549 001a 08BD     		pop	{r3, pc}
 550              	.LVL40:
 551              	.L44:
1045:.\Generated_Source\PSoC5/USBFS_1_std.c ****     }
1046:.\Generated_Source\PSoC5/USBFS_1_std.c ****     else
1047:.\Generated_Source\PSoC5/USBFS_1_std.c ****     {
1048:.\Generated_Source\PSoC5/USBFS_1_std.c ****         pInterfaceClass = (const uint8 CYCODE *) NULL;
 552              		.loc 1 1048 0
 553 001c 0020     		movs	r0, #0
 554              	.LVL41:
1049:.\Generated_Source\PSoC5/USBFS_1_std.c ****     }
1050:.\Generated_Source\PSoC5/USBFS_1_std.c **** 
1051:.\Generated_Source\PSoC5/USBFS_1_std.c ****     return (pInterfaceClass);
1052:.\Generated_Source\PSoC5/USBFS_1_std.c **** }
 555              		.loc 1 1052 0
 556 001e 08BD     		pop	{r3, pc}
 557              	.L47:
 558              		.align	2
 559              	.L46:
 560 0020 00000000 		.word	USBFS_1_configuration
 561              		.cfi_endproc
ARM GAS  C:\Users\LUKASC~1\AppData\Local\Temp\ccAgm3t8.s 			page 30


 562              	.LFE7:
 563              		.size	USBFS_1_GetInterfaceClassTablePtr, .-USBFS_1_GetInterfaceClassTablePtr
 564              		.section	.text.USBFS_1_Config,"ax",%progbits
 565              		.align	2
 566              		.global	USBFS_1_Config
 567              		.thumb
 568              		.thumb_func
 569              		.type	USBFS_1_Config, %function
 570              	USBFS_1_Config:
 571              	.LFB3:
 571:.\Generated_Source\PSoC5/USBFS_1_std.c ****     uint8 ep;
 572              		.loc 1 571 0
 573              		.cfi_startproc
 574              		@ args = 0, pretend = 0, frame = 0
 575              		@ frame_needed = 0, uses_anonymous_args = 0
 576              	.LVL42:
 577 0000 F8B5     		push	{r3, r4, r5, r6, r7, lr}
 578              		.cfi_def_cfa_offset 24
 579              		.cfi_offset 3, -24
 580              		.cfi_offset 4, -20
 581              		.cfi_offset 5, -16
 582              		.cfi_offset 6, -12
 583              		.cfi_offset 7, -8
 584              		.cfi_offset 14, -4
 585              	.LVL43:
 586:.\Generated_Source\PSoC5/USBFS_1_std.c ****     {
 586              		.loc 1 586 0
 587 0002 0022     		movs	r2, #0
 588 0004 0EE0     		b	.L49
 589              	.LVL44:
 590              	.L50:
 588:.\Generated_Source\PSoC5/USBFS_1_std.c ****         USBFS_1_EP[ep].hwEpState  = 0u;
 591              		.loc 1 588 0 discriminator 3
 592 0006 574E     		ldr	r6, .L73
 593 0008 5300     		lsls	r3, r2, #1
 594 000a 9D18     		adds	r5, r3, r2
 595 000c AD00     		lsls	r5, r5, #2
 596 000e 7419     		adds	r4, r6, r5
 597 0010 0021     		movs	r1, #0
 598 0012 7155     		strb	r1, [r6, r5]
 589:.\Generated_Source\PSoC5/USBFS_1_std.c ****         USBFS_1_EP[ep].epToggle   = 0u;
 599              		.loc 1 589 0 discriminator 3
 600 0014 A170     		strb	r1, [r4, #2]
 590:.\Generated_Source\PSoC5/USBFS_1_std.c ****         USBFS_1_EP[ep].bufferSize = 0u;
 601              		.loc 1 590 0 discriminator 3
 602 0016 E170     		strb	r1, [r4, #3]
 591:.\Generated_Source\PSoC5/USBFS_1_std.c ****         USBFS_1_EP[ep].interface  = 0u;
 603              		.loc 1 591 0 discriminator 3
 604 0018 2181     		strh	r1, [r4, #8]	@ movhi
 592:.\Generated_Source\PSoC5/USBFS_1_std.c ****         USBFS_1_EP[ep].apiEpState = USBFS_1_NO_EVENT_PENDING;
 605              		.loc 1 592 0 discriminator 3
 606 001a A172     		strb	r1, [r4, #10]
 593:.\Generated_Source\PSoC5/USBFS_1_std.c ****         USBFS_1_EP[ep].epMode     = USBFS_1_MODE_DISABLE;   
 607              		.loc 1 593 0 discriminator 3
 608 001c 6170     		strb	r1, [r4, #1]
 594:.\Generated_Source\PSoC5/USBFS_1_std.c ****     }
 609              		.loc 1 594 0 discriminator 3
ARM GAS  C:\Users\LUKASC~1\AppData\Local\Temp\ccAgm3t8.s 			page 31


 610 001e 6171     		strb	r1, [r4, #5]
 586:.\Generated_Source\PSoC5/USBFS_1_std.c ****     {
 611              		.loc 1 586 0 discriminator 3
 612 0020 0132     		adds	r2, r2, #1
 613              	.LVL45:
 614 0022 D2B2     		uxtb	r2, r2
 615              	.LVL46:
 616              	.L49:
 586:.\Generated_Source\PSoC5/USBFS_1_std.c ****     {
 617              		.loc 1 586 0 is_stmt 0 discriminator 1
 618 0024 082A     		cmp	r2, #8
 619 0026 EED9     		bls	.L50
 598:.\Generated_Source\PSoC5/USBFS_1_std.c ****     {
 620              		.loc 1 598 0 is_stmt 1
 621 0028 40B9     		cbnz	r0, .L69
 622 002a 0AE0     		b	.L52
 623              	.LVL47:
 624              	.L53:
 602:.\Generated_Source\PSoC5/USBFS_1_std.c ****             USBFS_1_interfaceSettingLast[i] = 0u;
 625              		.loc 1 602 0 discriminator 3
 626 002c 0022     		movs	r2, #0
 627 002e 4E49     		ldr	r1, .L73+4
 628 0030 CA54     		strb	r2, [r1, r3]
 603:.\Generated_Source\PSoC5/USBFS_1_std.c ****         }
 629              		.loc 1 603 0 discriminator 3
 630 0032 4E49     		ldr	r1, .L73+8
 631 0034 CA54     		strb	r2, [r1, r3]
 600:.\Generated_Source\PSoC5/USBFS_1_std.c ****         {
 632              		.loc 1 600 0 discriminator 3
 633 0036 0133     		adds	r3, r3, #1
 634              	.LVL48:
 635 0038 DBB2     		uxtb	r3, r3
 636              	.LVL49:
 637 003a 00E0     		b	.L51
 638              	.LVL50:
 639              	.L69:
 640 003c 0023     		movs	r3, #0
 641              	.LVL51:
 642              	.L51:
 600:.\Generated_Source\PSoC5/USBFS_1_std.c ****         {
 643              		.loc 1 600 0 is_stmt 0 discriminator 1
 644 003e 012B     		cmp	r3, #1
 645 0040 F4D9     		bls	.L53
 646              	.LVL52:
 647              	.L52:
 608:.\Generated_Source\PSoC5/USBFS_1_std.c ****     {
 648              		.loc 1 608 0 is_stmt 1
 649 0042 4B4B     		ldr	r3, .L73+12
 650 0044 1B78     		ldrb	r3, [r3]	@ zero_extendqisi2
 651 0046 13F0FF0F 		tst	r3, #255
 652 004a 00F08A80 		beq	.L48
 614:.\Generated_Source\PSoC5/USBFS_1_std.c ****         
 653              		.loc 1 614 0
 654 004e 484B     		ldr	r3, .L73+12
 655 0050 1878     		ldrb	r0, [r3]	@ zero_extendqisi2
 656              	.LVL53:
 657 0052 0138     		subs	r0, r0, #1
ARM GAS  C:\Users\LUKASC~1\AppData\Local\Temp\ccAgm3t8.s 			page 32


 658 0054 C0B2     		uxtb	r0, r0
 659 0056 FFF7FEFF 		bl	USBFS_1_GetConfigTablePtr
 660              	.LVL54:
 617:.\Generated_Source\PSoC5/USBFS_1_std.c ****         if ((pDescr[USBFS_1_CONFIG_DESCR_ATTRIB] & USBFS_1_CONFIG_DESCR_ATTRIB_SELF_POWERED) != 0u)
 661              		.loc 1 617 0
 662 005a 4368     		ldr	r3, [r0, #4]
 663              	.LVL55:
 618:.\Generated_Source\PSoC5/USBFS_1_std.c ****         {
 664              		.loc 1 618 0
 665 005c DB79     		ldrb	r3, [r3, #7]	@ zero_extendqisi2
 666              	.LVL56:
 667 005e 13F0400F 		tst	r3, #64
 668 0062 05D0     		beq	.L55
 620:.\Generated_Source\PSoC5/USBFS_1_std.c ****         }
 669              		.loc 1 620 0
 670 0064 434A     		ldr	r2, .L73+16
 671 0066 1378     		ldrb	r3, [r2]	@ zero_extendqisi2
 672 0068 43F00103 		orr	r3, r3, #1
 673 006c 1370     		strb	r3, [r2]
 674 006e 04E0     		b	.L56
 675              	.L55:
 624:.\Generated_Source\PSoC5/USBFS_1_std.c ****         }
 676              		.loc 1 624 0
 677 0070 404A     		ldr	r2, .L73+16
 678 0072 1378     		ldrb	r3, [r2]	@ zero_extendqisi2
 679 0074 03F0FE03 		and	r3, r3, #254
 680 0078 1370     		strb	r3, [r2]
 681              	.L56:
 682              	.LVL57:
 629:.\Generated_Source\PSoC5/USBFS_1_std.c **** 
 683              		.loc 1 629 0
 684 007a 057A     		ldrb	r5, [r0, #8]	@ zero_extendqisi2
 685              	.LVL58:
 687:.\Generated_Source\PSoC5/USBFS_1_std.c ****             {
 686              		.loc 1 687 0
 687 007c 0124     		movs	r4, #1
 688 007e 56E0     		b	.L57
 689              	.LVL59:
 690              	.L66:
 690:.\Generated_Source\PSoC5/USBFS_1_std.c ****                 /* Find max length for each EP and select it (length could be different in differen
 691              		.loc 1 690 0
 692 0080 C168     		ldr	r1, [r0, #12]
 693              	.LVL60:
 694:.\Generated_Source\PSoC5/USBFS_1_std.c ****                 {
 694              		.loc 1 694 0
 695 0082 0023     		movs	r3, #0
 696 0084 4FE0     		b	.L58
 697              	.LVL61:
 698              	.L65:
 696:.\Generated_Source\PSoC5/USBFS_1_std.c ****                     {
 699              		.loc 1 696 0
 700 0086 8A78     		ldrb	r2, [r1, #2]	@ zero_extendqisi2
 701 0088 02F07F02 		and	r2, r2, #127
 702 008c 9442     		cmp	r4, r2
 703 008e 47D1     		bne	.L59
 699:.\Generated_Source\PSoC5/USBFS_1_std.c ****                         {
 704              		.loc 1 699 0
ARM GAS  C:\Users\LUKASC~1\AppData\Local\Temp\ccAgm3t8.s 			page 33


 705 0090 2646     		mov	r6, r4
 706 0092 04EB4402 		add	r2, r4, r4, lsl #1
 707 0096 9200     		lsls	r2, r2, #2
 708 0098 324F     		ldr	r7, .L73
 709 009a 3A44     		add	r2, r2, r7
 710 009c 1289     		ldrh	r2, [r2, #8]
 711 009e 92B2     		uxth	r2, r2
 712 00a0 8F88     		ldrh	r7, [r1, #4]
 713 00a2 BA42     		cmp	r2, r7
 714 00a4 06D2     		bcs	.L60
 701:.\Generated_Source\PSoC5/USBFS_1_std.c ****                         }
 715              		.loc 1 701 0
 716 00a6 04EB4402 		add	r2, r4, r4, lsl #1
 717 00aa 9200     		lsls	r2, r2, #2
 718 00ac DFF8B4E0 		ldr	lr, .L73
 719 00b0 7244     		add	r2, r2, lr
 720 00b2 1781     		strh	r7, [r2, #8]	@ movhi
 721              	.L60:
 705:.\Generated_Source\PSoC5/USBFS_1_std.c ****                         {                            
 722              		.loc 1 705 0
 723 00b4 0A78     		ldrb	r2, [r1]	@ zero_extendqisi2
 724 00b6 2C4F     		ldr	r7, .L73+4
 725 00b8 BA5C     		ldrb	r2, [r7, r2]	@ zero_extendqisi2
 726 00ba D2B2     		uxtb	r2, r2
 727 00bc 4F78     		ldrb	r7, [r1, #1]	@ zero_extendqisi2
 728 00be BA42     		cmp	r2, r7
 729 00c0 2ED1     		bne	.L59
 707:.\Generated_Source\PSoC5/USBFS_1_std.c ****                             USBFS_1_EP[i].attrib = pEP->attributes;
 730              		.loc 1 707 0
 731 00c2 91F802E0 		ldrb	lr, [r1, #2]	@ zero_extendqisi2
 732 00c6 274A     		ldr	r2, .L73
 733 00c8 7300     		lsls	r3, r6, #1
 734              	.LVL62:
 735 00ca 3344     		add	r3, r3, r6
 736 00cc 9B00     		lsls	r3, r3, #2
 737 00ce D718     		adds	r7, r2, r3
 738 00d0 87F804E0 		strb	lr, [r7, #4]
 708:.\Generated_Source\PSoC5/USBFS_1_std.c ****                             
 739              		.loc 1 708 0
 740 00d4 CF78     		ldrb	r7, [r1, #3]	@ zero_extendqisi2
 741 00d6 D754     		strb	r7, [r2, r3]
 710:.\Generated_Source\PSoC5/USBFS_1_std.c ****                             
 742              		.loc 1 710 0
 743 00d8 CB78     		ldrb	r3, [r1, #3]	@ zero_extendqisi2
 744 00da 03F00303 		and	r3, r3, #3
 745              	.LVL63:
 712:.\Generated_Source\PSoC5/USBFS_1_std.c ****                             {
 746              		.loc 1 712 0
 747 00de 91F90220 		ldrsb	r2, [r1, #2]
 748 00e2 002A     		cmp	r2, #0
 749 00e4 0DDA     		bge	.L61
 715:.\Generated_Source\PSoC5/USBFS_1_std.c ****                                 USBFS_1_EP[i].apiEpState = USBFS_1_EVENT_PENDING;
 750              		.loc 1 715 0
 751 00e6 012B     		cmp	r3, #1
 752 00e8 01D1     		bne	.L70
 753 00ea 0727     		movs	r7, #7
 754 00ec 00E0     		b	.L62
ARM GAS  C:\Users\LUKASC~1\AppData\Local\Temp\ccAgm3t8.s 			page 34


 755              	.L70:
 756 00ee 0D27     		movs	r7, #13
 757              	.L62:
 715:.\Generated_Source\PSoC5/USBFS_1_std.c ****                                 USBFS_1_EP[i].apiEpState = USBFS_1_EVENT_PENDING;
 758              		.loc 1 715 0 is_stmt 0 discriminator 4
 759 00f0 1C49     		ldr	r1, .L73
 760              	.LVL64:
 761 00f2 7300     		lsls	r3, r6, #1
 762              	.LVL65:
 763 00f4 9A19     		adds	r2, r3, r6
 764 00f6 9200     		lsls	r2, r2, #2
 765 00f8 0A44     		add	r2, r2, r1
 766 00fa 5771     		strb	r7, [r2, #5]
 716:.\Generated_Source\PSoC5/USBFS_1_std.c ****                                 
 767              		.loc 1 716 0 is_stmt 1 discriminator 4
 768 00fc 0123     		movs	r3, #1
 769 00fe 5370     		strb	r3, [r2, #1]
 770 0100 13E0     		b	.L63
 771              	.LVL66:
 772              	.L61:
 728:.\Generated_Source\PSoC5/USBFS_1_std.c ****                                 USBFS_1_EP[i].apiEpState = USBFS_1_NO_EVENT_PENDING;
 773              		.loc 1 728 0
 774 0102 012B     		cmp	r3, #1
 775 0104 01D1     		bne	.L71
 776 0106 0527     		movs	r7, #5
 777 0108 00E0     		b	.L64
 778              	.L71:
 779 010a 0927     		movs	r7, #9
 780              	.L64:
 728:.\Generated_Source\PSoC5/USBFS_1_std.c ****                                 USBFS_1_EP[i].apiEpState = USBFS_1_NO_EVENT_PENDING;
 781              		.loc 1 728 0 is_stmt 0 discriminator 4
 782 010c 154A     		ldr	r2, .L73
 783 010e 7100     		lsls	r1, r6, #1
 784              	.LVL67:
 785 0110 8B19     		adds	r3, r1, r6
 786              	.LVL68:
 787 0112 9B00     		lsls	r3, r3, #2
 788 0114 1344     		add	r3, r3, r2
 789 0116 5F71     		strb	r7, [r3, #5]
 729:.\Generated_Source\PSoC5/USBFS_1_std.c ****                                 
 790              		.loc 1 729 0 is_stmt 1 discriminator 4
 791 0118 1E46     		mov	r6, r3
 792 011a 0023     		movs	r3, #0
 793 011c 7370     		strb	r3, [r6, #1]
 794 011e 04E0     		b	.L63
 795              	.LVL69:
 796              	.L59:
 752:.\Generated_Source\PSoC5/USBFS_1_std.c ****                 }
 797              		.loc 1 752 0 discriminator 2
 798 0120 0831     		adds	r1, r1, #8
 799              	.LVL70:
 694:.\Generated_Source\PSoC5/USBFS_1_std.c ****                 {
 800              		.loc 1 694 0 discriminator 2
 801 0122 0133     		adds	r3, r3, #1
 802              	.LVL71:
 803 0124 DBB2     		uxtb	r3, r3
 804              	.LVL72:
ARM GAS  C:\Users\LUKASC~1\AppData\Local\Temp\ccAgm3t8.s 			page 35


 805              	.L58:
 694:.\Generated_Source\PSoC5/USBFS_1_std.c ****                 {
 806              		.loc 1 694 0 is_stmt 0 discriminator 1
 807 0126 AB42     		cmp	r3, r5
 808 0128 ADD3     		bcc	.L65
 809              	.LVL73:
 810              	.L63:
 687:.\Generated_Source\PSoC5/USBFS_1_std.c ****             {
 811              		.loc 1 687 0 is_stmt 1 discriminator 2
 812 012a 0134     		adds	r4, r4, #1
 813              	.LVL74:
 814 012c E4B2     		uxtb	r4, r4
 815              	.LVL75:
 816              	.L57:
 687:.\Generated_Source\PSoC5/USBFS_1_std.c ****             {
 817              		.loc 1 687 0 is_stmt 0 discriminator 1
 818 012e 082C     		cmp	r4, #8
 819 0130 A6D9     		bls	.L66
 762:.\Generated_Source\PSoC5/USBFS_1_std.c ****         for (i = 0u; i < ep; i++)
 820              		.loc 1 762 0 is_stmt 1
 821 0132 C068     		ldr	r0, [r0, #12]
 822              	.LVL76:
 763:.\Generated_Source\PSoC5/USBFS_1_std.c ****         {
 823              		.loc 1 763 0
 824 0134 0022     		movs	r2, #0
 825 0136 0CE0     		b	.L67
 826              	.LVL77:
 827              	.L68:
 766:.\Generated_Source\PSoC5/USBFS_1_std.c ****             pEP = &pEP[1u];
 828              		.loc 1 766 0 discriminator 3
 829 0138 8378     		ldrb	r3, [r0, #2]	@ zero_extendqisi2
 830 013a 03F07F03 		and	r3, r3, #127
 831 013e 10F8084B 		ldrb	r4, [r0], #8	@ zero_extendqisi2
 832              	.LVL78:
 833 0142 03EB4303 		add	r3, r3, r3, lsl #1
 834 0146 9B00     		lsls	r3, r3, #2
 835 0148 0B49     		ldr	r1, .L73+20
 836 014a 0B44     		add	r3, r3, r1
 837 014c 9C70     		strb	r4, [r3, #2]
 838              	.LVL79:
 763:.\Generated_Source\PSoC5/USBFS_1_std.c ****         {
 839              		.loc 1 763 0 discriminator 3
 840 014e 0132     		adds	r2, r2, #1
 841              	.LVL80:
 842 0150 D2B2     		uxtb	r2, r2
 843              	.LVL81:
 844              	.L67:
 763:.\Generated_Source\PSoC5/USBFS_1_std.c ****         {
 845              		.loc 1 763 0 is_stmt 0 discriminator 1
 846 0152 AA42     		cmp	r2, r5
 847 0154 F0D3     		bcc	.L68
 771:.\Generated_Source\PSoC5/USBFS_1_std.c ****         
 848              		.loc 1 771 0 is_stmt 1
 849 0156 FFF7FEFF 		bl	USBFS_1_GetInterfaceClassTablePtr
 850              	.LVL82:
 851 015a 084B     		ldr	r3, .L73+24
 852 015c 1860     		str	r0, [r3]
ARM GAS  C:\Users\LUKASC~1\AppData\Local\Temp\ccAgm3t8.s 			page 36


 789:.\Generated_Source\PSoC5/USBFS_1_std.c ****     }
 853              		.loc 1 789 0
 854 015e FFF7FEFF 		bl	USBFS_1_ConfigReg
 855              	.LVL83:
 856              	.L48:
 857 0162 F8BD     		pop	{r3, r4, r5, r6, r7, pc}
 858              	.L74:
 859              		.align	2
 860              	.L73:
 861 0164 00000000 		.word	USBFS_1_EP
 862 0168 00000000 		.word	USBFS_1_interfaceSetting
 863 016c 00000000 		.word	USBFS_1_interfaceSettingLast
 864 0170 00000000 		.word	USBFS_1_configuration
 865 0174 00000000 		.word	USBFS_1_deviceStatus
 866 0178 08000000 		.word	USBFS_1_EP+8
 867 017c 00000000 		.word	USBFS_1_interfaceClass
 868              		.cfi_endproc
 869              	.LFE3:
 870              		.size	USBFS_1_Config, .-USBFS_1_Config
 871              		.section	.text.USBFS_1_TerminateEP,"ax",%progbits
 872              		.align	2
 873              		.global	USBFS_1_TerminateEP
 874              		.thumb
 875              		.thumb_func
 876              		.type	USBFS_1_TerminateEP, %function
 877              	USBFS_1_TerminateEP:
 878              	.LFB8:
1053:.\Generated_Source\PSoC5/USBFS_1_std.c **** 
1054:.\Generated_Source\PSoC5/USBFS_1_std.c **** 
1055:.\Generated_Source\PSoC5/USBFS_1_std.c **** /*******************************************************************************
1056:.\Generated_Source\PSoC5/USBFS_1_std.c **** * Function Name: USBFS_1_TerminateEP
1057:.\Generated_Source\PSoC5/USBFS_1_std.c **** ****************************************************************************//**
1058:.\Generated_Source\PSoC5/USBFS_1_std.c **** *
1059:.\Generated_Source\PSoC5/USBFS_1_std.c **** *  This function terminates the specified USBFS endpoint.
1060:.\Generated_Source\PSoC5/USBFS_1_std.c **** *  This function should be used before endpoint reconfiguration.
1061:.\Generated_Source\PSoC5/USBFS_1_std.c **** *
1062:.\Generated_Source\PSoC5/USBFS_1_std.c **** *  \param ep Contains the data endpoint number.
1063:.\Generated_Source\PSoC5/USBFS_1_std.c **** *
1064:.\Generated_Source\PSoC5/USBFS_1_std.c **** *  \reentrant
1065:.\Generated_Source\PSoC5/USBFS_1_std.c **** *  No.
1066:.\Generated_Source\PSoC5/USBFS_1_std.c **** *
1067:.\Generated_Source\PSoC5/USBFS_1_std.c **** * \sideeffect
1068:.\Generated_Source\PSoC5/USBFS_1_std.c **** * 
1069:.\Generated_Source\PSoC5/USBFS_1_std.c **** * The device responds with a NAK for any transactions on the selected endpoint.
1070:.\Generated_Source\PSoC5/USBFS_1_std.c **** *   
1071:.\Generated_Source\PSoC5/USBFS_1_std.c **** *******************************************************************************/
1072:.\Generated_Source\PSoC5/USBFS_1_std.c **** void USBFS_1_TerminateEP(uint8 epNumber) 
1073:.\Generated_Source\PSoC5/USBFS_1_std.c **** {
 879              		.loc 1 1073 0
 880              		.cfi_startproc
 881              		@ args = 0, pretend = 0, frame = 0
 882              		@ frame_needed = 0, uses_anonymous_args = 0
 883              		@ link register save eliminated.
 884              	.LVL84:
1074:.\Generated_Source\PSoC5/USBFS_1_std.c ****     /* Get endpoint number */
1075:.\Generated_Source\PSoC5/USBFS_1_std.c ****     epNumber &= USBFS_1_DIR_UNUSED;
 885              		.loc 1 1075 0
ARM GAS  C:\Users\LUKASC~1\AppData\Local\Temp\ccAgm3t8.s 			page 37


 886 0000 00F07F00 		and	r0, r0, #127
 887              	.LVL85:
1076:.\Generated_Source\PSoC5/USBFS_1_std.c **** 
1077:.\Generated_Source\PSoC5/USBFS_1_std.c ****     if ((epNumber > USBFS_1_EP0) && (epNumber < USBFS_1_MAX_EP))
 888              		.loc 1 1077 0
 889 0004 431E     		subs	r3, r0, #1
 890 0006 DBB2     		uxtb	r3, r3
 891 0008 072B     		cmp	r3, #7
 892 000a 19D8     		bhi	.L75
1078:.\Generated_Source\PSoC5/USBFS_1_std.c ****     {
1079:.\Generated_Source\PSoC5/USBFS_1_std.c ****         /* Set the endpoint Halt */
1080:.\Generated_Source\PSoC5/USBFS_1_std.c ****         USBFS_1_EP[epNumber].hwEpState |= USBFS_1_ENDPOINT_STATUS_HALT;
 893              		.loc 1 1080 0
 894 000c 4300     		lsls	r3, r0, #1
 895 000e 0344     		add	r3, r3, r0
 896 0010 9B00     		lsls	r3, r3, #2
 897 0012 0C4A     		ldr	r2, .L78
 898 0014 1344     		add	r3, r3, r2
 899 0016 9A78     		ldrb	r2, [r3, #2]	@ zero_extendqisi2
 900 0018 42F00102 		orr	r2, r2, #1
 901 001c 9A70     		strb	r2, [r3, #2]
1081:.\Generated_Source\PSoC5/USBFS_1_std.c **** 
1082:.\Generated_Source\PSoC5/USBFS_1_std.c ****         /* Clear the data toggle */
1083:.\Generated_Source\PSoC5/USBFS_1_std.c ****         USBFS_1_EP[epNumber].epToggle = 0u;
 902              		.loc 1 1083 0
 903 001e 0022     		movs	r2, #0
 904 0020 DA70     		strb	r2, [r3, #3]
1084:.\Generated_Source\PSoC5/USBFS_1_std.c ****         USBFS_1_EP[epNumber].apiEpState = USBFS_1_NO_EVENT_ALLOWED;
 905              		.loc 1 1084 0
 906 0022 0222     		movs	r2, #2
 907 0024 5A70     		strb	r2, [r3, #1]
1085:.\Generated_Source\PSoC5/USBFS_1_std.c **** 
1086:.\Generated_Source\PSoC5/USBFS_1_std.c ****         if ((USBFS_1_EP[epNumber].addr & USBFS_1_DIR_IN) != 0u)
 908              		.loc 1 1086 0
 909 0026 1B79     		ldrb	r3, [r3, #4]	@ zero_extendqisi2
 910 0028 13F0800F 		tst	r3, #128
 911 002c 04D0     		beq	.L77
1087:.\Generated_Source\PSoC5/USBFS_1_std.c ****         {   
1088:.\Generated_Source\PSoC5/USBFS_1_std.c ****             /* IN Endpoint */
1089:.\Generated_Source\PSoC5/USBFS_1_std.c ****             USBFS_1_SIE_EP_BASE.sieEp[epNumber].epCr0 = USBFS_1_MODE_NAK_IN;
 912              		.loc 1 1089 0
 913 002e 0001     		lsls	r0, r0, #4
 914              	.LVL86:
 915 0030 054B     		ldr	r3, .L78+4
 916 0032 0C22     		movs	r2, #12
 917 0034 1A54     		strb	r2, [r3, r0]
 918 0036 7047     		bx	lr
 919              	.LVL87:
 920              	.L77:
1090:.\Generated_Source\PSoC5/USBFS_1_std.c ****         }
1091:.\Generated_Source\PSoC5/USBFS_1_std.c ****         else
1092:.\Generated_Source\PSoC5/USBFS_1_std.c ****         {
1093:.\Generated_Source\PSoC5/USBFS_1_std.c ****             /* OUT Endpoint */
1094:.\Generated_Source\PSoC5/USBFS_1_std.c ****             USBFS_1_SIE_EP_BASE.sieEp[epNumber].epCr0 = USBFS_1_MODE_NAK_OUT;
 921              		.loc 1 1094 0
 922 0038 0001     		lsls	r0, r0, #4
 923              	.LVL88:
ARM GAS  C:\Users\LUKASC~1\AppData\Local\Temp\ccAgm3t8.s 			page 38


 924 003a 034B     		ldr	r3, .L78+4
 925 003c 0822     		movs	r2, #8
 926 003e 1A54     		strb	r2, [r3, r0]
 927              	.L75:
 928 0040 7047     		bx	lr
 929              	.L79:
 930 0042 00BF     		.align	2
 931              	.L78:
 932 0044 00000000 		.word	USBFS_1_EP
 933 0048 FE5F0040 		.word	1073766398
 934              		.cfi_endproc
 935              	.LFE8:
 936              		.size	USBFS_1_TerminateEP, .-USBFS_1_TerminateEP
 937              		.section	.text.USBFS_1_SetEndpointHalt,"ax",%progbits
 938              		.align	2
 939              		.global	USBFS_1_SetEndpointHalt
 940              		.thumb
 941              		.thumb_func
 942              		.type	USBFS_1_SetEndpointHalt, %function
 943              	USBFS_1_SetEndpointHalt:
 944              	.LFB9:
1095:.\Generated_Source\PSoC5/USBFS_1_std.c ****         }
1096:.\Generated_Source\PSoC5/USBFS_1_std.c ****     }
1097:.\Generated_Source\PSoC5/USBFS_1_std.c **** }
1098:.\Generated_Source\PSoC5/USBFS_1_std.c **** 
1099:.\Generated_Source\PSoC5/USBFS_1_std.c **** 
1100:.\Generated_Source\PSoC5/USBFS_1_std.c **** /*******************************************************************************
1101:.\Generated_Source\PSoC5/USBFS_1_std.c **** * Function Name: USBFS_1_SetEndpointHalt
1102:.\Generated_Source\PSoC5/USBFS_1_std.c **** ****************************************************************************//**
1103:.\Generated_Source\PSoC5/USBFS_1_std.c **** *
1104:.\Generated_Source\PSoC5/USBFS_1_std.c **** *  This routine handles set endpoint halt.
1105:.\Generated_Source\PSoC5/USBFS_1_std.c **** *
1106:.\Generated_Source\PSoC5/USBFS_1_std.c **** * \return
1107:.\Generated_Source\PSoC5/USBFS_1_std.c **** *  requestHandled.
1108:.\Generated_Source\PSoC5/USBFS_1_std.c **** *
1109:.\Generated_Source\PSoC5/USBFS_1_std.c **** * \reentrant
1110:.\Generated_Source\PSoC5/USBFS_1_std.c **** *  No.
1111:.\Generated_Source\PSoC5/USBFS_1_std.c **** *
1112:.\Generated_Source\PSoC5/USBFS_1_std.c **** *******************************************************************************/
1113:.\Generated_Source\PSoC5/USBFS_1_std.c **** uint8 USBFS_1_SetEndpointHalt(void) 
1114:.\Generated_Source\PSoC5/USBFS_1_std.c **** {
 945              		.loc 1 1114 0
 946              		.cfi_startproc
 947              		@ args = 0, pretend = 0, frame = 0
 948              		@ frame_needed = 0, uses_anonymous_args = 0
 949 0000 08B5     		push	{r3, lr}
 950              		.cfi_def_cfa_offset 8
 951              		.cfi_offset 3, -8
 952              		.cfi_offset 14, -4
 953              	.LVL89:
1115:.\Generated_Source\PSoC5/USBFS_1_std.c ****     uint8 requestHandled = USBFS_1_FALSE;
1116:.\Generated_Source\PSoC5/USBFS_1_std.c ****     uint8 ep;
1117:.\Generated_Source\PSoC5/USBFS_1_std.c ****     
1118:.\Generated_Source\PSoC5/USBFS_1_std.c ****     /* Set endpoint halt */
1119:.\Generated_Source\PSoC5/USBFS_1_std.c ****     ep = USBFS_1_wIndexLoReg & USBFS_1_DIR_UNUSED;
 954              		.loc 1 1119 0
 955 0002 154B     		ldr	r3, .L86
ARM GAS  C:\Users\LUKASC~1\AppData\Local\Temp\ccAgm3t8.s 			page 39


 956 0004 1A79     		ldrb	r2, [r3, #4]	@ zero_extendqisi2
 957 0006 02F07F02 		and	r2, r2, #127
 958              	.LVL90:
1120:.\Generated_Source\PSoC5/USBFS_1_std.c **** 
1121:.\Generated_Source\PSoC5/USBFS_1_std.c ****     if ((ep > USBFS_1_EP0) && (ep < USBFS_1_MAX_EP))
 959              		.loc 1 1121 0
 960 000a 531E     		subs	r3, r2, #1
 961 000c DBB2     		uxtb	r3, r3
 962 000e 072B     		cmp	r3, #7
 963 0010 20D8     		bhi	.L84
1122:.\Generated_Source\PSoC5/USBFS_1_std.c ****     {
1123:.\Generated_Source\PSoC5/USBFS_1_std.c ****         /* Set the endpoint Halt */
1124:.\Generated_Source\PSoC5/USBFS_1_std.c ****         USBFS_1_EP[ep].hwEpState |= (USBFS_1_ENDPOINT_STATUS_HALT);
 964              		.loc 1 1124 0
 965 0012 5300     		lsls	r3, r2, #1
 966 0014 1344     		add	r3, r3, r2
 967 0016 9B00     		lsls	r3, r3, #2
 968 0018 1049     		ldr	r1, .L86+4
 969 001a 0B44     		add	r3, r3, r1
 970 001c 9978     		ldrb	r1, [r3, #2]	@ zero_extendqisi2
 971 001e 41F00101 		orr	r1, r1, #1
 972 0022 9970     		strb	r1, [r3, #2]
1125:.\Generated_Source\PSoC5/USBFS_1_std.c **** 
1126:.\Generated_Source\PSoC5/USBFS_1_std.c ****         /* Clear the data toggle */
1127:.\Generated_Source\PSoC5/USBFS_1_std.c ****         USBFS_1_EP[ep].epToggle = 0u;
 973              		.loc 1 1127 0
 974 0024 0021     		movs	r1, #0
 975 0026 D970     		strb	r1, [r3, #3]
1128:.\Generated_Source\PSoC5/USBFS_1_std.c ****         USBFS_1_EP[ep].apiEpState |= USBFS_1_NO_EVENT_ALLOWED;
 976              		.loc 1 1128 0
 977 0028 5978     		ldrb	r1, [r3, #1]	@ zero_extendqisi2
 978 002a 41F00201 		orr	r1, r1, #2
 979 002e 5970     		strb	r1, [r3, #1]
1129:.\Generated_Source\PSoC5/USBFS_1_std.c **** 
1130:.\Generated_Source\PSoC5/USBFS_1_std.c ****         if ((USBFS_1_EP[ep].addr & USBFS_1_DIR_IN) != 0u)
 980              		.loc 1 1130 0
 981 0030 1B79     		ldrb	r3, [r3, #4]	@ zero_extendqisi2
 982 0032 13F0800F 		tst	r3, #128
 983 0036 05D0     		beq	.L82
1131:.\Generated_Source\PSoC5/USBFS_1_std.c ****         {
1132:.\Generated_Source\PSoC5/USBFS_1_std.c ****             /* IN Endpoint */
1133:.\Generated_Source\PSoC5/USBFS_1_std.c ****             USBFS_1_SIE_EP_BASE.sieEp[ep].epCr0 = (USBFS_1_MODE_STALL_DATA_EP | 
 984              		.loc 1 1133 0
 985 0038 1201     		lsls	r2, r2, #4
 986              	.LVL91:
 987 003a 094B     		ldr	r3, .L86+8
 988 003c 1344     		add	r3, r3, r2
 989 003e 8D22     		movs	r2, #141
 990 0040 9A70     		strb	r2, [r3, #2]
 991 0042 04E0     		b	.L83
 992              	.LVL92:
 993              	.L82:
1134:.\Generated_Source\PSoC5/USBFS_1_std.c ****                                                             USBFS_1_MODE_ACK_IN);
1135:.\Generated_Source\PSoC5/USBFS_1_std.c ****         }
1136:.\Generated_Source\PSoC5/USBFS_1_std.c ****         else
1137:.\Generated_Source\PSoC5/USBFS_1_std.c ****         {
1138:.\Generated_Source\PSoC5/USBFS_1_std.c ****             /* OUT Endpoint */
ARM GAS  C:\Users\LUKASC~1\AppData\Local\Temp\ccAgm3t8.s 			page 40


1139:.\Generated_Source\PSoC5/USBFS_1_std.c ****             USBFS_1_SIE_EP_BASE.sieEp[ep].epCr0 = (USBFS_1_MODE_STALL_DATA_EP | 
 994              		.loc 1 1139 0
 995 0044 1201     		lsls	r2, r2, #4
 996              	.LVL93:
 997 0046 064B     		ldr	r3, .L86+8
 998 0048 1344     		add	r3, r3, r2
 999 004a 8922     		movs	r2, #137
 1000 004c 9A70     		strb	r2, [r3, #2]
 1001              	.L83:
1140:.\Generated_Source\PSoC5/USBFS_1_std.c ****                                                             USBFS_1_MODE_ACK_OUT);
1141:.\Generated_Source\PSoC5/USBFS_1_std.c ****         }
1142:.\Generated_Source\PSoC5/USBFS_1_std.c ****         requestHandled = USBFS_1_InitNoDataControlTransfer();
 1002              		.loc 1 1142 0
 1003 004e FFF7FEFF 		bl	USBFS_1_InitNoDataControlTransfer
 1004              	.LVL94:
 1005 0052 08BD     		pop	{r3, pc}
 1006              	.LVL95:
 1007              	.L84:
1115:.\Generated_Source\PSoC5/USBFS_1_std.c ****     uint8 ep;
 1008              		.loc 1 1115 0
 1009 0054 0020     		movs	r0, #0
 1010              	.LVL96:
1143:.\Generated_Source\PSoC5/USBFS_1_std.c ****     }
1144:.\Generated_Source\PSoC5/USBFS_1_std.c **** 
1145:.\Generated_Source\PSoC5/USBFS_1_std.c ****     return (requestHandled);
1146:.\Generated_Source\PSoC5/USBFS_1_std.c **** }
 1011              		.loc 1 1146 0
 1012 0056 08BD     		pop	{r3, pc}
 1013              	.L87:
 1014              		.align	2
 1015              	.L86:
 1016 0058 00600040 		.word	1073766400
 1017 005c 00000000 		.word	USBFS_1_EP
 1018 0060 FC5F0040 		.word	1073766396
 1019              		.cfi_endproc
 1020              	.LFE9:
 1021              		.size	USBFS_1_SetEndpointHalt, .-USBFS_1_SetEndpointHalt
 1022              		.section	.text.USBFS_1_ClearEndpointHalt,"ax",%progbits
 1023              		.align	2
 1024              		.global	USBFS_1_ClearEndpointHalt
 1025              		.thumb
 1026              		.thumb_func
 1027              		.type	USBFS_1_ClearEndpointHalt, %function
 1028              	USBFS_1_ClearEndpointHalt:
 1029              	.LFB10:
1147:.\Generated_Source\PSoC5/USBFS_1_std.c **** 
1148:.\Generated_Source\PSoC5/USBFS_1_std.c **** 
1149:.\Generated_Source\PSoC5/USBFS_1_std.c **** /*******************************************************************************
1150:.\Generated_Source\PSoC5/USBFS_1_std.c **** * Function Name: USBFS_1_ClearEndpointHalt
1151:.\Generated_Source\PSoC5/USBFS_1_std.c **** ****************************************************************************//**
1152:.\Generated_Source\PSoC5/USBFS_1_std.c **** *
1153:.\Generated_Source\PSoC5/USBFS_1_std.c **** *  This routine handles clear endpoint halt.
1154:.\Generated_Source\PSoC5/USBFS_1_std.c **** *
1155:.\Generated_Source\PSoC5/USBFS_1_std.c **** * \return
1156:.\Generated_Source\PSoC5/USBFS_1_std.c **** *  requestHandled.
1157:.\Generated_Source\PSoC5/USBFS_1_std.c **** *
1158:.\Generated_Source\PSoC5/USBFS_1_std.c **** * \reentrant
ARM GAS  C:\Users\LUKASC~1\AppData\Local\Temp\ccAgm3t8.s 			page 41


1159:.\Generated_Source\PSoC5/USBFS_1_std.c **** *  No.
1160:.\Generated_Source\PSoC5/USBFS_1_std.c **** *
1161:.\Generated_Source\PSoC5/USBFS_1_std.c **** *******************************************************************************/
1162:.\Generated_Source\PSoC5/USBFS_1_std.c **** uint8 USBFS_1_ClearEndpointHalt(void) 
1163:.\Generated_Source\PSoC5/USBFS_1_std.c **** {
 1030              		.loc 1 1163 0
 1031              		.cfi_startproc
 1032              		@ args = 0, pretend = 0, frame = 0
 1033              		@ frame_needed = 0, uses_anonymous_args = 0
 1034              	.LVL97:
1164:.\Generated_Source\PSoC5/USBFS_1_std.c ****     uint8 requestHandled = USBFS_1_FALSE;
1165:.\Generated_Source\PSoC5/USBFS_1_std.c ****     uint8 ep;
1166:.\Generated_Source\PSoC5/USBFS_1_std.c **** 
1167:.\Generated_Source\PSoC5/USBFS_1_std.c ****     /* Clear endpoint halt */
1168:.\Generated_Source\PSoC5/USBFS_1_std.c ****     ep = USBFS_1_wIndexLoReg & USBFS_1_DIR_UNUSED;
 1035              		.loc 1 1168 0
 1036 0000 264B     		ldr	r3, .L97
 1037 0002 1B79     		ldrb	r3, [r3, #4]	@ zero_extendqisi2
 1038 0004 03F07F03 		and	r3, r3, #127
 1039              	.LVL98:
1169:.\Generated_Source\PSoC5/USBFS_1_std.c **** 
1170:.\Generated_Source\PSoC5/USBFS_1_std.c ****     if ((ep > USBFS_1_EP0) && (ep < USBFS_1_MAX_EP))
 1040              		.loc 1 1170 0
 1041 0008 5A1E     		subs	r2, r3, #1
 1042 000a D2B2     		uxtb	r2, r2
 1043 000c 072A     		cmp	r2, #7
 1044 000e 43D8     		bhi	.L94
1163:.\Generated_Source\PSoC5/USBFS_1_std.c ****     uint8 requestHandled = USBFS_1_FALSE;
 1045              		.loc 1 1163 0
 1046 0010 10B5     		push	{r4, lr}
 1047              		.cfi_def_cfa_offset 8
 1048              		.cfi_offset 4, -8
 1049              		.cfi_offset 14, -4
1171:.\Generated_Source\PSoC5/USBFS_1_std.c ****     {
1172:.\Generated_Source\PSoC5/USBFS_1_std.c ****         /* Clear the endpoint Halt */
1173:.\Generated_Source\PSoC5/USBFS_1_std.c ****         USBFS_1_EP[ep].hwEpState &= (uint8) ~USBFS_1_ENDPOINT_STATUS_HALT;
 1050              		.loc 1 1173 0
 1051 0012 5A00     		lsls	r2, r3, #1
 1052 0014 1A44     		add	r2, r2, r3
 1053 0016 9200     		lsls	r2, r2, #2
 1054 0018 2149     		ldr	r1, .L97+4
 1055 001a 0A44     		add	r2, r2, r1
 1056 001c 9178     		ldrb	r1, [r2, #2]	@ zero_extendqisi2
 1057 001e 01F0FE01 		and	r1, r1, #254
 1058 0022 9170     		strb	r1, [r2, #2]
1174:.\Generated_Source\PSoC5/USBFS_1_std.c **** 
1175:.\Generated_Source\PSoC5/USBFS_1_std.c ****         /* Clear the data toggle */
1176:.\Generated_Source\PSoC5/USBFS_1_std.c ****         USBFS_1_EP[ep].epToggle = 0u;
 1059              		.loc 1 1176 0
 1060 0024 0021     		movs	r1, #0
 1061 0026 D170     		strb	r1, [r2, #3]
1177:.\Generated_Source\PSoC5/USBFS_1_std.c ****         
1178:.\Generated_Source\PSoC5/USBFS_1_std.c ****         /* Clear toggle bit for already armed packet */
1179:.\Generated_Source\PSoC5/USBFS_1_std.c ****         USBFS_1_SIE_EP_BASE.sieEp[ep].epCnt0 = (uint8) ~(uint8)USBFS_1_EPX_CNT_DATA_TOGGLE;
 1062              		.loc 1 1179 0
 1063 0028 1901     		lsls	r1, r3, #4
 1064 002a 7F24     		movs	r4, #127
ARM GAS  C:\Users\LUKASC~1\AppData\Local\Temp\ccAgm3t8.s 			page 42


 1065 002c 1D48     		ldr	r0, .L97+8
 1066 002e 4454     		strb	r4, [r0, r1]
1180:.\Generated_Source\PSoC5/USBFS_1_std.c ****         
1181:.\Generated_Source\PSoC5/USBFS_1_std.c ****         /* Return API State as it was defined before */
1182:.\Generated_Source\PSoC5/USBFS_1_std.c ****         USBFS_1_EP[ep].apiEpState &= (uint8) ~USBFS_1_NO_EVENT_ALLOWED;
 1067              		.loc 1 1182 0
 1068 0030 5178     		ldrb	r1, [r2, #1]	@ zero_extendqisi2
 1069 0032 01F0FD01 		and	r1, r1, #253
 1070 0036 5170     		strb	r1, [r2, #1]
1183:.\Generated_Source\PSoC5/USBFS_1_std.c **** 
1184:.\Generated_Source\PSoC5/USBFS_1_std.c ****         if ((USBFS_1_EP[ep].addr & USBFS_1_DIR_IN) != 0u)
 1071              		.loc 1 1184 0
 1072 0038 1279     		ldrb	r2, [r2, #4]	@ zero_extendqisi2
 1073 003a 12F0800F 		tst	r2, #128
 1074 003e 14D0     		beq	.L90
1185:.\Generated_Source\PSoC5/USBFS_1_std.c ****         {
1186:.\Generated_Source\PSoC5/USBFS_1_std.c ****             /* IN Endpoint */
1187:.\Generated_Source\PSoC5/USBFS_1_std.c ****             if(USBFS_1_EP[ep].apiEpState == USBFS_1_IN_BUFFER_EMPTY)
 1075              		.loc 1 1187 0
 1076 0040 03EB4302 		add	r2, r3, r3, lsl #1
 1077 0044 9200     		lsls	r2, r2, #2
 1078 0046 1649     		ldr	r1, .L97+4
 1079 0048 0A44     		add	r2, r2, r1
 1080 004a 5278     		ldrb	r2, [r2, #1]	@ zero_extendqisi2
 1081 004c D2B2     		uxtb	r2, r2
 1082 004e 012A     		cmp	r2, #1
 1083 0050 05D1     		bne	.L91
1188:.\Generated_Source\PSoC5/USBFS_1_std.c ****             {       
1189:.\Generated_Source\PSoC5/USBFS_1_std.c ****                 /* Wait for next packet from application */
1190:.\Generated_Source\PSoC5/USBFS_1_std.c ****                 USBFS_1_SIE_EP_BASE.sieEp[ep].epCr0 = USBFS_1_MODE_NAK_IN;
 1084              		.loc 1 1190 0
 1085 0052 1B01     		lsls	r3, r3, #4
 1086              	.LVL99:
 1087 0054 0246     		mov	r2, r0
 1088 0056 1A44     		add	r2, r2, r3
 1089 0058 0C23     		movs	r3, #12
 1090 005a 9370     		strb	r3, [r2, #2]
 1091 005c 19E0     		b	.L92
 1092              	.LVL100:
 1093              	.L91:
1191:.\Generated_Source\PSoC5/USBFS_1_std.c ****             }
1192:.\Generated_Source\PSoC5/USBFS_1_std.c ****             else    /* Continue armed transfer */
1193:.\Generated_Source\PSoC5/USBFS_1_std.c ****             {
1194:.\Generated_Source\PSoC5/USBFS_1_std.c ****                 USBFS_1_SIE_EP_BASE.sieEp[ep].epCr0 = USBFS_1_MODE_ACK_IN;
 1094              		.loc 1 1194 0
 1095 005e 1B01     		lsls	r3, r3, #4
 1096              	.LVL101:
 1097 0060 104A     		ldr	r2, .L97+8
 1098 0062 1A44     		add	r2, r2, r3
 1099 0064 0D23     		movs	r3, #13
 1100 0066 9370     		strb	r3, [r2, #2]
 1101 0068 13E0     		b	.L92
 1102              	.LVL102:
 1103              	.L90:
1195:.\Generated_Source\PSoC5/USBFS_1_std.c ****             }
1196:.\Generated_Source\PSoC5/USBFS_1_std.c ****         }
1197:.\Generated_Source\PSoC5/USBFS_1_std.c ****         else
ARM GAS  C:\Users\LUKASC~1\AppData\Local\Temp\ccAgm3t8.s 			page 43


1198:.\Generated_Source\PSoC5/USBFS_1_std.c ****         {
1199:.\Generated_Source\PSoC5/USBFS_1_std.c ****             /* OUT Endpoint */
1200:.\Generated_Source\PSoC5/USBFS_1_std.c ****             if (USBFS_1_EP[ep].apiEpState == USBFS_1_OUT_BUFFER_FULL)
 1104              		.loc 1 1200 0
 1105 006a 03EB4302 		add	r2, r3, r3, lsl #1
 1106 006e 9200     		lsls	r2, r2, #2
 1107 0070 0B49     		ldr	r1, .L97+4
 1108 0072 0A44     		add	r2, r2, r1
 1109 0074 5278     		ldrb	r2, [r2, #1]	@ zero_extendqisi2
 1110 0076 D2B2     		uxtb	r2, r2
 1111 0078 012A     		cmp	r2, #1
 1112 007a 05D1     		bne	.L93
1201:.\Generated_Source\PSoC5/USBFS_1_std.c ****             {       
1202:.\Generated_Source\PSoC5/USBFS_1_std.c ****                 /* Allow application to read full buffer */
1203:.\Generated_Source\PSoC5/USBFS_1_std.c ****                 USBFS_1_SIE_EP_BASE.sieEp[ep].epCr0 = USBFS_1_MODE_NAK_OUT;
 1113              		.loc 1 1203 0
 1114 007c 1B01     		lsls	r3, r3, #4
 1115              	.LVL103:
 1116 007e 094A     		ldr	r2, .L97+8
 1117 0080 1A44     		add	r2, r2, r3
 1118 0082 0823     		movs	r3, #8
 1119 0084 9370     		strb	r3, [r2, #2]
 1120 0086 04E0     		b	.L92
 1121              	.LVL104:
 1122              	.L93:
1204:.\Generated_Source\PSoC5/USBFS_1_std.c ****             }
1205:.\Generated_Source\PSoC5/USBFS_1_std.c ****             else    /* Mark endpoint as empty, so it will be reloaded */
1206:.\Generated_Source\PSoC5/USBFS_1_std.c ****             {
1207:.\Generated_Source\PSoC5/USBFS_1_std.c ****                 USBFS_1_SIE_EP_BASE.sieEp[ep].epCr0 = USBFS_1_MODE_ACK_OUT;
 1123              		.loc 1 1207 0
 1124 0088 1B01     		lsls	r3, r3, #4
 1125              	.LVL105:
 1126 008a 064A     		ldr	r2, .L97+8
 1127 008c 1A44     		add	r2, r2, r3
 1128 008e 0923     		movs	r3, #9
 1129 0090 9370     		strb	r3, [r2, #2]
 1130              	.L92:
1208:.\Generated_Source\PSoC5/USBFS_1_std.c ****             }
1209:.\Generated_Source\PSoC5/USBFS_1_std.c ****         }
1210:.\Generated_Source\PSoC5/USBFS_1_std.c ****         
1211:.\Generated_Source\PSoC5/USBFS_1_std.c ****         requestHandled = USBFS_1_InitNoDataControlTransfer();
 1131              		.loc 1 1211 0
 1132 0092 FFF7FEFF 		bl	USBFS_1_InitNoDataControlTransfer
 1133              	.LVL106:
 1134 0096 10BD     		pop	{r4, pc}
 1135              	.LVL107:
 1136              	.L94:
 1137              		.cfi_def_cfa_offset 0
 1138              		.cfi_restore 4
 1139              		.cfi_restore 14
1164:.\Generated_Source\PSoC5/USBFS_1_std.c ****     uint8 ep;
 1140              		.loc 1 1164 0
 1141 0098 0020     		movs	r0, #0
 1142 009a 7047     		bx	lr
 1143              	.L98:
 1144              		.align	2
 1145              	.L97:
ARM GAS  C:\Users\LUKASC~1\AppData\Local\Temp\ccAgm3t8.s 			page 44


 1146 009c 00600040 		.word	1073766400
 1147 00a0 00000000 		.word	USBFS_1_EP
 1148 00a4 FC5F0040 		.word	1073766396
 1149              		.cfi_endproc
 1150              	.LFE10:
 1151              		.size	USBFS_1_ClearEndpointHalt, .-USBFS_1_ClearEndpointHalt
 1152              		.section	.text.USBFS_1_ValidateAlternateSetting,"ax",%progbits
 1153              		.align	2
 1154              		.global	USBFS_1_ValidateAlternateSetting
 1155              		.thumb
 1156              		.thumb_func
 1157              		.type	USBFS_1_ValidateAlternateSetting, %function
 1158              	USBFS_1_ValidateAlternateSetting:
 1159              	.LFB11:
1212:.\Generated_Source\PSoC5/USBFS_1_std.c ****     }
1213:.\Generated_Source\PSoC5/USBFS_1_std.c **** 
1214:.\Generated_Source\PSoC5/USBFS_1_std.c ****     return(requestHandled);
1215:.\Generated_Source\PSoC5/USBFS_1_std.c **** }
1216:.\Generated_Source\PSoC5/USBFS_1_std.c **** 
1217:.\Generated_Source\PSoC5/USBFS_1_std.c **** 
1218:.\Generated_Source\PSoC5/USBFS_1_std.c **** /*******************************************************************************
1219:.\Generated_Source\PSoC5/USBFS_1_std.c **** * Function Name: USBFS_1_ValidateAlternateSetting
1220:.\Generated_Source\PSoC5/USBFS_1_std.c **** ****************************************************************************//**
1221:.\Generated_Source\PSoC5/USBFS_1_std.c **** *
1222:.\Generated_Source\PSoC5/USBFS_1_std.c **** *  Validates (and records) a SET INTERFACE request.
1223:.\Generated_Source\PSoC5/USBFS_1_std.c **** *
1224:.\Generated_Source\PSoC5/USBFS_1_std.c **** * \return
1225:.\Generated_Source\PSoC5/USBFS_1_std.c **** *  requestHandled.
1226:.\Generated_Source\PSoC5/USBFS_1_std.c **** *
1227:.\Generated_Source\PSoC5/USBFS_1_std.c **** * \reentrant
1228:.\Generated_Source\PSoC5/USBFS_1_std.c **** *  No.
1229:.\Generated_Source\PSoC5/USBFS_1_std.c **** *
1230:.\Generated_Source\PSoC5/USBFS_1_std.c **** *******************************************************************************/
1231:.\Generated_Source\PSoC5/USBFS_1_std.c **** uint8 USBFS_1_ValidateAlternateSetting(void) 
1232:.\Generated_Source\PSoC5/USBFS_1_std.c **** {
 1160              		.loc 1 1232 0
 1161              		.cfi_startproc
 1162              		@ args = 0, pretend = 0, frame = 0
 1163              		@ frame_needed = 0, uses_anonymous_args = 0
 1164 0000 10B5     		push	{r4, lr}
 1165              		.cfi_def_cfa_offset 8
 1166              		.cfi_offset 4, -8
 1167              		.cfi_offset 14, -4
 1168              	.LVL108:
1233:.\Generated_Source\PSoC5/USBFS_1_std.c ****     uint8 requestHandled = USBFS_1_FALSE;
1234:.\Generated_Source\PSoC5/USBFS_1_std.c ****     
1235:.\Generated_Source\PSoC5/USBFS_1_std.c ****     uint8 interfaceNum;
1236:.\Generated_Source\PSoC5/USBFS_1_std.c ****     uint8 curInterfacesNum;
1237:.\Generated_Source\PSoC5/USBFS_1_std.c ****     const T_USBFS_1_LUT CYCODE *pTmp;
1238:.\Generated_Source\PSoC5/USBFS_1_std.c ****     
1239:.\Generated_Source\PSoC5/USBFS_1_std.c ****     /* Get interface number from the request. */
1240:.\Generated_Source\PSoC5/USBFS_1_std.c ****     interfaceNum = (uint8) USBFS_1_wIndexLoReg;
 1169              		.loc 1 1240 0
 1170 0002 0E4B     		ldr	r3, .L104
 1171 0004 1C79     		ldrb	r4, [r3, #4]	@ zero_extendqisi2
 1172 0006 E4B2     		uxtb	r4, r4
 1173              	.LVL109:
ARM GAS  C:\Users\LUKASC~1\AppData\Local\Temp\ccAgm3t8.s 			page 45


1241:.\Generated_Source\PSoC5/USBFS_1_std.c ****     
1242:.\Generated_Source\PSoC5/USBFS_1_std.c ****     /* Get number of interfaces for current configuration. */
1243:.\Generated_Source\PSoC5/USBFS_1_std.c ****     pTmp = USBFS_1_GetConfigTablePtr(USBFS_1_configuration - 1u);
 1174              		.loc 1 1243 0
 1175 0008 0D4B     		ldr	r3, .L104+4
 1176 000a 1878     		ldrb	r0, [r3]	@ zero_extendqisi2
 1177 000c 0138     		subs	r0, r0, #1
 1178 000e C0B2     		uxtb	r0, r0
 1179 0010 FFF7FEFF 		bl	USBFS_1_GetConfigTablePtr
 1180              	.LVL110:
1244:.\Generated_Source\PSoC5/USBFS_1_std.c ****     curInterfacesNum  = ((const uint8 *) pTmp->p_list)[USBFS_1_CONFIG_DESCR_NUM_INTERFACES];
 1181              		.loc 1 1244 0
 1182 0014 4368     		ldr	r3, [r0, #4]
 1183 0016 1B79     		ldrb	r3, [r3, #4]	@ zero_extendqisi2
 1184              	.LVL111:
1245:.\Generated_Source\PSoC5/USBFS_1_std.c **** 
1246:.\Generated_Source\PSoC5/USBFS_1_std.c ****     /* Validate that interface number is within range. */
1247:.\Generated_Source\PSoC5/USBFS_1_std.c ****     if ((interfaceNum <= curInterfacesNum) || (interfaceNum <= USBFS_1_MAX_INTERFACES_NUMBER))
 1185              		.loc 1 1247 0
 1186 0018 9C42     		cmp	r4, r3
 1187 001a 01D9     		bls	.L100
 1188              		.loc 1 1247 0 is_stmt 0 discriminator 1
 1189 001c 022C     		cmp	r4, #2
 1190 001e 0AD8     		bhi	.L102
 1191              	.L100:
1248:.\Generated_Source\PSoC5/USBFS_1_std.c ****     {
1249:.\Generated_Source\PSoC5/USBFS_1_std.c ****         /* Save current and new alternate settings (come with request) to make 
1250:.\Generated_Source\PSoC5/USBFS_1_std.c ****         * desicion about following endpoint re-configuration.
1251:.\Generated_Source\PSoC5/USBFS_1_std.c ****         */
1252:.\Generated_Source\PSoC5/USBFS_1_std.c ****         USBFS_1_interfaceSettingLast[interfaceNum] = USBFS_1_interfaceSetting[interfaceNum];
 1192              		.loc 1 1252 0 is_stmt 1
 1193 0020 084A     		ldr	r2, .L104+8
 1194 0022 135D     		ldrb	r3, [r2, r4]	@ zero_extendqisi2
 1195              	.LVL112:
 1196 0024 DBB2     		uxtb	r3, r3
 1197 0026 0849     		ldr	r1, .L104+12
 1198 0028 0B55     		strb	r3, [r1, r4]
1253:.\Generated_Source\PSoC5/USBFS_1_std.c ****         USBFS_1_interfaceSetting[interfaceNum]     = (uint8) USBFS_1_wValueLoReg;
 1199              		.loc 1 1253 0
 1200 002a 044B     		ldr	r3, .L104
 1201 002c 9B78     		ldrb	r3, [r3, #2]	@ zero_extendqisi2
 1202 002e DBB2     		uxtb	r3, r3
 1203 0030 1355     		strb	r3, [r2, r4]
 1204              	.LVL113:
1254:.\Generated_Source\PSoC5/USBFS_1_std.c ****         
1255:.\Generated_Source\PSoC5/USBFS_1_std.c ****         requestHandled = USBFS_1_TRUE;
 1205              		.loc 1 1255 0
 1206 0032 0120     		movs	r0, #1
 1207              	.LVL114:
 1208 0034 10BD     		pop	{r4, pc}
 1209              	.LVL115:
 1210              	.L102:
1233:.\Generated_Source\PSoC5/USBFS_1_std.c ****     
 1211              		.loc 1 1233 0
 1212 0036 0020     		movs	r0, #0
 1213              	.LVL116:
1256:.\Generated_Source\PSoC5/USBFS_1_std.c ****     }
ARM GAS  C:\Users\LUKASC~1\AppData\Local\Temp\ccAgm3t8.s 			page 46


1257:.\Generated_Source\PSoC5/USBFS_1_std.c **** 
1258:.\Generated_Source\PSoC5/USBFS_1_std.c ****     return (requestHandled);
1259:.\Generated_Source\PSoC5/USBFS_1_std.c **** }
 1214              		.loc 1 1259 0
 1215 0038 10BD     		pop	{r4, pc}
 1216              	.LVL117:
 1217              	.L105:
 1218 003a 00BF     		.align	2
 1219              	.L104:
 1220 003c 00600040 		.word	1073766400
 1221 0040 00000000 		.word	USBFS_1_configuration
 1222 0044 00000000 		.word	USBFS_1_interfaceSetting
 1223 0048 00000000 		.word	USBFS_1_interfaceSettingLast
 1224              		.cfi_endproc
 1225              	.LFE11:
 1226              		.size	USBFS_1_ValidateAlternateSetting, .-USBFS_1_ValidateAlternateSetting
 1227              		.section	.text.USBFS_1_HandleStandardRqst,"ax",%progbits
 1228              		.align	2
 1229              		.global	USBFS_1_HandleStandardRqst
 1230              		.thumb
 1231              		.thumb_func
 1232              		.type	USBFS_1_HandleStandardRqst, %function
 1233              	USBFS_1_HandleStandardRqst:
 1234              	.LFB0:
  85:.\Generated_Source\PSoC5/USBFS_1_std.c ****     uint8 requestHandled = USBFS_1_FALSE;
 1235              		.loc 1 85 0
 1236              		.cfi_startproc
 1237              		@ args = 0, pretend = 0, frame = 0
 1238              		@ frame_needed = 0, uses_anonymous_args = 0
 1239 0000 10B5     		push	{r4, lr}
 1240              		.cfi_def_cfa_offset 8
 1241              		.cfi_offset 4, -8
 1242              		.cfi_offset 14, -4
 1243              	.LVL118:
  89:.\Generated_Source\PSoC5/USBFS_1_std.c **** 
 1244              		.loc 1 89 0
 1245 0002 9A4B     		ldr	r3, .L160
 1246 0004 1B78     		ldrb	r3, [r3]	@ zero_extendqisi2
 1247 0006 DBB2     		uxtb	r3, r3
 1248              	.LVL119:
 102:.\Generated_Source\PSoC5/USBFS_1_std.c **** 
 1249              		.loc 1 102 0
 1250 0008 0021     		movs	r1, #0
 1251 000a 994A     		ldr	r2, .L160+4
 1252 000c 1180     		strh	r1, [r2]	@ movhi
 104:.\Generated_Source\PSoC5/USBFS_1_std.c ****     {
 1253              		.loc 1 104 0
 1254 000e 13F0800F 		tst	r3, #128
 1255 0012 00F09C80 		beq	.L107
 107:.\Generated_Source\PSoC5/USBFS_1_std.c ****         {
 1256              		.loc 1 107 0
 1257 0016 954A     		ldr	r2, .L160
 1258 0018 5278     		ldrb	r2, [r2, #1]	@ zero_extendqisi2
 1259 001a D2B2     		uxtb	r2, r2
 1260 001c 0A2A     		cmp	r2, #10
 1261 001e 00F25D81 		bhi	.L139
 1262 0022 DFE812F0 		tbh	[pc, r2, lsl #1]
ARM GAS  C:\Users\LUKASC~1\AppData\Local\Temp\ccAgm3t8.s 			page 47


 1263              	.L110:
 1264 0026 5800     		.2byte	(.L109-.L110)/2
 1265 0028 5B01     		.2byte	(.L139-.L110)/2
 1266 002a 5B01     		.2byte	(.L139-.L110)/2
 1267 002c 5B01     		.2byte	(.L139-.L110)/2
 1268 002e 5B01     		.2byte	(.L139-.L110)/2
 1269 0030 5B01     		.2byte	(.L139-.L110)/2
 1270 0032 0B00     		.2byte	(.L111-.L110)/2
 1271 0034 5B01     		.2byte	(.L139-.L110)/2
 1272 0036 8100     		.2byte	(.L112-.L110)/2
 1273 0038 5B01     		.2byte	(.L139-.L110)/2
 1274 003a 8900     		.2byte	(.L113-.L110)/2
 1275              		.p2align 1
 1276              	.L111:
 110:.\Generated_Source\PSoC5/USBFS_1_std.c ****                 {
 1277              		.loc 1 110 0
 1278 003c 8B4B     		ldr	r3, .L160
 1279              	.LVL120:
 1280 003e DB78     		ldrb	r3, [r3, #3]	@ zero_extendqisi2
 1281 0040 DBB2     		uxtb	r3, r3
 1282 0042 012B     		cmp	r3, #1
 1283 0044 09D1     		bne	.L114
 112:.\Generated_Source\PSoC5/USBFS_1_std.c ****                     USBFS_1_currentTD.pData = (volatile uint8 *)pTmp->p_list;
 1284              		.loc 1 112 0
 1285 0046 FFF7FEFF 		bl	USBFS_1_GetDeviceTablePtr
 1286              	.LVL121:
 113:.\Generated_Source\PSoC5/USBFS_1_std.c ****                     USBFS_1_currentTD.count = USBFS_1_DEVICE_DESCR_LENGTH;
 1287              		.loc 1 113 0
 1288 004a 4268     		ldr	r2, [r0, #4]
 1289 004c 884B     		ldr	r3, .L160+4
 1290 004e 5A60     		str	r2, [r3, #4]
 114:.\Generated_Source\PSoC5/USBFS_1_std.c ****                     
 1291              		.loc 1 114 0
 1292 0050 1222     		movs	r2, #18
 1293 0052 1A80     		strh	r2, [r3]	@ movhi
 116:.\Generated_Source\PSoC5/USBFS_1_std.c ****                 }
 1294              		.loc 1 116 0
 1295 0054 FFF7FEFF 		bl	USBFS_1_InitControlRead
 1296              	.LVL122:
 1297 0058 10BD     		pop	{r4, pc}
 1298              	.LVL123:
 1299              	.L114:
 118:.\Generated_Source\PSoC5/USBFS_1_std.c ****                 {
 1300              		.loc 1 118 0
 1301 005a 844B     		ldr	r3, .L160
 1302 005c DB78     		ldrb	r3, [r3, #3]	@ zero_extendqisi2
 1303 005e DBB2     		uxtb	r3, r3
 1304 0060 022B     		cmp	r3, #2
 1305 0062 13D1     		bne	.L115
 120:.\Generated_Source\PSoC5/USBFS_1_std.c ****                     
 1306              		.loc 1 120 0
 1307 0064 814B     		ldr	r3, .L160
 1308 0066 9878     		ldrb	r0, [r3, #2]	@ zero_extendqisi2
 1309 0068 FFF7FEFF 		bl	USBFS_1_GetConfigTablePtr
 1310              	.LVL124:
 123:.\Generated_Source\PSoC5/USBFS_1_std.c ****                     {
 1311              		.loc 1 123 0
ARM GAS  C:\Users\LUKASC~1\AppData\Local\Temp\ccAgm3t8.s 			page 48


 1312 006c 0028     		cmp	r0, #0
 1313 006e 00F03781 		beq	.L140
 125:.\Generated_Source\PSoC5/USBFS_1_std.c ****                         USBFS_1_currentTD.count = (uint16)((uint16)(USBFS_1_currentTD.pData)[USBFS_
 1314              		.loc 1 125 0
 1315 0072 4268     		ldr	r2, [r0, #4]
 1316 0074 7E4B     		ldr	r3, .L160+4
 1317 0076 5A60     		str	r2, [r3, #4]
 126:.\Generated_Source\PSoC5/USBFS_1_std.c ****                                                                             (USBFS_1_currentTD.pDat
 1318              		.loc 1 126 0
 1319 0078 5A68     		ldr	r2, [r3, #4]
 1320 007a D178     		ldrb	r1, [r2, #3]	@ zero_extendqisi2
 127:.\Generated_Source\PSoC5/USBFS_1_std.c ****                         requestHandled  = USBFS_1_InitControlRead();
 1321              		.loc 1 127 0
 1322 007c 5A68     		ldr	r2, [r3, #4]
 1323 007e 9278     		ldrb	r2, [r2, #2]	@ zero_extendqisi2
 126:.\Generated_Source\PSoC5/USBFS_1_std.c ****                                                                             (USBFS_1_currentTD.pDat
 1324              		.loc 1 126 0
 1325 0080 42EA0122 		orr	r2, r2, r1, lsl #8
 1326 0084 1A80     		strh	r2, [r3]	@ movhi
 128:.\Generated_Source\PSoC5/USBFS_1_std.c ****                     }
 1327              		.loc 1 128 0
 1328 0086 FFF7FEFF 		bl	USBFS_1_InitControlRead
 1329              	.LVL125:
 1330 008a 10BD     		pop	{r4, pc}
 1331              	.LVL126:
 1332              	.L115:
 149:.\Generated_Source\PSoC5/USBFS_1_std.c ****                 {
 1333              		.loc 1 149 0
 1334 008c 774B     		ldr	r3, .L160
 1335 008e DB78     		ldrb	r3, [r3, #3]	@ zero_extendqisi2
 1336 0090 DBB2     		uxtb	r3, r3
 1337 0092 032B     		cmp	r3, #3
 1338 0094 05D0     		beq	.L141
 1339 0096 1BE0     		b	.L155
 1340              	.LVL127:
 1341              	.L119:
 159:.\Generated_Source\PSoC5/USBFS_1_std.c ****                         /* Move to next string descriptor */
 1342              		.loc 1 159 0
 1343 0098 0A78     		ldrb	r2, [r1]	@ zero_extendqisi2
 1344              	.LVL128:
 161:.\Generated_Source\PSoC5/USBFS_1_std.c ****                         nStr++;
 1345              		.loc 1 161 0
 1346 009a 1144     		add	r1, r1, r2
 1347              	.LVL129:
 162:.\Generated_Source\PSoC5/USBFS_1_std.c ****                     }
 1348              		.loc 1 162 0
 1349 009c 0133     		adds	r3, r3, #1
 1350              	.LVL130:
 1351 009e DBB2     		uxtb	r3, r3
 1352              	.LVL131:
 1353 00a0 01E0     		b	.L116
 1354              	.LVL132:
 1355              	.L141:
 1356 00a2 0023     		movs	r3, #0
 1357 00a4 7349     		ldr	r1, .L160+8
 1358              	.LVL133:
 1359              	.L116:
ARM GAS  C:\Users\LUKASC~1\AppData\Local\Temp\ccAgm3t8.s 			page 49


 156:.\Generated_Source\PSoC5/USBFS_1_std.c ****                     {
 1360              		.loc 1 156 0
 1361 00a6 714A     		ldr	r2, .L160
 1362 00a8 9278     		ldrb	r2, [r2, #2]	@ zero_extendqisi2
 1363 00aa D2B2     		uxtb	r2, r2
 1364 00ac 9A42     		cmp	r2, r3
 1365 00ae 03D9     		bls	.L118
 156:.\Generated_Source\PSoC5/USBFS_1_std.c ****                     {
 1366              		.loc 1 156 0 is_stmt 0 discriminator 1
 1367 00b0 0A78     		ldrb	r2, [r1]	@ zero_extendqisi2
 1368 00b2 12F0FF0F 		tst	r2, #255
 1369 00b6 EFD1     		bne	.L119
 1370              	.L118:
 199:.\Generated_Source\PSoC5/USBFS_1_std.c ****                     {
 1371              		.loc 1 199 0 is_stmt 1
 1372 00b8 0B78     		ldrb	r3, [r1]	@ zero_extendqisi2
 1373              	.LVL134:
 1374 00ba 13F0FF0F 		tst	r3, #255
 1375 00be 00F01181 		beq	.L142
 201:.\Generated_Source\PSoC5/USBFS_1_std.c ****                         USBFS_1_currentTD.pData = pStr;
 1376              		.loc 1 201 0
 1377 00c2 0B78     		ldrb	r3, [r1]	@ zero_extendqisi2
 1378 00c4 6A4A     		ldr	r2, .L160+4
 1379 00c6 1380     		strh	r3, [r2]	@ movhi
 202:.\Generated_Source\PSoC5/USBFS_1_std.c ****                         requestHandled  = USBFS_1_InitControlRead();
 1380              		.loc 1 202 0
 1381 00c8 5160     		str	r1, [r2, #4]
 203:.\Generated_Source\PSoC5/USBFS_1_std.c ****                     }
 1382              		.loc 1 203 0
 1383 00ca FFF7FEFF 		bl	USBFS_1_InitControlRead
 1384              	.LVL135:
 1385 00ce 10BD     		pop	{r4, pc}
 1386              	.LVL136:
 1387              	.L155:
 209:.\Generated_Source\PSoC5/USBFS_1_std.c ****                 }
 1388              		.loc 1 209 0
 1389 00d0 FFF7FEFF 		bl	USBFS_1_DispatchClassRqst
 1390              	.LVL137:
 1391 00d4 10BD     		pop	{r4, pc}
 1392              	.LVL138:
 1393              	.L109:
 214:.\Generated_Source\PSoC5/USBFS_1_std.c ****                 {
 1394              		.loc 1 214 0
 1395 00d6 13F00303 		ands	r3, r3, #3
 1396              	.LVL139:
 1397 00da 17D0     		beq	.L120
 1398 00dc 022B     		cmp	r3, #2
 1399 00de 40F00381 		bne	.L156
 217:.\Generated_Source\PSoC5/USBFS_1_std.c ****                         USBFS_1_tBuffer[0u]     = USBFS_1_EP[USBFS_1_wIndexLoReg & USBFS_1_DIR_UNUS
 1400              		.loc 1 217 0
 1401 00e2 6349     		ldr	r1, .L160+4
 1402 00e4 0B80     		strh	r3, [r1]	@ movhi
 218:.\Generated_Source\PSoC5/USBFS_1_std.c ****                         USBFS_1_tBuffer[1u]     = 0u;
 1403              		.loc 1 218 0
 1404 00e6 614B     		ldr	r3, .L160
 1405 00e8 1B79     		ldrb	r3, [r3, #4]	@ zero_extendqisi2
 1406 00ea 03F07F03 		and	r3, r3, #127
ARM GAS  C:\Users\LUKASC~1\AppData\Local\Temp\ccAgm3t8.s 			page 50


 1407 00ee 03EB4303 		add	r3, r3, r3, lsl #1
 1408 00f2 9B00     		lsls	r3, r3, #2
 1409 00f4 604A     		ldr	r2, .L160+12
 1410 00f6 1344     		add	r3, r3, r2
 1411 00f8 9A78     		ldrb	r2, [r3, #2]	@ zero_extendqisi2
 1412 00fa D2B2     		uxtb	r2, r2
 1413 00fc 5F4B     		ldr	r3, .L160+16
 1414 00fe 1A70     		strb	r2, [r3]
 219:.\Generated_Source\PSoC5/USBFS_1_std.c ****                         USBFS_1_currentTD.pData = &USBFS_1_tBuffer[0u];
 1415              		.loc 1 219 0
 1416 0100 0022     		movs	r2, #0
 1417 0102 5A70     		strb	r2, [r3, #1]
 220:.\Generated_Source\PSoC5/USBFS_1_std.c ****                         
 1418              		.loc 1 220 0
 1419 0104 4B60     		str	r3, [r1, #4]
 222:.\Generated_Source\PSoC5/USBFS_1_std.c ****                         break;
 1420              		.loc 1 222 0
 1421 0106 FFF7FEFF 		bl	USBFS_1_InitControlRead
 1422              	.LVL140:
 223:.\Generated_Source\PSoC5/USBFS_1_std.c ****                     case USBFS_1_RQST_RCPT_DEV:
 1423              		.loc 1 223 0
 1424 010a 10BD     		pop	{r4, pc}
 1425              	.LVL141:
 1426              	.L120:
 225:.\Generated_Source\PSoC5/USBFS_1_std.c ****                         USBFS_1_tBuffer[0u]     = USBFS_1_deviceStatus;
 1427              		.loc 1 225 0
 1428 010c 5849     		ldr	r1, .L160+4
 1429 010e 0223     		movs	r3, #2
 1430 0110 0B80     		strh	r3, [r1]	@ movhi
 226:.\Generated_Source\PSoC5/USBFS_1_std.c ****                         USBFS_1_tBuffer[1u]     = 0u;
 1431              		.loc 1 226 0
 1432 0112 5B4B     		ldr	r3, .L160+20
 1433 0114 1A78     		ldrb	r2, [r3]	@ zero_extendqisi2
 1434 0116 D2B2     		uxtb	r2, r2
 1435 0118 584B     		ldr	r3, .L160+16
 1436 011a 1A70     		strb	r2, [r3]
 227:.\Generated_Source\PSoC5/USBFS_1_std.c ****                         USBFS_1_currentTD.pData = &USBFS_1_tBuffer[0u];
 1437              		.loc 1 227 0
 1438 011c 0022     		movs	r2, #0
 1439 011e 5A70     		strb	r2, [r3, #1]
 228:.\Generated_Source\PSoC5/USBFS_1_std.c ****                         
 1440              		.loc 1 228 0
 1441 0120 4B60     		str	r3, [r1, #4]
 230:.\Generated_Source\PSoC5/USBFS_1_std.c ****                         break;
 1442              		.loc 1 230 0
 1443 0122 FFF7FEFF 		bl	USBFS_1_InitControlRead
 1444              	.LVL142:
 231:.\Generated_Source\PSoC5/USBFS_1_std.c ****                     default:    /* requestHandled is initialized as FALSE by default */
 1445              		.loc 1 231 0
 1446 0126 10BD     		pop	{r4, pc}
 1447              	.LVL143:
 1448              	.L112:
 238:.\Generated_Source\PSoC5/USBFS_1_std.c ****                 USBFS_1_currentTD.pData = (volatile uint8 *) &USBFS_1_configuration;
 1449              		.loc 1 238 0
 1450 0128 514B     		ldr	r3, .L160+4
 1451              	.LVL144:
 1452 012a 0122     		movs	r2, #1
ARM GAS  C:\Users\LUKASC~1\AppData\Local\Temp\ccAgm3t8.s 			page 51


 1453 012c 1A80     		strh	r2, [r3]	@ movhi
 239:.\Generated_Source\PSoC5/USBFS_1_std.c ****                 requestHandled  = USBFS_1_InitControlRead();
 1454              		.loc 1 239 0
 1455 012e 554A     		ldr	r2, .L160+24
 1456 0130 5A60     		str	r2, [r3, #4]
 240:.\Generated_Source\PSoC5/USBFS_1_std.c ****                 break;
 1457              		.loc 1 240 0
 1458 0132 FFF7FEFF 		bl	USBFS_1_InitControlRead
 1459              	.LVL145:
 241:.\Generated_Source\PSoC5/USBFS_1_std.c ****                 
 1460              		.loc 1 241 0
 1461 0136 10BD     		pop	{r4, pc}
 1462              	.LVL146:
 1463              	.L113:
 244:.\Generated_Source\PSoC5/USBFS_1_std.c ****                 USBFS_1_currentTD.pData = (volatile uint8 *) &USBFS_1_interfaceSetting[USBFS_1_wInd
 1464              		.loc 1 244 0
 1465 0138 4D4A     		ldr	r2, .L160+4
 1466 013a 0123     		movs	r3, #1
 1467              	.LVL147:
 1468 013c 1380     		strh	r3, [r2]	@ movhi
 245:.\Generated_Source\PSoC5/USBFS_1_std.c ****                 requestHandled  = USBFS_1_InitControlRead();
 1469              		.loc 1 245 0
 1470 013e 4B4B     		ldr	r3, .L160
 1471 0140 1B79     		ldrb	r3, [r3, #4]	@ zero_extendqisi2
 1472 0142 5149     		ldr	r1, .L160+28
 1473 0144 0B44     		add	r3, r3, r1
 1474 0146 5360     		str	r3, [r2, #4]
 246:.\Generated_Source\PSoC5/USBFS_1_std.c ****                 break;
 1475              		.loc 1 246 0
 1476 0148 FFF7FEFF 		bl	USBFS_1_InitControlRead
 1477              	.LVL148:
 247:.\Generated_Source\PSoC5/USBFS_1_std.c ****                 
 1478              		.loc 1 247 0
 1479 014c 10BD     		pop	{r4, pc}
 1480              	.LVL149:
 1481              	.L107:
 256:.\Generated_Source\PSoC5/USBFS_1_std.c ****         {
 1482              		.loc 1 256 0
 1483 014e 474A     		ldr	r2, .L160
 1484 0150 5278     		ldrb	r2, [r2, #1]	@ zero_extendqisi2
 1485 0152 013A     		subs	r2, r2, #1
 1486 0154 0A2A     		cmp	r2, #10
 1487 0156 00F2C980 		bhi	.L144
 1488 015a DFE812F0 		tbh	[pc, r2, lsl #1]
 1489              	.L123:
 1490 015e 4B00     		.2byte	(.L122-.L123)/2
 1491 0160 C700     		.2byte	(.L144-.L123)/2
 1492 0162 7800     		.2byte	(.L124-.L123)/2
 1493 0164 C700     		.2byte	(.L144-.L123)/2
 1494 0166 0B00     		.2byte	(.L125-.L123)/2
 1495 0168 C700     		.2byte	(.L144-.L123)/2
 1496 016a C700     		.2byte	(.L144-.L123)/2
 1497 016c C700     		.2byte	(.L144-.L123)/2
 1498 016e 1300     		.2byte	(.L126-.L123)/2
 1499 0170 C700     		.2byte	(.L144-.L123)/2
 1500 0172 3000     		.2byte	(.L127-.L123)/2
 1501              		.p2align 1
ARM GAS  C:\Users\LUKASC~1\AppData\Local\Temp\ccAgm3t8.s 			page 52


 1502              	.L125:
 260:.\Generated_Source\PSoC5/USBFS_1_std.c ****                 requestHandled = USBFS_1_InitNoDataControlTransfer();
 1503              		.loc 1 260 0
 1504 0174 3D4B     		ldr	r3, .L160
 1505              	.LVL150:
 1506 0176 9B78     		ldrb	r3, [r3, #2]	@ zero_extendqisi2
 1507 0178 DBB2     		uxtb	r3, r3
 1508 017a 444A     		ldr	r2, .L160+32
 1509 017c 1370     		strb	r3, [r2]
 261:.\Generated_Source\PSoC5/USBFS_1_std.c ****                 break;
 1510              		.loc 1 261 0
 1511 017e FFF7FEFF 		bl	USBFS_1_InitNoDataControlTransfer
 1512              	.LVL151:
 262:.\Generated_Source\PSoC5/USBFS_1_std.c ****                 
 1513              		.loc 1 262 0
 1514 0182 10BD     		pop	{r4, pc}
 1515              	.LVL152:
 1516              	.L126:
 265:.\Generated_Source\PSoC5/USBFS_1_std.c ****                 
 1517              		.loc 1 265 0
 1518 0184 394B     		ldr	r3, .L160
 1519              	.LVL153:
 1520 0186 9B78     		ldrb	r3, [r3, #2]	@ zero_extendqisi2
 1521              	.LVL154:
 268:.\Generated_Source\PSoC5/USBFS_1_std.c ****                 {
 1522              		.loc 1 268 0
 1523 0188 03F0FF04 		and	r4, r3, #255
 1524 018c 1BB1     		cbz	r3, .L128
 270:.\Generated_Source\PSoC5/USBFS_1_std.c ****                 }
 1525              		.loc 1 270 0
 1526 018e 601E     		subs	r0, r4, #1
 1527 0190 C0B2     		uxtb	r0, r0
 1528 0192 FFF7FEFF 		bl	USBFS_1_GetConfigTablePtr
 1529              	.LVL155:
 1530              	.L128:
 274:.\Generated_Source\PSoC5/USBFS_1_std.c ****                 {
 1531              		.loc 1 274 0
 1532 0196 04B1     		cbz	r4, .L129
 274:.\Generated_Source\PSoC5/USBFS_1_std.c ****                 {
 1533              		.loc 1 274 0 is_stmt 0 discriminator 1
 1534 0198 10B9     		cbnz	r0, .L130
 1535              	.L129:
 274:.\Generated_Source\PSoC5/USBFS_1_std.c ****                 {
 1536              		.loc 1 274 0 discriminator 3
 1537 019a 002C     		cmp	r4, #0
 1538 019c 40F0A880 		bne	.L145
 1539              	.L130:
 277:.\Generated_Source\PSoC5/USBFS_1_std.c ****                     {
 1540              		.loc 1 277 0 is_stmt 1
 1541 01a0 384B     		ldr	r3, .L160+24
 1542 01a2 1B78     		ldrb	r3, [r3]	@ zero_extendqisi2
 1543 01a4 DBB2     		uxtb	r3, r3
 1544 01a6 9C42     		cmp	r4, r3
 1545 01a8 06D0     		beq	.L131
 279:.\Generated_Source\PSoC5/USBFS_1_std.c ****                         USBFS_1_configurationChanged = USBFS_1_TRUE;
 1546              		.loc 1 279 0
 1547 01aa 364B     		ldr	r3, .L160+24
ARM GAS  C:\Users\LUKASC~1\AppData\Local\Temp\ccAgm3t8.s 			page 53


 1548 01ac 1C70     		strb	r4, [r3]
 280:.\Generated_Source\PSoC5/USBFS_1_std.c ****                         USBFS_1_Config(USBFS_1_TRUE);
 1549              		.loc 1 280 0
 1550 01ae 0120     		movs	r0, #1
 1551              	.LVL156:
 1552 01b0 374B     		ldr	r3, .L160+36
 1553 01b2 1870     		strb	r0, [r3]
 281:.\Generated_Source\PSoC5/USBFS_1_std.c ****                     }
 1554              		.loc 1 281 0
 1555 01b4 FFF7FEFF 		bl	USBFS_1_Config
 1556              	.LVL157:
 1557              	.L131:
 283:.\Generated_Source\PSoC5/USBFS_1_std.c ****                 }
 1558              		.loc 1 283 0
 1559 01b8 FFF7FEFF 		bl	USBFS_1_InitNoDataControlTransfer
 1560              	.LVL158:
 1561 01bc 10BD     		pop	{r4, pc}
 1562              	.LVL159:
 1563              	.L127:
 288:.\Generated_Source\PSoC5/USBFS_1_std.c ****                 {
 1564              		.loc 1 288 0
 1565 01be FFF7FEFF 		bl	USBFS_1_ValidateAlternateSetting
 1566              	.LVL160:
 1567 01c2 0028     		cmp	r0, #0
 1568 01c4 00F09680 		beq	.L146
 291:.\Generated_Source\PSoC5/USBFS_1_std.c ****                     USBFS_1_interfaceNumber = (uint8) USBFS_1_wIndexLoReg;
 1569              		.loc 1 291 0
 1570 01c8 284A     		ldr	r2, .L160
 1571 01ca 1379     		ldrb	r3, [r2, #4]	@ zero_extendqisi2
 1572 01cc DBB2     		uxtb	r3, r3
 1573              	.LVL161:
 292:.\Generated_Source\PSoC5/USBFS_1_std.c ****                      
 1574              		.loc 1 292 0
 1575 01ce 1279     		ldrb	r2, [r2, #4]	@ zero_extendqisi2
 1576 01d0 D2B2     		uxtb	r2, r2
 1577 01d2 3049     		ldr	r1, .L160+40
 1578 01d4 0A70     		strb	r2, [r1]
 295:.\Generated_Source\PSoC5/USBFS_1_std.c ****                     {
 1579              		.loc 1 295 0
 1580 01d6 304A     		ldr	r2, .L160+44
 1581 01d8 D25C     		ldrb	r2, [r2, r3]	@ zero_extendqisi2
 1582 01da 2B49     		ldr	r1, .L160+28
 1583 01dc C95C     		ldrb	r1, [r1, r3]	@ zero_extendqisi2
 1584 01de D3B2     		uxtb	r3, r2
 1585              	.LVL162:
 1586 01e0 8B42     		cmp	r3, r1
 1587 01e2 04D0     		beq	.L132
 297:.\Generated_Source\PSoC5/USBFS_1_std.c ****                     
 1588              		.loc 1 297 0
 1589 01e4 0122     		movs	r2, #1
 1590 01e6 2A4B     		ldr	r3, .L160+36
 1591 01e8 1A70     		strb	r2, [r3]
 303:.\Generated_Source\PSoC5/USBFS_1_std.c ****                     #endif /* (USBFS_1_EP_MANAGEMENT_MANUAL && USBFS_1_EP_ALLOC_DYNAMIC) */
 1592              		.loc 1 303 0
 1593 01ea FFF7FEFF 		bl	USBFS_1_ConfigAltChanged
 1594              	.LVL163:
 1595              	.L132:
ARM GAS  C:\Users\LUKASC~1\AppData\Local\Temp\ccAgm3t8.s 			page 54


 307:.\Generated_Source\PSoC5/USBFS_1_std.c ****                 }
 1596              		.loc 1 307 0
 1597 01ee FFF7FEFF 		bl	USBFS_1_InitNoDataControlTransfer
 1598              	.LVL164:
 1599 01f2 10BD     		pop	{r4, pc}
 1600              	.LVL165:
 1601              	.L122:
 312:.\Generated_Source\PSoC5/USBFS_1_std.c ****                 {
 1602              		.loc 1 312 0
 1603 01f4 03F00303 		and	r3, r3, #3
 1604              	.LVL166:
 1605 01f8 012B     		cmp	r3, #1
 1606 01fa 17D0     		beq	.L133
 1607 01fc 4BB1     		cbz	r3, .L134
 1608 01fe 022B     		cmp	r3, #2
 1609 0200 7AD1     		bne	.L157
 315:.\Generated_Source\PSoC5/USBFS_1_std.c ****                         {
 1610              		.loc 1 315 0
 1611 0202 1A4B     		ldr	r3, .L160
 1612 0204 9B78     		ldrb	r3, [r3, #2]	@ zero_extendqisi2
 1613 0206 13F0FF0F 		tst	r3, #255
 1614 020a 77D1     		bne	.L148
 317:.\Generated_Source\PSoC5/USBFS_1_std.c ****                         }
 1615              		.loc 1 317 0
 1616 020c FFF7FEFF 		bl	USBFS_1_ClearEndpointHalt
 1617              	.LVL167:
 1618 0210 10BD     		pop	{r4, pc}
 1619              	.LVL168:
 1620              	.L134:
 322:.\Generated_Source\PSoC5/USBFS_1_std.c ****                         {
 1621              		.loc 1 322 0
 1622 0212 164B     		ldr	r3, .L160
 1623 0214 9B78     		ldrb	r3, [r3, #2]	@ zero_extendqisi2
 1624 0216 DBB2     		uxtb	r3, r3
 1625 0218 012B     		cmp	r3, #1
 1626 021a 71D1     		bne	.L149
 324:.\Generated_Source\PSoC5/USBFS_1_std.c ****                             requestHandled = USBFS_1_InitNoDataControlTransfer();
 1627              		.loc 1 324 0
 1628 021c 184A     		ldr	r2, .L160+20
 1629 021e 1378     		ldrb	r3, [r2]	@ zero_extendqisi2
 1630 0220 03F0FD03 		and	r3, r3, #253
 1631 0224 1370     		strb	r3, [r2]
 325:.\Generated_Source\PSoC5/USBFS_1_std.c ****                         }
 1632              		.loc 1 325 0
 1633 0226 FFF7FEFF 		bl	USBFS_1_InitNoDataControlTransfer
 1634              	.LVL169:
 1635 022a 10BD     		pop	{r4, pc}
 1636              	.LVL170:
 1637              	.L133:
 330:.\Generated_Source\PSoC5/USBFS_1_std.c ****                         {
 1638              		.loc 1 330 0
 1639 022c 0F4B     		ldr	r3, .L160
 1640 022e 1B79     		ldrb	r3, [r3, #4]	@ zero_extendqisi2
 1641 0230 DBB2     		uxtb	r3, r3
 1642 0232 012B     		cmp	r3, #1
 1643 0234 66D8     		bhi	.L150
 332:.\Generated_Source\PSoC5/USBFS_1_std.c ****                             requestHandled = USBFS_1_InitNoDataControlTransfer();
ARM GAS  C:\Users\LUKASC~1\AppData\Local\Temp\ccAgm3t8.s 			page 55


 1644              		.loc 1 332 0
 1645 0236 0D4B     		ldr	r3, .L160
 1646 0238 9878     		ldrb	r0, [r3, #2]	@ zero_extendqisi2
 1647 023a 1B79     		ldrb	r3, [r3, #4]	@ zero_extendqisi2
 1648 023c DBB2     		uxtb	r3, r3
 1649 023e 1749     		ldr	r1, .L160+48
 1650 0240 CA5C     		ldrb	r2, [r1, r3]	@ zero_extendqisi2
 1651 0242 22EA0002 		bic	r2, r2, r0
 1652 0246 CA54     		strb	r2, [r1, r3]
 333:.\Generated_Source\PSoC5/USBFS_1_std.c ****                         }
 1653              		.loc 1 333 0
 1654 0248 FFF7FEFF 		bl	USBFS_1_InitNoDataControlTransfer
 1655              	.LVL171:
 1656 024c 10BD     		pop	{r4, pc}
 1657              	.LVL172:
 1658              	.L124:
 342:.\Generated_Source\PSoC5/USBFS_1_std.c ****                 {
 1659              		.loc 1 342 0
 1660 024e 03F00303 		and	r3, r3, #3
 1661              	.LVL173:
 1662 0252 012B     		cmp	r3, #1
 1663 0254 31D0     		beq	.L136
 1664 0256 1BB3     		cbz	r3, .L137
 1665 0258 022B     		cmp	r3, #2
 1666 025a 55D1     		bne	.L158
 345:.\Generated_Source\PSoC5/USBFS_1_std.c ****                         {
 1667              		.loc 1 345 0
 1668 025c 034B     		ldr	r3, .L160
 1669 025e 9B78     		ldrb	r3, [r3, #2]	@ zero_extendqisi2
 1670 0260 13F0FF0F 		tst	r3, #255
 1671 0264 52D1     		bne	.L152
 347:.\Generated_Source\PSoC5/USBFS_1_std.c ****                         }
 1672              		.loc 1 347 0
 1673 0266 FFF7FEFF 		bl	USBFS_1_SetEndpointHalt
 1674              	.LVL174:
 1675 026a 10BD     		pop	{r4, pc}
 1676              	.L161:
 1677              		.align	2
 1678              	.L160:
 1679 026c 00600040 		.word	1073766400
 1680 0270 00000000 		.word	USBFS_1_currentTD
 1681 0274 00000000 		.word	USBFS_1_STRING_DESCRIPTORS
 1682 0278 00000000 		.word	USBFS_1_EP
 1683 027c 00000000 		.word	.LANCHOR0
 1684 0280 00000000 		.word	USBFS_1_deviceStatus
 1685 0284 00000000 		.word	USBFS_1_configuration
 1686 0288 00000000 		.word	USBFS_1_interfaceSetting
 1687 028c 00000000 		.word	USBFS_1_deviceAddress
 1688 0290 00000000 		.word	USBFS_1_configurationChanged
 1689 0294 00000000 		.word	USBFS_1_interfaceNumber
 1690 0298 00000000 		.word	USBFS_1_interfaceSettingLast
 1691 029c 00000000 		.word	USBFS_1_interfaceStatus
 1692              	.LVL175:
 1693              	.L137:
 353:.\Generated_Source\PSoC5/USBFS_1_std.c ****                         {
 1694              		.loc 1 353 0
 1695 02a0 1D4B     		ldr	r3, .L162
ARM GAS  C:\Users\LUKASC~1\AppData\Local\Temp\ccAgm3t8.s 			page 56


 1696 02a2 9B78     		ldrb	r3, [r3, #2]	@ zero_extendqisi2
 1697 02a4 DBB2     		uxtb	r3, r3
 1698 02a6 012B     		cmp	r3, #1
 1699 02a8 32D1     		bne	.L153
 355:.\Generated_Source\PSoC5/USBFS_1_std.c ****                             requestHandled = USBFS_1_InitNoDataControlTransfer();
 1700              		.loc 1 355 0
 1701 02aa 1C4A     		ldr	r2, .L162+4
 1702 02ac 1378     		ldrb	r3, [r2]	@ zero_extendqisi2
 1703 02ae 43F00203 		orr	r3, r3, #2
 1704 02b2 1370     		strb	r3, [r2]
 356:.\Generated_Source\PSoC5/USBFS_1_std.c ****                         }
 1705              		.loc 1 356 0
 1706 02b4 FFF7FEFF 		bl	USBFS_1_InitNoDataControlTransfer
 1707              	.LVL176:
 1708 02b8 10BD     		pop	{r4, pc}
 1709              	.LVL177:
 1710              	.L136:
 362:.\Generated_Source\PSoC5/USBFS_1_std.c ****                         {
 1711              		.loc 1 362 0
 1712 02ba 174B     		ldr	r3, .L162
 1713 02bc 1B79     		ldrb	r3, [r3, #4]	@ zero_extendqisi2
 1714 02be DBB2     		uxtb	r3, r3
 1715 02c0 012B     		cmp	r3, #1
 1716 02c2 27D8     		bhi	.L154
 364:.\Generated_Source\PSoC5/USBFS_1_std.c ****                             requestHandled = USBFS_1_InitNoDataControlTransfer();
 1717              		.loc 1 364 0
 1718 02c4 144B     		ldr	r3, .L162
 1719 02c6 9878     		ldrb	r0, [r3, #2]	@ zero_extendqisi2
 1720 02c8 1B79     		ldrb	r3, [r3, #4]	@ zero_extendqisi2
 1721 02ca DBB2     		uxtb	r3, r3
 1722 02cc 1449     		ldr	r1, .L162+8
 1723 02ce CA5C     		ldrb	r2, [r1, r3]	@ zero_extendqisi2
 1724 02d0 22EA0002 		bic	r2, r2, r0
 1725 02d4 CA54     		strb	r2, [r1, r3]
 365:.\Generated_Source\PSoC5/USBFS_1_std.c ****                         }
 1726              		.loc 1 365 0
 1727 02d6 FFF7FEFF 		bl	USBFS_1_InitNoDataControlTransfer
 1728              	.LVL178:
 1729 02da 10BD     		pop	{r4, pc}
 1730              	.LVL179:
 1731              	.L139:
  86:.\Generated_Source\PSoC5/USBFS_1_std.c ****     uint8 interfaceNumber;
 1732              		.loc 1 86 0
 1733 02dc 0020     		movs	r0, #0
 1734 02de 10BD     		pop	{r4, pc}
 1735              	.LVL180:
 1736              	.L140:
 1737 02e0 0020     		movs	r0, #0
 1738              	.LVL181:
 1739 02e2 10BD     		pop	{r4, pc}
 1740              	.LVL182:
 1741              	.L142:
 1742 02e4 0020     		movs	r0, #0
 1743 02e6 10BD     		pop	{r4, pc}
 1744              	.LVL183:
 1745              	.L156:
 1746 02e8 0020     		movs	r0, #0
ARM GAS  C:\Users\LUKASC~1\AppData\Local\Temp\ccAgm3t8.s 			page 57


 1747 02ea 10BD     		pop	{r4, pc}
 1748              	.LVL184:
 1749              	.L144:
 1750 02ec 0020     		movs	r0, #0
 1751 02ee 10BD     		pop	{r4, pc}
 1752              	.LVL185:
 1753              	.L145:
 1754 02f0 0020     		movs	r0, #0
 1755              	.LVL186:
 1756 02f2 10BD     		pop	{r4, pc}
 1757              	.L146:
 1758 02f4 0020     		movs	r0, #0
 1759 02f6 10BD     		pop	{r4, pc}
 1760              	.L157:
 1761 02f8 0020     		movs	r0, #0
 1762 02fa 10BD     		pop	{r4, pc}
 1763              	.L148:
 1764 02fc 0020     		movs	r0, #0
 1765 02fe 10BD     		pop	{r4, pc}
 1766              	.L149:
 1767 0300 0020     		movs	r0, #0
 1768 0302 10BD     		pop	{r4, pc}
 1769              	.L150:
 1770 0304 0020     		movs	r0, #0
 1771 0306 10BD     		pop	{r4, pc}
 1772              	.L158:
 1773 0308 0020     		movs	r0, #0
 1774 030a 10BD     		pop	{r4, pc}
 1775              	.L152:
 1776 030c 0020     		movs	r0, #0
 1777 030e 10BD     		pop	{r4, pc}
 1778              	.L153:
 1779 0310 0020     		movs	r0, #0
 1780 0312 10BD     		pop	{r4, pc}
 1781              	.L154:
 1782 0314 0020     		movs	r0, #0
 1783              	.LVL187:
 380:.\Generated_Source\PSoC5/USBFS_1_std.c **** 
 1784              		.loc 1 380 0
 1785 0316 10BD     		pop	{r4, pc}
 1786              	.L163:
 1787              		.align	2
 1788              	.L162:
 1789 0318 00600040 		.word	1073766400
 1790 031c 00000000 		.word	USBFS_1_deviceStatus
 1791 0320 00000000 		.word	USBFS_1_interfaceStatus
 1792              		.cfi_endproc
 1793              	.LFE0:
 1794              		.size	USBFS_1_HandleStandardRqst, .-USBFS_1_HandleStandardRqst
 1795              		.bss
 1796              		.align	2
 1797              		.set	.LANCHOR0,. + 0
 1798              		.type	USBFS_1_tBuffer.5212, %object
 1799              		.size	USBFS_1_tBuffer.5212, 2
 1800              	USBFS_1_tBuffer.5212:
 1801 0000 0000     		.space	2
 1802 0002 0000     		.text
ARM GAS  C:\Users\LUKASC~1\AppData\Local\Temp\ccAgm3t8.s 			page 58


 1803              	.Letext0:
 1804              		.file 2 ".\\Generated_Source\\PSoC5\\cytypes.h"
 1805              		.file 3 ".\\Generated_Source\\PSoC5\\USBFS_1.h"
 1806              		.file 4 ".\\Generated_Source\\PSoC5\\USBFS_1_pvt.h"
 1807              		.section	.debug_info,"",%progbits
 1808              	.Ldebug_info0:
 1809 0000 CD090000 		.4byte	0x9cd
 1810 0004 0400     		.2byte	0x4
 1811 0006 00000000 		.4byte	.Ldebug_abbrev0
 1812 000a 04       		.byte	0x4
 1813 000b 01       		.uleb128 0x1
 1814 000c 4E060000 		.4byte	.LASF106
 1815 0010 01       		.byte	0x1
 1816 0011 3B020000 		.4byte	.LASF107
 1817 0015 81050000 		.4byte	.LASF108
 1818 0019 00000000 		.4byte	.Ldebug_ranges0+0
 1819 001d 00000000 		.4byte	0
 1820 0021 00000000 		.4byte	.Ldebug_line0
 1821 0025 02       		.uleb128 0x2
 1822 0026 01       		.byte	0x1
 1823 0027 06       		.byte	0x6
 1824 0028 CE000000 		.4byte	.LASF0
 1825 002c 02       		.uleb128 0x2
 1826 002d 01       		.byte	0x1
 1827 002e 08       		.byte	0x8
 1828 002f 6F040000 		.4byte	.LASF1
 1829 0033 02       		.uleb128 0x2
 1830 0034 02       		.byte	0x2
 1831 0035 05       		.byte	0x5
 1832 0036 7D040000 		.4byte	.LASF2
 1833 003a 02       		.uleb128 0x2
 1834 003b 02       		.byte	0x2
 1835 003c 07       		.byte	0x7
 1836 003d 07030000 		.4byte	.LASF3
 1837 0041 02       		.uleb128 0x2
 1838 0042 04       		.byte	0x4
 1839 0043 05       		.byte	0x5
 1840 0044 13010000 		.4byte	.LASF4
 1841 0048 02       		.uleb128 0x2
 1842 0049 04       		.byte	0x4
 1843 004a 07       		.byte	0x7
 1844 004b 78020000 		.4byte	.LASF5
 1845 004f 02       		.uleb128 0x2
 1846 0050 08       		.byte	0x8
 1847 0051 05       		.byte	0x5
 1848 0052 C0000000 		.4byte	.LASF6
 1849 0056 02       		.uleb128 0x2
 1850 0057 08       		.byte	0x8
 1851 0058 07       		.byte	0x7
 1852 0059 7C000000 		.4byte	.LASF7
 1853 005d 03       		.uleb128 0x3
 1854 005e 04       		.byte	0x4
 1855 005f 05       		.byte	0x5
 1856 0060 696E7400 		.ascii	"int\000"
 1857 0064 02       		.uleb128 0x2
 1858 0065 04       		.byte	0x4
 1859 0066 07       		.byte	0x7
ARM GAS  C:\Users\LUKASC~1\AppData\Local\Temp\ccAgm3t8.s 			page 59


 1860 0067 18020000 		.4byte	.LASF8
 1861 006b 04       		.uleb128 0x4
 1862 006c 34010000 		.4byte	.LASF9
 1863 0070 02       		.byte	0x2
 1864 0071 3801     		.2byte	0x138
 1865 0073 2C000000 		.4byte	0x2c
 1866 0077 04       		.uleb128 0x4
 1867 0078 13000000 		.4byte	.LASF10
 1868 007c 02       		.byte	0x2
 1869 007d 3901     		.2byte	0x139
 1870 007f 3A000000 		.4byte	0x3a
 1871 0083 02       		.uleb128 0x2
 1872 0084 04       		.byte	0x4
 1873 0085 04       		.byte	0x4
 1874 0086 12040000 		.4byte	.LASF11
 1875 008a 02       		.uleb128 0x2
 1876 008b 08       		.byte	0x8
 1877 008c 04       		.byte	0x4
 1878 008d 99010000 		.4byte	.LASF12
 1879 0091 02       		.uleb128 0x2
 1880 0092 01       		.byte	0x1
 1881 0093 08       		.byte	0x8
 1882 0094 25050000 		.4byte	.LASF13
 1883 0098 04       		.uleb128 0x4
 1884 0099 6A040000 		.4byte	.LASF14
 1885 009d 02       		.byte	0x2
 1886 009e E201     		.2byte	0x1e2
 1887 00a0 A4000000 		.4byte	0xa4
 1888 00a4 05       		.uleb128 0x5
 1889 00a5 6B000000 		.4byte	0x6b
 1890 00a9 02       		.uleb128 0x2
 1891 00aa 04       		.byte	0x4
 1892 00ab 07       		.byte	0x7
 1893 00ac B1030000 		.4byte	.LASF15
 1894 00b0 06       		.uleb128 0x6
 1895 00b1 0C       		.byte	0xc
 1896 00b2 03       		.byte	0x3
 1897 00b3 8C       		.byte	0x8c
 1898 00b4 25010000 		.4byte	0x125
 1899 00b8 07       		.uleb128 0x7
 1900 00b9 CC030000 		.4byte	.LASF16
 1901 00bd 03       		.byte	0x3
 1902 00be 8E       		.byte	0x8e
 1903 00bf 6B000000 		.4byte	0x6b
 1904 00c3 00       		.byte	0
 1905 00c4 07       		.uleb128 0x7
 1906 00c5 18040000 		.4byte	.LASF17
 1907 00c9 03       		.byte	0x3
 1908 00ca 8F       		.byte	0x8f
 1909 00cb 6B000000 		.4byte	0x6b
 1910 00cf 01       		.byte	0x1
 1911 00d0 07       		.uleb128 0x7
 1912 00d1 8D030000 		.4byte	.LASF18
 1913 00d5 03       		.byte	0x3
 1914 00d6 90       		.byte	0x90
 1915 00d7 6B000000 		.4byte	0x6b
 1916 00db 02       		.byte	0x2
ARM GAS  C:\Users\LUKASC~1\AppData\Local\Temp\ccAgm3t8.s 			page 60


 1917 00dc 07       		.uleb128 0x7
 1918 00dd 3A010000 		.4byte	.LASF19
 1919 00e1 03       		.byte	0x3
 1920 00e2 91       		.byte	0x91
 1921 00e3 6B000000 		.4byte	0x6b
 1922 00e7 03       		.byte	0x3
 1923 00e8 07       		.uleb128 0x7
 1924 00e9 93000000 		.4byte	.LASF20
 1925 00ed 03       		.byte	0x3
 1926 00ee 92       		.byte	0x92
 1927 00ef 6B000000 		.4byte	0x6b
 1928 00f3 04       		.byte	0x4
 1929 00f4 07       		.uleb128 0x7
 1930 00f5 DB010000 		.4byte	.LASF21
 1931 00f9 03       		.byte	0x3
 1932 00fa 93       		.byte	0x93
 1933 00fb 6B000000 		.4byte	0x6b
 1934 00ff 05       		.byte	0x5
 1935 0100 07       		.uleb128 0x7
 1936 0101 EA050000 		.4byte	.LASF22
 1937 0105 03       		.byte	0x3
 1938 0106 94       		.byte	0x94
 1939 0107 77000000 		.4byte	0x77
 1940 010b 06       		.byte	0x6
 1941 010c 07       		.uleb128 0x7
 1942 010d 38050000 		.4byte	.LASF23
 1943 0111 03       		.byte	0x3
 1944 0112 95       		.byte	0x95
 1945 0113 77000000 		.4byte	0x77
 1946 0117 08       		.byte	0x8
 1947 0118 07       		.uleb128 0x7
 1948 0119 7D030000 		.4byte	.LASF24
 1949 011d 03       		.byte	0x3
 1950 011e 96       		.byte	0x96
 1951 011f 6B000000 		.4byte	0x6b
 1952 0123 0A       		.byte	0xa
 1953 0124 00       		.byte	0
 1954 0125 08       		.uleb128 0x8
 1955 0126 21030000 		.4byte	.LASF25
 1956 012a 03       		.byte	0x3
 1957 012b 97       		.byte	0x97
 1958 012c B0000000 		.4byte	0xb0
 1959 0130 06       		.uleb128 0x6
 1960 0131 08       		.byte	0x8
 1961 0132 03       		.byte	0x3
 1962 0133 99       		.byte	0x99
 1963 0134 81010000 		.4byte	0x181
 1964 0138 07       		.uleb128 0x7
 1965 0139 7D030000 		.4byte	.LASF24
 1966 013d 03       		.byte	0x3
 1967 013e 9B       		.byte	0x9b
 1968 013f 6B000000 		.4byte	0x6b
 1969 0143 00       		.byte	0
 1970 0144 07       		.uleb128 0x7
 1971 0145 1A050000 		.4byte	.LASF26
 1972 0149 03       		.byte	0x3
 1973 014a 9C       		.byte	0x9c
ARM GAS  C:\Users\LUKASC~1\AppData\Local\Temp\ccAgm3t8.s 			page 61


 1974 014b 6B000000 		.4byte	0x6b
 1975 014f 01       		.byte	0x1
 1976 0150 07       		.uleb128 0x7
 1977 0151 93000000 		.4byte	.LASF20
 1978 0155 03       		.byte	0x3
 1979 0156 9D       		.byte	0x9d
 1980 0157 6B000000 		.4byte	0x6b
 1981 015b 02       		.byte	0x2
 1982 015c 07       		.uleb128 0x7
 1983 015d D1040000 		.4byte	.LASF27
 1984 0161 03       		.byte	0x3
 1985 0162 9E       		.byte	0x9e
 1986 0163 6B000000 		.4byte	0x6b
 1987 0167 03       		.byte	0x3
 1988 0168 07       		.uleb128 0x7
 1989 0169 38050000 		.4byte	.LASF23
 1990 016d 03       		.byte	0x3
 1991 016e 9F       		.byte	0x9f
 1992 016f 77000000 		.4byte	0x77
 1993 0173 04       		.byte	0x4
 1994 0174 07       		.uleb128 0x7
 1995 0175 F9060000 		.4byte	.LASF28
 1996 0179 03       		.byte	0x3
 1997 017a A0       		.byte	0xa0
 1998 017b 6B000000 		.4byte	0x6b
 1999 017f 06       		.byte	0x6
 2000 0180 00       		.byte	0
 2001 0181 08       		.uleb128 0x8
 2002 0182 1A000000 		.4byte	.LASF29
 2003 0186 03       		.byte	0x3
 2004 0187 A1       		.byte	0xa1
 2005 0188 30010000 		.4byte	0x130
 2006 018c 06       		.uleb128 0x6
 2007 018d 04       		.byte	0x4
 2008 018e 03       		.byte	0x3
 2009 018f A3       		.byte	0xa3
 2010 0190 AD010000 		.4byte	0x1ad
 2011 0194 07       		.uleb128 0x7
 2012 0195 47060000 		.4byte	.LASF30
 2013 0199 03       		.byte	0x3
 2014 019a A5       		.byte	0xa5
 2015 019b 6B000000 		.4byte	0x6b
 2016 019f 00       		.byte	0
 2017 01a0 07       		.uleb128 0x7
 2018 01a1 1B060000 		.4byte	.LASF31
 2019 01a5 03       		.byte	0x3
 2020 01a6 A6       		.byte	0xa6
 2021 01a7 77000000 		.4byte	0x77
 2022 01ab 02       		.byte	0x2
 2023 01ac 00       		.byte	0
 2024 01ad 08       		.uleb128 0x8
 2025 01ae 8A020000 		.4byte	.LASF32
 2026 01b2 03       		.byte	0x3
 2027 01b3 A7       		.byte	0xa7
 2028 01b4 8C010000 		.4byte	0x18c
 2029 01b8 06       		.uleb128 0x6
 2030 01b9 0C       		.byte	0xc
ARM GAS  C:\Users\LUKASC~1\AppData\Local\Temp\ccAgm3t8.s 			page 62


 2031 01ba 03       		.byte	0x3
 2032 01bb A9       		.byte	0xa9
 2033 01bc E5010000 		.4byte	0x1e5
 2034 01c0 07       		.uleb128 0x7
 2035 01c1 0D000000 		.4byte	.LASF33
 2036 01c5 03       		.byte	0x3
 2037 01c6 AB       		.byte	0xab
 2038 01c7 77000000 		.4byte	0x77
 2039 01cb 00       		.byte	0
 2040 01cc 07       		.uleb128 0x7
 2041 01cd D5010000 		.4byte	.LASF34
 2042 01d1 03       		.byte	0x3
 2043 01d2 AC       		.byte	0xac
 2044 01d3 E5010000 		.4byte	0x1e5
 2045 01d7 04       		.byte	0x4
 2046 01d8 07       		.uleb128 0x7
 2047 01d9 00000000 		.4byte	.LASF35
 2048 01dd 03       		.byte	0x3
 2049 01de AD       		.byte	0xad
 2050 01df EB010000 		.4byte	0x1eb
 2051 01e3 08       		.byte	0x8
 2052 01e4 00       		.byte	0
 2053 01e5 09       		.uleb128 0x9
 2054 01e6 04       		.byte	0x4
 2055 01e7 A4000000 		.4byte	0xa4
 2056 01eb 09       		.uleb128 0x9
 2057 01ec 04       		.byte	0x4
 2058 01ed AD010000 		.4byte	0x1ad
 2059 01f1 08       		.uleb128 0x8
 2060 01f2 38030000 		.4byte	.LASF36
 2061 01f6 03       		.byte	0x3
 2062 01f7 AE       		.byte	0xae
 2063 01f8 B8010000 		.4byte	0x1b8
 2064 01fc 06       		.uleb128 0x6
 2065 01fd 08       		.byte	0x8
 2066 01fe 03       		.byte	0x3
 2067 01ff B0       		.byte	0xb0
 2068 0200 1B020000 		.4byte	0x21b
 2069 0204 0A       		.uleb128 0xa
 2070 0205 6300     		.ascii	"c\000"
 2071 0207 03       		.byte	0x3
 2072 0208 B2       		.byte	0xb2
 2073 0209 6B000000 		.4byte	0x6b
 2074 020d 00       		.byte	0
 2075 020e 07       		.uleb128 0x7
 2076 020f C5030000 		.4byte	.LASF37
 2077 0213 03       		.byte	0x3
 2078 0214 B3       		.byte	0xb3
 2079 0215 1B020000 		.4byte	0x21b
 2080 0219 04       		.byte	0x4
 2081 021a 00       		.byte	0
 2082 021b 09       		.uleb128 0x9
 2083 021c 04       		.byte	0x4
 2084 021d 21020000 		.4byte	0x221
 2085 0221 0B       		.uleb128 0xb
 2086 0222 08       		.uleb128 0x8
 2087 0223 2A050000 		.4byte	.LASF38
ARM GAS  C:\Users\LUKASC~1\AppData\Local\Temp\ccAgm3t8.s 			page 63


 2088 0227 03       		.byte	0x3
 2089 0228 B4       		.byte	0xb4
 2090 0229 FC010000 		.4byte	0x1fc
 2091 022d 06       		.uleb128 0x6
 2092 022e 08       		.byte	0x8
 2093 022f 03       		.byte	0x3
 2094 0230 C4       		.byte	0xc4
 2095 0231 42020000 		.4byte	0x242
 2096 0235 07       		.uleb128 0x7
 2097 0236 F2060000 		.4byte	.LASF39
 2098 023a 03       		.byte	0x3
 2099 023b C6       		.byte	0xc6
 2100 023c 42020000 		.4byte	0x242
 2101 0240 00       		.byte	0
 2102 0241 00       		.byte	0
 2103 0242 0C       		.uleb128 0xc
 2104 0243 6B000000 		.4byte	0x6b
 2105 0247 52020000 		.4byte	0x252
 2106 024b 0D       		.uleb128 0xd
 2107 024c A9000000 		.4byte	0xa9
 2108 0250 07       		.byte	0x7
 2109 0251 00       		.byte	0
 2110 0252 08       		.uleb128 0x8
 2111 0253 43010000 		.4byte	.LASF40
 2112 0257 03       		.byte	0x3
 2113 0258 C7       		.byte	0xc7
 2114 0259 2D020000 		.4byte	0x22d
 2115 025d 06       		.uleb128 0x6
 2116 025e 10       		.byte	0x10
 2117 025f 03       		.byte	0x3
 2118 0260 D3       		.byte	0xd3
 2119 0261 96020000 		.4byte	0x296
 2120 0265 07       		.uleb128 0x7
 2121 0266 DB030000 		.4byte	.LASF41
 2122 026a 03       		.byte	0x3
 2123 026b D5       		.byte	0xd5
 2124 026c 6B000000 		.4byte	0x6b
 2125 0270 00       		.byte	0
 2126 0271 07       		.uleb128 0x7
 2127 0272 E2030000 		.4byte	.LASF42
 2128 0276 03       		.byte	0x3
 2129 0277 D6       		.byte	0xd6
 2130 0278 6B000000 		.4byte	0x6b
 2131 027c 01       		.byte	0x1
 2132 027d 07       		.uleb128 0x7
 2133 027e FF030000 		.4byte	.LASF43
 2134 0282 03       		.byte	0x3
 2135 0283 D7       		.byte	0xd7
 2136 0284 6B000000 		.4byte	0x6b
 2137 0288 02       		.byte	0x2
 2138 0289 0A       		.uleb128 0xa
 2139 028a 67617000 		.ascii	"gap\000"
 2140 028e 03       		.byte	0x3
 2141 028f D8       		.byte	0xd8
 2142 0290 96020000 		.4byte	0x296
 2143 0294 03       		.byte	0x3
 2144 0295 00       		.byte	0
ARM GAS  C:\Users\LUKASC~1\AppData\Local\Temp\ccAgm3t8.s 			page 64


 2145 0296 0C       		.uleb128 0xc
 2146 0297 6B000000 		.4byte	0x6b
 2147 029b A6020000 		.4byte	0x2a6
 2148 029f 0D       		.uleb128 0xd
 2149 02a0 A9000000 		.4byte	0xa9
 2150 02a4 0C       		.byte	0xc
 2151 02a5 00       		.byte	0
 2152 02a6 08       		.uleb128 0x8
 2153 02a7 E9030000 		.4byte	.LASF44
 2154 02ab 03       		.byte	0x3
 2155 02ac D9       		.byte	0xd9
 2156 02ad 5D020000 		.4byte	0x25d
 2157 02b1 06       		.uleb128 0x6
 2158 02b2 10       		.byte	0x10
 2159 02b3 03       		.byte	0x3
 2160 02b4 E5       		.byte	0xe5
 2161 02b5 32030000 		.4byte	0x332
 2162 02b9 07       		.uleb128 0x7
 2163 02ba 98000000 		.4byte	.LASF45
 2164 02be 03       		.byte	0x3
 2165 02bf E7       		.byte	0xe7
 2166 02c0 6B000000 		.4byte	0x6b
 2167 02c4 00       		.byte	0
 2168 02c5 07       		.uleb128 0x7
 2169 02c6 FF060000 		.4byte	.LASF46
 2170 02ca 03       		.byte	0x3
 2171 02cb E8       		.byte	0xe8
 2172 02cc 6B000000 		.4byte	0x6b
 2173 02d0 01       		.byte	0x1
 2174 02d1 07       		.uleb128 0x7
 2175 02d2 B5010000 		.4byte	.LASF47
 2176 02d6 03       		.byte	0x3
 2177 02d7 E9       		.byte	0xe9
 2178 02d8 6B000000 		.4byte	0x6b
 2179 02dc 02       		.byte	0x2
 2180 02dd 07       		.uleb128 0x7
 2181 02de 0F020000 		.4byte	.LASF48
 2182 02e2 03       		.byte	0x3
 2183 02e3 EA       		.byte	0xea
 2184 02e4 6B000000 		.4byte	0x6b
 2185 02e8 03       		.byte	0x3
 2186 02e9 07       		.uleb128 0x7
 2187 02ea 5B010000 		.4byte	.LASF49
 2188 02ee 03       		.byte	0x3
 2189 02ef EB       		.byte	0xeb
 2190 02f0 6B000000 		.4byte	0x6b
 2191 02f4 04       		.byte	0x4
 2192 02f5 07       		.uleb128 0x7
 2193 02f6 C9040000 		.4byte	.LASF50
 2194 02fa 03       		.byte	0x3
 2195 02fb EC       		.byte	0xec
 2196 02fc 6B000000 		.4byte	0x6b
 2197 0300 05       		.byte	0x5
 2198 0301 07       		.uleb128 0x7
 2199 0302 B0040000 		.4byte	.LASF51
 2200 0306 03       		.byte	0x3
 2201 0307 ED       		.byte	0xed
ARM GAS  C:\Users\LUKASC~1\AppData\Local\Temp\ccAgm3t8.s 			page 65


 2202 0308 6B000000 		.4byte	0x6b
 2203 030c 06       		.byte	0x6
 2204 030d 07       		.uleb128 0x7
 2205 030e D3030000 		.4byte	.LASF52
 2206 0312 03       		.byte	0x3
 2207 0313 EE       		.byte	0xee
 2208 0314 6B000000 		.4byte	0x6b
 2209 0318 07       		.byte	0x7
 2210 0319 07       		.uleb128 0x7
 2211 031a DC060000 		.4byte	.LASF53
 2212 031e 03       		.byte	0x3
 2213 031f EF       		.byte	0xef
 2214 0320 6B000000 		.4byte	0x6b
 2215 0324 08       		.byte	0x8
 2216 0325 0A       		.uleb128 0xa
 2217 0326 67617000 		.ascii	"gap\000"
 2218 032a 03       		.byte	0x3
 2219 032b F0       		.byte	0xf0
 2220 032c 32030000 		.4byte	0x332
 2221 0330 09       		.byte	0x9
 2222 0331 00       		.byte	0
 2223 0332 0C       		.uleb128 0xc
 2224 0333 6B000000 		.4byte	0x6b
 2225 0337 42030000 		.4byte	0x342
 2226 033b 0D       		.uleb128 0xd
 2227 033c A9000000 		.4byte	0xa9
 2228 0340 06       		.byte	0x6
 2229 0341 00       		.byte	0
 2230 0342 08       		.uleb128 0x8
 2231 0343 62020000 		.4byte	.LASF54
 2232 0347 03       		.byte	0x3
 2233 0348 F1       		.byte	0xf1
 2234 0349 B1020000 		.4byte	0x2b1
 2235 034d 0E       		.uleb128 0xe
 2236 034e 90       		.byte	0x90
 2237 034f 03       		.byte	0x3
 2238 0350 0D01     		.2byte	0x10d
 2239 0352 64030000 		.4byte	0x364
 2240 0356 0F       		.uleb128 0xf
 2241 0357 BA030000 		.4byte	.LASF55
 2242 035b 03       		.byte	0x3
 2243 035c 0F01     		.2byte	0x10f
 2244 035e 64030000 		.4byte	0x364
 2245 0362 00       		.byte	0
 2246 0363 00       		.byte	0
 2247 0364 0C       		.uleb128 0xc
 2248 0365 A6020000 		.4byte	0x2a6
 2249 0369 74030000 		.4byte	0x374
 2250 036d 0D       		.uleb128 0xd
 2251 036e A9000000 		.4byte	0xa9
 2252 0372 08       		.byte	0x8
 2253 0373 00       		.byte	0
 2254 0374 04       		.uleb128 0x4
 2255 0375 A6020000 		.4byte	.LASF56
 2256 0379 03       		.byte	0x3
 2257 037a 1001     		.2byte	0x110
 2258 037c 4D030000 		.4byte	0x34d
ARM GAS  C:\Users\LUKASC~1\AppData\Local\Temp\ccAgm3t8.s 			page 66


 2259 0380 0E       		.uleb128 0xe
 2260 0381 90       		.byte	0x90
 2261 0382 03       		.byte	0x3
 2262 0383 1301     		.2byte	0x113
 2263 0385 97030000 		.4byte	0x397
 2264 0389 0F       		.uleb128 0xf
 2265 038a 55030000 		.4byte	.LASF57
 2266 038e 03       		.byte	0x3
 2267 038f 1501     		.2byte	0x115
 2268 0391 97030000 		.4byte	0x397
 2269 0395 00       		.byte	0
 2270 0396 00       		.byte	0
 2271 0397 0C       		.uleb128 0xc
 2272 0398 42030000 		.4byte	0x342
 2273 039c A7030000 		.4byte	0x3a7
 2274 03a0 0D       		.uleb128 0xd
 2275 03a1 A9000000 		.4byte	0xa9
 2276 03a5 08       		.byte	0x8
 2277 03a6 00       		.byte	0
 2278 03a7 04       		.uleb128 0x4
 2279 03a8 D8020000 		.4byte	.LASF58
 2280 03ac 03       		.byte	0x3
 2281 03ad 1601     		.2byte	0x116
 2282 03af 80030000 		.4byte	0x380
 2283 03b3 10       		.uleb128 0x10
 2284 03b4 60000000 		.4byte	.LASF60
 2285 03b8 01       		.byte	0x1
 2286 03b9 B501     		.2byte	0x1b5
 2287 03bb 00000000 		.4byte	.LFB1
 2288 03bf B4000000 		.4byte	.LFE1-.LFB1
 2289 03c3 01       		.uleb128 0x1
 2290 03c4 9C       		.byte	0x9c
 2291 03c5 E9030000 		.4byte	0x3e9
 2292 03c9 11       		.uleb128 0x11
 2293 03ca 657000   		.ascii	"ep\000"
 2294 03cd 01       		.byte	0x1
 2295 03ce B701     		.2byte	0x1b7
 2296 03d0 6B000000 		.4byte	0x6b
 2297 03d4 00000000 		.4byte	.LLST0
 2298 03d8 12       		.uleb128 0x12
 2299 03d9 E2010000 		.4byte	.LASF59
 2300 03dd 01       		.byte	0x1
 2301 03de BA01     		.2byte	0x1ba
 2302 03e0 6B000000 		.4byte	0x6b
 2303 03e4 2A000000 		.4byte	.LLST1
 2304 03e8 00       		.byte	0
 2305 03e9 10       		.uleb128 0x10
 2306 03ea 27060000 		.4byte	.LASF61
 2307 03ee 01       		.byte	0x1
 2308 03ef 1402     		.2byte	0x214
 2309 03f1 00000000 		.4byte	.LFB2
 2310 03f5 40000000 		.4byte	.LFE2-.LFB2
 2311 03f9 01       		.uleb128 0x1
 2312 03fa 9C       		.byte	0x9c
 2313 03fb 0E040000 		.4byte	0x40e
 2314 03ff 11       		.uleb128 0x11
 2315 0400 6900     		.ascii	"i\000"
ARM GAS  C:\Users\LUKASC~1\AppData\Local\Temp\ccAgm3t8.s 			page 67


 2316 0402 01       		.byte	0x1
 2317 0403 1602     		.2byte	0x216
 2318 0405 6B000000 		.4byte	0x6b
 2319 0409 49000000 		.4byte	.LLST2
 2320 040d 00       		.byte	0
 2321 040e 13       		.uleb128 0x13
 2322 040f 97030000 		.4byte	.LASF66
 2323 0413 01       		.byte	0x1
 2324 0414 AE03     		.2byte	0x3ae
 2325 0416 49040000 		.4byte	0x449
 2326 041a 00000000 		.4byte	.LFB5
 2327 041e 28000000 		.4byte	.LFE5-.LFB5
 2328 0422 01       		.uleb128 0x1
 2329 0423 9C       		.byte	0x9c
 2330 0424 49040000 		.4byte	0x449
 2331 0428 14       		.uleb128 0x14
 2332 0429 72000000 		.4byte	.LASF71
 2333 042d 01       		.byte	0x1
 2334 042e AE03     		.2byte	0x3ae
 2335 0430 6B000000 		.4byte	0x6b
 2336 0434 73000000 		.4byte	.LLST3
 2337 0438 12       		.uleb128 0x12
 2338 0439 C0030000 		.4byte	.LASF62
 2339 043d 01       		.byte	0x1
 2340 043e B203     		.2byte	0x3b2
 2341 0440 49040000 		.4byte	0x449
 2342 0444 AD000000 		.4byte	.LLST4
 2343 0448 00       		.byte	0
 2344 0449 09       		.uleb128 0x9
 2345 044a 04       		.byte	0x4
 2346 044b 4F040000 		.4byte	0x44f
 2347 044f 15       		.uleb128 0x15
 2348 0450 22020000 		.4byte	0x222
 2349 0454 10       		.uleb128 0x10
 2350 0455 FA000000 		.4byte	.LASF63
 2351 0459 01       		.byte	0x1
 2352 045a 2503     		.2byte	0x325
 2353 045c 00000000 		.4byte	.LFB4
 2354 0460 3C010000 		.4byte	.LFE4-.LFB4
 2355 0464 01       		.uleb128 0x1
 2356 0465 9C       		.byte	0x9c
 2357 0466 E1040000 		.4byte	0x4e1
 2358 046a 11       		.uleb128 0x11
 2359 046b 657000   		.ascii	"ep\000"
 2360 046e 01       		.byte	0x1
 2361 046f 2703     		.2byte	0x327
 2362 0471 6B000000 		.4byte	0x6b
 2363 0475 E5000000 		.4byte	.LLST5
 2364 0479 12       		.uleb128 0x12
 2365 047a 87030000 		.4byte	.LASF64
 2366 047e 01       		.byte	0x1
 2367 047f 2803     		.2byte	0x328
 2368 0481 6B000000 		.4byte	0x6b
 2369 0485 F8000000 		.4byte	.LLST6
 2370 0489 12       		.uleb128 0x12
 2371 048a E2010000 		.4byte	.LASF59
 2372 048e 01       		.byte	0x1
ARM GAS  C:\Users\LUKASC~1\AppData\Local\Temp\ccAgm3t8.s 			page 68


 2373 048f 2903     		.2byte	0x329
 2374 0491 6B000000 		.4byte	0x6b
 2375 0495 30010000 		.4byte	.LLST7
 2376 0499 11       		.uleb128 0x11
 2377 049a 6900     		.ascii	"i\000"
 2378 049c 01       		.byte	0x1
 2379 049d 2A03     		.2byte	0x32a
 2380 049f 6B000000 		.4byte	0x6b
 2381 04a3 4E010000 		.4byte	.LLST8
 2382 04a7 12       		.uleb128 0x12
 2383 04a8 05040000 		.4byte	.LASF65
 2384 04ac 01       		.byte	0x1
 2385 04ad 2B03     		.2byte	0x32b
 2386 04af 6B000000 		.4byte	0x6b
 2387 04b3 78010000 		.4byte	.LLST9
 2388 04b7 12       		.uleb128 0x12
 2389 04b8 C0030000 		.4byte	.LASF62
 2390 04bc 01       		.byte	0x1
 2391 04bd 2D03     		.2byte	0x32d
 2392 04bf 49040000 		.4byte	0x449
 2393 04c3 8B010000 		.4byte	.LLST10
 2394 04c7 11       		.uleb128 0x11
 2395 04c8 70455000 		.ascii	"pEP\000"
 2396 04cc 01       		.byte	0x1
 2397 04cd 2E03     		.2byte	0x32e
 2398 04cf E1040000 		.4byte	0x4e1
 2399 04d3 A0010000 		.4byte	.LLST11
 2400 04d7 16       		.uleb128 0x16
 2401 04d8 1A000000 		.4byte	.LVL17
 2402 04dc 0E040000 		.4byte	0x40e
 2403 04e0 00       		.byte	0
 2404 04e1 09       		.uleb128 0x9
 2405 04e2 04       		.byte	0x4
 2406 04e3 E7040000 		.4byte	0x4e7
 2407 04e7 15       		.uleb128 0x15
 2408 04e8 81010000 		.4byte	0x181
 2409 04ec 17       		.uleb128 0x17
 2410 04ed 23040000 		.4byte	.LASF109
 2411 04f1 01       		.byte	0x1
 2412 04f2 F303     		.2byte	0x3f3
 2413 04f4 49040000 		.4byte	0x449
 2414 04f8 00000000 		.4byte	.LFB6
 2415 04fc 18000000 		.4byte	.LFE6-.LFB6
 2416 0500 01       		.uleb128 0x1
 2417 0501 9C       		.byte	0x9c
 2418 0502 13       		.uleb128 0x13
 2419 0503 5B030000 		.4byte	.LASF67
 2420 0507 01       		.byte	0x1
 2421 0508 0604     		.2byte	0x406
 2422 050a 56050000 		.4byte	0x556
 2423 050e 00000000 		.4byte	.LFB7
 2424 0512 24000000 		.4byte	.LFE7-.LFB7
 2425 0516 01       		.uleb128 0x1
 2426 0517 9C       		.byte	0x9c
 2427 0518 56050000 		.4byte	0x556
 2428 051c 12       		.uleb128 0x12
 2429 051d C0030000 		.4byte	.LASF62
ARM GAS  C:\Users\LUKASC~1\AppData\Local\Temp\ccAgm3t8.s 			page 69


 2430 0521 01       		.byte	0x1
 2431 0522 0904     		.2byte	0x409
 2432 0524 49040000 		.4byte	0x449
 2433 0528 B3010000 		.4byte	.LLST12
 2434 052c 12       		.uleb128 0x12
 2435 052d 45030000 		.4byte	.LASF68
 2436 0531 01       		.byte	0x1
 2437 0532 0A04     		.2byte	0x40a
 2438 0534 56050000 		.4byte	0x556
 2439 0538 E3010000 		.4byte	.LLST13
 2440 053c 12       		.uleb128 0x12
 2441 053d 52050000 		.4byte	.LASF69
 2442 0541 01       		.byte	0x1
 2443 0542 0B04     		.2byte	0x40b
 2444 0544 6B000000 		.4byte	0x6b
 2445 0548 01020000 		.4byte	.LLST14
 2446 054c 16       		.uleb128 0x16
 2447 054d 0E000000 		.4byte	.LVL36
 2448 0551 0E040000 		.4byte	0x40e
 2449 0555 00       		.byte	0
 2450 0556 09       		.uleb128 0x9
 2451 0557 04       		.byte	0x4
 2452 0558 5C050000 		.4byte	0x55c
 2453 055c 15       		.uleb128 0x15
 2454 055d 6B000000 		.4byte	0x6b
 2455 0561 10       		.uleb128 0x10
 2456 0562 24070000 		.4byte	.LASF70
 2457 0566 01       		.byte	0x1
 2458 0567 3A02     		.2byte	0x23a
 2459 0569 00000000 		.4byte	.LFB3
 2460 056d 80010000 		.4byte	.LFE3-.LFB3
 2461 0571 01       		.uleb128 0x1
 2462 0572 9C       		.byte	0x9c
 2463 0573 10060000 		.4byte	0x610
 2464 0577 14       		.uleb128 0x14
 2465 0578 DA000000 		.4byte	.LASF72
 2466 057c 01       		.byte	0x1
 2467 057d 3A02     		.2byte	0x23a
 2468 057f 6B000000 		.4byte	0x6b
 2469 0583 14020000 		.4byte	.LLST15
 2470 0587 11       		.uleb128 0x11
 2471 0588 657000   		.ascii	"ep\000"
 2472 058b 01       		.byte	0x1
 2473 058c 3C02     		.2byte	0x23c
 2474 058e 6B000000 		.4byte	0x6b
 2475 0592 35020000 		.4byte	.LLST16
 2476 0596 12       		.uleb128 0x12
 2477 0597 87030000 		.4byte	.LASF64
 2478 059b 01       		.byte	0x1
 2479 059c 3D02     		.2byte	0x23d
 2480 059e 6B000000 		.4byte	0x6b
 2481 05a2 75020000 		.4byte	.LLST17
 2482 05a6 11       		.uleb128 0x11
 2483 05a7 6900     		.ascii	"i\000"
 2484 05a9 01       		.byte	0x1
 2485 05aa 3E02     		.2byte	0x23e
 2486 05ac 6B000000 		.4byte	0x6b
ARM GAS  C:\Users\LUKASC~1\AppData\Local\Temp\ccAgm3t8.s 			page 70


 2487 05b0 AA020000 		.4byte	.LLST18
 2488 05b4 12       		.uleb128 0x12
 2489 05b5 E2010000 		.4byte	.LASF59
 2490 05b9 01       		.byte	0x1
 2491 05ba 3F02     		.2byte	0x23f
 2492 05bc 6B000000 		.4byte	0x6b
 2493 05c0 17030000 		.4byte	.LLST19
 2494 05c4 12       		.uleb128 0x12
 2495 05c5 1A030000 		.4byte	.LASF73
 2496 05c9 01       		.byte	0x1
 2497 05ca 4002     		.2byte	0x240
 2498 05cc 56050000 		.4byte	0x556
 2499 05d0 35030000 		.4byte	.LLST20
 2500 05d4 12       		.uleb128 0x12
 2501 05d5 C0030000 		.4byte	.LASF62
 2502 05d9 01       		.byte	0x1
 2503 05da 4602     		.2byte	0x246
 2504 05dc 49040000 		.4byte	0x449
 2505 05e0 54030000 		.4byte	.LLST21
 2506 05e4 11       		.uleb128 0x11
 2507 05e5 70455000 		.ascii	"pEP\000"
 2508 05e9 01       		.byte	0x1
 2509 05ea 4702     		.2byte	0x247
 2510 05ec E1040000 		.4byte	0x4e1
 2511 05f0 74030000 		.4byte	.LLST22
 2512 05f4 16       		.uleb128 0x16
 2513 05f5 5A000000 		.4byte	.LVL54
 2514 05f9 0E040000 		.4byte	0x40e
 2515 05fd 16       		.uleb128 0x16
 2516 05fe 5A010000 		.4byte	.LVL82
 2517 0602 02050000 		.4byte	0x502
 2518 0606 16       		.uleb128 0x16
 2519 0607 62010000 		.4byte	.LVL83
 2520 060b B3030000 		.4byte	0x3b3
 2521 060f 00       		.byte	0
 2522 0610 10       		.uleb128 0x10
 2523 0611 B5040000 		.4byte	.LASF74
 2524 0615 01       		.byte	0x1
 2525 0616 3004     		.2byte	0x430
 2526 0618 00000000 		.4byte	.LFB8
 2527 061c 4C000000 		.4byte	.LFE8-.LFB8
 2528 0620 01       		.uleb128 0x1
 2529 0621 9C       		.byte	0x9c
 2530 0622 37060000 		.4byte	0x637
 2531 0626 14       		.uleb128 0x14
 2532 0627 A9000000 		.4byte	.LASF75
 2533 062b 01       		.byte	0x1
 2534 062c 3004     		.2byte	0x430
 2535 062e 6B000000 		.4byte	0x6b
 2536 0632 C0030000 		.4byte	.LLST23
 2537 0636 00       		.byte	0
 2538 0637 13       		.uleb128 0x13
 2539 0638 EF020000 		.4byte	.LASF76
 2540 063c 01       		.byte	0x1
 2541 063d 5904     		.2byte	0x459
 2542 063f 6B000000 		.4byte	0x6b
 2543 0643 00000000 		.4byte	.LFB9
ARM GAS  C:\Users\LUKASC~1\AppData\Local\Temp\ccAgm3t8.s 			page 71


 2544 0647 64000000 		.4byte	.LFE9-.LFB9
 2545 064b 01       		.uleb128 0x1
 2546 064c 9C       		.byte	0x9c
 2547 064d 7A060000 		.4byte	0x67a
 2548 0651 12       		.uleb128 0x12
 2549 0652 43050000 		.4byte	.LASF77
 2550 0656 01       		.byte	0x1
 2551 0657 5B04     		.2byte	0x45b
 2552 0659 6B000000 		.4byte	0x6b
 2553 065d E9030000 		.4byte	.LLST24
 2554 0661 11       		.uleb128 0x11
 2555 0662 657000   		.ascii	"ep\000"
 2556 0665 01       		.byte	0x1
 2557 0666 5C04     		.2byte	0x45c
 2558 0668 6B000000 		.4byte	0x6b
 2559 066c 1F040000 		.4byte	.LLST25
 2560 0670 16       		.uleb128 0x16
 2561 0671 52000000 		.4byte	.LVL94
 2562 0675 AE090000 		.4byte	0x9ae
 2563 0679 00       		.byte	0
 2564 067a 13       		.uleb128 0x13
 2565 067b 87040000 		.4byte	.LASF78
 2566 067f 01       		.byte	0x1
 2567 0680 8A04     		.2byte	0x48a
 2568 0682 6B000000 		.4byte	0x6b
 2569 0686 00000000 		.4byte	.LFB10
 2570 068a A8000000 		.4byte	.LFE10-.LFB10
 2571 068e 01       		.uleb128 0x1
 2572 068f 9C       		.byte	0x9c
 2573 0690 BD060000 		.4byte	0x6bd
 2574 0694 12       		.uleb128 0x12
 2575 0695 43050000 		.4byte	.LASF77
 2576 0699 01       		.byte	0x1
 2577 069a 8C04     		.2byte	0x48c
 2578 069c 6B000000 		.4byte	0x6b
 2579 06a0 48040000 		.4byte	.LLST26
 2580 06a4 11       		.uleb128 0x11
 2581 06a5 657000   		.ascii	"ep\000"
 2582 06a8 01       		.byte	0x1
 2583 06a9 8D04     		.2byte	0x48d
 2584 06ab 6B000000 		.4byte	0x6b
 2585 06af 73040000 		.4byte	.LLST27
 2586 06b3 16       		.uleb128 0x16
 2587 06b4 96000000 		.4byte	.LVL106
 2588 06b8 AE090000 		.4byte	0x9ae
 2589 06bc 00       		.byte	0
 2590 06bd 13       		.uleb128 0x13
 2591 06be DC040000 		.4byte	.LASF79
 2592 06c2 01       		.byte	0x1
 2593 06c3 CF04     		.2byte	0x4cf
 2594 06c5 6B000000 		.4byte	0x6b
 2595 06c9 00000000 		.4byte	.LFB11
 2596 06cd 4C000000 		.4byte	.LFE11-.LFB11
 2597 06d1 01       		.uleb128 0x1
 2598 06d2 9C       		.byte	0x9c
 2599 06d3 21070000 		.4byte	0x721
 2600 06d7 12       		.uleb128 0x12
ARM GAS  C:\Users\LUKASC~1\AppData\Local\Temp\ccAgm3t8.s 			page 72


 2601 06d8 43050000 		.4byte	.LASF77
 2602 06dc 01       		.byte	0x1
 2603 06dd D104     		.2byte	0x4d1
 2604 06df 6B000000 		.4byte	0x6b
 2605 06e3 B2040000 		.4byte	.LLST28
 2606 06e7 12       		.uleb128 0x12
 2607 06e8 05040000 		.4byte	.LASF65
 2608 06ec 01       		.byte	0x1
 2609 06ed D304     		.2byte	0x4d3
 2610 06ef 6B000000 		.4byte	0x6b
 2611 06f3 E9040000 		.4byte	.LLST29
 2612 06f7 12       		.uleb128 0x12
 2613 06f8 E1060000 		.4byte	.LASF80
 2614 06fc 01       		.byte	0x1
 2615 06fd D404     		.2byte	0x4d4
 2616 06ff 6B000000 		.4byte	0x6b
 2617 0703 FC040000 		.4byte	.LLST30
 2618 0707 12       		.uleb128 0x12
 2619 0708 C0030000 		.4byte	.LASF62
 2620 070c 01       		.byte	0x1
 2621 070d D504     		.2byte	0x4d5
 2622 070f 49040000 		.4byte	0x449
 2623 0713 29050000 		.4byte	.LLST31
 2624 0717 16       		.uleb128 0x16
 2625 0718 14000000 		.4byte	.LVL110
 2626 071c 0E040000 		.4byte	0x40e
 2627 0720 00       		.byte	0
 2628 0721 18       		.uleb128 0x18
 2629 0722 BA010000 		.4byte	.LASF81
 2630 0726 01       		.byte	0x1
 2631 0727 54       		.byte	0x54
 2632 0728 6B000000 		.4byte	0x6b
 2633 072c 00000000 		.4byte	.LFB0
 2634 0730 24030000 		.4byte	.LFE0-.LFB0
 2635 0734 01       		.uleb128 0x1
 2636 0735 9C       		.byte	0x9c
 2637 0736 A8080000 		.4byte	0x8a8
 2638 073a 19       		.uleb128 0x19
 2639 073b 43050000 		.4byte	.LASF77
 2640 073f 01       		.byte	0x1
 2641 0740 56       		.byte	0x56
 2642 0741 6B000000 		.4byte	0x6b
 2643 0745 47050000 		.4byte	.LLST32
 2644 0749 19       		.uleb128 0x19
 2645 074a F5050000 		.4byte	.LASF82
 2646 074e 01       		.byte	0x1
 2647 074f 57       		.byte	0x57
 2648 0750 6B000000 		.4byte	0x6b
 2649 0754 ED060000 		.4byte	.LLST33
 2650 0758 19       		.uleb128 0x19
 2651 0759 3D040000 		.4byte	.LASF83
 2652 075d 01       		.byte	0x1
 2653 075e 58       		.byte	0x58
 2654 075f 6B000000 		.4byte	0x6b
 2655 0763 00070000 		.4byte	.LLST34
 2656 0767 19       		.uleb128 0x19
 2657 0768 E9010000 		.4byte	.LASF84
ARM GAS  C:\Users\LUKASC~1\AppData\Local\Temp\ccAgm3t8.s 			page 73


 2658 076c 01       		.byte	0x1
 2659 076d 59       		.byte	0x59
 2660 076e 6B000000 		.4byte	0x6b
 2661 0772 13070000 		.4byte	.LLST35
 2662 0776 19       		.uleb128 0x19
 2663 0777 65040000 		.4byte	.LASF85
 2664 077b 01       		.byte	0x1
 2665 077c 5C       		.byte	0x5c
 2666 077d E5010000 		.4byte	0x1e5
 2667 0781 94070000 		.4byte	.LLST36
 2668 0785 19       		.uleb128 0x19
 2669 0786 22060000 		.4byte	.LASF86
 2670 078a 01       		.byte	0x1
 2671 078b 5E       		.byte	0x5e
 2672 078c 6B000000 		.4byte	0x6b
 2673 0790 ED070000 		.4byte	.LLST37
 2674 0794 19       		.uleb128 0x19
 2675 0795 3B060000 		.4byte	.LASF87
 2676 0799 01       		.byte	0x1
 2677 079a 5F       		.byte	0x5f
 2678 079b 6B000000 		.4byte	0x6b
 2679 079f 16080000 		.4byte	.LLST38
 2680 07a3 1A       		.uleb128 0x1a
 2681 07a4 EA000000 		.4byte	.LASF88
 2682 07a8 01       		.byte	0x1
 2683 07a9 63       		.byte	0x63
 2684 07aa B8080000 		.4byte	0x8b8
 2685 07ae 05       		.uleb128 0x5
 2686 07af 03       		.byte	0x3
 2687 07b0 00000000 		.4byte	USBFS_1_tBuffer.5212
 2688 07b4 19       		.uleb128 0x19
 2689 07b5 C0030000 		.4byte	.LASF62
 2690 07b9 01       		.byte	0x1
 2691 07ba 64       		.byte	0x64
 2692 07bb 49040000 		.4byte	0x449
 2693 07bf 29080000 		.4byte	.LLST39
 2694 07c3 16       		.uleb128 0x16
 2695 07c4 4A000000 		.4byte	.LVL121
 2696 07c8 EC040000 		.4byte	0x4ec
 2697 07cc 16       		.uleb128 0x16
 2698 07cd 58000000 		.4byte	.LVL122
 2699 07d1 B9090000 		.4byte	0x9b9
 2700 07d5 16       		.uleb128 0x16
 2701 07d6 6C000000 		.4byte	.LVL124
 2702 07da 0E040000 		.4byte	0x40e
 2703 07de 16       		.uleb128 0x16
 2704 07df 8A000000 		.4byte	.LVL125
 2705 07e3 B9090000 		.4byte	0x9b9
 2706 07e7 16       		.uleb128 0x16
 2707 07e8 CE000000 		.4byte	.LVL135
 2708 07ec B9090000 		.4byte	0x9b9
 2709 07f0 16       		.uleb128 0x16
 2710 07f1 D4000000 		.4byte	.LVL137
 2711 07f5 C4090000 		.4byte	0x9c4
 2712 07f9 16       		.uleb128 0x16
 2713 07fa 0A010000 		.4byte	.LVL140
 2714 07fe B9090000 		.4byte	0x9b9
ARM GAS  C:\Users\LUKASC~1\AppData\Local\Temp\ccAgm3t8.s 			page 74


 2715 0802 16       		.uleb128 0x16
 2716 0803 26010000 		.4byte	.LVL142
 2717 0807 B9090000 		.4byte	0x9b9
 2718 080b 16       		.uleb128 0x16
 2719 080c 36010000 		.4byte	.LVL145
 2720 0810 B9090000 		.4byte	0x9b9
 2721 0814 16       		.uleb128 0x16
 2722 0815 4C010000 		.4byte	.LVL148
 2723 0819 B9090000 		.4byte	0x9b9
 2724 081d 16       		.uleb128 0x16
 2725 081e 82010000 		.4byte	.LVL151
 2726 0822 AE090000 		.4byte	0x9ae
 2727 0826 1B       		.uleb128 0x1b
 2728 0827 96010000 		.4byte	.LVL155
 2729 082b 0E040000 		.4byte	0x40e
 2730 082f 3A080000 		.4byte	0x83a
 2731 0833 1C       		.uleb128 0x1c
 2732 0834 01       		.uleb128 0x1
 2733 0835 50       		.byte	0x50
 2734 0836 02       		.uleb128 0x2
 2735 0837 74       		.byte	0x74
 2736 0838 7F       		.sleb128 -1
 2737 0839 00       		.byte	0
 2738 083a 1B       		.uleb128 0x1b
 2739 083b B8010000 		.4byte	.LVL157
 2740 083f 61050000 		.4byte	0x561
 2741 0843 4D080000 		.4byte	0x84d
 2742 0847 1C       		.uleb128 0x1c
 2743 0848 01       		.uleb128 0x1
 2744 0849 50       		.byte	0x50
 2745 084a 01       		.uleb128 0x1
 2746 084b 31       		.byte	0x31
 2747 084c 00       		.byte	0
 2748 084d 16       		.uleb128 0x16
 2749 084e BC010000 		.4byte	.LVL158
 2750 0852 AE090000 		.4byte	0x9ae
 2751 0856 16       		.uleb128 0x16
 2752 0857 C2010000 		.4byte	.LVL160
 2753 085b BD060000 		.4byte	0x6bd
 2754 085f 16       		.uleb128 0x16
 2755 0860 EE010000 		.4byte	.LVL163
 2756 0864 54040000 		.4byte	0x454
 2757 0868 16       		.uleb128 0x16
 2758 0869 F2010000 		.4byte	.LVL164
 2759 086d AE090000 		.4byte	0x9ae
 2760 0871 16       		.uleb128 0x16
 2761 0872 10020000 		.4byte	.LVL167
 2762 0876 7A060000 		.4byte	0x67a
 2763 087a 16       		.uleb128 0x16
 2764 087b 2A020000 		.4byte	.LVL169
 2765 087f AE090000 		.4byte	0x9ae
 2766 0883 16       		.uleb128 0x16
 2767 0884 4C020000 		.4byte	.LVL171
 2768 0888 AE090000 		.4byte	0x9ae
 2769 088c 16       		.uleb128 0x16
 2770 088d 6A020000 		.4byte	.LVL174
 2771 0891 37060000 		.4byte	0x637
ARM GAS  C:\Users\LUKASC~1\AppData\Local\Temp\ccAgm3t8.s 			page 75


 2772 0895 16       		.uleb128 0x16
 2773 0896 B8020000 		.4byte	.LVL176
 2774 089a AE090000 		.4byte	0x9ae
 2775 089e 16       		.uleb128 0x16
 2776 089f DA020000 		.4byte	.LVL178
 2777 08a3 AE090000 		.4byte	0x9ae
 2778 08a7 00       		.byte	0
 2779 08a8 0C       		.uleb128 0xc
 2780 08a9 6B000000 		.4byte	0x6b
 2781 08ad B8080000 		.4byte	0x8b8
 2782 08b1 0D       		.uleb128 0xd
 2783 08b2 A9000000 		.4byte	0xa9
 2784 08b6 01       		.byte	0x1
 2785 08b7 00       		.byte	0
 2786 08b8 05       		.uleb128 0x5
 2787 08b9 A8080000 		.4byte	0x8a8
 2788 08bd 1D       		.uleb128 0x1d
 2789 08be A1040000 		.4byte	.LASF89
 2790 08c2 03       		.byte	0x3
 2791 08c3 D102     		.2byte	0x2d1
 2792 08c5 A4000000 		.4byte	0xa4
 2793 08c9 1D       		.uleb128 0x1d
 2794 08ca 25020000 		.4byte	.LASF90
 2795 08ce 03       		.byte	0x3
 2796 08cf D302     		.2byte	0x2d3
 2797 08d1 A4000000 		.4byte	0xa4
 2798 08d5 1D       		.uleb128 0x1d
 2799 08d6 FD040000 		.4byte	.LASF91
 2800 08da 03       		.byte	0x3
 2801 08db D402     		.2byte	0x2d4
 2802 08dd A4000000 		.4byte	0xa4
 2803 08e1 1D       		.uleb128 0x1d
 2804 08e2 A0010000 		.4byte	.LASF92
 2805 08e6 03       		.byte	0x3
 2806 08e7 D502     		.2byte	0x2d5
 2807 08e9 A4000000 		.4byte	0xa4
 2808 08ed 0C       		.uleb128 0xc
 2809 08ee 22020000 		.4byte	0x222
 2810 08f2 FD080000 		.4byte	0x8fd
 2811 08f6 0D       		.uleb128 0xd
 2812 08f7 A9000000 		.4byte	0xa9
 2813 08fb 00       		.byte	0
 2814 08fc 00       		.byte	0
 2815 08fd 1E       		.uleb128 0x1e
 2816 08fe B2000000 		.4byte	.LASF93
 2817 0902 04       		.byte	0x4
 2818 0903 67       		.byte	0x67
 2819 0904 08090000 		.4byte	0x908
 2820 0908 15       		.uleb128 0x15
 2821 0909 ED080000 		.4byte	0x8ed
 2822 090d 0C       		.uleb128 0xc
 2823 090e 6B000000 		.4byte	0x6b
 2824 0912 1D090000 		.4byte	0x91d
 2825 0916 0D       		.uleb128 0xd
 2826 0917 A9000000 		.4byte	0xa9
 2827 091b 2A       		.byte	0x2a
 2828 091c 00       		.byte	0
ARM GAS  C:\Users\LUKASC~1\AppData\Local\Temp\ccAgm3t8.s 			page 76


 2829 091d 1E       		.uleb128 0x1e
 2830 091e BD020000 		.4byte	.LASF94
 2831 0922 04       		.byte	0x4
 2832 0923 68       		.byte	0x68
 2833 0924 28090000 		.4byte	0x928
 2834 0928 15       		.uleb128 0x15
 2835 0929 0D090000 		.4byte	0x90d
 2836 092d 1E       		.uleb128 0x1e
 2837 092e F7010000 		.4byte	.LASF95
 2838 0932 04       		.byte	0x4
 2839 0933 71       		.byte	0x71
 2840 0934 A4000000 		.4byte	0xa4
 2841 0938 1E       		.uleb128 0x1e
 2842 0939 4C040000 		.4byte	.LASF96
 2843 093d 04       		.byte	0x4
 2844 093e 72       		.byte	0x72
 2845 093f 43090000 		.4byte	0x943
 2846 0943 05       		.uleb128 0x5
 2847 0944 A8080000 		.4byte	0x8a8
 2848 0948 1E       		.uleb128 0x1e
 2849 0949 07070000 		.4byte	.LASF97
 2850 094d 04       		.byte	0x4
 2851 094e 73       		.byte	0x73
 2852 094f 53090000 		.4byte	0x953
 2853 0953 05       		.uleb128 0x5
 2854 0954 A8080000 		.4byte	0x8a8
 2855 0958 1E       		.uleb128 0x1e
 2856 0959 05060000 		.4byte	.LASF98
 2857 095d 04       		.byte	0x4
 2858 095e 74       		.byte	0x74
 2859 095f A4000000 		.4byte	0xa4
 2860 0963 1E       		.uleb128 0x1e
 2861 0964 48000000 		.4byte	.LASF99
 2862 0968 04       		.byte	0x4
 2863 0969 75       		.byte	0x75
 2864 096a 6E090000 		.4byte	0x96e
 2865 096e 05       		.uleb128 0x5
 2866 096f A8080000 		.4byte	0x8a8
 2867 0973 1E       		.uleb128 0x1e
 2868 0974 60010000 		.4byte	.LASF100
 2869 0978 04       		.byte	0x4
 2870 0979 76       		.byte	0x76
 2871 097a 56050000 		.4byte	0x556
 2872 097e 0C       		.uleb128 0xc
 2873 097f 25010000 		.4byte	0x125
 2874 0983 8E090000 		.4byte	0x98e
 2875 0987 0D       		.uleb128 0xd
 2876 0988 A9000000 		.4byte	0xa9
 2877 098c 08       		.byte	0x8
 2878 098d 00       		.byte	0
 2879 098e 1E       		.uleb128 0x1e
 2880 098f 9E000000 		.4byte	.LASF101
 2881 0993 04       		.byte	0x4
 2882 0994 78       		.byte	0x78
 2883 0995 99090000 		.4byte	0x999
 2884 0999 05       		.uleb128 0x5
 2885 099a 7E090000 		.4byte	0x97e
ARM GAS  C:\Users\LUKASC~1\AppData\Local\Temp\ccAgm3t8.s 			page 77


 2886 099e 1E       		.uleb128 0x1e
 2887 099f 36000000 		.4byte	.LASF102
 2888 09a3 04       		.byte	0x4
 2889 09a4 79       		.byte	0x79
 2890 09a5 A9090000 		.4byte	0x9a9
 2891 09a9 05       		.uleb128 0x5
 2892 09aa F1010000 		.4byte	0x1f1
 2893 09ae 1F       		.uleb128 0x1f
 2894 09af 77010000 		.4byte	.LASF103
 2895 09b3 04       		.byte	0x4
 2896 09b4 B2       		.byte	0xb2
 2897 09b5 6B000000 		.4byte	0x6b
 2898 09b9 1F       		.uleb128 0x1f
 2899 09ba 1C010000 		.4byte	.LASF104
 2900 09be 04       		.byte	0x4
 2901 09bf A8       		.byte	0xa8
 2902 09c0 6B000000 		.4byte	0x6b
 2903 09c4 20       		.uleb128 0x20
 2904 09c5 67050000 		.4byte	.LASF105
 2905 09c9 04       		.byte	0x4
 2906 09ca 4D01     		.2byte	0x14d
 2907 09cc 6B000000 		.4byte	0x6b
 2908 09d0 00       		.byte	0
 2909              		.section	.debug_abbrev,"",%progbits
 2910              	.Ldebug_abbrev0:
 2911 0000 01       		.uleb128 0x1
 2912 0001 11       		.uleb128 0x11
 2913 0002 01       		.byte	0x1
 2914 0003 25       		.uleb128 0x25
 2915 0004 0E       		.uleb128 0xe
 2916 0005 13       		.uleb128 0x13
 2917 0006 0B       		.uleb128 0xb
 2918 0007 03       		.uleb128 0x3
 2919 0008 0E       		.uleb128 0xe
 2920 0009 1B       		.uleb128 0x1b
 2921 000a 0E       		.uleb128 0xe
 2922 000b 55       		.uleb128 0x55
 2923 000c 17       		.uleb128 0x17
 2924 000d 11       		.uleb128 0x11
 2925 000e 01       		.uleb128 0x1
 2926 000f 10       		.uleb128 0x10
 2927 0010 17       		.uleb128 0x17
 2928 0011 00       		.byte	0
 2929 0012 00       		.byte	0
 2930 0013 02       		.uleb128 0x2
 2931 0014 24       		.uleb128 0x24
 2932 0015 00       		.byte	0
 2933 0016 0B       		.uleb128 0xb
 2934 0017 0B       		.uleb128 0xb
 2935 0018 3E       		.uleb128 0x3e
 2936 0019 0B       		.uleb128 0xb
 2937 001a 03       		.uleb128 0x3
 2938 001b 0E       		.uleb128 0xe
 2939 001c 00       		.byte	0
 2940 001d 00       		.byte	0
 2941 001e 03       		.uleb128 0x3
 2942 001f 24       		.uleb128 0x24
ARM GAS  C:\Users\LUKASC~1\AppData\Local\Temp\ccAgm3t8.s 			page 78


 2943 0020 00       		.byte	0
 2944 0021 0B       		.uleb128 0xb
 2945 0022 0B       		.uleb128 0xb
 2946 0023 3E       		.uleb128 0x3e
 2947 0024 0B       		.uleb128 0xb
 2948 0025 03       		.uleb128 0x3
 2949 0026 08       		.uleb128 0x8
 2950 0027 00       		.byte	0
 2951 0028 00       		.byte	0
 2952 0029 04       		.uleb128 0x4
 2953 002a 16       		.uleb128 0x16
 2954 002b 00       		.byte	0
 2955 002c 03       		.uleb128 0x3
 2956 002d 0E       		.uleb128 0xe
 2957 002e 3A       		.uleb128 0x3a
 2958 002f 0B       		.uleb128 0xb
 2959 0030 3B       		.uleb128 0x3b
 2960 0031 05       		.uleb128 0x5
 2961 0032 49       		.uleb128 0x49
 2962 0033 13       		.uleb128 0x13
 2963 0034 00       		.byte	0
 2964 0035 00       		.byte	0
 2965 0036 05       		.uleb128 0x5
 2966 0037 35       		.uleb128 0x35
 2967 0038 00       		.byte	0
 2968 0039 49       		.uleb128 0x49
 2969 003a 13       		.uleb128 0x13
 2970 003b 00       		.byte	0
 2971 003c 00       		.byte	0
 2972 003d 06       		.uleb128 0x6
 2973 003e 13       		.uleb128 0x13
 2974 003f 01       		.byte	0x1
 2975 0040 0B       		.uleb128 0xb
 2976 0041 0B       		.uleb128 0xb
 2977 0042 3A       		.uleb128 0x3a
 2978 0043 0B       		.uleb128 0xb
 2979 0044 3B       		.uleb128 0x3b
 2980 0045 0B       		.uleb128 0xb
 2981 0046 01       		.uleb128 0x1
 2982 0047 13       		.uleb128 0x13
 2983 0048 00       		.byte	0
 2984 0049 00       		.byte	0
 2985 004a 07       		.uleb128 0x7
 2986 004b 0D       		.uleb128 0xd
 2987 004c 00       		.byte	0
 2988 004d 03       		.uleb128 0x3
 2989 004e 0E       		.uleb128 0xe
 2990 004f 3A       		.uleb128 0x3a
 2991 0050 0B       		.uleb128 0xb
 2992 0051 3B       		.uleb128 0x3b
 2993 0052 0B       		.uleb128 0xb
 2994 0053 49       		.uleb128 0x49
 2995 0054 13       		.uleb128 0x13
 2996 0055 38       		.uleb128 0x38
 2997 0056 0B       		.uleb128 0xb
 2998 0057 00       		.byte	0
 2999 0058 00       		.byte	0
ARM GAS  C:\Users\LUKASC~1\AppData\Local\Temp\ccAgm3t8.s 			page 79


 3000 0059 08       		.uleb128 0x8
 3001 005a 16       		.uleb128 0x16
 3002 005b 00       		.byte	0
 3003 005c 03       		.uleb128 0x3
 3004 005d 0E       		.uleb128 0xe
 3005 005e 3A       		.uleb128 0x3a
 3006 005f 0B       		.uleb128 0xb
 3007 0060 3B       		.uleb128 0x3b
 3008 0061 0B       		.uleb128 0xb
 3009 0062 49       		.uleb128 0x49
 3010 0063 13       		.uleb128 0x13
 3011 0064 00       		.byte	0
 3012 0065 00       		.byte	0
 3013 0066 09       		.uleb128 0x9
 3014 0067 0F       		.uleb128 0xf
 3015 0068 00       		.byte	0
 3016 0069 0B       		.uleb128 0xb
 3017 006a 0B       		.uleb128 0xb
 3018 006b 49       		.uleb128 0x49
 3019 006c 13       		.uleb128 0x13
 3020 006d 00       		.byte	0
 3021 006e 00       		.byte	0
 3022 006f 0A       		.uleb128 0xa
 3023 0070 0D       		.uleb128 0xd
 3024 0071 00       		.byte	0
 3025 0072 03       		.uleb128 0x3
 3026 0073 08       		.uleb128 0x8
 3027 0074 3A       		.uleb128 0x3a
 3028 0075 0B       		.uleb128 0xb
 3029 0076 3B       		.uleb128 0x3b
 3030 0077 0B       		.uleb128 0xb
 3031 0078 49       		.uleb128 0x49
 3032 0079 13       		.uleb128 0x13
 3033 007a 38       		.uleb128 0x38
 3034 007b 0B       		.uleb128 0xb
 3035 007c 00       		.byte	0
 3036 007d 00       		.byte	0
 3037 007e 0B       		.uleb128 0xb
 3038 007f 26       		.uleb128 0x26
 3039 0080 00       		.byte	0
 3040 0081 00       		.byte	0
 3041 0082 00       		.byte	0
 3042 0083 0C       		.uleb128 0xc
 3043 0084 01       		.uleb128 0x1
 3044 0085 01       		.byte	0x1
 3045 0086 49       		.uleb128 0x49
 3046 0087 13       		.uleb128 0x13
 3047 0088 01       		.uleb128 0x1
 3048 0089 13       		.uleb128 0x13
 3049 008a 00       		.byte	0
 3050 008b 00       		.byte	0
 3051 008c 0D       		.uleb128 0xd
 3052 008d 21       		.uleb128 0x21
 3053 008e 00       		.byte	0
 3054 008f 49       		.uleb128 0x49
 3055 0090 13       		.uleb128 0x13
 3056 0091 2F       		.uleb128 0x2f
ARM GAS  C:\Users\LUKASC~1\AppData\Local\Temp\ccAgm3t8.s 			page 80


 3057 0092 0B       		.uleb128 0xb
 3058 0093 00       		.byte	0
 3059 0094 00       		.byte	0
 3060 0095 0E       		.uleb128 0xe
 3061 0096 13       		.uleb128 0x13
 3062 0097 01       		.byte	0x1
 3063 0098 0B       		.uleb128 0xb
 3064 0099 0B       		.uleb128 0xb
 3065 009a 3A       		.uleb128 0x3a
 3066 009b 0B       		.uleb128 0xb
 3067 009c 3B       		.uleb128 0x3b
 3068 009d 05       		.uleb128 0x5
 3069 009e 01       		.uleb128 0x1
 3070 009f 13       		.uleb128 0x13
 3071 00a0 00       		.byte	0
 3072 00a1 00       		.byte	0
 3073 00a2 0F       		.uleb128 0xf
 3074 00a3 0D       		.uleb128 0xd
 3075 00a4 00       		.byte	0
 3076 00a5 03       		.uleb128 0x3
 3077 00a6 0E       		.uleb128 0xe
 3078 00a7 3A       		.uleb128 0x3a
 3079 00a8 0B       		.uleb128 0xb
 3080 00a9 3B       		.uleb128 0x3b
 3081 00aa 05       		.uleb128 0x5
 3082 00ab 49       		.uleb128 0x49
 3083 00ac 13       		.uleb128 0x13
 3084 00ad 38       		.uleb128 0x38
 3085 00ae 0B       		.uleb128 0xb
 3086 00af 00       		.byte	0
 3087 00b0 00       		.byte	0
 3088 00b1 10       		.uleb128 0x10
 3089 00b2 2E       		.uleb128 0x2e
 3090 00b3 01       		.byte	0x1
 3091 00b4 3F       		.uleb128 0x3f
 3092 00b5 19       		.uleb128 0x19
 3093 00b6 03       		.uleb128 0x3
 3094 00b7 0E       		.uleb128 0xe
 3095 00b8 3A       		.uleb128 0x3a
 3096 00b9 0B       		.uleb128 0xb
 3097 00ba 3B       		.uleb128 0x3b
 3098 00bb 05       		.uleb128 0x5
 3099 00bc 27       		.uleb128 0x27
 3100 00bd 19       		.uleb128 0x19
 3101 00be 11       		.uleb128 0x11
 3102 00bf 01       		.uleb128 0x1
 3103 00c0 12       		.uleb128 0x12
 3104 00c1 06       		.uleb128 0x6
 3105 00c2 40       		.uleb128 0x40
 3106 00c3 18       		.uleb128 0x18
 3107 00c4 9742     		.uleb128 0x2117
 3108 00c6 19       		.uleb128 0x19
 3109 00c7 01       		.uleb128 0x1
 3110 00c8 13       		.uleb128 0x13
 3111 00c9 00       		.byte	0
 3112 00ca 00       		.byte	0
 3113 00cb 11       		.uleb128 0x11
ARM GAS  C:\Users\LUKASC~1\AppData\Local\Temp\ccAgm3t8.s 			page 81


 3114 00cc 34       		.uleb128 0x34
 3115 00cd 00       		.byte	0
 3116 00ce 03       		.uleb128 0x3
 3117 00cf 08       		.uleb128 0x8
 3118 00d0 3A       		.uleb128 0x3a
 3119 00d1 0B       		.uleb128 0xb
 3120 00d2 3B       		.uleb128 0x3b
 3121 00d3 05       		.uleb128 0x5
 3122 00d4 49       		.uleb128 0x49
 3123 00d5 13       		.uleb128 0x13
 3124 00d6 02       		.uleb128 0x2
 3125 00d7 17       		.uleb128 0x17
 3126 00d8 00       		.byte	0
 3127 00d9 00       		.byte	0
 3128 00da 12       		.uleb128 0x12
 3129 00db 34       		.uleb128 0x34
 3130 00dc 00       		.byte	0
 3131 00dd 03       		.uleb128 0x3
 3132 00de 0E       		.uleb128 0xe
 3133 00df 3A       		.uleb128 0x3a
 3134 00e0 0B       		.uleb128 0xb
 3135 00e1 3B       		.uleb128 0x3b
 3136 00e2 05       		.uleb128 0x5
 3137 00e3 49       		.uleb128 0x49
 3138 00e4 13       		.uleb128 0x13
 3139 00e5 02       		.uleb128 0x2
 3140 00e6 17       		.uleb128 0x17
 3141 00e7 00       		.byte	0
 3142 00e8 00       		.byte	0
 3143 00e9 13       		.uleb128 0x13
 3144 00ea 2E       		.uleb128 0x2e
 3145 00eb 01       		.byte	0x1
 3146 00ec 3F       		.uleb128 0x3f
 3147 00ed 19       		.uleb128 0x19
 3148 00ee 03       		.uleb128 0x3
 3149 00ef 0E       		.uleb128 0xe
 3150 00f0 3A       		.uleb128 0x3a
 3151 00f1 0B       		.uleb128 0xb
 3152 00f2 3B       		.uleb128 0x3b
 3153 00f3 05       		.uleb128 0x5
 3154 00f4 27       		.uleb128 0x27
 3155 00f5 19       		.uleb128 0x19
 3156 00f6 49       		.uleb128 0x49
 3157 00f7 13       		.uleb128 0x13
 3158 00f8 11       		.uleb128 0x11
 3159 00f9 01       		.uleb128 0x1
 3160 00fa 12       		.uleb128 0x12
 3161 00fb 06       		.uleb128 0x6
 3162 00fc 40       		.uleb128 0x40
 3163 00fd 18       		.uleb128 0x18
 3164 00fe 9742     		.uleb128 0x2117
 3165 0100 19       		.uleb128 0x19
 3166 0101 01       		.uleb128 0x1
 3167 0102 13       		.uleb128 0x13
 3168 0103 00       		.byte	0
 3169 0104 00       		.byte	0
 3170 0105 14       		.uleb128 0x14
ARM GAS  C:\Users\LUKASC~1\AppData\Local\Temp\ccAgm3t8.s 			page 82


 3171 0106 05       		.uleb128 0x5
 3172 0107 00       		.byte	0
 3173 0108 03       		.uleb128 0x3
 3174 0109 0E       		.uleb128 0xe
 3175 010a 3A       		.uleb128 0x3a
 3176 010b 0B       		.uleb128 0xb
 3177 010c 3B       		.uleb128 0x3b
 3178 010d 05       		.uleb128 0x5
 3179 010e 49       		.uleb128 0x49
 3180 010f 13       		.uleb128 0x13
 3181 0110 02       		.uleb128 0x2
 3182 0111 17       		.uleb128 0x17
 3183 0112 00       		.byte	0
 3184 0113 00       		.byte	0
 3185 0114 15       		.uleb128 0x15
 3186 0115 26       		.uleb128 0x26
 3187 0116 00       		.byte	0
 3188 0117 49       		.uleb128 0x49
 3189 0118 13       		.uleb128 0x13
 3190 0119 00       		.byte	0
 3191 011a 00       		.byte	0
 3192 011b 16       		.uleb128 0x16
 3193 011c 898201   		.uleb128 0x4109
 3194 011f 00       		.byte	0
 3195 0120 11       		.uleb128 0x11
 3196 0121 01       		.uleb128 0x1
 3197 0122 31       		.uleb128 0x31
 3198 0123 13       		.uleb128 0x13
 3199 0124 00       		.byte	0
 3200 0125 00       		.byte	0
 3201 0126 17       		.uleb128 0x17
 3202 0127 2E       		.uleb128 0x2e
 3203 0128 00       		.byte	0
 3204 0129 3F       		.uleb128 0x3f
 3205 012a 19       		.uleb128 0x19
 3206 012b 03       		.uleb128 0x3
 3207 012c 0E       		.uleb128 0xe
 3208 012d 3A       		.uleb128 0x3a
 3209 012e 0B       		.uleb128 0xb
 3210 012f 3B       		.uleb128 0x3b
 3211 0130 05       		.uleb128 0x5
 3212 0131 27       		.uleb128 0x27
 3213 0132 19       		.uleb128 0x19
 3214 0133 49       		.uleb128 0x49
 3215 0134 13       		.uleb128 0x13
 3216 0135 11       		.uleb128 0x11
 3217 0136 01       		.uleb128 0x1
 3218 0137 12       		.uleb128 0x12
 3219 0138 06       		.uleb128 0x6
 3220 0139 40       		.uleb128 0x40
 3221 013a 18       		.uleb128 0x18
 3222 013b 9742     		.uleb128 0x2117
 3223 013d 19       		.uleb128 0x19
 3224 013e 00       		.byte	0
 3225 013f 00       		.byte	0
 3226 0140 18       		.uleb128 0x18
 3227 0141 2E       		.uleb128 0x2e
ARM GAS  C:\Users\LUKASC~1\AppData\Local\Temp\ccAgm3t8.s 			page 83


 3228 0142 01       		.byte	0x1
 3229 0143 3F       		.uleb128 0x3f
 3230 0144 19       		.uleb128 0x19
 3231 0145 03       		.uleb128 0x3
 3232 0146 0E       		.uleb128 0xe
 3233 0147 3A       		.uleb128 0x3a
 3234 0148 0B       		.uleb128 0xb
 3235 0149 3B       		.uleb128 0x3b
 3236 014a 0B       		.uleb128 0xb
 3237 014b 27       		.uleb128 0x27
 3238 014c 19       		.uleb128 0x19
 3239 014d 49       		.uleb128 0x49
 3240 014e 13       		.uleb128 0x13
 3241 014f 11       		.uleb128 0x11
 3242 0150 01       		.uleb128 0x1
 3243 0151 12       		.uleb128 0x12
 3244 0152 06       		.uleb128 0x6
 3245 0153 40       		.uleb128 0x40
 3246 0154 18       		.uleb128 0x18
 3247 0155 9742     		.uleb128 0x2117
 3248 0157 19       		.uleb128 0x19
 3249 0158 01       		.uleb128 0x1
 3250 0159 13       		.uleb128 0x13
 3251 015a 00       		.byte	0
 3252 015b 00       		.byte	0
 3253 015c 19       		.uleb128 0x19
 3254 015d 34       		.uleb128 0x34
 3255 015e 00       		.byte	0
 3256 015f 03       		.uleb128 0x3
 3257 0160 0E       		.uleb128 0xe
 3258 0161 3A       		.uleb128 0x3a
 3259 0162 0B       		.uleb128 0xb
 3260 0163 3B       		.uleb128 0x3b
 3261 0164 0B       		.uleb128 0xb
 3262 0165 49       		.uleb128 0x49
 3263 0166 13       		.uleb128 0x13
 3264 0167 02       		.uleb128 0x2
 3265 0168 17       		.uleb128 0x17
 3266 0169 00       		.byte	0
 3267 016a 00       		.byte	0
 3268 016b 1A       		.uleb128 0x1a
 3269 016c 34       		.uleb128 0x34
 3270 016d 00       		.byte	0
 3271 016e 03       		.uleb128 0x3
 3272 016f 0E       		.uleb128 0xe
 3273 0170 3A       		.uleb128 0x3a
 3274 0171 0B       		.uleb128 0xb
 3275 0172 3B       		.uleb128 0x3b
 3276 0173 0B       		.uleb128 0xb
 3277 0174 49       		.uleb128 0x49
 3278 0175 13       		.uleb128 0x13
 3279 0176 02       		.uleb128 0x2
 3280 0177 18       		.uleb128 0x18
 3281 0178 00       		.byte	0
 3282 0179 00       		.byte	0
 3283 017a 1B       		.uleb128 0x1b
 3284 017b 898201   		.uleb128 0x4109
ARM GAS  C:\Users\LUKASC~1\AppData\Local\Temp\ccAgm3t8.s 			page 84


 3285 017e 01       		.byte	0x1
 3286 017f 11       		.uleb128 0x11
 3287 0180 01       		.uleb128 0x1
 3288 0181 31       		.uleb128 0x31
 3289 0182 13       		.uleb128 0x13
 3290 0183 01       		.uleb128 0x1
 3291 0184 13       		.uleb128 0x13
 3292 0185 00       		.byte	0
 3293 0186 00       		.byte	0
 3294 0187 1C       		.uleb128 0x1c
 3295 0188 8A8201   		.uleb128 0x410a
 3296 018b 00       		.byte	0
 3297 018c 02       		.uleb128 0x2
 3298 018d 18       		.uleb128 0x18
 3299 018e 9142     		.uleb128 0x2111
 3300 0190 18       		.uleb128 0x18
 3301 0191 00       		.byte	0
 3302 0192 00       		.byte	0
 3303 0193 1D       		.uleb128 0x1d
 3304 0194 34       		.uleb128 0x34
 3305 0195 00       		.byte	0
 3306 0196 03       		.uleb128 0x3
 3307 0197 0E       		.uleb128 0xe
 3308 0198 3A       		.uleb128 0x3a
 3309 0199 0B       		.uleb128 0xb
 3310 019a 3B       		.uleb128 0x3b
 3311 019b 05       		.uleb128 0x5
 3312 019c 49       		.uleb128 0x49
 3313 019d 13       		.uleb128 0x13
 3314 019e 3F       		.uleb128 0x3f
 3315 019f 19       		.uleb128 0x19
 3316 01a0 3C       		.uleb128 0x3c
 3317 01a1 19       		.uleb128 0x19
 3318 01a2 00       		.byte	0
 3319 01a3 00       		.byte	0
 3320 01a4 1E       		.uleb128 0x1e
 3321 01a5 34       		.uleb128 0x34
 3322 01a6 00       		.byte	0
 3323 01a7 03       		.uleb128 0x3
 3324 01a8 0E       		.uleb128 0xe
 3325 01a9 3A       		.uleb128 0x3a
 3326 01aa 0B       		.uleb128 0xb
 3327 01ab 3B       		.uleb128 0x3b
 3328 01ac 0B       		.uleb128 0xb
 3329 01ad 49       		.uleb128 0x49
 3330 01ae 13       		.uleb128 0x13
 3331 01af 3F       		.uleb128 0x3f
 3332 01b0 19       		.uleb128 0x19
 3333 01b1 3C       		.uleb128 0x3c
 3334 01b2 19       		.uleb128 0x19
 3335 01b3 00       		.byte	0
 3336 01b4 00       		.byte	0
 3337 01b5 1F       		.uleb128 0x1f
 3338 01b6 2E       		.uleb128 0x2e
 3339 01b7 00       		.byte	0
 3340 01b8 3F       		.uleb128 0x3f
 3341 01b9 19       		.uleb128 0x19
ARM GAS  C:\Users\LUKASC~1\AppData\Local\Temp\ccAgm3t8.s 			page 85


 3342 01ba 03       		.uleb128 0x3
 3343 01bb 0E       		.uleb128 0xe
 3344 01bc 3A       		.uleb128 0x3a
 3345 01bd 0B       		.uleb128 0xb
 3346 01be 3B       		.uleb128 0x3b
 3347 01bf 0B       		.uleb128 0xb
 3348 01c0 27       		.uleb128 0x27
 3349 01c1 19       		.uleb128 0x19
 3350 01c2 49       		.uleb128 0x49
 3351 01c3 13       		.uleb128 0x13
 3352 01c4 3C       		.uleb128 0x3c
 3353 01c5 19       		.uleb128 0x19
 3354 01c6 00       		.byte	0
 3355 01c7 00       		.byte	0
 3356 01c8 20       		.uleb128 0x20
 3357 01c9 2E       		.uleb128 0x2e
 3358 01ca 00       		.byte	0
 3359 01cb 3F       		.uleb128 0x3f
 3360 01cc 19       		.uleb128 0x19
 3361 01cd 03       		.uleb128 0x3
 3362 01ce 0E       		.uleb128 0xe
 3363 01cf 3A       		.uleb128 0x3a
 3364 01d0 0B       		.uleb128 0xb
 3365 01d1 3B       		.uleb128 0x3b
 3366 01d2 05       		.uleb128 0x5
 3367 01d3 27       		.uleb128 0x27
 3368 01d4 19       		.uleb128 0x19
 3369 01d5 49       		.uleb128 0x49
 3370 01d6 13       		.uleb128 0x13
 3371 01d7 3C       		.uleb128 0x3c
 3372 01d8 19       		.uleb128 0x19
 3373 01d9 00       		.byte	0
 3374 01da 00       		.byte	0
 3375 01db 00       		.byte	0
 3376              		.section	.debug_loc,"",%progbits
 3377              	.Ldebug_loc0:
 3378              	.LLST0:
 3379 0000 02000000 		.4byte	.LVL0
 3380 0004 08000000 		.4byte	.LVL1
 3381 0008 0200     		.2byte	0x2
 3382 000a 31       		.byte	0x31
 3383 000b 9F       		.byte	0x9f
 3384 000c 08000000 		.4byte	.LVL1
 3385 0010 60000000 		.4byte	.LVL3
 3386 0014 0100     		.2byte	0x1
 3387 0016 53       		.byte	0x53
 3388 0017 62000000 		.4byte	.LVL4
 3389 001b 6A000000 		.4byte	.LVL5
 3390 001f 0100     		.2byte	0x1
 3391 0021 53       		.byte	0x53
 3392 0022 00000000 		.4byte	0
 3393 0026 00000000 		.4byte	0
 3394              	.LLST1:
 3395 002a 02000000 		.4byte	.LVL0
 3396 002e 08000000 		.4byte	.LVL1
 3397 0032 0200     		.2byte	0x2
 3398 0034 30       		.byte	0x30
ARM GAS  C:\Users\LUKASC~1\AppData\Local\Temp\ccAgm3t8.s 			page 86


 3399 0035 9F       		.byte	0x9f
 3400 0036 08000000 		.4byte	.LVL1
 3401 003a 9C000000 		.4byte	.LVL6
 3402 003e 0100     		.2byte	0x1
 3403 0040 54       		.byte	0x54
 3404 0041 00000000 		.4byte	0
 3405 0045 00000000 		.4byte	0
 3406              	.LLST2:
 3407 0049 00000000 		.4byte	.LVL7
 3408 004d 04000000 		.4byte	.LVL8
 3409 0051 0200     		.2byte	0x2
 3410 0053 31       		.byte	0x31
 3411 0054 9F       		.byte	0x9f
 3412 0055 04000000 		.4byte	.LVL8
 3413 0059 34000000 		.4byte	.LVL9
 3414 005d 0100     		.2byte	0x1
 3415 005f 53       		.byte	0x53
 3416 0060 36000000 		.4byte	.LVL10
 3417 0064 40000000 		.4byte	.LFE2
 3418 0068 0100     		.2byte	0x1
 3419 006a 53       		.byte	0x53
 3420 006b 00000000 		.4byte	0
 3421 006f 00000000 		.4byte	0
 3422              	.LLST3:
 3423 0073 00000000 		.4byte	.LVL11
 3424 0077 18000000 		.4byte	.LVL14
 3425 007b 0100     		.2byte	0x1
 3426 007d 50       		.byte	0x50
 3427 007e 18000000 		.4byte	.LVL14
 3428 0082 1A000000 		.4byte	.LVL15
 3429 0086 0400     		.2byte	0x4
 3430 0088 F3       		.byte	0xf3
 3431 0089 01       		.uleb128 0x1
 3432 008a 50       		.byte	0x50
 3433 008b 9F       		.byte	0x9f
 3434 008c 1A000000 		.4byte	.LVL15
 3435 0090 1C000000 		.4byte	.LVL16
 3436 0094 0100     		.2byte	0x1
 3437 0096 50       		.byte	0x50
 3438 0097 1C000000 		.4byte	.LVL16
 3439 009b 28000000 		.4byte	.LFE5
 3440 009f 0400     		.2byte	0x4
 3441 00a1 F3       		.byte	0xf3
 3442 00a2 01       		.uleb128 0x1
 3443 00a3 50       		.byte	0x50
 3444 00a4 9F       		.byte	0x9f
 3445 00a5 00000000 		.4byte	0
 3446 00a9 00000000 		.4byte	0
 3447              	.LLST4:
 3448 00ad 0C000000 		.4byte	.LVL12
 3449 00b1 16000000 		.4byte	.LVL13
 3450 00b5 0300     		.2byte	0x3
 3451 00b7 73       		.byte	0x73
 3452 00b8 10       		.sleb128 16
 3453 00b9 9F       		.byte	0x9f
 3454 00ba 18000000 		.4byte	.LVL14
 3455 00be 1A000000 		.4byte	.LVL15
ARM GAS  C:\Users\LUKASC~1\AppData\Local\Temp\ccAgm3t8.s 			page 87


 3456 00c2 0100     		.2byte	0x1
 3457 00c4 50       		.byte	0x50
 3458 00c5 1A000000 		.4byte	.LVL15
 3459 00c9 1C000000 		.4byte	.LVL16
 3460 00cd 0300     		.2byte	0x3
 3461 00cf 73       		.byte	0x73
 3462 00d0 10       		.sleb128 16
 3463 00d1 9F       		.byte	0x9f
 3464 00d2 1C000000 		.4byte	.LVL16
 3465 00d6 28000000 		.4byte	.LFE5
 3466 00da 0100     		.2byte	0x1
 3467 00dc 50       		.byte	0x50
 3468 00dd 00000000 		.4byte	0
 3469 00e1 00000000 		.4byte	0
 3470              	.LLST5:
 3471 00e5 1C000000 		.4byte	.LVL18
 3472 00e9 1A010000 		.4byte	.LVL35
 3473 00ed 0100     		.2byte	0x1
 3474 00ef 54       		.byte	0x54
 3475 00f0 00000000 		.4byte	0
 3476 00f4 00000000 		.4byte	0
 3477              	.LLST6:
 3478 00f8 40000000 		.4byte	.LVL23
 3479 00fc EA000000 		.4byte	.LVL28
 3480 0100 0100     		.2byte	0x1
 3481 0102 55       		.byte	0x55
 3482 0103 EA000000 		.4byte	.LVL28
 3483 0107 F6000000 		.4byte	.LVL29
 3484 010b 0300     		.2byte	0x3
 3485 010d 75       		.byte	0x75
 3486 010e 01       		.sleb128 1
 3487 010f 9F       		.byte	0x9f
 3488 0110 F6000000 		.4byte	.LVL29
 3489 0114 FC000000 		.4byte	.LVL30
 3490 0118 0100     		.2byte	0x1
 3491 011a 55       		.byte	0x55
 3492 011b FC000000 		.4byte	.LVL30
 3493 011f 06010000 		.4byte	.LVL31
 3494 0123 0300     		.2byte	0x3
 3495 0125 75       		.byte	0x75
 3496 0126 01       		.sleb128 1
 3497 0127 9F       		.byte	0x9f
 3498 0128 00000000 		.4byte	0
 3499 012c 00000000 		.4byte	0
 3500              	.LLST7:
 3501 0130 46000000 		.4byte	.LVL24
 3502 0134 8A000000 		.4byte	.LVL25
 3503 0138 0100     		.2byte	0x1
 3504 013a 56       		.byte	0x56
 3505 013b 94000000 		.4byte	.LVL26
 3506 013f A6000000 		.4byte	.LVL27
 3507 0143 0100     		.2byte	0x1
 3508 0145 56       		.byte	0x56
 3509 0146 00000000 		.4byte	0
 3510 014a 00000000 		.4byte	0
 3511              	.LLST8:
 3512 014e 24000000 		.4byte	.LVL21
ARM GAS  C:\Users\LUKASC~1\AppData\Local\Temp\ccAgm3t8.s 			page 88


 3513 0152 28000000 		.4byte	.LVL22
 3514 0156 0200     		.2byte	0x2
 3515 0158 30       		.byte	0x30
 3516 0159 9F       		.byte	0x9f
 3517 015a 28000000 		.4byte	.LVL22
 3518 015e 14010000 		.4byte	.LVL33
 3519 0162 0100     		.2byte	0x1
 3520 0164 53       		.byte	0x53
 3521 0165 16010000 		.4byte	.LVL34
 3522 0169 1A010000 		.4byte	.LVL35
 3523 016d 0100     		.2byte	0x1
 3524 016f 53       		.byte	0x53
 3525 0170 00000000 		.4byte	0
 3526 0174 00000000 		.4byte	0
 3527              	.LLST9:
 3528 0178 24000000 		.4byte	.LVL21
 3529 017c 1A010000 		.4byte	.LVL35
 3530 0180 0100     		.2byte	0x1
 3531 0182 50       		.byte	0x50
 3532 0183 00000000 		.4byte	0
 3533 0187 00000000 		.4byte	0
 3534              	.LLST10:
 3535 018b 1A000000 		.4byte	.LVL17
 3536 018f 22000000 		.4byte	.LVL20
 3537 0193 0300     		.2byte	0x3
 3538 0195 70       		.byte	0x70
 3539 0196 08       		.sleb128 8
 3540 0197 9F       		.byte	0x9f
 3541 0198 00000000 		.4byte	0
 3542 019c 00000000 		.4byte	0
 3543              	.LLST11:
 3544 01a0 1E000000 		.4byte	.LVL19
 3545 01a4 1A010000 		.4byte	.LVL35
 3546 01a8 0100     		.2byte	0x1
 3547 01aa 52       		.byte	0x52
 3548 01ab 00000000 		.4byte	0
 3549 01af 00000000 		.4byte	0
 3550              	.LLST12:
 3551 01b3 0E000000 		.4byte	.LVL36
 3552 01b7 18000000 		.4byte	.LVL38
 3553 01bb 0100     		.2byte	0x1
 3554 01bd 50       		.byte	0x50
 3555 01be 18000000 		.4byte	.LVL38
 3556 01c2 1A000000 		.4byte	.LVL39
 3557 01c6 0800     		.2byte	0x8
 3558 01c8 72       		.byte	0x72
 3559 01c9 02       		.sleb128 2
 3560 01ca 33       		.byte	0x33
 3561 01cb 24       		.byte	0x24
 3562 01cc 70       		.byte	0x70
 3563 01cd 00       		.sleb128 0
 3564 01ce 22       		.byte	0x22
 3565 01cf 9F       		.byte	0x9f
 3566 01d0 1C000000 		.4byte	.LVL40
 3567 01d4 1E000000 		.4byte	.LVL41
 3568 01d8 0100     		.2byte	0x1
 3569 01da 50       		.byte	0x50
ARM GAS  C:\Users\LUKASC~1\AppData\Local\Temp\ccAgm3t8.s 			page 89


 3570 01db 00000000 		.4byte	0
 3571 01df 00000000 		.4byte	0
 3572              	.LLST13:
 3573 01e3 1A000000 		.4byte	.LVL39
 3574 01e7 1C000000 		.4byte	.LVL40
 3575 01eb 0100     		.2byte	0x1
 3576 01ed 50       		.byte	0x50
 3577 01ee 1E000000 		.4byte	.LVL41
 3578 01f2 24000000 		.4byte	.LFE7
 3579 01f6 0100     		.2byte	0x1
 3580 01f8 50       		.byte	0x50
 3581 01f9 00000000 		.4byte	0
 3582 01fd 00000000 		.4byte	0
 3583              	.LLST14:
 3584 0201 14000000 		.4byte	.LVL37
 3585 0205 1C000000 		.4byte	.LVL40
 3586 0209 0100     		.2byte	0x1
 3587 020b 52       		.byte	0x52
 3588 020c 00000000 		.4byte	0
 3589 0210 00000000 		.4byte	0
 3590              	.LLST15:
 3591 0214 00000000 		.4byte	.LVL42
 3592 0218 52000000 		.4byte	.LVL53
 3593 021c 0100     		.2byte	0x1
 3594 021e 50       		.byte	0x50
 3595 021f 52000000 		.4byte	.LVL53
 3596 0223 80010000 		.4byte	.LFE3
 3597 0227 0400     		.2byte	0x4
 3598 0229 F3       		.byte	0xf3
 3599 022a 01       		.uleb128 0x1
 3600 022b 50       		.byte	0x50
 3601 022c 9F       		.byte	0x9f
 3602 022d 00000000 		.4byte	0
 3603 0231 00000000 		.4byte	0
 3604              	.LLST16:
 3605 0235 02000000 		.4byte	.LVL43
 3606 0239 06000000 		.4byte	.LVL44
 3607 023d 0200     		.2byte	0x2
 3608 023f 30       		.byte	0x30
 3609 0240 9F       		.byte	0x9f
 3610 0241 06000000 		.4byte	.LVL44
 3611 0245 22000000 		.4byte	.LVL45
 3612 0249 0100     		.2byte	0x1
 3613 024b 52       		.byte	0x52
 3614 024c 24000000 		.4byte	.LVL46
 3615 0250 2C000000 		.4byte	.LVL47
 3616 0254 0100     		.2byte	0x1
 3617 0256 52       		.byte	0x52
 3618 0257 3C000000 		.4byte	.LVL50
 3619 025b 3E000000 		.4byte	.LVL51
 3620 025f 0100     		.2byte	0x1
 3621 0261 52       		.byte	0x52
 3622 0262 7C000000 		.4byte	.LVL58
 3623 0266 62010000 		.4byte	.LVL83
 3624 026a 0100     		.2byte	0x1
 3625 026c 55       		.byte	0x55
 3626 026d 00000000 		.4byte	0
ARM GAS  C:\Users\LUKASC~1\AppData\Local\Temp\ccAgm3t8.s 			page 90


 3627 0271 00000000 		.4byte	0
 3628              	.LLST17:
 3629 0275 82000000 		.4byte	.LVL60
 3630 0279 86000000 		.4byte	.LVL61
 3631 027d 0200     		.2byte	0x2
 3632 027f 30       		.byte	0x30
 3633 0280 9F       		.byte	0x9f
 3634 0281 86000000 		.4byte	.LVL61
 3635 0285 CA000000 		.4byte	.LVL62
 3636 0289 0100     		.2byte	0x1
 3637 028b 53       		.byte	0x53
 3638 028c 20010000 		.4byte	.LVL69
 3639 0290 24010000 		.4byte	.LVL71
 3640 0294 0100     		.2byte	0x1
 3641 0296 53       		.byte	0x53
 3642 0297 26010000 		.4byte	.LVL72
 3643 029b 2A010000 		.4byte	.LVL73
 3644 029f 0100     		.2byte	0x1
 3645 02a1 53       		.byte	0x53
 3646 02a2 00000000 		.4byte	0
 3647 02a6 00000000 		.4byte	0
 3648              	.LLST18:
 3649 02aa 2C000000 		.4byte	.LVL47
 3650 02ae 38000000 		.4byte	.LVL48
 3651 02b2 0100     		.2byte	0x1
 3652 02b4 53       		.byte	0x53
 3653 02b5 3A000000 		.4byte	.LVL49
 3654 02b9 3C000000 		.4byte	.LVL50
 3655 02bd 0100     		.2byte	0x1
 3656 02bf 53       		.byte	0x53
 3657 02c0 3E000000 		.4byte	.LVL51
 3658 02c4 42000000 		.4byte	.LVL52
 3659 02c8 0100     		.2byte	0x1
 3660 02ca 53       		.byte	0x53
 3661 02cb 7C000000 		.4byte	.LVL58
 3662 02cf 80000000 		.4byte	.LVL59
 3663 02d3 0200     		.2byte	0x2
 3664 02d5 31       		.byte	0x31
 3665 02d6 9F       		.byte	0x9f
 3666 02d7 80000000 		.4byte	.LVL59
 3667 02db 2C010000 		.4byte	.LVL74
 3668 02df 0100     		.2byte	0x1
 3669 02e1 54       		.byte	0x54
 3670 02e2 2E010000 		.4byte	.LVL75
 3671 02e6 34010000 		.4byte	.LVL76
 3672 02ea 0100     		.2byte	0x1
 3673 02ec 54       		.byte	0x54
 3674 02ed 34010000 		.4byte	.LVL76
 3675 02f1 38010000 		.4byte	.LVL77
 3676 02f5 0200     		.2byte	0x2
 3677 02f7 30       		.byte	0x30
 3678 02f8 9F       		.byte	0x9f
 3679 02f9 38010000 		.4byte	.LVL77
 3680 02fd 50010000 		.4byte	.LVL80
 3681 0301 0100     		.2byte	0x1
 3682 0303 52       		.byte	0x52
 3683 0304 52010000 		.4byte	.LVL81
ARM GAS  C:\Users\LUKASC~1\AppData\Local\Temp\ccAgm3t8.s 			page 91


 3684 0308 59010000 		.4byte	.LVL82-1
 3685 030c 0100     		.2byte	0x1
 3686 030e 52       		.byte	0x52
 3687 030f 00000000 		.4byte	0
 3688 0313 00000000 		.4byte	0
 3689              	.LLST19:
 3690 0317 DE000000 		.4byte	.LVL63
 3691 031b F4000000 		.4byte	.LVL65
 3692 031f 0100     		.2byte	0x1
 3693 0321 53       		.byte	0x53
 3694 0322 02010000 		.4byte	.LVL66
 3695 0326 12010000 		.4byte	.LVL68
 3696 032a 0100     		.2byte	0x1
 3697 032c 53       		.byte	0x53
 3698 032d 00000000 		.4byte	0
 3699 0331 00000000 		.4byte	0
 3700              	.LLST20:
 3701 0335 5C000000 		.4byte	.LVL55
 3702 0339 5E000000 		.4byte	.LVL56
 3703 033d 0100     		.2byte	0x1
 3704 033f 53       		.byte	0x53
 3705 0340 5E000000 		.4byte	.LVL56
 3706 0344 80000000 		.4byte	.LVL59
 3707 0348 0200     		.2byte	0x2
 3708 034a 70       		.byte	0x70
 3709 034b 04       		.sleb128 4
 3710 034c 00000000 		.4byte	0
 3711 0350 00000000 		.4byte	0
 3712              	.LLST21:
 3713 0354 5A000000 		.4byte	.LVL54
 3714 0358 7A000000 		.4byte	.LVL57
 3715 035c 0100     		.2byte	0x1
 3716 035e 50       		.byte	0x50
 3717 035f 7A000000 		.4byte	.LVL57
 3718 0363 34010000 		.4byte	.LVL76
 3719 0367 0300     		.2byte	0x3
 3720 0369 70       		.byte	0x70
 3721 036a 08       		.sleb128 8
 3722 036b 9F       		.byte	0x9f
 3723 036c 00000000 		.4byte	0
 3724 0370 00000000 		.4byte	0
 3725              	.LLST22:
 3726 0374 82000000 		.4byte	.LVL60
 3727 0378 F2000000 		.4byte	.LVL64
 3728 037c 0100     		.2byte	0x1
 3729 037e 51       		.byte	0x51
 3730 037f 02010000 		.4byte	.LVL66
 3731 0383 10010000 		.4byte	.LVL67
 3732 0387 0100     		.2byte	0x1
 3733 0389 51       		.byte	0x51
 3734 038a 20010000 		.4byte	.LVL69
 3735 038e 2A010000 		.4byte	.LVL73
 3736 0392 0100     		.2byte	0x1
 3737 0394 51       		.byte	0x51
 3738 0395 34010000 		.4byte	.LVL76
 3739 0399 42010000 		.4byte	.LVL78
 3740 039d 0100     		.2byte	0x1
ARM GAS  C:\Users\LUKASC~1\AppData\Local\Temp\ccAgm3t8.s 			page 92


 3741 039f 50       		.byte	0x50
 3742 03a0 42010000 		.4byte	.LVL78
 3743 03a4 4E010000 		.4byte	.LVL79
 3744 03a8 0300     		.2byte	0x3
 3745 03aa 70       		.byte	0x70
 3746 03ab 78       		.sleb128 -8
 3747 03ac 9F       		.byte	0x9f
 3748 03ad 4E010000 		.4byte	.LVL79
 3749 03b1 59010000 		.4byte	.LVL82-1
 3750 03b5 0100     		.2byte	0x1
 3751 03b7 50       		.byte	0x50
 3752 03b8 00000000 		.4byte	0
 3753 03bc 00000000 		.4byte	0
 3754              	.LLST23:
 3755 03c0 00000000 		.4byte	.LVL84
 3756 03c4 04000000 		.4byte	.LVL85
 3757 03c8 0100     		.2byte	0x1
 3758 03ca 50       		.byte	0x50
 3759 03cb 04000000 		.4byte	.LVL85
 3760 03cf 30000000 		.4byte	.LVL86
 3761 03d3 0100     		.2byte	0x1
 3762 03d5 50       		.byte	0x50
 3763 03d6 38000000 		.4byte	.LVL87
 3764 03da 3A000000 		.4byte	.LVL88
 3765 03de 0100     		.2byte	0x1
 3766 03e0 50       		.byte	0x50
 3767 03e1 00000000 		.4byte	0
 3768 03e5 00000000 		.4byte	0
 3769              	.LLST24:
 3770 03e9 02000000 		.4byte	.LVL89
 3771 03ed 52000000 		.4byte	.LVL94
 3772 03f1 0200     		.2byte	0x2
 3773 03f3 30       		.byte	0x30
 3774 03f4 9F       		.byte	0x9f
 3775 03f5 52000000 		.4byte	.LVL94
 3776 03f9 54000000 		.4byte	.LVL95
 3777 03fd 0100     		.2byte	0x1
 3778 03ff 50       		.byte	0x50
 3779 0400 54000000 		.4byte	.LVL95
 3780 0404 56000000 		.4byte	.LVL96
 3781 0408 0200     		.2byte	0x2
 3782 040a 30       		.byte	0x30
 3783 040b 9F       		.byte	0x9f
 3784 040c 56000000 		.4byte	.LVL96
 3785 0410 64000000 		.4byte	.LFE9
 3786 0414 0100     		.2byte	0x1
 3787 0416 50       		.byte	0x50
 3788 0417 00000000 		.4byte	0
 3789 041b 00000000 		.4byte	0
 3790              	.LLST25:
 3791 041f 0A000000 		.4byte	.LVL90
 3792 0423 3A000000 		.4byte	.LVL91
 3793 0427 0100     		.2byte	0x1
 3794 0429 52       		.byte	0x52
 3795 042a 44000000 		.4byte	.LVL92
 3796 042e 46000000 		.4byte	.LVL93
 3797 0432 0100     		.2byte	0x1
ARM GAS  C:\Users\LUKASC~1\AppData\Local\Temp\ccAgm3t8.s 			page 93


 3798 0434 52       		.byte	0x52
 3799 0435 54000000 		.4byte	.LVL95
 3800 0439 64000000 		.4byte	.LFE9
 3801 043d 0100     		.2byte	0x1
 3802 043f 52       		.byte	0x52
 3803 0440 00000000 		.4byte	0
 3804 0444 00000000 		.4byte	0
 3805              	.LLST26:
 3806 0448 00000000 		.4byte	.LVL97
 3807 044c 96000000 		.4byte	.LVL106
 3808 0450 0200     		.2byte	0x2
 3809 0452 30       		.byte	0x30
 3810 0453 9F       		.byte	0x9f
 3811 0454 96000000 		.4byte	.LVL106
 3812 0458 98000000 		.4byte	.LVL107
 3813 045c 0100     		.2byte	0x1
 3814 045e 50       		.byte	0x50
 3815 045f 98000000 		.4byte	.LVL107
 3816 0463 A8000000 		.4byte	.LFE10
 3817 0467 0200     		.2byte	0x2
 3818 0469 30       		.byte	0x30
 3819 046a 9F       		.byte	0x9f
 3820 046b 00000000 		.4byte	0
 3821 046f 00000000 		.4byte	0
 3822              	.LLST27:
 3823 0473 08000000 		.4byte	.LVL98
 3824 0477 54000000 		.4byte	.LVL99
 3825 047b 0100     		.2byte	0x1
 3826 047d 53       		.byte	0x53
 3827 047e 5E000000 		.4byte	.LVL100
 3828 0482 60000000 		.4byte	.LVL101
 3829 0486 0100     		.2byte	0x1
 3830 0488 53       		.byte	0x53
 3831 0489 6A000000 		.4byte	.LVL102
 3832 048d 7E000000 		.4byte	.LVL103
 3833 0491 0100     		.2byte	0x1
 3834 0493 53       		.byte	0x53
 3835 0494 88000000 		.4byte	.LVL104
 3836 0498 8A000000 		.4byte	.LVL105
 3837 049c 0100     		.2byte	0x1
 3838 049e 53       		.byte	0x53
 3839 049f 98000000 		.4byte	.LVL107
 3840 04a3 A8000000 		.4byte	.LFE10
 3841 04a7 0100     		.2byte	0x1
 3842 04a9 53       		.byte	0x53
 3843 04aa 00000000 		.4byte	0
 3844 04ae 00000000 		.4byte	0
 3845              	.LLST28:
 3846 04b2 02000000 		.4byte	.LVL108
 3847 04b6 32000000 		.4byte	.LVL113
 3848 04ba 0200     		.2byte	0x2
 3849 04bc 30       		.byte	0x30
 3850 04bd 9F       		.byte	0x9f
 3851 04be 32000000 		.4byte	.LVL113
 3852 04c2 36000000 		.4byte	.LVL115
 3853 04c6 0200     		.2byte	0x2
 3854 04c8 31       		.byte	0x31
ARM GAS  C:\Users\LUKASC~1\AppData\Local\Temp\ccAgm3t8.s 			page 94


 3855 04c9 9F       		.byte	0x9f
 3856 04ca 36000000 		.4byte	.LVL115
 3857 04ce 38000000 		.4byte	.LVL116
 3858 04d2 0200     		.2byte	0x2
 3859 04d4 30       		.byte	0x30
 3860 04d5 9F       		.byte	0x9f
 3861 04d6 38000000 		.4byte	.LVL116
 3862 04da 4C000000 		.4byte	.LFE11
 3863 04de 0100     		.2byte	0x1
 3864 04e0 50       		.byte	0x50
 3865 04e1 00000000 		.4byte	0
 3866 04e5 00000000 		.4byte	0
 3867              	.LLST29:
 3868 04e9 08000000 		.4byte	.LVL109
 3869 04ed 3A000000 		.4byte	.LVL117
 3870 04f1 0100     		.2byte	0x1
 3871 04f3 54       		.byte	0x54
 3872 04f4 00000000 		.4byte	0
 3873 04f8 00000000 		.4byte	0
 3874              	.LLST30:
 3875 04fc 18000000 		.4byte	.LVL111
 3876 0500 24000000 		.4byte	.LVL112
 3877 0504 0100     		.2byte	0x1
 3878 0506 53       		.byte	0x53
 3879 0507 24000000 		.4byte	.LVL112
 3880 050b 34000000 		.4byte	.LVL114
 3881 050f 0500     		.2byte	0x5
 3882 0511 70       		.byte	0x70
 3883 0512 04       		.sleb128 4
 3884 0513 06       		.byte	0x6
 3885 0514 23       		.byte	0x23
 3886 0515 04       		.uleb128 0x4
 3887 0516 36000000 		.4byte	.LVL115
 3888 051a 4C000000 		.4byte	.LFE11
 3889 051e 0100     		.2byte	0x1
 3890 0520 53       		.byte	0x53
 3891 0521 00000000 		.4byte	0
 3892 0525 00000000 		.4byte	0
 3893              	.LLST31:
 3894 0529 14000000 		.4byte	.LVL110
 3895 052d 34000000 		.4byte	.LVL114
 3896 0531 0100     		.2byte	0x1
 3897 0533 50       		.byte	0x50
 3898 0534 36000000 		.4byte	.LVL115
 3899 0538 38000000 		.4byte	.LVL116
 3900 053c 0100     		.2byte	0x1
 3901 053e 50       		.byte	0x50
 3902 053f 00000000 		.4byte	0
 3903 0543 00000000 		.4byte	0
 3904              	.LLST32:
 3905 0547 02000000 		.4byte	.LVL118
 3906 054b 58000000 		.4byte	.LVL122
 3907 054f 0200     		.2byte	0x2
 3908 0551 30       		.byte	0x30
 3909 0552 9F       		.byte	0x9f
 3910 0553 58000000 		.4byte	.LVL122
 3911 0557 5A000000 		.4byte	.LVL123
ARM GAS  C:\Users\LUKASC~1\AppData\Local\Temp\ccAgm3t8.s 			page 95


 3912 055b 0100     		.2byte	0x1
 3913 055d 50       		.byte	0x50
 3914 055e 5A000000 		.4byte	.LVL123
 3915 0562 8A000000 		.4byte	.LVL125
 3916 0566 0200     		.2byte	0x2
 3917 0568 30       		.byte	0x30
 3918 0569 9F       		.byte	0x9f
 3919 056a 8A000000 		.4byte	.LVL125
 3920 056e 8C000000 		.4byte	.LVL126
 3921 0572 0100     		.2byte	0x1
 3922 0574 50       		.byte	0x50
 3923 0575 8C000000 		.4byte	.LVL126
 3924 0579 CE000000 		.4byte	.LVL135
 3925 057d 0200     		.2byte	0x2
 3926 057f 30       		.byte	0x30
 3927 0580 9F       		.byte	0x9f
 3928 0581 CE000000 		.4byte	.LVL135
 3929 0585 D0000000 		.4byte	.LVL136
 3930 0589 0100     		.2byte	0x1
 3931 058b 50       		.byte	0x50
 3932 058c D0000000 		.4byte	.LVL136
 3933 0590 D4000000 		.4byte	.LVL137
 3934 0594 0200     		.2byte	0x2
 3935 0596 30       		.byte	0x30
 3936 0597 9F       		.byte	0x9f
 3937 0598 D4000000 		.4byte	.LVL137
 3938 059c D6000000 		.4byte	.LVL138
 3939 05a0 0100     		.2byte	0x1
 3940 05a2 50       		.byte	0x50
 3941 05a3 D6000000 		.4byte	.LVL138
 3942 05a7 0A010000 		.4byte	.LVL140
 3943 05ab 0200     		.2byte	0x2
 3944 05ad 30       		.byte	0x30
 3945 05ae 9F       		.byte	0x9f
 3946 05af 0A010000 		.4byte	.LVL140
 3947 05b3 0C010000 		.4byte	.LVL141
 3948 05b7 0100     		.2byte	0x1
 3949 05b9 50       		.byte	0x50
 3950 05ba 0C010000 		.4byte	.LVL141
 3951 05be 26010000 		.4byte	.LVL142
 3952 05c2 0200     		.2byte	0x2
 3953 05c4 30       		.byte	0x30
 3954 05c5 9F       		.byte	0x9f
 3955 05c6 26010000 		.4byte	.LVL142
 3956 05ca 28010000 		.4byte	.LVL143
 3957 05ce 0100     		.2byte	0x1
 3958 05d0 50       		.byte	0x50
 3959 05d1 28010000 		.4byte	.LVL143
 3960 05d5 36010000 		.4byte	.LVL145
 3961 05d9 0200     		.2byte	0x2
 3962 05db 30       		.byte	0x30
 3963 05dc 9F       		.byte	0x9f
 3964 05dd 36010000 		.4byte	.LVL145
 3965 05e1 38010000 		.4byte	.LVL146
 3966 05e5 0100     		.2byte	0x1
 3967 05e7 50       		.byte	0x50
 3968 05e8 38010000 		.4byte	.LVL146
ARM GAS  C:\Users\LUKASC~1\AppData\Local\Temp\ccAgm3t8.s 			page 96


 3969 05ec 4C010000 		.4byte	.LVL148
 3970 05f0 0200     		.2byte	0x2
 3971 05f2 30       		.byte	0x30
 3972 05f3 9F       		.byte	0x9f
 3973 05f4 4C010000 		.4byte	.LVL148
 3974 05f8 4E010000 		.4byte	.LVL149
 3975 05fc 0100     		.2byte	0x1
 3976 05fe 50       		.byte	0x50
 3977 05ff 4E010000 		.4byte	.LVL149
 3978 0603 82010000 		.4byte	.LVL151
 3979 0607 0200     		.2byte	0x2
 3980 0609 30       		.byte	0x30
 3981 060a 9F       		.byte	0x9f
 3982 060b 82010000 		.4byte	.LVL151
 3983 060f 84010000 		.4byte	.LVL152
 3984 0613 0100     		.2byte	0x1
 3985 0615 50       		.byte	0x50
 3986 0616 84010000 		.4byte	.LVL152
 3987 061a BC010000 		.4byte	.LVL158
 3988 061e 0200     		.2byte	0x2
 3989 0620 30       		.byte	0x30
 3990 0621 9F       		.byte	0x9f
 3991 0622 BC010000 		.4byte	.LVL158
 3992 0626 BE010000 		.4byte	.LVL159
 3993 062a 0100     		.2byte	0x1
 3994 062c 50       		.byte	0x50
 3995 062d BE010000 		.4byte	.LVL159
 3996 0631 F2010000 		.4byte	.LVL164
 3997 0635 0200     		.2byte	0x2
 3998 0637 30       		.byte	0x30
 3999 0638 9F       		.byte	0x9f
 4000 0639 F2010000 		.4byte	.LVL164
 4001 063d F4010000 		.4byte	.LVL165
 4002 0641 0100     		.2byte	0x1
 4003 0643 50       		.byte	0x50
 4004 0644 F4010000 		.4byte	.LVL165
 4005 0648 10020000 		.4byte	.LVL167
 4006 064c 0200     		.2byte	0x2
 4007 064e 30       		.byte	0x30
 4008 064f 9F       		.byte	0x9f
 4009 0650 10020000 		.4byte	.LVL167
 4010 0654 12020000 		.4byte	.LVL168
 4011 0658 0100     		.2byte	0x1
 4012 065a 50       		.byte	0x50
 4013 065b 12020000 		.4byte	.LVL168
 4014 065f 2A020000 		.4byte	.LVL169
 4015 0663 0200     		.2byte	0x2
 4016 0665 30       		.byte	0x30
 4017 0666 9F       		.byte	0x9f
 4018 0667 2A020000 		.4byte	.LVL169
 4019 066b 2C020000 		.4byte	.LVL170
 4020 066f 0100     		.2byte	0x1
 4021 0671 50       		.byte	0x50
 4022 0672 2C020000 		.4byte	.LVL170
 4023 0676 4C020000 		.4byte	.LVL171
 4024 067a 0200     		.2byte	0x2
 4025 067c 30       		.byte	0x30
ARM GAS  C:\Users\LUKASC~1\AppData\Local\Temp\ccAgm3t8.s 			page 97


 4026 067d 9F       		.byte	0x9f
 4027 067e 4C020000 		.4byte	.LVL171
 4028 0682 4E020000 		.4byte	.LVL172
 4029 0686 0100     		.2byte	0x1
 4030 0688 50       		.byte	0x50
 4031 0689 4E020000 		.4byte	.LVL172
 4032 068d 6A020000 		.4byte	.LVL174
 4033 0691 0200     		.2byte	0x2
 4034 0693 30       		.byte	0x30
 4035 0694 9F       		.byte	0x9f
 4036 0695 6A020000 		.4byte	.LVL174
 4037 0699 A0020000 		.4byte	.LVL175
 4038 069d 0100     		.2byte	0x1
 4039 069f 50       		.byte	0x50
 4040 06a0 A0020000 		.4byte	.LVL175
 4041 06a4 B8020000 		.4byte	.LVL176
 4042 06a8 0200     		.2byte	0x2
 4043 06aa 30       		.byte	0x30
 4044 06ab 9F       		.byte	0x9f
 4045 06ac B8020000 		.4byte	.LVL176
 4046 06b0 BA020000 		.4byte	.LVL177
 4047 06b4 0100     		.2byte	0x1
 4048 06b6 50       		.byte	0x50
 4049 06b7 BA020000 		.4byte	.LVL177
 4050 06bb DA020000 		.4byte	.LVL178
 4051 06bf 0200     		.2byte	0x2
 4052 06c1 30       		.byte	0x30
 4053 06c2 9F       		.byte	0x9f
 4054 06c3 DA020000 		.4byte	.LVL178
 4055 06c7 DC020000 		.4byte	.LVL179
 4056 06cb 0100     		.2byte	0x1
 4057 06cd 50       		.byte	0x50
 4058 06ce DC020000 		.4byte	.LVL179
 4059 06d2 16030000 		.4byte	.LVL187
 4060 06d6 0200     		.2byte	0x2
 4061 06d8 30       		.byte	0x30
 4062 06d9 9F       		.byte	0x9f
 4063 06da 16030000 		.4byte	.LVL187
 4064 06de 24030000 		.4byte	.LFE0
 4065 06e2 0100     		.2byte	0x1
 4066 06e4 50       		.byte	0x50
 4067 06e5 00000000 		.4byte	0
 4068 06e9 00000000 		.4byte	0
 4069              	.LLST33:
 4070 06ed CE010000 		.4byte	.LVL161
 4071 06f1 E0010000 		.4byte	.LVL162
 4072 06f5 0100     		.2byte	0x1
 4073 06f7 53       		.byte	0x53
 4074 06f8 00000000 		.4byte	0
 4075 06fc 00000000 		.4byte	0
 4076              	.LLST34:
 4077 0700 88010000 		.4byte	.LVL154
 4078 0704 95010000 		.4byte	.LVL155-1
 4079 0708 0100     		.2byte	0x1
 4080 070a 53       		.byte	0x53
 4081 070b 00000000 		.4byte	0
 4082 070f 00000000 		.4byte	0
ARM GAS  C:\Users\LUKASC~1\AppData\Local\Temp\ccAgm3t8.s 			page 98


 4083              	.LLST35:
 4084 0713 08000000 		.4byte	.LVL119
 4085 0717 3E000000 		.4byte	.LVL120
 4086 071b 0100     		.2byte	0x1
 4087 071d 53       		.byte	0x53
 4088 071e D6000000 		.4byte	.LVL138
 4089 0722 DA000000 		.4byte	.LVL139
 4090 0726 0100     		.2byte	0x1
 4091 0728 53       		.byte	0x53
 4092 0729 28010000 		.4byte	.LVL143
 4093 072d 2A010000 		.4byte	.LVL144
 4094 0731 0100     		.2byte	0x1
 4095 0733 53       		.byte	0x53
 4096 0734 38010000 		.4byte	.LVL146
 4097 0738 3C010000 		.4byte	.LVL147
 4098 073c 0100     		.2byte	0x1
 4099 073e 53       		.byte	0x53
 4100 073f 4E010000 		.4byte	.LVL149
 4101 0743 76010000 		.4byte	.LVL150
 4102 0747 0100     		.2byte	0x1
 4103 0749 53       		.byte	0x53
 4104 074a 84010000 		.4byte	.LVL152
 4105 074e 86010000 		.4byte	.LVL153
 4106 0752 0100     		.2byte	0x1
 4107 0754 53       		.byte	0x53
 4108 0755 BE010000 		.4byte	.LVL159
 4109 0759 C1010000 		.4byte	.LVL160-1
 4110 075d 0100     		.2byte	0x1
 4111 075f 53       		.byte	0x53
 4112 0760 F4010000 		.4byte	.LVL165
 4113 0764 F8010000 		.4byte	.LVL166
 4114 0768 0100     		.2byte	0x1
 4115 076a 53       		.byte	0x53
 4116 076b 4E020000 		.4byte	.LVL172
 4117 076f 52020000 		.4byte	.LVL173
 4118 0773 0100     		.2byte	0x1
 4119 0775 53       		.byte	0x53
 4120 0776 DC020000 		.4byte	.LVL179
 4121 077a E0020000 		.4byte	.LVL180
 4122 077e 0100     		.2byte	0x1
 4123 0780 53       		.byte	0x53
 4124 0781 EC020000 		.4byte	.LVL184
 4125 0785 F0020000 		.4byte	.LVL185
 4126 0789 0100     		.2byte	0x1
 4127 078b 53       		.byte	0x53
 4128 078c 00000000 		.4byte	0
 4129 0790 00000000 		.4byte	0
 4130              	.LLST36:
 4131 0794 08000000 		.4byte	.LVL119
 4132 0798 98000000 		.4byte	.LVL127
 4133 079c 0200     		.2byte	0x2
 4134 079e 30       		.byte	0x30
 4135 079f 9F       		.byte	0x9f
 4136 07a0 98000000 		.4byte	.LVL127
 4137 07a4 A2000000 		.4byte	.LVL132
 4138 07a8 0100     		.2byte	0x1
 4139 07aa 51       		.byte	0x51
ARM GAS  C:\Users\LUKASC~1\AppData\Local\Temp\ccAgm3t8.s 			page 99


 4140 07ab A2000000 		.4byte	.LVL132
 4141 07af A6000000 		.4byte	.LVL133
 4142 07b3 0200     		.2byte	0x2
 4143 07b5 30       		.byte	0x30
 4144 07b6 9F       		.byte	0x9f
 4145 07b7 A6000000 		.4byte	.LVL133
 4146 07bb CD000000 		.4byte	.LVL135-1
 4147 07bf 0100     		.2byte	0x1
 4148 07c1 51       		.byte	0x51
 4149 07c2 D0000000 		.4byte	.LVL136
 4150 07c6 E4020000 		.4byte	.LVL182
 4151 07ca 0200     		.2byte	0x2
 4152 07cc 30       		.byte	0x30
 4153 07cd 9F       		.byte	0x9f
 4154 07ce E4020000 		.4byte	.LVL182
 4155 07d2 E8020000 		.4byte	.LVL183
 4156 07d6 0100     		.2byte	0x1
 4157 07d8 51       		.byte	0x51
 4158 07d9 E8020000 		.4byte	.LVL183
 4159 07dd 24030000 		.4byte	.LFE0
 4160 07e1 0200     		.2byte	0x2
 4161 07e3 30       		.byte	0x30
 4162 07e4 9F       		.byte	0x9f
 4163 07e5 00000000 		.4byte	0
 4164 07e9 00000000 		.4byte	0
 4165              	.LLST37:
 4166 07ed 98000000 		.4byte	.LVL127
 4167 07f1 9E000000 		.4byte	.LVL130
 4168 07f5 0100     		.2byte	0x1
 4169 07f7 53       		.byte	0x53
 4170 07f8 A0000000 		.4byte	.LVL131
 4171 07fc A2000000 		.4byte	.LVL132
 4172 0800 0100     		.2byte	0x1
 4173 0802 53       		.byte	0x53
 4174 0803 A6000000 		.4byte	.LVL133
 4175 0807 BA000000 		.4byte	.LVL134
 4176 080b 0100     		.2byte	0x1
 4177 080d 53       		.byte	0x53
 4178 080e 00000000 		.4byte	0
 4179 0812 00000000 		.4byte	0
 4180              	.LLST38:
 4181 0816 9A000000 		.4byte	.LVL128
 4182 081a A2000000 		.4byte	.LVL132
 4183 081e 0100     		.2byte	0x1
 4184 0820 52       		.byte	0x52
 4185 0821 00000000 		.4byte	0
 4186 0825 00000000 		.4byte	0
 4187              	.LLST39:
 4188 0829 4A000000 		.4byte	.LVL121
 4189 082d 57000000 		.4byte	.LVL122-1
 4190 0831 0100     		.2byte	0x1
 4191 0833 50       		.byte	0x50
 4192 0834 6C000000 		.4byte	.LVL124
 4193 0838 89000000 		.4byte	.LVL125-1
 4194 083c 0100     		.2byte	0x1
 4195 083e 50       		.byte	0x50
 4196 083f 96010000 		.4byte	.LVL155
ARM GAS  C:\Users\LUKASC~1\AppData\Local\Temp\ccAgm3t8.s 			page 100


 4197 0843 B0010000 		.4byte	.LVL156
 4198 0847 0100     		.2byte	0x1
 4199 0849 50       		.byte	0x50
 4200 084a E0020000 		.4byte	.LVL180
 4201 084e E2020000 		.4byte	.LVL181
 4202 0852 0100     		.2byte	0x1
 4203 0854 50       		.byte	0x50
 4204 0855 F0020000 		.4byte	.LVL185
 4205 0859 F2020000 		.4byte	.LVL186
 4206 085d 0100     		.2byte	0x1
 4207 085f 50       		.byte	0x50
 4208 0860 00000000 		.4byte	0
 4209 0864 00000000 		.4byte	0
 4210              		.section	.debug_aranges,"",%progbits
 4211 0000 74000000 		.4byte	0x74
 4212 0004 0200     		.2byte	0x2
 4213 0006 00000000 		.4byte	.Ldebug_info0
 4214 000a 04       		.byte	0x4
 4215 000b 00       		.byte	0
 4216 000c 0000     		.2byte	0
 4217 000e 0000     		.2byte	0
 4218 0010 00000000 		.4byte	.LFB1
 4219 0014 B4000000 		.4byte	.LFE1-.LFB1
 4220 0018 00000000 		.4byte	.LFB2
 4221 001c 40000000 		.4byte	.LFE2-.LFB2
 4222 0020 00000000 		.4byte	.LFB5
 4223 0024 28000000 		.4byte	.LFE5-.LFB5
 4224 0028 00000000 		.4byte	.LFB4
 4225 002c 3C010000 		.4byte	.LFE4-.LFB4
 4226 0030 00000000 		.4byte	.LFB6
 4227 0034 18000000 		.4byte	.LFE6-.LFB6
 4228 0038 00000000 		.4byte	.LFB7
 4229 003c 24000000 		.4byte	.LFE7-.LFB7
 4230 0040 00000000 		.4byte	.LFB3
 4231 0044 80010000 		.4byte	.LFE3-.LFB3
 4232 0048 00000000 		.4byte	.LFB8
 4233 004c 4C000000 		.4byte	.LFE8-.LFB8
 4234 0050 00000000 		.4byte	.LFB9
 4235 0054 64000000 		.4byte	.LFE9-.LFB9
 4236 0058 00000000 		.4byte	.LFB10
 4237 005c A8000000 		.4byte	.LFE10-.LFB10
 4238 0060 00000000 		.4byte	.LFB11
 4239 0064 4C000000 		.4byte	.LFE11-.LFB11
 4240 0068 00000000 		.4byte	.LFB0
 4241 006c 24030000 		.4byte	.LFE0-.LFB0
 4242 0070 00000000 		.4byte	0
 4243 0074 00000000 		.4byte	0
 4244              		.section	.debug_ranges,"",%progbits
 4245              	.Ldebug_ranges0:
 4246 0000 00000000 		.4byte	.LFB1
 4247 0004 B4000000 		.4byte	.LFE1
 4248 0008 00000000 		.4byte	.LFB2
 4249 000c 40000000 		.4byte	.LFE2
 4250 0010 00000000 		.4byte	.LFB5
 4251 0014 28000000 		.4byte	.LFE5
 4252 0018 00000000 		.4byte	.LFB4
 4253 001c 3C010000 		.4byte	.LFE4
ARM GAS  C:\Users\LUKASC~1\AppData\Local\Temp\ccAgm3t8.s 			page 101


 4254 0020 00000000 		.4byte	.LFB6
 4255 0024 18000000 		.4byte	.LFE6
 4256 0028 00000000 		.4byte	.LFB7
 4257 002c 24000000 		.4byte	.LFE7
 4258 0030 00000000 		.4byte	.LFB3
 4259 0034 80010000 		.4byte	.LFE3
 4260 0038 00000000 		.4byte	.LFB8
 4261 003c 4C000000 		.4byte	.LFE8
 4262 0040 00000000 		.4byte	.LFB9
 4263 0044 64000000 		.4byte	.LFE9
 4264 0048 00000000 		.4byte	.LFB10
 4265 004c A8000000 		.4byte	.LFE10
 4266 0050 00000000 		.4byte	.LFB11
 4267 0054 4C000000 		.4byte	.LFE11
 4268 0058 00000000 		.4byte	.LFB0
 4269 005c 24030000 		.4byte	.LFE0
 4270 0060 00000000 		.4byte	0
 4271 0064 00000000 		.4byte	0
 4272              		.section	.debug_line,"",%progbits
 4273              	.Ldebug_line0:
 4274 0000 4F030000 		.section	.debug_str,"MS",%progbits,1
 4274      02006800 
 4274      00000201 
 4274      FB0E0D00 
 4274      01010101 
 4275              	.LASF35:
 4276 0000 70537461 		.ascii	"pStatusBlock\000"
 4276      74757342 
 4276      6C6F636B 
 4276      00
 4277              	.LASF33:
 4278 000d 636F756E 		.ascii	"count\000"
 4278      7400
 4279              	.LASF10:
 4280 0013 75696E74 		.ascii	"uint16\000"
 4280      313600
 4281              	.LASF29:
 4282 001a 545F5553 		.ascii	"T_USBFS_1_EP_SETTINGS_BLOCK\000"
 4282      4246535F 
 4282      315F4550 
 4282      5F534554 
 4282      54494E47 
 4283              	.LASF102:
 4284 0036 55534246 		.ascii	"USBFS_1_currentTD\000"
 4284      535F315F 
 4284      63757272 
 4284      656E7454 
 4284      4400
 4285              	.LASF99:
 4286 0048 55534246 		.ascii	"USBFS_1_interfaceStatus\000"
 4286      535F315F 
 4286      696E7465 
 4286      72666163 
 4286      65537461 
 4287              	.LASF60:
 4288 0060 55534246 		.ascii	"USBFS_1_ConfigReg\000"
 4288      535F315F 
ARM GAS  C:\Users\LUKASC~1\AppData\Local\Temp\ccAgm3t8.s 			page 102


 4288      436F6E66 
 4288      69675265 
 4288      6700
 4289              	.LASF71:
 4290 0072 636F6E66 		.ascii	"confIndex\000"
 4290      496E6465 
 4290      7800
 4291              	.LASF7:
 4292 007c 6C6F6E67 		.ascii	"long long unsigned int\000"
 4292      206C6F6E 
 4292      6720756E 
 4292      7369676E 
 4292      65642069 
 4293              	.LASF20:
 4294 0093 61646472 		.ascii	"addr\000"
 4294      00
 4295              	.LASF45:
 4296 0098 65704366 		.ascii	"epCfg\000"
 4296      6700
 4297              	.LASF101:
 4298 009e 55534246 		.ascii	"USBFS_1_EP\000"
 4298      535F315F 
 4298      455000
 4299              	.LASF75:
 4300 00a9 65704E75 		.ascii	"epNumber\000"
 4300      6D626572 
 4300      00
 4301              	.LASF93:
 4302 00b2 55534246 		.ascii	"USBFS_1_TABLE\000"
 4302      535F315F 
 4302      5441424C 
 4302      4500
 4303              	.LASF6:
 4304 00c0 6C6F6E67 		.ascii	"long long int\000"
 4304      206C6F6E 
 4304      6720696E 
 4304      7400
 4305              	.LASF0:
 4306 00ce 7369676E 		.ascii	"signed char\000"
 4306      65642063 
 4306      68617200 
 4307              	.LASF72:
 4308 00da 636C6561 		.ascii	"clearAltSetting\000"
 4308      72416C74 
 4308      53657474 
 4308      696E6700 
 4309              	.LASF88:
 4310 00ea 55534246 		.ascii	"USBFS_1_tBuffer\000"
 4310      535F315F 
 4310      74427566 
 4310      66657200 
 4311              	.LASF63:
 4312 00fa 55534246 		.ascii	"USBFS_1_ConfigAltChanged\000"
 4312      535F315F 
 4312      436F6E66 
 4312      6967416C 
 4312      74436861 
ARM GAS  C:\Users\LUKASC~1\AppData\Local\Temp\ccAgm3t8.s 			page 103


 4313              	.LASF4:
 4314 0113 6C6F6E67 		.ascii	"long int\000"
 4314      20696E74 
 4314      00
 4315              	.LASF104:
 4316 011c 55534246 		.ascii	"USBFS_1_InitControlRead\000"
 4316      535F315F 
 4316      496E6974 
 4316      436F6E74 
 4316      726F6C52 
 4317              	.LASF9:
 4318 0134 75696E74 		.ascii	"uint8\000"
 4318      3800
 4319              	.LASF19:
 4320 013a 6570546F 		.ascii	"epToggle\000"
 4320      67676C65 
 4320      00
 4321              	.LASF40:
 4322 0143 55534246 		.ascii	"USBFS_1_ep0_data_struct\000"
 4322      535F315F 
 4322      6570305F 
 4322      64617461 
 4322      5F737472 
 4323              	.LASF49:
 4324 015b 72775761 		.ascii	"rwWa\000"
 4324      00
 4325              	.LASF100:
 4326 0160 55534246 		.ascii	"USBFS_1_interfaceClass\000"
 4326      535F315F 
 4326      696E7465 
 4326      72666163 
 4326      65436C61 
 4327              	.LASF103:
 4328 0177 55534246 		.ascii	"USBFS_1_InitNoDataControlTransfer\000"
 4328      535F315F 
 4328      496E6974 
 4328      4E6F4461 
 4328      7461436F 
 4329              	.LASF12:
 4330 0199 646F7562 		.ascii	"double\000"
 4330      6C6500
 4331              	.LASF92:
 4332 01a0 55534246 		.ascii	"USBFS_1_deviceStatus\000"
 4332      535F315F 
 4332      64657669 
 4332      63655374 
 4332      61747573 
 4333              	.LASF47:
 4334 01b5 65705372 		.ascii	"epSr\000"
 4334      00
 4335              	.LASF81:
 4336 01ba 55534246 		.ascii	"USBFS_1_HandleStandardRqst\000"
 4336      535F315F 
 4336      48616E64 
 4336      6C655374 
 4336      616E6461 
 4337              	.LASF34:
ARM GAS  C:\Users\LUKASC~1\AppData\Local\Temp\ccAgm3t8.s 			page 104


 4338 01d5 70446174 		.ascii	"pData\000"
 4338      6100
 4339              	.LASF21:
 4340 01db 65704D6F 		.ascii	"epMode\000"
 4340      646500
 4341              	.LASF59:
 4342 01e2 65705479 		.ascii	"epType\000"
 4342      706500
 4343              	.LASF84:
 4344 01e9 626D5265 		.ascii	"bmRequestType\000"
 4344      71756573 
 4344      74547970 
 4344      6500
 4345              	.LASF95:
 4346 01f7 55534246 		.ascii	"USBFS_1_interfaceNumber\000"
 4346      535F315F 
 4346      696E7465 
 4346      72666163 
 4346      654E756D 
 4347              	.LASF48:
 4348 020f 72657365 		.ascii	"reserved\000"
 4348      72766564 
 4348      00
 4349              	.LASF8:
 4350 0218 756E7369 		.ascii	"unsigned int\000"
 4350      676E6564 
 4350      20696E74 
 4350      00
 4351              	.LASF90:
 4352 0225 55534246 		.ascii	"USBFS_1_configuration\000"
 4352      535F315F 
 4352      636F6E66 
 4352      69677572 
 4352      6174696F 
 4353              	.LASF107:
 4354 023b 2E5C4765 		.ascii	".\\Generated_Source\\PSoC5\\USBFS_1_std.c\000"
 4354      6E657261 
 4354      7465645F 
 4354      536F7572 
 4354      63655C50 
 4355              	.LASF54:
 4356 0262 55534246 		.ascii	"USBFS_1_arb_ep_struct\000"
 4356      535F315F 
 4356      6172625F 
 4356      65705F73 
 4356      74727563 
 4357              	.LASF5:
 4358 0278 6C6F6E67 		.ascii	"long unsigned int\000"
 4358      20756E73 
 4358      69676E65 
 4358      6420696E 
 4358      7400
 4359              	.LASF32:
 4360 028a 545F5553 		.ascii	"T_USBFS_1_XFER_STATUS_BLOCK\000"
 4360      4246535F 
 4360      315F5846 
 4360      45525F53 
ARM GAS  C:\Users\LUKASC~1\AppData\Local\Temp\ccAgm3t8.s 			page 105


 4360      54415455 
 4361              	.LASF56:
 4362 02a6 55534246 		.ascii	"USBFS_1_sie_eps_struct\000"
 4362      535F315F 
 4362      7369655F 
 4362      6570735F 
 4362      73747275 
 4363              	.LASF94:
 4364 02bd 55534246 		.ascii	"USBFS_1_STRING_DESCRIPTORS\000"
 4364      535F315F 
 4364      53545249 
 4364      4E475F44 
 4364      45534352 
 4365              	.LASF58:
 4366 02d8 55534246 		.ascii	"USBFS_1_arb_eps_struct\000"
 4366      535F315F 
 4366      6172625F 
 4366      6570735F 
 4366      73747275 
 4367              	.LASF76:
 4368 02ef 55534246 		.ascii	"USBFS_1_SetEndpointHalt\000"
 4368      535F315F 
 4368      53657445 
 4368      6E64706F 
 4368      696E7448 
 4369              	.LASF3:
 4370 0307 73686F72 		.ascii	"short unsigned int\000"
 4370      7420756E 
 4370      7369676E 
 4370      65642069 
 4370      6E7400
 4371              	.LASF73:
 4372 031a 70446573 		.ascii	"pDescr\000"
 4372      637200
 4373              	.LASF25:
 4374 0321 545F5553 		.ascii	"T_USBFS_1_EP_CTL_BLOCK\000"
 4374      4246535F 
 4374      315F4550 
 4374      5F43544C 
 4374      5F424C4F 
 4375              	.LASF36:
 4376 0338 545F5553 		.ascii	"T_USBFS_1_TD\000"
 4376      4246535F 
 4376      315F5444 
 4376      00
 4377              	.LASF68:
 4378 0345 70496E74 		.ascii	"pInterfaceClass\000"
 4378      65726661 
 4378      6365436C 
 4378      61737300 
 4379              	.LASF57:
 4380 0355 61726245 		.ascii	"arbEp\000"
 4380      7000
 4381              	.LASF67:
 4382 035b 55534246 		.ascii	"USBFS_1_GetInterfaceClassTablePtr\000"
 4382      535F315F 
 4382      47657449 
ARM GAS  C:\Users\LUKASC~1\AppData\Local\Temp\ccAgm3t8.s 			page 106


 4382      6E746572 
 4382      66616365 
 4383              	.LASF24:
 4384 037d 696E7465 		.ascii	"interface\000"
 4384      72666163 
 4384      6500
 4385              	.LASF64:
 4386 0387 63757245 		.ascii	"curEp\000"
 4386      7000
 4387              	.LASF18:
 4388 038d 68774570 		.ascii	"hwEpState\000"
 4388      53746174 
 4388      6500
 4389              	.LASF66:
 4390 0397 55534246 		.ascii	"USBFS_1_GetConfigTablePtr\000"
 4390      535F315F 
 4390      47657443 
 4390      6F6E6669 
 4390      67546162 
 4391              	.LASF15:
 4392 03b1 73697A65 		.ascii	"sizetype\000"
 4392      74797065 
 4392      00
 4393              	.LASF55:
 4394 03ba 73696545 		.ascii	"sieEp\000"
 4394      7000
 4395              	.LASF62:
 4396 03c0 70546D70 		.ascii	"pTmp\000"
 4396      00
 4397              	.LASF37:
 4398 03c5 705F6C69 		.ascii	"p_list\000"
 4398      737400
 4399              	.LASF16:
 4400 03cc 61747472 		.ascii	"attrib\000"
 4400      696200
 4401              	.LASF52:
 4402 03d3 72775261 		.ascii	"rwRaMsb\000"
 4402      4D736200 
 4403              	.LASF41:
 4404 03db 6570436E 		.ascii	"epCnt0\000"
 4404      743000
 4405              	.LASF42:
 4406 03e2 6570436E 		.ascii	"epCnt1\000"
 4406      743100
 4407              	.LASF44:
 4408 03e9 55534246 		.ascii	"USBFS_1_sie_ep_struct\000"
 4408      535F315F 
 4408      7369655F 
 4408      65705F73 
 4408      74727563 
 4409              	.LASF43:
 4410 03ff 65704372 		.ascii	"epCr0\000"
 4410      3000
 4411              	.LASF65:
 4412 0405 696E7465 		.ascii	"interfaceNum\000"
 4412      72666163 
 4412      654E756D 
ARM GAS  C:\Users\LUKASC~1\AppData\Local\Temp\ccAgm3t8.s 			page 107


 4412      00
 4413              	.LASF11:
 4414 0412 666C6F61 		.ascii	"float\000"
 4414      7400
 4415              	.LASF17:
 4416 0418 61706945 		.ascii	"apiEpState\000"
 4416      70537461 
 4416      746500
 4417              	.LASF109:
 4418 0423 55534246 		.ascii	"USBFS_1_GetDeviceTablePtr\000"
 4418      535F315F 
 4418      47657444 
 4418      65766963 
 4418      65546162 
 4419              	.LASF83:
 4420 043d 636F6E66 		.ascii	"configurationN\000"
 4420      69677572 
 4420      6174696F 
 4420      6E4E00
 4421              	.LASF96:
 4422 044c 55534246 		.ascii	"USBFS_1_interfaceSetting\000"
 4422      535F315F 
 4422      696E7465 
 4422      72666163 
 4422      65536574 
 4423              	.LASF85:
 4424 0465 70537472 		.ascii	"pStr\000"
 4424      00
 4425              	.LASF14:
 4426 046a 72656738 		.ascii	"reg8\000"
 4426      00
 4427              	.LASF1:
 4428 046f 756E7369 		.ascii	"unsigned char\000"
 4428      676E6564 
 4428      20636861 
 4428      7200
 4429              	.LASF2:
 4430 047d 73686F72 		.ascii	"short int\000"
 4430      7420696E 
 4430      7400
 4431              	.LASF78:
 4432 0487 55534246 		.ascii	"USBFS_1_ClearEndpointHalt\000"
 4432      535F315F 
 4432      436C6561 
 4432      72456E64 
 4432      706F696E 
 4433              	.LASF89:
 4434 04a1 55534246 		.ascii	"USBFS_1_device\000"
 4434      535F315F 
 4434      64657669 
 4434      636500
 4435              	.LASF51:
 4436 04b0 72775261 		.ascii	"rwRa\000"
 4436      00
 4437              	.LASF74:
 4438 04b5 55534246 		.ascii	"USBFS_1_TerminateEP\000"
 4438      535F315F 
ARM GAS  C:\Users\LUKASC~1\AppData\Local\Temp\ccAgm3t8.s 			page 108


 4438      5465726D 
 4438      696E6174 
 4438      65455000 
 4439              	.LASF50:
 4440 04c9 72775761 		.ascii	"rwWaMsb\000"
 4440      4D736200 
 4441              	.LASF27:
 4442 04d1 61747472 		.ascii	"attributes\000"
 4442      69627574 
 4442      657300
 4443              	.LASF79:
 4444 04dc 55534246 		.ascii	"USBFS_1_ValidateAlternateSetting\000"
 4444      535F315F 
 4444      56616C69 
 4444      64617465 
 4444      416C7465 
 4445              	.LASF91:
 4446 04fd 55534246 		.ascii	"USBFS_1_configurationChanged\000"
 4446      535F315F 
 4446      636F6E66 
 4446      69677572 
 4446      6174696F 
 4447              	.LASF26:
 4448 051a 616C7453 		.ascii	"altSetting\000"
 4448      65747469 
 4448      6E6700
 4449              	.LASF13:
 4450 0525 63686172 		.ascii	"char\000"
 4450      00
 4451              	.LASF38:
 4452 052a 545F5553 		.ascii	"T_USBFS_1_LUT\000"
 4452      4246535F 
 4452      315F4C55 
 4452      5400
 4453              	.LASF23:
 4454 0538 62756666 		.ascii	"bufferSize\000"
 4454      65725369 
 4454      7A6500
 4455              	.LASF77:
 4456 0543 72657175 		.ascii	"requestHandled\000"
 4456      65737448 
 4456      616E646C 
 4456      656400
 4457              	.LASF69:
 4458 0552 63757272 		.ascii	"currentInterfacesNum\000"
 4458      656E7449 
 4458      6E746572 
 4458      66616365 
 4458      734E756D 
 4459              	.LASF105:
 4460 0567 55534246 		.ascii	"USBFS_1_DispatchClassRqst\000"
 4460      535F315F 
 4460      44697370 
 4460      61746368 
 4460      436C6173 
 4461              	.LASF108:
 4462 0581 433A5C55 		.ascii	"C:\\Users\\Lukas Creutzburg\\Documents\\GitHub\\PSo"
ARM GAS  C:\Users\LUKASC~1\AppData\Local\Temp\ccAgm3t8.s 			page 109


 4462      73657273 
 4462      5C4C756B 
 4462      61732043 
 4462      72657574 
 4463 05af 43354C50 		.ascii	"C5LP-freeDSP-USB-Port\\PSoC_freeDSP_USB_Port\\Desig"
 4463      2D667265 
 4463      65445350 
 4463      2D555342 
 4463      2D506F72 
 4464 05e0 6E30312E 		.ascii	"n01.cydsn\000"
 4464      63796473 
 4464      6E00
 4465              	.LASF22:
 4466 05ea 62756666 		.ascii	"buffOffset\000"
 4466      4F666673 
 4466      657400
 4467              	.LASF82:
 4468 05f5 696E7465 		.ascii	"interfaceNumber\000"
 4468      72666163 
 4468      654E756D 
 4468      62657200 
 4469              	.LASF98:
 4470 0605 55534246 		.ascii	"USBFS_1_deviceAddress\000"
 4470      535F315F 
 4470      64657669 
 4470      63654164 
 4470      64726573 
 4471              	.LASF31:
 4472 061b 6C656E67 		.ascii	"length\000"
 4472      746800
 4473              	.LASF86:
 4474 0622 6E537472 		.ascii	"nStr\000"
 4474      00
 4475              	.LASF61:
 4476 0627 55534246 		.ascii	"USBFS_1_EpStateInit\000"
 4476      535F315F 
 4476      45705374 
 4476      61746549 
 4476      6E697400 
 4477              	.LASF87:
 4478 063b 64657363 		.ascii	"descrLength\000"
 4478      724C656E 
 4478      67746800 
 4479              	.LASF30:
 4480 0647 73746174 		.ascii	"status\000"
 4480      757300
 4481              	.LASF106:
 4482 064e 474E5520 		.ascii	"GNU C 4.9.3 20150303 (release) [ARM/embedded-4_9-br"
 4482      4320342E 
 4482      392E3320 
 4482      32303135 
 4482      30333033 
 4483 0681 616E6368 		.ascii	"anch revision 221220] -mcpu=cortex-m3 -mthumb -g -O"
 4483      20726576 
 4483      6973696F 
 4483      6E203232 
 4483      31323230 
ARM GAS  C:\Users\LUKASC~1\AppData\Local\Temp\ccAgm3t8.s 			page 110


 4484 06b4 67202D66 		.ascii	"g -ffunction-sections -ffat-lto-objects\000"
 4484      66756E63 
 4484      74696F6E 
 4484      2D736563 
 4484      74696F6E 
 4485              	.LASF53:
 4486 06dc 72774472 		.ascii	"rwDr\000"
 4486      00
 4487              	.LASF80:
 4488 06e1 63757249 		.ascii	"curInterfacesNum\000"
 4488      6E746572 
 4488      66616365 
 4488      734E756D 
 4488      00
 4489              	.LASF39:
 4490 06f2 65704461 		.ascii	"epData\000"
 4490      746100
 4491              	.LASF28:
 4492 06f9 624D6973 		.ascii	"bMisc\000"
 4492      6300
 4493              	.LASF46:
 4494 06ff 6570496E 		.ascii	"epIntEn\000"
 4494      74456E00 
 4495              	.LASF97:
 4496 0707 55534246 		.ascii	"USBFS_1_interfaceSettingLast\000"
 4496      535F315F 
 4496      696E7465 
 4496      72666163 
 4496      65536574 
 4497              	.LASF70:
 4498 0724 55534246 		.ascii	"USBFS_1_Config\000"
 4498      535F315F 
 4498      436F6E66 
 4498      696700
 4499              		.ident	"GCC: (GNU Tools for ARM Embedded Processors) 4.9.3 20150303 (release) [ARM/embedded-4_9-br
