ARM GAS  C:\Users\LUKASC~1\AppData\Local\Temp\cccWiuOE.s 			page 1


   1              		.syntax unified
   2              		.cpu cortex-m3
   3              		.fpu softvfp
   4              		.eabi_attribute 20, 1
   5              		.eabi_attribute 21, 1
   6              		.eabi_attribute 23, 3
   7              		.eabi_attribute 24, 1
   8              		.eabi_attribute 25, 1
   9              		.eabi_attribute 26, 1
  10              		.eabi_attribute 30, 1
  11              		.eabi_attribute 34, 1
  12              		.eabi_attribute 18, 4
  13              		.thumb
  14              		.file	"USBFS_1_episr.c"
  15              		.text
  16              	.Ltext0:
  17              		.cfi_sections	.debug_frame
  18              		.section	.text.USBFS_1_EP_2_ISR,"ax",%progbits
  19              		.align	2
  20              		.global	USBFS_1_EP_2_ISR
  21              		.thumb
  22              		.thumb_func
  23              		.type	USBFS_1_EP_2_ISR, %function
  24              	USBFS_1_EP_2_ISR:
  25              	.LFB0:
  26              		.file 1 ".\\Generated_Source\\PSoC5\\USBFS_1_episr.c"
   1:.\Generated_Source\PSoC5/USBFS_1_episr.c **** /***************************************************************************//**
   2:.\Generated_Source\PSoC5/USBFS_1_episr.c **** * \file USBFS_1_episr.c
   3:.\Generated_Source\PSoC5/USBFS_1_episr.c **** * \version 3.0
   4:.\Generated_Source\PSoC5/USBFS_1_episr.c **** *
   5:.\Generated_Source\PSoC5/USBFS_1_episr.c **** * \brief
   6:.\Generated_Source\PSoC5/USBFS_1_episr.c **** *  This file contains the Data endpoint Interrupt Service Routines.
   7:.\Generated_Source\PSoC5/USBFS_1_episr.c **** *
   8:.\Generated_Source\PSoC5/USBFS_1_episr.c **** ********************************************************************************
   9:.\Generated_Source\PSoC5/USBFS_1_episr.c **** * \copyright
  10:.\Generated_Source\PSoC5/USBFS_1_episr.c **** * Copyright 2008-2015, Cypress Semiconductor Corporation.  All rights reserved.
  11:.\Generated_Source\PSoC5/USBFS_1_episr.c **** * You may use this file only in accordance with the license, terms, conditions,
  12:.\Generated_Source\PSoC5/USBFS_1_episr.c **** * disclaimers, and limitations in the end user license agreement accompanying
  13:.\Generated_Source\PSoC5/USBFS_1_episr.c **** * the software package with which this file was provided.
  14:.\Generated_Source\PSoC5/USBFS_1_episr.c **** *******************************************************************************/
  15:.\Generated_Source\PSoC5/USBFS_1_episr.c **** 
  16:.\Generated_Source\PSoC5/USBFS_1_episr.c **** #include "USBFS_1_pvt.h"
  17:.\Generated_Source\PSoC5/USBFS_1_episr.c **** #include "USBFS_1_cydmac.h"
  18:.\Generated_Source\PSoC5/USBFS_1_episr.c **** #include "cyapicallbacks.h"
  19:.\Generated_Source\PSoC5/USBFS_1_episr.c **** 
  20:.\Generated_Source\PSoC5/USBFS_1_episr.c **** 
  21:.\Generated_Source\PSoC5/USBFS_1_episr.c **** /***************************************
  22:.\Generated_Source\PSoC5/USBFS_1_episr.c **** * Custom Declarations
  23:.\Generated_Source\PSoC5/USBFS_1_episr.c **** ***************************************/
  24:.\Generated_Source\PSoC5/USBFS_1_episr.c **** /* `#START CUSTOM_DECLARATIONS` Place your declaration here */
  25:.\Generated_Source\PSoC5/USBFS_1_episr.c **** 
  26:.\Generated_Source\PSoC5/USBFS_1_episr.c **** /* `#END` */
  27:.\Generated_Source\PSoC5/USBFS_1_episr.c **** 
  28:.\Generated_Source\PSoC5/USBFS_1_episr.c **** 
  29:.\Generated_Source\PSoC5/USBFS_1_episr.c **** #if (USBFS_1_EP1_ISR_ACTIVE)
  30:.\Generated_Source\PSoC5/USBFS_1_episr.c ****     /******************************************************************************
  31:.\Generated_Source\PSoC5/USBFS_1_episr.c ****     * Function Name: USBFS_1_EP_1_ISR
ARM GAS  C:\Users\LUKASC~1\AppData\Local\Temp\cccWiuOE.s 			page 2


  32:.\Generated_Source\PSoC5/USBFS_1_episr.c ****     ***************************************************************************//**
  33:.\Generated_Source\PSoC5/USBFS_1_episr.c ****     *
  34:.\Generated_Source\PSoC5/USBFS_1_episr.c ****     *  Endpoint 1 Interrupt Service Routine
  35:.\Generated_Source\PSoC5/USBFS_1_episr.c ****     *
  36:.\Generated_Source\PSoC5/USBFS_1_episr.c ****     ******************************************************************************/
  37:.\Generated_Source\PSoC5/USBFS_1_episr.c ****     CY_ISR(USBFS_1_EP_1_ISR)
  38:.\Generated_Source\PSoC5/USBFS_1_episr.c ****     {
  39:.\Generated_Source\PSoC5/USBFS_1_episr.c **** 
  40:.\Generated_Source\PSoC5/USBFS_1_episr.c ****     #ifdef USBFS_1_EP_1_ISR_ENTRY_CALLBACK
  41:.\Generated_Source\PSoC5/USBFS_1_episr.c ****         USBFS_1_EP_1_ISR_EntryCallback();
  42:.\Generated_Source\PSoC5/USBFS_1_episr.c ****     #endif /* (USBFS_1_EP_1_ISR_ENTRY_CALLBACK) */
  43:.\Generated_Source\PSoC5/USBFS_1_episr.c **** 
  44:.\Generated_Source\PSoC5/USBFS_1_episr.c ****         /* `#START EP1_USER_CODE` Place your code here */
  45:.\Generated_Source\PSoC5/USBFS_1_episr.c **** 
  46:.\Generated_Source\PSoC5/USBFS_1_episr.c ****         /* `#END` */
  47:.\Generated_Source\PSoC5/USBFS_1_episr.c **** 
  48:.\Generated_Source\PSoC5/USBFS_1_episr.c ****     #if (CY_PSOC3 && defined(USBFS_1_ENABLE_MIDI_STREAMING) && \
  49:.\Generated_Source\PSoC5/USBFS_1_episr.c ****         !defined(USBFS_1_MAIN_SERVICE_MIDI_OUT) && USBFS_1_ISR_SERVICE_MIDI_OUT)
  50:.\Generated_Source\PSoC5/USBFS_1_episr.c ****         {
  51:.\Generated_Source\PSoC5/USBFS_1_episr.c ****             uint8 intEn = EA;
  52:.\Generated_Source\PSoC5/USBFS_1_episr.c ****             CyGlobalIntEnable;  /* Enable nested interrupts. */
  53:.\Generated_Source\PSoC5/USBFS_1_episr.c ****     #endif /* (CY_PSOC3 && USBFS_1_ISR_SERVICE_MIDI_OUT) */
  54:.\Generated_Source\PSoC5/USBFS_1_episr.c ****     
  55:.\Generated_Source\PSoC5/USBFS_1_episr.c ****         USBFS_1_ClearSieEpInterruptSource(USBFS_1_SIE_INT_EP1_INTR);
  56:.\Generated_Source\PSoC5/USBFS_1_episr.c ****             
  57:.\Generated_Source\PSoC5/USBFS_1_episr.c ****         /* Notifies user that transfer IN or OUT transfer is completed.
  58:.\Generated_Source\PSoC5/USBFS_1_episr.c ****         * IN endpoint: endpoint buffer can be reloaded, Host is read data.
  59:.\Generated_Source\PSoC5/USBFS_1_episr.c ****         * OUT endpoint: data is ready to be read from endpoint buffer. 
  60:.\Generated_Source\PSoC5/USBFS_1_episr.c ****         */
  61:.\Generated_Source\PSoC5/USBFS_1_episr.c ****     #if (CY_PSOC4 && USBFS_1_EP_MANAGEMENT_DMA_AUTO)
  62:.\Generated_Source\PSoC5/USBFS_1_episr.c ****         if (0u != (USBFS_1_EP[USBFS_1_EP1].addr & USBFS_1_DIR_IN))
  63:.\Generated_Source\PSoC5/USBFS_1_episr.c ****     #endif /* (CY_PSOC4 && USBFS_1_EP_MANAGEMENT_DMA_AUTO) */
  64:.\Generated_Source\PSoC5/USBFS_1_episr.c ****         {
  65:.\Generated_Source\PSoC5/USBFS_1_episr.c ****             /* Read CR0 register to clear SIE lock. */
  66:.\Generated_Source\PSoC5/USBFS_1_episr.c ****             (void) USBFS_1_SIE_EP_BASE.sieEp[USBFS_1_EP1].epCr0;
  67:.\Generated_Source\PSoC5/USBFS_1_episr.c ****             
  68:.\Generated_Source\PSoC5/USBFS_1_episr.c ****             /* Toggle all endpoint types except ISOC. */
  69:.\Generated_Source\PSoC5/USBFS_1_episr.c ****             if (USBFS_1_GET_EP_TYPE(USBFS_1_EP1) != USBFS_1_EP_TYPE_ISOC)
  70:.\Generated_Source\PSoC5/USBFS_1_episr.c ****             {
  71:.\Generated_Source\PSoC5/USBFS_1_episr.c ****                 USBFS_1_EP[USBFS_1_EP1].epToggle ^= USBFS_1_EPX_CNT_DATA_TOGGLE;
  72:.\Generated_Source\PSoC5/USBFS_1_episr.c ****             }
  73:.\Generated_Source\PSoC5/USBFS_1_episr.c **** 
  74:.\Generated_Source\PSoC5/USBFS_1_episr.c ****             /* EP_MANAGEMENT_DMA_AUTO (Ticket ID# 214187): For OUT endpoint this event is used to n
  75:.\Generated_Source\PSoC5/USBFS_1_episr.c ****             * user that DMA has completed copying data from OUT endpoint which is not completely tr
  76:.\Generated_Source\PSoC5/USBFS_1_episr.c ****             * Because last chunk of data is being copied.
  77:.\Generated_Source\PSoC5/USBFS_1_episr.c ****             * For CY_PSOC 3/5LP: it is acceptable as DMA is really fast.
  78:.\Generated_Source\PSoC5/USBFS_1_episr.c ****             * For CY_PSOC4: this event is set in Arbiter interrupt (source is DMA_TERMIN).
  79:.\Generated_Source\PSoC5/USBFS_1_episr.c ****             */
  80:.\Generated_Source\PSoC5/USBFS_1_episr.c ****             USBFS_1_EP[USBFS_1_EP1].apiEpState = USBFS_1_EVENT_PENDING;
  81:.\Generated_Source\PSoC5/USBFS_1_episr.c ****         }
  82:.\Generated_Source\PSoC5/USBFS_1_episr.c **** 
  83:.\Generated_Source\PSoC5/USBFS_1_episr.c ****     #if (!(CY_PSOC4 && USBFS_1_EP_MANAGEMENT_DMA_AUTO))
  84:.\Generated_Source\PSoC5/USBFS_1_episr.c ****         #if (defined(USBFS_1_ENABLE_MIDI_STREAMING) && \
  85:.\Generated_Source\PSoC5/USBFS_1_episr.c ****             !defined(USBFS_1_MAIN_SERVICE_MIDI_OUT) && USBFS_1_ISR_SERVICE_MIDI_OUT)
  86:.\Generated_Source\PSoC5/USBFS_1_episr.c ****             if (USBFS_1_midi_out_ep == USBFS_1_EP1)
  87:.\Generated_Source\PSoC5/USBFS_1_episr.c ****             {
  88:.\Generated_Source\PSoC5/USBFS_1_episr.c ****                 USBFS_1_MIDI_OUT_Service();
ARM GAS  C:\Users\LUKASC~1\AppData\Local\Temp\cccWiuOE.s 			page 3


  89:.\Generated_Source\PSoC5/USBFS_1_episr.c ****             }
  90:.\Generated_Source\PSoC5/USBFS_1_episr.c ****         #endif /* (USBFS_1_ISR_SERVICE_MIDI_OUT) */
  91:.\Generated_Source\PSoC5/USBFS_1_episr.c ****     #endif /* (!(CY_PSOC4 && USBFS_1_EP_MANAGEMENT_DMA_AUTO)) */
  92:.\Generated_Source\PSoC5/USBFS_1_episr.c ****     
  93:.\Generated_Source\PSoC5/USBFS_1_episr.c ****         /* `#START EP1_END_USER_CODE` Place your code here */
  94:.\Generated_Source\PSoC5/USBFS_1_episr.c **** 
  95:.\Generated_Source\PSoC5/USBFS_1_episr.c ****         /* `#END` */
  96:.\Generated_Source\PSoC5/USBFS_1_episr.c **** 
  97:.\Generated_Source\PSoC5/USBFS_1_episr.c ****     #ifdef USBFS_1_EP_1_ISR_EXIT_CALLBACK
  98:.\Generated_Source\PSoC5/USBFS_1_episr.c ****         USBFS_1_EP_1_ISR_ExitCallback();
  99:.\Generated_Source\PSoC5/USBFS_1_episr.c ****     #endif /* (USBFS_1_EP_1_ISR_EXIT_CALLBACK) */
 100:.\Generated_Source\PSoC5/USBFS_1_episr.c **** 
 101:.\Generated_Source\PSoC5/USBFS_1_episr.c ****     #if (CY_PSOC3 && defined(USBFS_1_ENABLE_MIDI_STREAMING) && \
 102:.\Generated_Source\PSoC5/USBFS_1_episr.c ****         !defined(USBFS_1_MAIN_SERVICE_MIDI_OUT) && USBFS_1_ISR_SERVICE_MIDI_OUT)
 103:.\Generated_Source\PSoC5/USBFS_1_episr.c ****         
 104:.\Generated_Source\PSoC5/USBFS_1_episr.c ****             EA = intEn; /* Restore nested interrupt configuration. */
 105:.\Generated_Source\PSoC5/USBFS_1_episr.c ****         }
 106:.\Generated_Source\PSoC5/USBFS_1_episr.c ****     #endif /* (CY_PSOC3 && USBFS_1_ISR_SERVICE_MIDI_OUT) */
 107:.\Generated_Source\PSoC5/USBFS_1_episr.c ****     }
 108:.\Generated_Source\PSoC5/USBFS_1_episr.c **** 
 109:.\Generated_Source\PSoC5/USBFS_1_episr.c **** #endif /* (USBFS_1_EP1_ISR_ACTIVE) */
 110:.\Generated_Source\PSoC5/USBFS_1_episr.c **** 
 111:.\Generated_Source\PSoC5/USBFS_1_episr.c **** 
 112:.\Generated_Source\PSoC5/USBFS_1_episr.c **** #if (USBFS_1_EP2_ISR_ACTIVE)
 113:.\Generated_Source\PSoC5/USBFS_1_episr.c ****     /*******************************************************************************
 114:.\Generated_Source\PSoC5/USBFS_1_episr.c ****     * Function Name: USBFS_1_EP_2_ISR
 115:.\Generated_Source\PSoC5/USBFS_1_episr.c ****     ****************************************************************************//**
 116:.\Generated_Source\PSoC5/USBFS_1_episr.c ****     *
 117:.\Generated_Source\PSoC5/USBFS_1_episr.c ****     *  Endpoint 2 Interrupt Service Routine.
 118:.\Generated_Source\PSoC5/USBFS_1_episr.c ****     *
 119:.\Generated_Source\PSoC5/USBFS_1_episr.c ****     *******************************************************************************/
 120:.\Generated_Source\PSoC5/USBFS_1_episr.c ****     CY_ISR(USBFS_1_EP_2_ISR)
 121:.\Generated_Source\PSoC5/USBFS_1_episr.c ****     {
  27              		.loc 1 121 0
  28              		.cfi_startproc
  29              		@ args = 0, pretend = 0, frame = 0
  30              		@ frame_needed = 0, uses_anonymous_args = 0
  31              		@ link register save eliminated.
 122:.\Generated_Source\PSoC5/USBFS_1_episr.c ****     #ifdef USBFS_1_EP_2_ISR_ENTRY_CALLBACK
 123:.\Generated_Source\PSoC5/USBFS_1_episr.c ****         USBFS_1_EP_2_ISR_EntryCallback();
 124:.\Generated_Source\PSoC5/USBFS_1_episr.c ****     #endif /* (USBFS_1_EP_2_ISR_ENTRY_CALLBACK) */
 125:.\Generated_Source\PSoC5/USBFS_1_episr.c **** 
 126:.\Generated_Source\PSoC5/USBFS_1_episr.c ****         /* `#START EP2_USER_CODE` Place your code here */
 127:.\Generated_Source\PSoC5/USBFS_1_episr.c **** 
 128:.\Generated_Source\PSoC5/USBFS_1_episr.c ****         /* `#END` */
 129:.\Generated_Source\PSoC5/USBFS_1_episr.c **** 
 130:.\Generated_Source\PSoC5/USBFS_1_episr.c ****     #if (CY_PSOC3 && defined(USBFS_1_ENABLE_MIDI_STREAMING) && \
 131:.\Generated_Source\PSoC5/USBFS_1_episr.c ****         !defined(USBFS_1_MAIN_SERVICE_MIDI_OUT) && USBFS_1_ISR_SERVICE_MIDI_OUT)
 132:.\Generated_Source\PSoC5/USBFS_1_episr.c ****         {
 133:.\Generated_Source\PSoC5/USBFS_1_episr.c ****             uint8 intEn = EA;
 134:.\Generated_Source\PSoC5/USBFS_1_episr.c ****             CyGlobalIntEnable;  /* Enable nested interrupts. */
 135:.\Generated_Source\PSoC5/USBFS_1_episr.c ****     #endif /* (CY_PSOC3 && USBFS_1_ISR_SERVICE_MIDI_OUT) */
 136:.\Generated_Source\PSoC5/USBFS_1_episr.c **** 
 137:.\Generated_Source\PSoC5/USBFS_1_episr.c ****         USBFS_1_ClearSieEpInterruptSource(USBFS_1_SIE_INT_EP2_INTR);
  32              		.loc 1 137 0
  33 0000 0B4A     		ldr	r2, .L3
  34 0002 1378     		ldrb	r3, [r2]	@ zero_extendqisi2
ARM GAS  C:\Users\LUKASC~1\AppData\Local\Temp\cccWiuOE.s 			page 4


  35 0004 03F0FD03 		and	r3, r3, #253
  36 0008 1370     		strb	r3, [r2]
 138:.\Generated_Source\PSoC5/USBFS_1_episr.c **** 
 139:.\Generated_Source\PSoC5/USBFS_1_episr.c ****         /* Notifies user that transfer IN or OUT transfer is completed.
 140:.\Generated_Source\PSoC5/USBFS_1_episr.c ****         * IN endpoint: endpoint buffer can be reloaded, Host is read data.
 141:.\Generated_Source\PSoC5/USBFS_1_episr.c ****         * OUT endpoint: data is ready to be read from endpoint buffer. 
 142:.\Generated_Source\PSoC5/USBFS_1_episr.c ****         */
 143:.\Generated_Source\PSoC5/USBFS_1_episr.c ****     #if (CY_PSOC4 && USBFS_1_EP_MANAGEMENT_DMA_AUTO)
 144:.\Generated_Source\PSoC5/USBFS_1_episr.c ****         if (0u != (USBFS_1_EP[USBFS_1_EP2].addr & USBFS_1_DIR_IN))
 145:.\Generated_Source\PSoC5/USBFS_1_episr.c ****     #endif /* (CY_PSOC4 && USBFS_1_EP_MANAGEMENT_DMA_AUTO) */
 146:.\Generated_Source\PSoC5/USBFS_1_episr.c ****         {            
 147:.\Generated_Source\PSoC5/USBFS_1_episr.c ****             /* Read CR0 register to clear SIE lock. */
 148:.\Generated_Source\PSoC5/USBFS_1_episr.c ****             (void) USBFS_1_SIE_EP_BASE.sieEp[USBFS_1_EP2].epCr0;
  37              		.loc 1 148 0
  38 000a 0A4B     		ldr	r3, .L3+4
  39 000c 93F82230 		ldrb	r3, [r3, #34]	@ zero_extendqisi2
 149:.\Generated_Source\PSoC5/USBFS_1_episr.c ****             
 150:.\Generated_Source\PSoC5/USBFS_1_episr.c ****             /* Toggle all endpoint types except ISOC. */
 151:.\Generated_Source\PSoC5/USBFS_1_episr.c ****             if (USBFS_1_GET_EP_TYPE(USBFS_1_EP2) != USBFS_1_EP_TYPE_ISOC)
  40              		.loc 1 151 0
  41 0010 094B     		ldr	r3, .L3+8
  42 0012 1B7E     		ldrb	r3, [r3, #24]	@ zero_extendqisi2
  43 0014 03F00303 		and	r3, r3, #3
  44 0018 012B     		cmp	r3, #1
  45 001a 04D0     		beq	.L2
 152:.\Generated_Source\PSoC5/USBFS_1_episr.c ****             {
 153:.\Generated_Source\PSoC5/USBFS_1_episr.c ****                 USBFS_1_EP[USBFS_1_EP2].epToggle ^= USBFS_1_EPX_CNT_DATA_TOGGLE;
  46              		.loc 1 153 0
  47 001c 064A     		ldr	r2, .L3+8
  48 001e D37E     		ldrb	r3, [r2, #27]	@ zero_extendqisi2
  49 0020 83F08003 		eor	r3, r3, #128
  50 0024 D376     		strb	r3, [r2, #27]
  51              	.L2:
 154:.\Generated_Source\PSoC5/USBFS_1_episr.c ****             }
 155:.\Generated_Source\PSoC5/USBFS_1_episr.c **** 
 156:.\Generated_Source\PSoC5/USBFS_1_episr.c ****             /* EP_MANAGEMENT_DMA_AUTO (Ticket ID# 214187): For OUT endpoint this event is used to n
 157:.\Generated_Source\PSoC5/USBFS_1_episr.c ****             * user that DMA has completed copying data from OUT endpoint which is not completely tr
 158:.\Generated_Source\PSoC5/USBFS_1_episr.c ****             * Because last chunk of data is being copied.
 159:.\Generated_Source\PSoC5/USBFS_1_episr.c ****             * For CY_PSOC 3/5LP: it is acceptable as DMA is really fast.
 160:.\Generated_Source\PSoC5/USBFS_1_episr.c ****             * For CY_PSOC4: this event is set in Arbiter interrupt (source is DMA_TERMIN).
 161:.\Generated_Source\PSoC5/USBFS_1_episr.c ****             */
 162:.\Generated_Source\PSoC5/USBFS_1_episr.c ****             USBFS_1_EP[USBFS_1_EP2].apiEpState = USBFS_1_EVENT_PENDING;
  52              		.loc 1 162 0
  53 0026 0122     		movs	r2, #1
  54 0028 034B     		ldr	r3, .L3+8
  55 002a 5A76     		strb	r2, [r3, #25]
  56 002c 7047     		bx	lr
  57              	.L4:
  58 002e 00BF     		.align	2
  59              	.L3:
  60 0030 0B600040 		.word	1073766411
  61 0034 FC5F0040 		.word	1073766396
  62 0038 00000000 		.word	USBFS_1_EP
  63              		.cfi_endproc
  64              	.LFE0:
  65              		.size	USBFS_1_EP_2_ISR, .-USBFS_1_EP_2_ISR
  66              		.section	.text.USBFS_1_BUS_RESET_ISR,"ax",%progbits
ARM GAS  C:\Users\LUKASC~1\AppData\Local\Temp\cccWiuOE.s 			page 5


  67              		.align	2
  68              		.global	USBFS_1_BUS_RESET_ISR
  69              		.thumb
  70              		.thumb_func
  71              		.type	USBFS_1_BUS_RESET_ISR, %function
  72              	USBFS_1_BUS_RESET_ISR:
  73              	.LFB1:
 163:.\Generated_Source\PSoC5/USBFS_1_episr.c ****         }
 164:.\Generated_Source\PSoC5/USBFS_1_episr.c **** 
 165:.\Generated_Source\PSoC5/USBFS_1_episr.c ****     #if (!(CY_PSOC4 && USBFS_1_EP_MANAGEMENT_DMA_AUTO))
 166:.\Generated_Source\PSoC5/USBFS_1_episr.c ****         #if (defined(USBFS_1_ENABLE_MIDI_STREAMING) && \
 167:.\Generated_Source\PSoC5/USBFS_1_episr.c ****             !defined(USBFS_1_MAIN_SERVICE_MIDI_OUT) && USBFS_1_ISR_SERVICE_MIDI_OUT)
 168:.\Generated_Source\PSoC5/USBFS_1_episr.c ****             if (USBFS_1_midi_out_ep == USBFS_1_EP2)
 169:.\Generated_Source\PSoC5/USBFS_1_episr.c ****             {
 170:.\Generated_Source\PSoC5/USBFS_1_episr.c ****                 USBFS_1_MIDI_OUT_Service();
 171:.\Generated_Source\PSoC5/USBFS_1_episr.c ****             }
 172:.\Generated_Source\PSoC5/USBFS_1_episr.c ****         #endif /* (USBFS_1_ISR_SERVICE_MIDI_OUT) */
 173:.\Generated_Source\PSoC5/USBFS_1_episr.c ****     #endif /* (!(CY_PSOC4 && USBFS_1_EP_MANAGEMENT_DMA_AUTO)) */        
 174:.\Generated_Source\PSoC5/USBFS_1_episr.c ****     
 175:.\Generated_Source\PSoC5/USBFS_1_episr.c ****         /* `#START EP2_END_USER_CODE` Place your code here */
 176:.\Generated_Source\PSoC5/USBFS_1_episr.c **** 
 177:.\Generated_Source\PSoC5/USBFS_1_episr.c ****         /* `#END` */
 178:.\Generated_Source\PSoC5/USBFS_1_episr.c **** 
 179:.\Generated_Source\PSoC5/USBFS_1_episr.c ****     #ifdef USBFS_1_EP_2_ISR_EXIT_CALLBACK
 180:.\Generated_Source\PSoC5/USBFS_1_episr.c ****         USBFS_1_EP_2_ISR_ExitCallback();
 181:.\Generated_Source\PSoC5/USBFS_1_episr.c ****     #endif /* (USBFS_1_EP_2_ISR_EXIT_CALLBACK) */
 182:.\Generated_Source\PSoC5/USBFS_1_episr.c **** 
 183:.\Generated_Source\PSoC5/USBFS_1_episr.c ****     #if (CY_PSOC3 && defined(USBFS_1_ENABLE_MIDI_STREAMING) && \
 184:.\Generated_Source\PSoC5/USBFS_1_episr.c ****         !defined(USBFS_1_MAIN_SERVICE_MIDI_OUT) && USBFS_1_ISR_SERVICE_MIDI_OUT)
 185:.\Generated_Source\PSoC5/USBFS_1_episr.c ****         
 186:.\Generated_Source\PSoC5/USBFS_1_episr.c ****             EA = intEn; /* Restore nested interrupt configuration. */
 187:.\Generated_Source\PSoC5/USBFS_1_episr.c ****         }
 188:.\Generated_Source\PSoC5/USBFS_1_episr.c ****     #endif /* (CY_PSOC3 && USBFS_1_ISR_SERVICE_MIDI_OUT) */
 189:.\Generated_Source\PSoC5/USBFS_1_episr.c ****     }
 190:.\Generated_Source\PSoC5/USBFS_1_episr.c **** #endif /* (USBFS_1_EP2_ISR_ACTIVE) */
 191:.\Generated_Source\PSoC5/USBFS_1_episr.c **** 
 192:.\Generated_Source\PSoC5/USBFS_1_episr.c **** 
 193:.\Generated_Source\PSoC5/USBFS_1_episr.c **** #if (USBFS_1_EP3_ISR_ACTIVE)
 194:.\Generated_Source\PSoC5/USBFS_1_episr.c ****     /*******************************************************************************
 195:.\Generated_Source\PSoC5/USBFS_1_episr.c ****     * Function Name: USBFS_1_EP_3_ISR
 196:.\Generated_Source\PSoC5/USBFS_1_episr.c ****     ****************************************************************************//**
 197:.\Generated_Source\PSoC5/USBFS_1_episr.c ****     *
 198:.\Generated_Source\PSoC5/USBFS_1_episr.c ****     *  Endpoint 3 Interrupt Service Routine.
 199:.\Generated_Source\PSoC5/USBFS_1_episr.c ****     *
 200:.\Generated_Source\PSoC5/USBFS_1_episr.c ****     *******************************************************************************/
 201:.\Generated_Source\PSoC5/USBFS_1_episr.c ****     CY_ISR(USBFS_1_EP_3_ISR)
 202:.\Generated_Source\PSoC5/USBFS_1_episr.c ****     {
 203:.\Generated_Source\PSoC5/USBFS_1_episr.c ****     #ifdef USBFS_1_EP_3_ISR_ENTRY_CALLBACK
 204:.\Generated_Source\PSoC5/USBFS_1_episr.c ****         USBFS_1_EP_3_ISR_EntryCallback();
 205:.\Generated_Source\PSoC5/USBFS_1_episr.c ****     #endif /* (USBFS_1_EP_3_ISR_ENTRY_CALLBACK) */
 206:.\Generated_Source\PSoC5/USBFS_1_episr.c **** 
 207:.\Generated_Source\PSoC5/USBFS_1_episr.c ****         /* `#START EP3_USER_CODE` Place your code here */
 208:.\Generated_Source\PSoC5/USBFS_1_episr.c **** 
 209:.\Generated_Source\PSoC5/USBFS_1_episr.c ****         /* `#END` */
 210:.\Generated_Source\PSoC5/USBFS_1_episr.c **** 
 211:.\Generated_Source\PSoC5/USBFS_1_episr.c ****     #if (CY_PSOC3 && defined(USBFS_1_ENABLE_MIDI_STREAMING) && \
 212:.\Generated_Source\PSoC5/USBFS_1_episr.c ****         !defined(USBFS_1_MAIN_SERVICE_MIDI_OUT) && USBFS_1_ISR_SERVICE_MIDI_OUT)
ARM GAS  C:\Users\LUKASC~1\AppData\Local\Temp\cccWiuOE.s 			page 6


 213:.\Generated_Source\PSoC5/USBFS_1_episr.c ****         {
 214:.\Generated_Source\PSoC5/USBFS_1_episr.c ****             uint8 intEn = EA;
 215:.\Generated_Source\PSoC5/USBFS_1_episr.c ****             CyGlobalIntEnable;  /* Enable nested interrupts. */
 216:.\Generated_Source\PSoC5/USBFS_1_episr.c ****     #endif /* (CY_PSOC3 && USBFS_1_ISR_SERVICE_MIDI_OUT) */
 217:.\Generated_Source\PSoC5/USBFS_1_episr.c **** 
 218:.\Generated_Source\PSoC5/USBFS_1_episr.c ****         USBFS_1_ClearSieEpInterruptSource(USBFS_1_SIE_INT_EP3_INTR);    
 219:.\Generated_Source\PSoC5/USBFS_1_episr.c **** 
 220:.\Generated_Source\PSoC5/USBFS_1_episr.c ****         /* Notifies user that transfer IN or OUT transfer is completed.
 221:.\Generated_Source\PSoC5/USBFS_1_episr.c ****         * IN endpoint: endpoint buffer can be reloaded, Host is read data.
 222:.\Generated_Source\PSoC5/USBFS_1_episr.c ****         * OUT endpoint: data is ready to be read from endpoint buffer. 
 223:.\Generated_Source\PSoC5/USBFS_1_episr.c ****         */
 224:.\Generated_Source\PSoC5/USBFS_1_episr.c ****     #if (CY_PSOC4 && USBFS_1_EP_MANAGEMENT_DMA_AUTO)
 225:.\Generated_Source\PSoC5/USBFS_1_episr.c ****         if (0u != (USBFS_1_EP[USBFS_1_EP3].addr & USBFS_1_DIR_IN))
 226:.\Generated_Source\PSoC5/USBFS_1_episr.c ****     #endif /* (USBFS_1_EP_MANAGEMENT_DMA_AUTO) */
 227:.\Generated_Source\PSoC5/USBFS_1_episr.c ****         {            
 228:.\Generated_Source\PSoC5/USBFS_1_episr.c ****             /* Read CR0 register to clear SIE lock. */
 229:.\Generated_Source\PSoC5/USBFS_1_episr.c ****             (void) USBFS_1_SIE_EP_BASE.sieEp[USBFS_1_EP3].epCr0;
 230:.\Generated_Source\PSoC5/USBFS_1_episr.c **** 
 231:.\Generated_Source\PSoC5/USBFS_1_episr.c ****             /* Toggle all endpoint types except ISOC. */
 232:.\Generated_Source\PSoC5/USBFS_1_episr.c ****             if (USBFS_1_GET_EP_TYPE(USBFS_1_EP3) != USBFS_1_EP_TYPE_ISOC)
 233:.\Generated_Source\PSoC5/USBFS_1_episr.c ****             {
 234:.\Generated_Source\PSoC5/USBFS_1_episr.c ****                 USBFS_1_EP[USBFS_1_EP3].epToggle ^= USBFS_1_EPX_CNT_DATA_TOGGLE;
 235:.\Generated_Source\PSoC5/USBFS_1_episr.c ****             }
 236:.\Generated_Source\PSoC5/USBFS_1_episr.c **** 
 237:.\Generated_Source\PSoC5/USBFS_1_episr.c ****             /* EP_MANAGEMENT_DMA_AUTO (Ticket ID# 214187): For OUT endpoint this event is used to n
 238:.\Generated_Source\PSoC5/USBFS_1_episr.c ****             * user that DMA has completed copying data from OUT endpoint which is not completely tr
 239:.\Generated_Source\PSoC5/USBFS_1_episr.c ****             * Because last chunk of data is being copied.
 240:.\Generated_Source\PSoC5/USBFS_1_episr.c ****             * For CY_PSOC 3/5LP: it is acceptable as DMA is really fast.
 241:.\Generated_Source\PSoC5/USBFS_1_episr.c ****             * For CY_PSOC4: this event is set in Arbiter interrupt (source is DMA_TERMIN).
 242:.\Generated_Source\PSoC5/USBFS_1_episr.c ****             */
 243:.\Generated_Source\PSoC5/USBFS_1_episr.c ****             USBFS_1_EP[USBFS_1_EP3].apiEpState = USBFS_1_EVENT_PENDING;
 244:.\Generated_Source\PSoC5/USBFS_1_episr.c ****         }
 245:.\Generated_Source\PSoC5/USBFS_1_episr.c **** 
 246:.\Generated_Source\PSoC5/USBFS_1_episr.c ****     #if (!(CY_PSOC4 && USBFS_1_EP_MANAGEMENT_DMA_AUTO))
 247:.\Generated_Source\PSoC5/USBFS_1_episr.c ****         #if (defined(USBFS_1_ENABLE_MIDI_STREAMING) && \
 248:.\Generated_Source\PSoC5/USBFS_1_episr.c ****             !defined(USBFS_1_MAIN_SERVICE_MIDI_OUT) && USBFS_1_ISR_SERVICE_MIDI_OUT)
 249:.\Generated_Source\PSoC5/USBFS_1_episr.c ****             if (USBFS_1_midi_out_ep == USBFS_1_EP3)
 250:.\Generated_Source\PSoC5/USBFS_1_episr.c ****             {
 251:.\Generated_Source\PSoC5/USBFS_1_episr.c ****                 USBFS_1_MIDI_OUT_Service();
 252:.\Generated_Source\PSoC5/USBFS_1_episr.c ****             }
 253:.\Generated_Source\PSoC5/USBFS_1_episr.c ****         #endif /* (USBFS_1_ISR_SERVICE_MIDI_OUT) */
 254:.\Generated_Source\PSoC5/USBFS_1_episr.c ****     #endif /* (!(CY_PSOC4 && USBFS_1_EP_MANAGEMENT_DMA_AUTO)) */        
 255:.\Generated_Source\PSoC5/USBFS_1_episr.c **** 
 256:.\Generated_Source\PSoC5/USBFS_1_episr.c ****         /* `#START EP3_END_USER_CODE` Place your code here */
 257:.\Generated_Source\PSoC5/USBFS_1_episr.c **** 
 258:.\Generated_Source\PSoC5/USBFS_1_episr.c ****         /* `#END` */
 259:.\Generated_Source\PSoC5/USBFS_1_episr.c **** 
 260:.\Generated_Source\PSoC5/USBFS_1_episr.c ****     #ifdef USBFS_1_EP_3_ISR_EXIT_CALLBACK
 261:.\Generated_Source\PSoC5/USBFS_1_episr.c ****         USBFS_1_EP_3_ISR_ExitCallback();
 262:.\Generated_Source\PSoC5/USBFS_1_episr.c ****     #endif /* (USBFS_1_EP_3_ISR_EXIT_CALLBACK) */
 263:.\Generated_Source\PSoC5/USBFS_1_episr.c **** 
 264:.\Generated_Source\PSoC5/USBFS_1_episr.c ****     #if (CY_PSOC3 && defined(USBFS_1_ENABLE_MIDI_STREAMING) && \
 265:.\Generated_Source\PSoC5/USBFS_1_episr.c ****         !defined(USBFS_1_MAIN_SERVICE_MIDI_OUT) && USBFS_1_ISR_SERVICE_MIDI_OUT)
 266:.\Generated_Source\PSoC5/USBFS_1_episr.c ****         
 267:.\Generated_Source\PSoC5/USBFS_1_episr.c ****             EA = intEn; /* Restore nested interrupt configuration. */
 268:.\Generated_Source\PSoC5/USBFS_1_episr.c ****         }
 269:.\Generated_Source\PSoC5/USBFS_1_episr.c ****     #endif /* (CY_PSOC3 && USBFS_1_ISR_SERVICE_MIDI_OUT) */
ARM GAS  C:\Users\LUKASC~1\AppData\Local\Temp\cccWiuOE.s 			page 7


 270:.\Generated_Source\PSoC5/USBFS_1_episr.c ****     }
 271:.\Generated_Source\PSoC5/USBFS_1_episr.c **** #endif /* (USBFS_1_EP3_ISR_ACTIVE) */
 272:.\Generated_Source\PSoC5/USBFS_1_episr.c **** 
 273:.\Generated_Source\PSoC5/USBFS_1_episr.c **** 
 274:.\Generated_Source\PSoC5/USBFS_1_episr.c **** #if (USBFS_1_EP4_ISR_ACTIVE)
 275:.\Generated_Source\PSoC5/USBFS_1_episr.c ****     /*******************************************************************************
 276:.\Generated_Source\PSoC5/USBFS_1_episr.c ****     * Function Name: USBFS_1_EP_4_ISR
 277:.\Generated_Source\PSoC5/USBFS_1_episr.c ****     ****************************************************************************//**
 278:.\Generated_Source\PSoC5/USBFS_1_episr.c ****     *
 279:.\Generated_Source\PSoC5/USBFS_1_episr.c ****     *  Endpoint 4 Interrupt Service Routine.
 280:.\Generated_Source\PSoC5/USBFS_1_episr.c ****     *
 281:.\Generated_Source\PSoC5/USBFS_1_episr.c ****     *******************************************************************************/
 282:.\Generated_Source\PSoC5/USBFS_1_episr.c ****     CY_ISR(USBFS_1_EP_4_ISR)
 283:.\Generated_Source\PSoC5/USBFS_1_episr.c ****     {
 284:.\Generated_Source\PSoC5/USBFS_1_episr.c ****     #ifdef USBFS_1_EP_4_ISR_ENTRY_CALLBACK
 285:.\Generated_Source\PSoC5/USBFS_1_episr.c ****         USBFS_1_EP_4_ISR_EntryCallback();
 286:.\Generated_Source\PSoC5/USBFS_1_episr.c ****     #endif /* (USBFS_1_EP_4_ISR_ENTRY_CALLBACK) */
 287:.\Generated_Source\PSoC5/USBFS_1_episr.c **** 
 288:.\Generated_Source\PSoC5/USBFS_1_episr.c ****         /* `#START EP4_USER_CODE` Place your code here */
 289:.\Generated_Source\PSoC5/USBFS_1_episr.c **** 
 290:.\Generated_Source\PSoC5/USBFS_1_episr.c ****         /* `#END` */
 291:.\Generated_Source\PSoC5/USBFS_1_episr.c **** 
 292:.\Generated_Source\PSoC5/USBFS_1_episr.c ****     #if (CY_PSOC3 && defined(USBFS_1_ENABLE_MIDI_STREAMING) && \
 293:.\Generated_Source\PSoC5/USBFS_1_episr.c ****         !defined(USBFS_1_MAIN_SERVICE_MIDI_OUT) && USBFS_1_ISR_SERVICE_MIDI_OUT)
 294:.\Generated_Source\PSoC5/USBFS_1_episr.c ****         {
 295:.\Generated_Source\PSoC5/USBFS_1_episr.c ****             uint8 intEn = EA;
 296:.\Generated_Source\PSoC5/USBFS_1_episr.c ****             CyGlobalIntEnable;  /* Enable nested interrupts. */
 297:.\Generated_Source\PSoC5/USBFS_1_episr.c ****     #endif /* (CY_PSOC3 && USBFS_1_ISR_SERVICE_MIDI_OUT) */
 298:.\Generated_Source\PSoC5/USBFS_1_episr.c **** 
 299:.\Generated_Source\PSoC5/USBFS_1_episr.c ****         USBFS_1_ClearSieEpInterruptSource(USBFS_1_SIE_INT_EP4_INTR);
 300:.\Generated_Source\PSoC5/USBFS_1_episr.c ****         
 301:.\Generated_Source\PSoC5/USBFS_1_episr.c ****         /* Notifies user that transfer IN or OUT transfer is completed.
 302:.\Generated_Source\PSoC5/USBFS_1_episr.c ****         * IN endpoint: endpoint buffer can be reloaded, Host is read data.
 303:.\Generated_Source\PSoC5/USBFS_1_episr.c ****         * OUT endpoint: data is ready to read from endpoint buffer. 
 304:.\Generated_Source\PSoC5/USBFS_1_episr.c ****         */
 305:.\Generated_Source\PSoC5/USBFS_1_episr.c ****     #if (CY_PSOC4 && USBFS_1_EP_MANAGEMENT_DMA_AUTO)
 306:.\Generated_Source\PSoC5/USBFS_1_episr.c ****         if (0u != (USBFS_1_EP[USBFS_1_EP4].addr & USBFS_1_DIR_IN))
 307:.\Generated_Source\PSoC5/USBFS_1_episr.c ****     #endif /* (USBFS_1_EP_MANAGEMENT_DMA_AUTO) */
 308:.\Generated_Source\PSoC5/USBFS_1_episr.c ****         {
 309:.\Generated_Source\PSoC5/USBFS_1_episr.c ****             /* Read CR0 register to clear SIE lock. */
 310:.\Generated_Source\PSoC5/USBFS_1_episr.c ****             (void) USBFS_1_SIE_EP_BASE.sieEp[USBFS_1_EP4].epCr0;
 311:.\Generated_Source\PSoC5/USBFS_1_episr.c **** 
 312:.\Generated_Source\PSoC5/USBFS_1_episr.c ****             /* Toggle all endpoint types except ISOC. */
 313:.\Generated_Source\PSoC5/USBFS_1_episr.c ****             if (USBFS_1_GET_EP_TYPE(USBFS_1_EP4) != USBFS_1_EP_TYPE_ISOC)
 314:.\Generated_Source\PSoC5/USBFS_1_episr.c ****             {
 315:.\Generated_Source\PSoC5/USBFS_1_episr.c ****                 USBFS_1_EP[USBFS_1_EP4].epToggle ^= USBFS_1_EPX_CNT_DATA_TOGGLE;
 316:.\Generated_Source\PSoC5/USBFS_1_episr.c ****             }
 317:.\Generated_Source\PSoC5/USBFS_1_episr.c **** 
 318:.\Generated_Source\PSoC5/USBFS_1_episr.c ****             /* EP_MANAGEMENT_DMA_AUTO (Ticket ID# 214187): For OUT endpoint this event is used to n
 319:.\Generated_Source\PSoC5/USBFS_1_episr.c ****             * user that DMA has completed copying data from OUT endpoint which is not completely tr
 320:.\Generated_Source\PSoC5/USBFS_1_episr.c ****             * Because last chunk of data is being copied.
 321:.\Generated_Source\PSoC5/USBFS_1_episr.c ****             * For CY_PSOC 3/5LP: it is acceptable as DMA is really fast.
 322:.\Generated_Source\PSoC5/USBFS_1_episr.c ****             * For CY_PSOC4: this event is set in Arbiter interrupt (source is DMA_TERMIN).
 323:.\Generated_Source\PSoC5/USBFS_1_episr.c ****             */
 324:.\Generated_Source\PSoC5/USBFS_1_episr.c ****             USBFS_1_EP[USBFS_1_EP4].apiEpState = USBFS_1_EVENT_PENDING;
 325:.\Generated_Source\PSoC5/USBFS_1_episr.c ****         }
 326:.\Generated_Source\PSoC5/USBFS_1_episr.c **** 
ARM GAS  C:\Users\LUKASC~1\AppData\Local\Temp\cccWiuOE.s 			page 8


 327:.\Generated_Source\PSoC5/USBFS_1_episr.c ****     #if (!(CY_PSOC4 && USBFS_1_EP_MANAGEMENT_DMA_AUTO))
 328:.\Generated_Source\PSoC5/USBFS_1_episr.c ****         #if (defined(USBFS_1_ENABLE_MIDI_STREAMING) && \
 329:.\Generated_Source\PSoC5/USBFS_1_episr.c ****             !defined(USBFS_1_MAIN_SERVICE_MIDI_OUT) && USBFS_1_ISR_SERVICE_MIDI_OUT)
 330:.\Generated_Source\PSoC5/USBFS_1_episr.c ****             if(USBFS_1_midi_out_ep == USBFS_1_EP4)
 331:.\Generated_Source\PSoC5/USBFS_1_episr.c ****             {
 332:.\Generated_Source\PSoC5/USBFS_1_episr.c ****                 USBFS_1_MIDI_OUT_Service();
 333:.\Generated_Source\PSoC5/USBFS_1_episr.c ****             }
 334:.\Generated_Source\PSoC5/USBFS_1_episr.c ****         #endif /* (USBFS_1_ISR_SERVICE_MIDI_OUT) */
 335:.\Generated_Source\PSoC5/USBFS_1_episr.c ****     #endif /* (!(CY_PSOC4 && USBFS_1_EP_MANAGEMENT_DMA_AUTO)) */        
 336:.\Generated_Source\PSoC5/USBFS_1_episr.c **** 
 337:.\Generated_Source\PSoC5/USBFS_1_episr.c ****         /* `#START EP4_END_USER_CODE` Place your code here */
 338:.\Generated_Source\PSoC5/USBFS_1_episr.c **** 
 339:.\Generated_Source\PSoC5/USBFS_1_episr.c ****         /* `#END` */
 340:.\Generated_Source\PSoC5/USBFS_1_episr.c **** 
 341:.\Generated_Source\PSoC5/USBFS_1_episr.c ****     #ifdef USBFS_1_EP_4_ISR_EXIT_CALLBACK
 342:.\Generated_Source\PSoC5/USBFS_1_episr.c ****         USBFS_1_EP_4_ISR_ExitCallback();
 343:.\Generated_Source\PSoC5/USBFS_1_episr.c ****     #endif /* (USBFS_1_EP_4_ISR_EXIT_CALLBACK) */
 344:.\Generated_Source\PSoC5/USBFS_1_episr.c **** 
 345:.\Generated_Source\PSoC5/USBFS_1_episr.c ****     #if (CY_PSOC3 && defined(USBFS_1_ENABLE_MIDI_STREAMING) && \
 346:.\Generated_Source\PSoC5/USBFS_1_episr.c ****         !defined(USBFS_1_MAIN_SERVICE_MIDI_OUT) && USBFS_1_ISR_SERVICE_MIDI_OUT)
 347:.\Generated_Source\PSoC5/USBFS_1_episr.c ****         
 348:.\Generated_Source\PSoC5/USBFS_1_episr.c ****             EA = intEn; /* Restore nested interrupt configuration. */
 349:.\Generated_Source\PSoC5/USBFS_1_episr.c ****         }
 350:.\Generated_Source\PSoC5/USBFS_1_episr.c ****     #endif /* (CY_PSOC3 && USBFS_1_ISR_SERVICE_MIDI_OUT) */
 351:.\Generated_Source\PSoC5/USBFS_1_episr.c ****     }
 352:.\Generated_Source\PSoC5/USBFS_1_episr.c **** #endif /* (USBFS_1_EP4_ISR_ACTIVE) */
 353:.\Generated_Source\PSoC5/USBFS_1_episr.c **** 
 354:.\Generated_Source\PSoC5/USBFS_1_episr.c **** 
 355:.\Generated_Source\PSoC5/USBFS_1_episr.c **** #if (USBFS_1_EP5_ISR_ACTIVE)
 356:.\Generated_Source\PSoC5/USBFS_1_episr.c ****     /*******************************************************************************
 357:.\Generated_Source\PSoC5/USBFS_1_episr.c ****     * Function Name: USBFS_1_EP_5_ISR
 358:.\Generated_Source\PSoC5/USBFS_1_episr.c ****     ****************************************************************************//**
 359:.\Generated_Source\PSoC5/USBFS_1_episr.c ****     *
 360:.\Generated_Source\PSoC5/USBFS_1_episr.c ****     *  Endpoint 5 Interrupt Service Routine
 361:.\Generated_Source\PSoC5/USBFS_1_episr.c ****     *
 362:.\Generated_Source\PSoC5/USBFS_1_episr.c ****     *
 363:.\Generated_Source\PSoC5/USBFS_1_episr.c ****     *******************************************************************************/
 364:.\Generated_Source\PSoC5/USBFS_1_episr.c ****     CY_ISR(USBFS_1_EP_5_ISR)
 365:.\Generated_Source\PSoC5/USBFS_1_episr.c ****     {
 366:.\Generated_Source\PSoC5/USBFS_1_episr.c ****     #ifdef USBFS_1_EP_5_ISR_ENTRY_CALLBACK
 367:.\Generated_Source\PSoC5/USBFS_1_episr.c ****         USBFS_1_EP_5_ISR_EntryCallback();
 368:.\Generated_Source\PSoC5/USBFS_1_episr.c ****     #endif /* (USBFS_1_EP_5_ISR_ENTRY_CALLBACK) */
 369:.\Generated_Source\PSoC5/USBFS_1_episr.c **** 
 370:.\Generated_Source\PSoC5/USBFS_1_episr.c ****         /* `#START EP5_USER_CODE` Place your code here */
 371:.\Generated_Source\PSoC5/USBFS_1_episr.c **** 
 372:.\Generated_Source\PSoC5/USBFS_1_episr.c ****         /* `#END` */
 373:.\Generated_Source\PSoC5/USBFS_1_episr.c **** 
 374:.\Generated_Source\PSoC5/USBFS_1_episr.c ****     #if (defined(USBFS_1_ENABLE_MIDI_STREAMING) && !defined(USBFS_1_MAIN_SERVICE_MIDI_OUT) && \
 375:.\Generated_Source\PSoC5/USBFS_1_episr.c ****                  USBFS_1_ISR_SERVICE_MIDI_OUT && CY_PSOC3)
 376:.\Generated_Source\PSoC5/USBFS_1_episr.c ****         {
 377:.\Generated_Source\PSoC5/USBFS_1_episr.c ****             uint8 intEn = EA;
 378:.\Generated_Source\PSoC5/USBFS_1_episr.c ****             CyGlobalIntEnable;  /* Enable nested interrupts. */
 379:.\Generated_Source\PSoC5/USBFS_1_episr.c ****     #endif /* (CY_PSOC3 && USBFS_1_ISR_SERVICE_MIDI_OUT) */
 380:.\Generated_Source\PSoC5/USBFS_1_episr.c **** 
 381:.\Generated_Source\PSoC5/USBFS_1_episr.c ****         USBFS_1_ClearSieEpInterruptSource(USBFS_1_SIE_INT_EP5_INTR);
 382:.\Generated_Source\PSoC5/USBFS_1_episr.c ****     
 383:.\Generated_Source\PSoC5/USBFS_1_episr.c ****         /* Notifies user that transfer IN or OUT transfer is completed.
ARM GAS  C:\Users\LUKASC~1\AppData\Local\Temp\cccWiuOE.s 			page 9


 384:.\Generated_Source\PSoC5/USBFS_1_episr.c ****         * IN endpoint: endpoint buffer can be reloaded, Host is read data.
 385:.\Generated_Source\PSoC5/USBFS_1_episr.c ****         * OUT endpoint: data is ready to read from endpoint buffer. 
 386:.\Generated_Source\PSoC5/USBFS_1_episr.c ****         */
 387:.\Generated_Source\PSoC5/USBFS_1_episr.c ****     #if (CY_PSOC4 && USBFS_1_EP_MANAGEMENT_DMA_AUTO)
 388:.\Generated_Source\PSoC5/USBFS_1_episr.c ****         if (0u != (USBFS_1_EP[USBFS_1_EP5].addr & USBFS_1_DIR_IN))
 389:.\Generated_Source\PSoC5/USBFS_1_episr.c ****     #endif /* (USBFS_1_EP_MANAGEMENT_DMA_AUTO) */
 390:.\Generated_Source\PSoC5/USBFS_1_episr.c ****         {            
 391:.\Generated_Source\PSoC5/USBFS_1_episr.c ****             /* Read CR0 register to clear SIE lock. */
 392:.\Generated_Source\PSoC5/USBFS_1_episr.c ****             (void) USBFS_1_SIE_EP_BASE.sieEp[USBFS_1_EP5].epCr0;
 393:.\Generated_Source\PSoC5/USBFS_1_episr.c **** 
 394:.\Generated_Source\PSoC5/USBFS_1_episr.c ****             /* Toggle all endpoint types except ISOC. */
 395:.\Generated_Source\PSoC5/USBFS_1_episr.c ****             if (USBFS_1_GET_EP_TYPE(USBFS_1_EP5) != USBFS_1_EP_TYPE_ISOC)
 396:.\Generated_Source\PSoC5/USBFS_1_episr.c ****             {
 397:.\Generated_Source\PSoC5/USBFS_1_episr.c ****                 USBFS_1_EP[USBFS_1_EP5].epToggle ^= USBFS_1_EPX_CNT_DATA_TOGGLE;
 398:.\Generated_Source\PSoC5/USBFS_1_episr.c ****             }
 399:.\Generated_Source\PSoC5/USBFS_1_episr.c **** 
 400:.\Generated_Source\PSoC5/USBFS_1_episr.c ****             /* EP_MANAGEMENT_DMA_AUTO (Ticket ID# 214187): For OUT endpoint this event is used to n
 401:.\Generated_Source\PSoC5/USBFS_1_episr.c ****             * user that DMA has completed copying data from OUT endpoint which is not completely tr
 402:.\Generated_Source\PSoC5/USBFS_1_episr.c ****             * Because last chunk of data is being copied.
 403:.\Generated_Source\PSoC5/USBFS_1_episr.c ****             * For CY_PSOC 3/5LP: it is acceptable as DMA is really fast.
 404:.\Generated_Source\PSoC5/USBFS_1_episr.c ****             * For CY_PSOC4: this event is set in Arbiter interrupt (source is DMA_TERMIN).
 405:.\Generated_Source\PSoC5/USBFS_1_episr.c ****             */
 406:.\Generated_Source\PSoC5/USBFS_1_episr.c ****             USBFS_1_EP[USBFS_1_EP5].apiEpState = USBFS_1_EVENT_PENDING;
 407:.\Generated_Source\PSoC5/USBFS_1_episr.c ****         }
 408:.\Generated_Source\PSoC5/USBFS_1_episr.c **** 
 409:.\Generated_Source\PSoC5/USBFS_1_episr.c ****     #if (!(CY_PSOC4 && USBFS_1_EP_MANAGEMENT_DMA_AUTO))        
 410:.\Generated_Source\PSoC5/USBFS_1_episr.c ****         #if (defined(USBFS_1_ENABLE_MIDI_STREAMING) && \
 411:.\Generated_Source\PSoC5/USBFS_1_episr.c ****             !defined(USBFS_1_MAIN_SERVICE_MIDI_OUT) && USBFS_1_ISR_SERVICE_MIDI_OUT)
 412:.\Generated_Source\PSoC5/USBFS_1_episr.c ****             if (USBFS_1_midi_out_ep == USBFS_1_EP5)
 413:.\Generated_Source\PSoC5/USBFS_1_episr.c ****             {
 414:.\Generated_Source\PSoC5/USBFS_1_episr.c ****                 USBFS_1_MIDI_OUT_Service();
 415:.\Generated_Source\PSoC5/USBFS_1_episr.c ****             }
 416:.\Generated_Source\PSoC5/USBFS_1_episr.c ****         #endif /* (USBFS_1_ISR_SERVICE_MIDI_OUT) */
 417:.\Generated_Source\PSoC5/USBFS_1_episr.c ****     #endif /* (!(CY_PSOC4 && USBFS_1_EP_MANAGEMENT_DMA_AUTO)) */
 418:.\Generated_Source\PSoC5/USBFS_1_episr.c **** 
 419:.\Generated_Source\PSoC5/USBFS_1_episr.c ****         /* `#START EP5_END_USER_CODE` Place your code here */
 420:.\Generated_Source\PSoC5/USBFS_1_episr.c **** 
 421:.\Generated_Source\PSoC5/USBFS_1_episr.c ****         /* `#END` */
 422:.\Generated_Source\PSoC5/USBFS_1_episr.c **** 
 423:.\Generated_Source\PSoC5/USBFS_1_episr.c ****     #ifdef USBFS_1_EP_5_ISR_EXIT_CALLBACK
 424:.\Generated_Source\PSoC5/USBFS_1_episr.c ****         USBFS_1_EP_5_ISR_ExitCallback();
 425:.\Generated_Source\PSoC5/USBFS_1_episr.c ****     #endif /* (USBFS_1_EP_5_ISR_EXIT_CALLBACK) */
 426:.\Generated_Source\PSoC5/USBFS_1_episr.c **** 
 427:.\Generated_Source\PSoC5/USBFS_1_episr.c ****     #if (CY_PSOC3 && defined(USBFS_1_ENABLE_MIDI_STREAMING) && \
 428:.\Generated_Source\PSoC5/USBFS_1_episr.c ****         !defined(USBFS_1_MAIN_SERVICE_MIDI_OUT) && USBFS_1_ISR_SERVICE_MIDI_OUT)
 429:.\Generated_Source\PSoC5/USBFS_1_episr.c ****         
 430:.\Generated_Source\PSoC5/USBFS_1_episr.c ****             EA = intEn; /* Restore nested interrupt configuration. */
 431:.\Generated_Source\PSoC5/USBFS_1_episr.c ****         }
 432:.\Generated_Source\PSoC5/USBFS_1_episr.c ****     #endif /* (CY_PSOC3 && USBFS_1_ISR_SERVICE_MIDI_OUT) */
 433:.\Generated_Source\PSoC5/USBFS_1_episr.c ****     }
 434:.\Generated_Source\PSoC5/USBFS_1_episr.c **** #endif /* (USBFS_1_EP5_ISR_ACTIVE) */
 435:.\Generated_Source\PSoC5/USBFS_1_episr.c **** 
 436:.\Generated_Source\PSoC5/USBFS_1_episr.c **** 
 437:.\Generated_Source\PSoC5/USBFS_1_episr.c **** #if (USBFS_1_EP6_ISR_ACTIVE)
 438:.\Generated_Source\PSoC5/USBFS_1_episr.c ****     /*******************************************************************************
 439:.\Generated_Source\PSoC5/USBFS_1_episr.c ****     * Function Name: USBFS_1_EP_6_ISR
 440:.\Generated_Source\PSoC5/USBFS_1_episr.c ****     ****************************************************************************//**
ARM GAS  C:\Users\LUKASC~1\AppData\Local\Temp\cccWiuOE.s 			page 10


 441:.\Generated_Source\PSoC5/USBFS_1_episr.c ****     *
 442:.\Generated_Source\PSoC5/USBFS_1_episr.c ****     *  Endpoint 6 Interrupt Service Routine.
 443:.\Generated_Source\PSoC5/USBFS_1_episr.c ****     *
 444:.\Generated_Source\PSoC5/USBFS_1_episr.c ****     *
 445:.\Generated_Source\PSoC5/USBFS_1_episr.c ****     *******************************************************************************/
 446:.\Generated_Source\PSoC5/USBFS_1_episr.c ****     CY_ISR(USBFS_1_EP_6_ISR)
 447:.\Generated_Source\PSoC5/USBFS_1_episr.c ****     {
 448:.\Generated_Source\PSoC5/USBFS_1_episr.c ****     #ifdef USBFS_1_EP_6_ISR_ENTRY_CALLBACK
 449:.\Generated_Source\PSoC5/USBFS_1_episr.c ****         USBFS_1_EP_6_ISR_EntryCallback();
 450:.\Generated_Source\PSoC5/USBFS_1_episr.c ****     #endif /* (USBFS_1_EP_6_ISR_ENTRY_CALLBACK) */
 451:.\Generated_Source\PSoC5/USBFS_1_episr.c **** 
 452:.\Generated_Source\PSoC5/USBFS_1_episr.c ****         /* `#START EP6_USER_CODE` Place your code here */
 453:.\Generated_Source\PSoC5/USBFS_1_episr.c **** 
 454:.\Generated_Source\PSoC5/USBFS_1_episr.c ****         /* `#END` */
 455:.\Generated_Source\PSoC5/USBFS_1_episr.c **** 
 456:.\Generated_Source\PSoC5/USBFS_1_episr.c ****     #if (CY_PSOC3 && defined(USBFS_1_ENABLE_MIDI_STREAMING) && \
 457:.\Generated_Source\PSoC5/USBFS_1_episr.c ****         !defined(USBFS_1_MAIN_SERVICE_MIDI_OUT) && USBFS_1_ISR_SERVICE_MIDI_OUT)
 458:.\Generated_Source\PSoC5/USBFS_1_episr.c ****         {
 459:.\Generated_Source\PSoC5/USBFS_1_episr.c ****             uint8 intEn = EA;
 460:.\Generated_Source\PSoC5/USBFS_1_episr.c ****             CyGlobalIntEnable;  /* Enable nested interrupts. */
 461:.\Generated_Source\PSoC5/USBFS_1_episr.c ****     #endif /* (CY_PSOC3 && USBFS_1_ISR_SERVICE_MIDI_OUT) */
 462:.\Generated_Source\PSoC5/USBFS_1_episr.c **** 
 463:.\Generated_Source\PSoC5/USBFS_1_episr.c ****         USBFS_1_ClearSieEpInterruptSource(USBFS_1_SIE_INT_EP6_INTR);
 464:.\Generated_Source\PSoC5/USBFS_1_episr.c ****         
 465:.\Generated_Source\PSoC5/USBFS_1_episr.c ****         /* Notifies user that transfer IN or OUT transfer is completed.
 466:.\Generated_Source\PSoC5/USBFS_1_episr.c ****         * IN endpoint: endpoint buffer can be reloaded, Host is read data.
 467:.\Generated_Source\PSoC5/USBFS_1_episr.c ****         * OUT endpoint: data is ready to read from endpoint buffer. 
 468:.\Generated_Source\PSoC5/USBFS_1_episr.c ****         */
 469:.\Generated_Source\PSoC5/USBFS_1_episr.c ****     #if (CY_PSOC4 && USBFS_1_EP_MANAGEMENT_DMA_AUTO)
 470:.\Generated_Source\PSoC5/USBFS_1_episr.c ****         if (0u != (USBFS_1_EP[USBFS_1_EP6].addr & USBFS_1_DIR_IN))
 471:.\Generated_Source\PSoC5/USBFS_1_episr.c ****     #endif /* (USBFS_1_EP_MANAGEMENT_DMA_AUTO) */
 472:.\Generated_Source\PSoC5/USBFS_1_episr.c ****         {
 473:.\Generated_Source\PSoC5/USBFS_1_episr.c ****             /* Read CR0 register to clear SIE lock. */
 474:.\Generated_Source\PSoC5/USBFS_1_episr.c ****             (void) USBFS_1_SIE_EP_BASE.sieEp[USBFS_1_EP6].epCr0;
 475:.\Generated_Source\PSoC5/USBFS_1_episr.c **** 
 476:.\Generated_Source\PSoC5/USBFS_1_episr.c ****             /* Toggle all endpoint types except ISOC. */
 477:.\Generated_Source\PSoC5/USBFS_1_episr.c ****             if (USBFS_1_GET_EP_TYPE(USBFS_1_EP6) != USBFS_1_EP_TYPE_ISOC)
 478:.\Generated_Source\PSoC5/USBFS_1_episr.c ****             {
 479:.\Generated_Source\PSoC5/USBFS_1_episr.c ****                 USBFS_1_EP[USBFS_1_EP6].epToggle ^= USBFS_1_EPX_CNT_DATA_TOGGLE;
 480:.\Generated_Source\PSoC5/USBFS_1_episr.c ****             }
 481:.\Generated_Source\PSoC5/USBFS_1_episr.c ****             
 482:.\Generated_Source\PSoC5/USBFS_1_episr.c ****             /* EP_MANAGEMENT_DMA_AUTO (Ticket ID# 214187): For OUT endpoint this event is used to n
 483:.\Generated_Source\PSoC5/USBFS_1_episr.c ****             * user that DMA has completed copying data from OUT endpoint which is not completely tr
 484:.\Generated_Source\PSoC5/USBFS_1_episr.c ****             * Because last chunk of data is being copied.
 485:.\Generated_Source\PSoC5/USBFS_1_episr.c ****             * For CY_PSOC 3/5LP: it is acceptable as DMA is really fast.
 486:.\Generated_Source\PSoC5/USBFS_1_episr.c ****             * For CY_PSOC4: this event is set in Arbiter interrupt (source is DMA_TERMIN).
 487:.\Generated_Source\PSoC5/USBFS_1_episr.c ****             */
 488:.\Generated_Source\PSoC5/USBFS_1_episr.c ****             USBFS_1_EP[USBFS_1_EP6].apiEpState = USBFS_1_EVENT_PENDING;
 489:.\Generated_Source\PSoC5/USBFS_1_episr.c ****         }
 490:.\Generated_Source\PSoC5/USBFS_1_episr.c **** 
 491:.\Generated_Source\PSoC5/USBFS_1_episr.c ****     #if (!(CY_PSOC4 && USBFS_1_EP_MANAGEMENT_DMA_AUTO))
 492:.\Generated_Source\PSoC5/USBFS_1_episr.c ****         #if (defined(USBFS_1_ENABLE_MIDI_STREAMING) && \
 493:.\Generated_Source\PSoC5/USBFS_1_episr.c ****             !defined(USBFS_1_MAIN_SERVICE_MIDI_OUT) && USBFS_1_ISR_SERVICE_MIDI_OUT)
 494:.\Generated_Source\PSoC5/USBFS_1_episr.c ****             if (USBFS_1_midi_out_ep == USBFS_1_EP6)
 495:.\Generated_Source\PSoC5/USBFS_1_episr.c ****             {
 496:.\Generated_Source\PSoC5/USBFS_1_episr.c ****                 USBFS_1_MIDI_OUT_Service();
 497:.\Generated_Source\PSoC5/USBFS_1_episr.c ****             }
ARM GAS  C:\Users\LUKASC~1\AppData\Local\Temp\cccWiuOE.s 			page 11


 498:.\Generated_Source\PSoC5/USBFS_1_episr.c ****         #endif /* (USBFS_1_ISR_SERVICE_MIDI_OUT) */
 499:.\Generated_Source\PSoC5/USBFS_1_episr.c ****     #endif /* (!(CY_PSOC4 && USBFS_1_EP_MANAGEMENT_DMA_AUTO)) */
 500:.\Generated_Source\PSoC5/USBFS_1_episr.c **** 
 501:.\Generated_Source\PSoC5/USBFS_1_episr.c ****         /* `#START EP6_END_USER_CODE` Place your code here */
 502:.\Generated_Source\PSoC5/USBFS_1_episr.c **** 
 503:.\Generated_Source\PSoC5/USBFS_1_episr.c ****         /* `#END` */
 504:.\Generated_Source\PSoC5/USBFS_1_episr.c **** 
 505:.\Generated_Source\PSoC5/USBFS_1_episr.c ****     #ifdef USBFS_1_EP_6_ISR_EXIT_CALLBACK
 506:.\Generated_Source\PSoC5/USBFS_1_episr.c ****         USBFS_1_EP_6_ISR_ExitCallback();
 507:.\Generated_Source\PSoC5/USBFS_1_episr.c ****     #endif /* (USBFS_1_EP_6_ISR_EXIT_CALLBACK) */
 508:.\Generated_Source\PSoC5/USBFS_1_episr.c **** 
 509:.\Generated_Source\PSoC5/USBFS_1_episr.c ****     #if (CY_PSOC3 && defined(USBFS_1_ENABLE_MIDI_STREAMING) && \
 510:.\Generated_Source\PSoC5/USBFS_1_episr.c ****         !defined(USBFS_1_MAIN_SERVICE_MIDI_OUT) && USBFS_1_ISR_SERVICE_MIDI_OUT)
 511:.\Generated_Source\PSoC5/USBFS_1_episr.c ****         
 512:.\Generated_Source\PSoC5/USBFS_1_episr.c ****             EA = intEn; /* Restore nested interrupt configuration. */
 513:.\Generated_Source\PSoC5/USBFS_1_episr.c ****         }
 514:.\Generated_Source\PSoC5/USBFS_1_episr.c ****     #endif /* (CY_PSOC3 && USBFS_1_ISR_SERVICE_MIDI_OUT) */
 515:.\Generated_Source\PSoC5/USBFS_1_episr.c ****     }
 516:.\Generated_Source\PSoC5/USBFS_1_episr.c **** #endif /* (USBFS_1_EP6_ISR_ACTIVE) */
 517:.\Generated_Source\PSoC5/USBFS_1_episr.c **** 
 518:.\Generated_Source\PSoC5/USBFS_1_episr.c **** 
 519:.\Generated_Source\PSoC5/USBFS_1_episr.c **** #if (USBFS_1_EP7_ISR_ACTIVE)
 520:.\Generated_Source\PSoC5/USBFS_1_episr.c ****     /*******************************************************************************
 521:.\Generated_Source\PSoC5/USBFS_1_episr.c ****     * Function Name: USBFS_1_EP_7_ISR
 522:.\Generated_Source\PSoC5/USBFS_1_episr.c ****     ****************************************************************************//**
 523:.\Generated_Source\PSoC5/USBFS_1_episr.c ****     *
 524:.\Generated_Source\PSoC5/USBFS_1_episr.c ****     *  Endpoint 7 Interrupt Service Routine.
 525:.\Generated_Source\PSoC5/USBFS_1_episr.c ****     *
 526:.\Generated_Source\PSoC5/USBFS_1_episr.c ****     *
 527:.\Generated_Source\PSoC5/USBFS_1_episr.c ****     *******************************************************************************/
 528:.\Generated_Source\PSoC5/USBFS_1_episr.c ****     CY_ISR(USBFS_1_EP_7_ISR)
 529:.\Generated_Source\PSoC5/USBFS_1_episr.c ****     {
 530:.\Generated_Source\PSoC5/USBFS_1_episr.c ****     #ifdef USBFS_1_EP_7_ISR_ENTRY_CALLBACK
 531:.\Generated_Source\PSoC5/USBFS_1_episr.c ****         USBFS_1_EP_7_ISR_EntryCallback();
 532:.\Generated_Source\PSoC5/USBFS_1_episr.c ****     #endif /* (USBFS_1_EP_7_ISR_ENTRY_CALLBACK) */
 533:.\Generated_Source\PSoC5/USBFS_1_episr.c **** 
 534:.\Generated_Source\PSoC5/USBFS_1_episr.c ****         /* `#START EP7_USER_CODE` Place your code here */
 535:.\Generated_Source\PSoC5/USBFS_1_episr.c **** 
 536:.\Generated_Source\PSoC5/USBFS_1_episr.c ****         /* `#END` */
 537:.\Generated_Source\PSoC5/USBFS_1_episr.c **** 
 538:.\Generated_Source\PSoC5/USBFS_1_episr.c ****     #if (CY_PSOC3 && defined(USBFS_1_ENABLE_MIDI_STREAMING) && \
 539:.\Generated_Source\PSoC5/USBFS_1_episr.c ****         !defined(USBFS_1_MAIN_SERVICE_MIDI_OUT) && USBFS_1_ISR_SERVICE_MIDI_OUT)
 540:.\Generated_Source\PSoC5/USBFS_1_episr.c ****         {
 541:.\Generated_Source\PSoC5/USBFS_1_episr.c ****             uint8 intEn = EA;
 542:.\Generated_Source\PSoC5/USBFS_1_episr.c ****             CyGlobalIntEnable;  /* Enable nested interrupts. */
 543:.\Generated_Source\PSoC5/USBFS_1_episr.c ****     #endif /* (CY_PSOC3 && USBFS_1_ISR_SERVICE_MIDI_OUT) */
 544:.\Generated_Source\PSoC5/USBFS_1_episr.c ****     
 545:.\Generated_Source\PSoC5/USBFS_1_episr.c ****         USBFS_1_ClearSieEpInterruptSource(USBFS_1_SIE_INT_EP7_INTR);
 546:.\Generated_Source\PSoC5/USBFS_1_episr.c ****         
 547:.\Generated_Source\PSoC5/USBFS_1_episr.c ****         /* Notifies user that transfer IN or OUT transfer is completed.
 548:.\Generated_Source\PSoC5/USBFS_1_episr.c ****         * IN endpoint: endpoint buffer can be reloaded, Host is read data.
 549:.\Generated_Source\PSoC5/USBFS_1_episr.c ****         * OUT endpoint: data is ready to read from endpoint buffer. 
 550:.\Generated_Source\PSoC5/USBFS_1_episr.c ****         */
 551:.\Generated_Source\PSoC5/USBFS_1_episr.c ****     #if (CY_PSOC4 && USBFS_1_EP_MANAGEMENT_DMA_AUTO)
 552:.\Generated_Source\PSoC5/USBFS_1_episr.c ****         if (0u != (USBFS_1_EP[USBFS_1_EP7].addr & USBFS_1_DIR_IN))
 553:.\Generated_Source\PSoC5/USBFS_1_episr.c ****     #endif /* (USBFS_1_EP_MANAGEMENT_DMA_AUTO) */
 554:.\Generated_Source\PSoC5/USBFS_1_episr.c ****         {           
ARM GAS  C:\Users\LUKASC~1\AppData\Local\Temp\cccWiuOE.s 			page 12


 555:.\Generated_Source\PSoC5/USBFS_1_episr.c ****             /* Read CR0 register to clear SIE lock. */
 556:.\Generated_Source\PSoC5/USBFS_1_episr.c ****             (void) USBFS_1_SIE_EP_BASE.sieEp[USBFS_1_EP7].epCr0;
 557:.\Generated_Source\PSoC5/USBFS_1_episr.c **** 
 558:.\Generated_Source\PSoC5/USBFS_1_episr.c ****             /* Toggle all endpoint types except ISOC. */
 559:.\Generated_Source\PSoC5/USBFS_1_episr.c ****             if (USBFS_1_GET_EP_TYPE(USBFS_1_EP7) != USBFS_1_EP_TYPE_ISOC)
 560:.\Generated_Source\PSoC5/USBFS_1_episr.c ****             {
 561:.\Generated_Source\PSoC5/USBFS_1_episr.c ****                 USBFS_1_EP[USBFS_1_EP7].epToggle ^= USBFS_1_EPX_CNT_DATA_TOGGLE;
 562:.\Generated_Source\PSoC5/USBFS_1_episr.c ****             }
 563:.\Generated_Source\PSoC5/USBFS_1_episr.c ****             
 564:.\Generated_Source\PSoC5/USBFS_1_episr.c ****             /* EP_MANAGEMENT_DMA_AUTO (Ticket ID# 214187): For OUT endpoint this event is used to n
 565:.\Generated_Source\PSoC5/USBFS_1_episr.c ****             * user that DMA has completed copying data from OUT endpoint which is not completely tr
 566:.\Generated_Source\PSoC5/USBFS_1_episr.c ****             * Because last chunk of data is being copied.
 567:.\Generated_Source\PSoC5/USBFS_1_episr.c ****             * For CY_PSOC 3/5LP: it is acceptable as DMA is really fast.
 568:.\Generated_Source\PSoC5/USBFS_1_episr.c ****             * For CY_PSOC4: this event is set in Arbiter interrupt (source is DMA_TERMIN).
 569:.\Generated_Source\PSoC5/USBFS_1_episr.c ****             */
 570:.\Generated_Source\PSoC5/USBFS_1_episr.c ****             USBFS_1_EP[USBFS_1_EP7].apiEpState = USBFS_1_EVENT_PENDING;
 571:.\Generated_Source\PSoC5/USBFS_1_episr.c ****         }
 572:.\Generated_Source\PSoC5/USBFS_1_episr.c **** 
 573:.\Generated_Source\PSoC5/USBFS_1_episr.c **** 
 574:.\Generated_Source\PSoC5/USBFS_1_episr.c ****     #if (!(CY_PSOC4 && USBFS_1_EP_MANAGEMENT_DMA_AUTO))
 575:.\Generated_Source\PSoC5/USBFS_1_episr.c ****         #if (defined(USBFS_1_ENABLE_MIDI_STREAMING) && \
 576:.\Generated_Source\PSoC5/USBFS_1_episr.c ****             !defined(USBFS_1_MAIN_SERVICE_MIDI_OUT) && USBFS_1_ISR_SERVICE_MIDI_OUT)
 577:.\Generated_Source\PSoC5/USBFS_1_episr.c ****             if(USBFS_1_midi_out_ep == USBFS_1_EP7)
 578:.\Generated_Source\PSoC5/USBFS_1_episr.c ****             {
 579:.\Generated_Source\PSoC5/USBFS_1_episr.c ****                 USBFS_1_MIDI_OUT_Service();
 580:.\Generated_Source\PSoC5/USBFS_1_episr.c ****             }
 581:.\Generated_Source\PSoC5/USBFS_1_episr.c ****         #endif /* (USBFS_1_ISR_SERVICE_MIDI_OUT) */
 582:.\Generated_Source\PSoC5/USBFS_1_episr.c ****     #endif /* (!(CY_PSOC4 && USBFS_1_EP_MANAGEMENT_DMA_AUTO)) */
 583:.\Generated_Source\PSoC5/USBFS_1_episr.c **** 
 584:.\Generated_Source\PSoC5/USBFS_1_episr.c ****         /* `#START EP7_END_USER_CODE` Place your code here */
 585:.\Generated_Source\PSoC5/USBFS_1_episr.c **** 
 586:.\Generated_Source\PSoC5/USBFS_1_episr.c ****         /* `#END` */
 587:.\Generated_Source\PSoC5/USBFS_1_episr.c **** 
 588:.\Generated_Source\PSoC5/USBFS_1_episr.c ****     #ifdef USBFS_1_EP_7_ISR_EXIT_CALLBACK
 589:.\Generated_Source\PSoC5/USBFS_1_episr.c ****         USBFS_1_EP_7_ISR_ExitCallback();
 590:.\Generated_Source\PSoC5/USBFS_1_episr.c ****     #endif /* (USBFS_1_EP_7_ISR_EXIT_CALLBACK) */
 591:.\Generated_Source\PSoC5/USBFS_1_episr.c **** 
 592:.\Generated_Source\PSoC5/USBFS_1_episr.c ****     #if (CY_PSOC3 && defined(USBFS_1_ENABLE_MIDI_STREAMING) && \
 593:.\Generated_Source\PSoC5/USBFS_1_episr.c ****         !defined(USBFS_1_MAIN_SERVICE_MIDI_OUT) && USBFS_1_ISR_SERVICE_MIDI_OUT)
 594:.\Generated_Source\PSoC5/USBFS_1_episr.c ****         
 595:.\Generated_Source\PSoC5/USBFS_1_episr.c ****             EA = intEn; /* Restore nested interrupt configuration. */
 596:.\Generated_Source\PSoC5/USBFS_1_episr.c ****         }
 597:.\Generated_Source\PSoC5/USBFS_1_episr.c ****     #endif /* (CY_PSOC3 && USBFS_1_ISR_SERVICE_MIDI_OUT) */
 598:.\Generated_Source\PSoC5/USBFS_1_episr.c ****     }
 599:.\Generated_Source\PSoC5/USBFS_1_episr.c **** #endif /* (USBFS_1_EP7_ISR_ACTIVE) */
 600:.\Generated_Source\PSoC5/USBFS_1_episr.c **** 
 601:.\Generated_Source\PSoC5/USBFS_1_episr.c **** 
 602:.\Generated_Source\PSoC5/USBFS_1_episr.c **** #if (USBFS_1_EP8_ISR_ACTIVE)
 603:.\Generated_Source\PSoC5/USBFS_1_episr.c ****     /*******************************************************************************
 604:.\Generated_Source\PSoC5/USBFS_1_episr.c ****     * Function Name: USBFS_1_EP_8_ISR
 605:.\Generated_Source\PSoC5/USBFS_1_episr.c ****     ****************************************************************************//**
 606:.\Generated_Source\PSoC5/USBFS_1_episr.c ****     *
 607:.\Generated_Source\PSoC5/USBFS_1_episr.c ****     *  Endpoint 8 Interrupt Service Routine
 608:.\Generated_Source\PSoC5/USBFS_1_episr.c ****     *
 609:.\Generated_Source\PSoC5/USBFS_1_episr.c ****     *
 610:.\Generated_Source\PSoC5/USBFS_1_episr.c ****     *******************************************************************************/
 611:.\Generated_Source\PSoC5/USBFS_1_episr.c ****     CY_ISR(USBFS_1_EP_8_ISR)
ARM GAS  C:\Users\LUKASC~1\AppData\Local\Temp\cccWiuOE.s 			page 13


 612:.\Generated_Source\PSoC5/USBFS_1_episr.c ****     {
 613:.\Generated_Source\PSoC5/USBFS_1_episr.c ****     #ifdef USBFS_1_EP_8_ISR_ENTRY_CALLBACK
 614:.\Generated_Source\PSoC5/USBFS_1_episr.c ****         USBFS_1_EP_8_ISR_EntryCallback();
 615:.\Generated_Source\PSoC5/USBFS_1_episr.c ****     #endif /* (USBFS_1_EP_8_ISR_ENTRY_CALLBACK) */
 616:.\Generated_Source\PSoC5/USBFS_1_episr.c **** 
 617:.\Generated_Source\PSoC5/USBFS_1_episr.c ****         /* `#START EP8_USER_CODE` Place your code here */
 618:.\Generated_Source\PSoC5/USBFS_1_episr.c **** 
 619:.\Generated_Source\PSoC5/USBFS_1_episr.c ****         /* `#END` */
 620:.\Generated_Source\PSoC5/USBFS_1_episr.c **** 
 621:.\Generated_Source\PSoC5/USBFS_1_episr.c ****     #if (CY_PSOC3 && defined(USBFS_1_ENABLE_MIDI_STREAMING) && \
 622:.\Generated_Source\PSoC5/USBFS_1_episr.c ****         !defined(USBFS_1_MAIN_SERVICE_MIDI_OUT) && USBFS_1_ISR_SERVICE_MIDI_OUT)
 623:.\Generated_Source\PSoC5/USBFS_1_episr.c ****         {
 624:.\Generated_Source\PSoC5/USBFS_1_episr.c ****             uint8 intEn = EA;
 625:.\Generated_Source\PSoC5/USBFS_1_episr.c ****             CyGlobalIntEnable;  /* Enable nested interrupts. */
 626:.\Generated_Source\PSoC5/USBFS_1_episr.c ****     #endif /* (CY_PSOC3 && USBFS_1_ISR_SERVICE_MIDI_OUT) */
 627:.\Generated_Source\PSoC5/USBFS_1_episr.c **** 
 628:.\Generated_Source\PSoC5/USBFS_1_episr.c ****         USBFS_1_ClearSieEpInterruptSource(USBFS_1_SIE_INT_EP8_INTR);
 629:.\Generated_Source\PSoC5/USBFS_1_episr.c ****         
 630:.\Generated_Source\PSoC5/USBFS_1_episr.c ****         /* Notifies user that transfer IN or OUT transfer is completed.
 631:.\Generated_Source\PSoC5/USBFS_1_episr.c ****         * IN endpoint: endpoint buffer can be reloaded, Host is read data.
 632:.\Generated_Source\PSoC5/USBFS_1_episr.c ****         * OUT endpoint: data is ready to read from endpoint buffer. 
 633:.\Generated_Source\PSoC5/USBFS_1_episr.c ****         */
 634:.\Generated_Source\PSoC5/USBFS_1_episr.c ****     #if (CY_PSOC4 && USBFS_1_EP_MANAGEMENT_DMA_AUTO)
 635:.\Generated_Source\PSoC5/USBFS_1_episr.c ****         if (0u != (USBFS_1_EP[USBFS_1_EP8].addr & USBFS_1_DIR_IN))
 636:.\Generated_Source\PSoC5/USBFS_1_episr.c ****     #endif /* (USBFS_1_EP_MANAGEMENT_DMA_AUTO) */
 637:.\Generated_Source\PSoC5/USBFS_1_episr.c ****         {
 638:.\Generated_Source\PSoC5/USBFS_1_episr.c ****             /* Read CR0 register to clear SIE lock. */
 639:.\Generated_Source\PSoC5/USBFS_1_episr.c ****             (void) USBFS_1_SIE_EP_BASE.sieEp[USBFS_1_EP8].epCr0;
 640:.\Generated_Source\PSoC5/USBFS_1_episr.c **** 
 641:.\Generated_Source\PSoC5/USBFS_1_episr.c ****             /* Toggle all endpoint types except ISOC. */
 642:.\Generated_Source\PSoC5/USBFS_1_episr.c ****             if (USBFS_1_GET_EP_TYPE(USBFS_1_EP8) != USBFS_1_EP_TYPE_ISOC)
 643:.\Generated_Source\PSoC5/USBFS_1_episr.c ****             {
 644:.\Generated_Source\PSoC5/USBFS_1_episr.c ****                 USBFS_1_EP[USBFS_1_EP8].epToggle ^= USBFS_1_EPX_CNT_DATA_TOGGLE;
 645:.\Generated_Source\PSoC5/USBFS_1_episr.c ****             }
 646:.\Generated_Source\PSoC5/USBFS_1_episr.c **** 
 647:.\Generated_Source\PSoC5/USBFS_1_episr.c ****             /* EP_MANAGEMENT_DMA_AUTO (Ticket ID# 214187): For OUT endpoint this event is used to n
 648:.\Generated_Source\PSoC5/USBFS_1_episr.c ****             * user that DMA has completed copying data from OUT endpoint which is not completely tr
 649:.\Generated_Source\PSoC5/USBFS_1_episr.c ****             * Because last chunk of data is being copied.
 650:.\Generated_Source\PSoC5/USBFS_1_episr.c ****             * For CY_PSOC 3/5LP: it is acceptable as DMA is really fast.
 651:.\Generated_Source\PSoC5/USBFS_1_episr.c ****             * For CY_PSOC4: this event is set in Arbiter interrupt (source is DMA_TERMIN).
 652:.\Generated_Source\PSoC5/USBFS_1_episr.c ****             */
 653:.\Generated_Source\PSoC5/USBFS_1_episr.c ****             USBFS_1_EP[USBFS_1_EP8].apiEpState = USBFS_1_EVENT_PENDING;
 654:.\Generated_Source\PSoC5/USBFS_1_episr.c ****         }
 655:.\Generated_Source\PSoC5/USBFS_1_episr.c **** 
 656:.\Generated_Source\PSoC5/USBFS_1_episr.c ****     #if (!(CY_PSOC4 && USBFS_1_EP_MANAGEMENT_DMA_AUTO))
 657:.\Generated_Source\PSoC5/USBFS_1_episr.c ****         #if (defined(USBFS_1_ENABLE_MIDI_STREAMING) && \
 658:.\Generated_Source\PSoC5/USBFS_1_episr.c ****             !defined(USBFS_1_MAIN_SERVICE_MIDI_OUT) && USBFS_1_ISR_SERVICE_MIDI_OUT)
 659:.\Generated_Source\PSoC5/USBFS_1_episr.c ****             if (USBFS_1_midi_out_ep == USBFS_1_EP8)
 660:.\Generated_Source\PSoC5/USBFS_1_episr.c ****             {
 661:.\Generated_Source\PSoC5/USBFS_1_episr.c ****                 USBFS_1_MIDI_OUT_Service();
 662:.\Generated_Source\PSoC5/USBFS_1_episr.c ****             }
 663:.\Generated_Source\PSoC5/USBFS_1_episr.c ****         #endif /* (USBFS_1_ISR_SERVICE_MIDI_OUT) */
 664:.\Generated_Source\PSoC5/USBFS_1_episr.c ****     #endif /* (!(CY_PSOC4 && USBFS_1_EP_MANAGEMENT_DMA_AUTO)) */
 665:.\Generated_Source\PSoC5/USBFS_1_episr.c **** 
 666:.\Generated_Source\PSoC5/USBFS_1_episr.c ****         /* `#START EP8_END_USER_CODE` Place your code here */
 667:.\Generated_Source\PSoC5/USBFS_1_episr.c **** 
 668:.\Generated_Source\PSoC5/USBFS_1_episr.c ****         /* `#END` */
ARM GAS  C:\Users\LUKASC~1\AppData\Local\Temp\cccWiuOE.s 			page 14


 669:.\Generated_Source\PSoC5/USBFS_1_episr.c **** 
 670:.\Generated_Source\PSoC5/USBFS_1_episr.c ****     #ifdef USBFS_1_EP_8_ISR_EXIT_CALLBACK
 671:.\Generated_Source\PSoC5/USBFS_1_episr.c ****         USBFS_1_EP_8_ISR_ExitCallback();
 672:.\Generated_Source\PSoC5/USBFS_1_episr.c ****     #endif /* (USBFS_1_EP_8_ISR_EXIT_CALLBACK) */
 673:.\Generated_Source\PSoC5/USBFS_1_episr.c **** 
 674:.\Generated_Source\PSoC5/USBFS_1_episr.c ****     #if (CY_PSOC3 && defined(USBFS_1_ENABLE_MIDI_STREAMING) && \
 675:.\Generated_Source\PSoC5/USBFS_1_episr.c ****         !defined(USBFS_1_MAIN_SERVICE_MIDI_OUT) && USBFS_1_ISR_SERVICE_MIDI_OUT)
 676:.\Generated_Source\PSoC5/USBFS_1_episr.c ****         
 677:.\Generated_Source\PSoC5/USBFS_1_episr.c ****             EA = intEn; /* Restore nested interrupt configuration. */
 678:.\Generated_Source\PSoC5/USBFS_1_episr.c ****         }
 679:.\Generated_Source\PSoC5/USBFS_1_episr.c ****     #endif /* (CY_PSOC3 && USBFS_1_ISR_SERVICE_MIDI_OUT) */
 680:.\Generated_Source\PSoC5/USBFS_1_episr.c ****     }
 681:.\Generated_Source\PSoC5/USBFS_1_episr.c **** #endif /* (USBFS_1_EP8_ISR_ACTIVE) */
 682:.\Generated_Source\PSoC5/USBFS_1_episr.c **** 
 683:.\Generated_Source\PSoC5/USBFS_1_episr.c **** 
 684:.\Generated_Source\PSoC5/USBFS_1_episr.c **** #if (USBFS_1_SOF_ISR_ACTIVE)
 685:.\Generated_Source\PSoC5/USBFS_1_episr.c ****     /*******************************************************************************
 686:.\Generated_Source\PSoC5/USBFS_1_episr.c ****     * Function Name: USBFS_1_SOF_ISR
 687:.\Generated_Source\PSoC5/USBFS_1_episr.c ****     ****************************************************************************//**
 688:.\Generated_Source\PSoC5/USBFS_1_episr.c ****     *
 689:.\Generated_Source\PSoC5/USBFS_1_episr.c ****     *  Start of Frame Interrupt Service Routine.
 690:.\Generated_Source\PSoC5/USBFS_1_episr.c ****     *
 691:.\Generated_Source\PSoC5/USBFS_1_episr.c ****     *
 692:.\Generated_Source\PSoC5/USBFS_1_episr.c ****     *******************************************************************************/
 693:.\Generated_Source\PSoC5/USBFS_1_episr.c ****     CY_ISR(USBFS_1_SOF_ISR)
 694:.\Generated_Source\PSoC5/USBFS_1_episr.c ****     {
 695:.\Generated_Source\PSoC5/USBFS_1_episr.c ****     #ifdef USBFS_1_SOF_ISR_ENTRY_CALLBACK
 696:.\Generated_Source\PSoC5/USBFS_1_episr.c ****         USBFS_1_SOF_ISR_EntryCallback();
 697:.\Generated_Source\PSoC5/USBFS_1_episr.c ****     #endif /* (USBFS_1_SOF_ISR_ENTRY_CALLBACK) */
 698:.\Generated_Source\PSoC5/USBFS_1_episr.c **** 
 699:.\Generated_Source\PSoC5/USBFS_1_episr.c ****         /* `#START SOF_USER_CODE` Place your code here */
 700:.\Generated_Source\PSoC5/USBFS_1_episr.c **** 
 701:.\Generated_Source\PSoC5/USBFS_1_episr.c ****         /* `#END` */
 702:.\Generated_Source\PSoC5/USBFS_1_episr.c **** 
 703:.\Generated_Source\PSoC5/USBFS_1_episr.c ****         USBFS_1_ClearSieInterruptSource(USBFS_1_INTR_SIE_SOF_INTR);
 704:.\Generated_Source\PSoC5/USBFS_1_episr.c **** 
 705:.\Generated_Source\PSoC5/USBFS_1_episr.c ****     #ifdef USBFS_1_SOF_ISR_EXIT_CALLBACK
 706:.\Generated_Source\PSoC5/USBFS_1_episr.c ****         USBFS_1_SOF_ISR_ExitCallback();
 707:.\Generated_Source\PSoC5/USBFS_1_episr.c ****     #endif /* (USBFS_1_SOF_ISR_EXIT_CALLBACK) */
 708:.\Generated_Source\PSoC5/USBFS_1_episr.c ****     }
 709:.\Generated_Source\PSoC5/USBFS_1_episr.c **** #endif /* (USBFS_1_SOF_ISR_ACTIVE) */
 710:.\Generated_Source\PSoC5/USBFS_1_episr.c **** 
 711:.\Generated_Source\PSoC5/USBFS_1_episr.c **** 
 712:.\Generated_Source\PSoC5/USBFS_1_episr.c **** #if (USBFS_1_BUS_RESET_ISR_ACTIVE)
 713:.\Generated_Source\PSoC5/USBFS_1_episr.c **** /*******************************************************************************
 714:.\Generated_Source\PSoC5/USBFS_1_episr.c **** * Function Name: USBFS_1_BUS_RESET_ISR
 715:.\Generated_Source\PSoC5/USBFS_1_episr.c **** ****************************************************************************//**
 716:.\Generated_Source\PSoC5/USBFS_1_episr.c **** *
 717:.\Generated_Source\PSoC5/USBFS_1_episr.c **** *  USB Bus Reset Interrupt Service Routine.  Calls _Start with the same
 718:.\Generated_Source\PSoC5/USBFS_1_episr.c **** *  parameters as the last USER call to _Start
 719:.\Generated_Source\PSoC5/USBFS_1_episr.c **** *
 720:.\Generated_Source\PSoC5/USBFS_1_episr.c **** *
 721:.\Generated_Source\PSoC5/USBFS_1_episr.c **** *******************************************************************************/
 722:.\Generated_Source\PSoC5/USBFS_1_episr.c **** CY_ISR(USBFS_1_BUS_RESET_ISR)
 723:.\Generated_Source\PSoC5/USBFS_1_episr.c **** {
  74              		.loc 1 723 0
  75              		.cfi_startproc
ARM GAS  C:\Users\LUKASC~1\AppData\Local\Temp\cccWiuOE.s 			page 15


  76              		@ args = 0, pretend = 0, frame = 0
  77              		@ frame_needed = 0, uses_anonymous_args = 0
  78 0000 08B5     		push	{r3, lr}
  79              		.cfi_def_cfa_offset 8
  80              		.cfi_offset 3, -8
  81              		.cfi_offset 14, -4
 724:.\Generated_Source\PSoC5/USBFS_1_episr.c **** #ifdef USBFS_1_BUS_RESET_ISR_ENTRY_CALLBACK
 725:.\Generated_Source\PSoC5/USBFS_1_episr.c ****     USBFS_1_BUS_RESET_ISR_EntryCallback();
 726:.\Generated_Source\PSoC5/USBFS_1_episr.c **** #endif /* (USBFS_1_BUS_RESET_ISR_ENTRY_CALLBACK) */
 727:.\Generated_Source\PSoC5/USBFS_1_episr.c **** 
 728:.\Generated_Source\PSoC5/USBFS_1_episr.c ****     /* `#START BUS_RESET_USER_CODE` Place your code here */
 729:.\Generated_Source\PSoC5/USBFS_1_episr.c **** 
 730:.\Generated_Source\PSoC5/USBFS_1_episr.c ****     /* `#END` */
 731:.\Generated_Source\PSoC5/USBFS_1_episr.c **** 
 732:.\Generated_Source\PSoC5/USBFS_1_episr.c ****     USBFS_1_ClearSieInterruptSource(USBFS_1_INTR_SIE_BUS_RESET_INTR);
 733:.\Generated_Source\PSoC5/USBFS_1_episr.c **** 
 734:.\Generated_Source\PSoC5/USBFS_1_episr.c ****     USBFS_1_ReInitComponent();
  82              		.loc 1 734 0
  83 0002 FFF7FEFF 		bl	USBFS_1_ReInitComponent
  84              	.LVL0:
  85 0006 08BD     		pop	{r3, pc}
  86              		.cfi_endproc
  87              	.LFE1:
  88              		.size	USBFS_1_BUS_RESET_ISR, .-USBFS_1_BUS_RESET_ISR
  89              		.section	.text.USBFS_1_ARB_ISR,"ax",%progbits
  90              		.align	2
  91              		.global	USBFS_1_ARB_ISR
  92              		.thumb
  93              		.thumb_func
  94              		.type	USBFS_1_ARB_ISR, %function
  95              	USBFS_1_ARB_ISR:
  96              	.LFB2:
 735:.\Generated_Source\PSoC5/USBFS_1_episr.c **** 
 736:.\Generated_Source\PSoC5/USBFS_1_episr.c **** #ifdef USBFS_1_BUS_RESET_ISR_EXIT_CALLBACK
 737:.\Generated_Source\PSoC5/USBFS_1_episr.c ****     USBFS_1_BUS_RESET_ISR_ExitCallback();
 738:.\Generated_Source\PSoC5/USBFS_1_episr.c **** #endif /* (USBFS_1_BUS_RESET_ISR_EXIT_CALLBACK) */
 739:.\Generated_Source\PSoC5/USBFS_1_episr.c **** }
 740:.\Generated_Source\PSoC5/USBFS_1_episr.c **** #endif /* (USBFS_1_BUS_RESET_ISR_ACTIVE) */
 741:.\Generated_Source\PSoC5/USBFS_1_episr.c **** 
 742:.\Generated_Source\PSoC5/USBFS_1_episr.c **** 
 743:.\Generated_Source\PSoC5/USBFS_1_episr.c **** #if (USBFS_1_LPM_ACTIVE)
 744:.\Generated_Source\PSoC5/USBFS_1_episr.c **** /***************************************************************************
 745:.\Generated_Source\PSoC5/USBFS_1_episr.c **** * Function Name: USBFS_1_INTR_LPM_ISR
 746:.\Generated_Source\PSoC5/USBFS_1_episr.c **** ************************************************************************//**
 747:.\Generated_Source\PSoC5/USBFS_1_episr.c **** *
 748:.\Generated_Source\PSoC5/USBFS_1_episr.c **** *   Interrupt Service Routine for LPM of the interrupt sources.
 749:.\Generated_Source\PSoC5/USBFS_1_episr.c **** *
 750:.\Generated_Source\PSoC5/USBFS_1_episr.c **** *
 751:.\Generated_Source\PSoC5/USBFS_1_episr.c **** ***************************************************************************/
 752:.\Generated_Source\PSoC5/USBFS_1_episr.c **** CY_ISR(USBFS_1_LPM_ISR)
 753:.\Generated_Source\PSoC5/USBFS_1_episr.c **** {
 754:.\Generated_Source\PSoC5/USBFS_1_episr.c **** #ifdef USBFS_1_LPM_ISR_ENTRY_CALLBACK
 755:.\Generated_Source\PSoC5/USBFS_1_episr.c ****     USBFS_1_LPM_ISR_EntryCallback();
 756:.\Generated_Source\PSoC5/USBFS_1_episr.c **** #endif /* (USBFS_1_LPM_ISR_ENTRY_CALLBACK) */
 757:.\Generated_Source\PSoC5/USBFS_1_episr.c **** 
 758:.\Generated_Source\PSoC5/USBFS_1_episr.c ****     /* `#START LPM_BEGIN_USER_CODE` Place your code here */
 759:.\Generated_Source\PSoC5/USBFS_1_episr.c **** 
ARM GAS  C:\Users\LUKASC~1\AppData\Local\Temp\cccWiuOE.s 			page 16


 760:.\Generated_Source\PSoC5/USBFS_1_episr.c ****     /* `#END` */
 761:.\Generated_Source\PSoC5/USBFS_1_episr.c **** 
 762:.\Generated_Source\PSoC5/USBFS_1_episr.c ****     USBFS_1_ClearSieInterruptSource(USBFS_1_INTR_SIE_LPM_INTR);
 763:.\Generated_Source\PSoC5/USBFS_1_episr.c **** 
 764:.\Generated_Source\PSoC5/USBFS_1_episr.c ****     /* `#START LPM_END_USER_CODE` Place your code here */
 765:.\Generated_Source\PSoC5/USBFS_1_episr.c **** 
 766:.\Generated_Source\PSoC5/USBFS_1_episr.c ****     /* `#END` */
 767:.\Generated_Source\PSoC5/USBFS_1_episr.c **** 
 768:.\Generated_Source\PSoC5/USBFS_1_episr.c **** #ifdef USBFS_1_LPM_ISR_EXIT_CALLBACK
 769:.\Generated_Source\PSoC5/USBFS_1_episr.c ****     USBFS_1_LPM_ISR_ExitCallback();
 770:.\Generated_Source\PSoC5/USBFS_1_episr.c **** #endif /* (USBFS_1_LPM_ISR_EXIT_CALLBACK) */
 771:.\Generated_Source\PSoC5/USBFS_1_episr.c **** }
 772:.\Generated_Source\PSoC5/USBFS_1_episr.c **** #endif /* (USBFS_1_LPM_ACTIVE) */
 773:.\Generated_Source\PSoC5/USBFS_1_episr.c **** 
 774:.\Generated_Source\PSoC5/USBFS_1_episr.c **** 
 775:.\Generated_Source\PSoC5/USBFS_1_episr.c **** #if (USBFS_1_EP_MANAGEMENT_DMA && USBFS_1_ARB_ISR_ACTIVE)
 776:.\Generated_Source\PSoC5/USBFS_1_episr.c ****     /***************************************************************************
 777:.\Generated_Source\PSoC5/USBFS_1_episr.c ****     * Function Name: USBFS_1_ARB_ISR
 778:.\Generated_Source\PSoC5/USBFS_1_episr.c ****     ************************************************************************//**
 779:.\Generated_Source\PSoC5/USBFS_1_episr.c ****     *
 780:.\Generated_Source\PSoC5/USBFS_1_episr.c ****     *  Arbiter Interrupt Service Routine.
 781:.\Generated_Source\PSoC5/USBFS_1_episr.c ****     *
 782:.\Generated_Source\PSoC5/USBFS_1_episr.c ****     *
 783:.\Generated_Source\PSoC5/USBFS_1_episr.c ****     ***************************************************************************/
 784:.\Generated_Source\PSoC5/USBFS_1_episr.c ****     CY_ISR(USBFS_1_ARB_ISR)
 785:.\Generated_Source\PSoC5/USBFS_1_episr.c ****     {
  97              		.loc 1 785 0
  98              		.cfi_startproc
  99              		@ args = 0, pretend = 0, frame = 0
 100              		@ frame_needed = 0, uses_anonymous_args = 0
 101 0000 F8B5     		push	{r3, r4, r5, r6, r7, lr}
 102              		.cfi_def_cfa_offset 24
 103              		.cfi_offset 3, -24
 104              		.cfi_offset 4, -20
 105              		.cfi_offset 5, -16
 106              		.cfi_offset 6, -12
 107              		.cfi_offset 7, -8
 108              		.cfi_offset 14, -4
 109              	.LVL1:
 786:.\Generated_Source\PSoC5/USBFS_1_episr.c ****         uint8 arbIntrStatus;
 787:.\Generated_Source\PSoC5/USBFS_1_episr.c ****         uint8 epStatus;
 788:.\Generated_Source\PSoC5/USBFS_1_episr.c ****         uint8 ep = USBFS_1_EP1;
 789:.\Generated_Source\PSoC5/USBFS_1_episr.c **** 
 790:.\Generated_Source\PSoC5/USBFS_1_episr.c ****     #ifdef USBFS_1_ARB_ISR_ENTRY_CALLBACK
 791:.\Generated_Source\PSoC5/USBFS_1_episr.c ****         USBFS_1_ARB_ISR_EntryCallback();
 792:.\Generated_Source\PSoC5/USBFS_1_episr.c ****     #endif /* (USBFS_1_ARB_ISR_ENTRY_CALLBACK) */
 793:.\Generated_Source\PSoC5/USBFS_1_episr.c **** 
 794:.\Generated_Source\PSoC5/USBFS_1_episr.c ****         /* `#START ARB_BEGIN_USER_CODE` Place your code here */
 795:.\Generated_Source\PSoC5/USBFS_1_episr.c **** 
 796:.\Generated_Source\PSoC5/USBFS_1_episr.c ****         /* `#END` */
 797:.\Generated_Source\PSoC5/USBFS_1_episr.c **** 
 798:.\Generated_Source\PSoC5/USBFS_1_episr.c ****         /* Get pending ARB interrupt sources. */
 799:.\Generated_Source\PSoC5/USBFS_1_episr.c ****         arbIntrStatus = USBFS_1_ARB_INT_SR_REG;
 110              		.loc 1 799 0
 111 0002 214B     		ldr	r3, .L15
 112 0004 1F78     		ldrb	r7, [r3]	@ zero_extendqisi2
 113 0006 FFB2     		uxtb	r7, r7
ARM GAS  C:\Users\LUKASC~1\AppData\Local\Temp\cccWiuOE.s 			page 17


 114              	.LVL2:
 788:.\Generated_Source\PSoC5/USBFS_1_episr.c **** 
 115              		.loc 1 788 0
 116 0008 0124     		movs	r4, #1
 800:.\Generated_Source\PSoC5/USBFS_1_episr.c **** 
 801:.\Generated_Source\PSoC5/USBFS_1_episr.c ****         while (0u != arbIntrStatus)
 117              		.loc 1 801 0
 118 000a 39E0     		b	.L8
 119              	.LVL3:
 120              	.L13:
 802:.\Generated_Source\PSoC5/USBFS_1_episr.c ****         {
 803:.\Generated_Source\PSoC5/USBFS_1_episr.c ****             /* Check which EP is interrupt source. */
 804:.\Generated_Source\PSoC5/USBFS_1_episr.c ****             if (0u != (arbIntrStatus & 0x01u))
 121              		.loc 1 804 0
 122 000c 17F0010F 		tst	r7, #1
 123 0010 33D0     		beq	.L9
 805:.\Generated_Source\PSoC5/USBFS_1_episr.c ****             {
 806:.\Generated_Source\PSoC5/USBFS_1_episr.c ****                 /* Get endpoint enable interrupt sources. */
 807:.\Generated_Source\PSoC5/USBFS_1_episr.c ****                 epStatus = (USBFS_1_ARB_EP_BASE.arbEp[ep].epSr & USBFS_1_ARB_EP_BASE.arbEp[ep].epIn
 124              		.loc 1 807 0
 125 0012 2646     		mov	r6, r4
 126 0014 2201     		lsls	r2, r4, #4
 127 0016 1D4B     		ldr	r3, .L15+4
 128 0018 1344     		add	r3, r3, r2
 129 001a 9A78     		ldrb	r2, [r3, #2]	@ zero_extendqisi2
 130 001c 5D78     		ldrb	r5, [r3, #1]	@ zero_extendqisi2
 131 001e 1540     		ands	r5, r5, r2
 132              	.LVL4:
 808:.\Generated_Source\PSoC5/USBFS_1_episr.c **** 
 809:.\Generated_Source\PSoC5/USBFS_1_episr.c ****                 /* Handle IN endpoint buffer full event: happens only once when endpoint buffer is 
 810:.\Generated_Source\PSoC5/USBFS_1_episr.c ****                 if (0u != (epStatus & USBFS_1_ARB_EPX_INT_IN_BUF_FULL))
 133              		.loc 1 810 0
 134 0020 15F0010F 		tst	r5, #1
 135 0024 26D0     		beq	.L10
 811:.\Generated_Source\PSoC5/USBFS_1_episr.c ****                 {
 812:.\Generated_Source\PSoC5/USBFS_1_episr.c ****                     if (0u != (USBFS_1_EP[ep].addr & USBFS_1_DIR_IN))
 136              		.loc 1 812 0
 137 0026 04EB4403 		add	r3, r4, r4, lsl #1
 138 002a 9B00     		lsls	r3, r3, #2
 139 002c 184A     		ldr	r2, .L15+8
 140 002e 1344     		add	r3, r3, r2
 141 0030 1B79     		ldrb	r3, [r3, #4]	@ zero_extendqisi2
 142 0032 13F0800F 		tst	r3, #128
 143 0036 1DD0     		beq	.L10
 813:.\Generated_Source\PSoC5/USBFS_1_episr.c ****                     {
 814:.\Generated_Source\PSoC5/USBFS_1_episr.c ****                         /* Clear data ready status. */
 815:.\Generated_Source\PSoC5/USBFS_1_episr.c ****                         USBFS_1_ARB_EP_BASE.arbEp[ep].epCfg &= (uint8) ~USBFS_1_ARB_EPX_CFG_IN_DATA
 144              		.loc 1 815 0
 145 0038 1449     		ldr	r1, .L15+4
 146 003a 2201     		lsls	r2, r4, #4
 147 003c 8B5C     		ldrb	r3, [r1, r2]	@ zero_extendqisi2
 148 003e 03F0FE03 		and	r3, r3, #254
 149 0042 8B54     		strb	r3, [r1, r2]
 816:.\Generated_Source\PSoC5/USBFS_1_episr.c **** 
 817:.\Generated_Source\PSoC5/USBFS_1_episr.c ****                     #if (CY_PSOC3 || CY_PSOC5LP)
 818:.\Generated_Source\PSoC5/USBFS_1_episr.c ****                         #if (USBFS_1_EP_MANAGEMENT_DMA_AUTO && (USBFS_1_EP_DMA_AUTO_OPT == 0u))
 819:.\Generated_Source\PSoC5/USBFS_1_episr.c ****                             /* Set up common area DMA with rest of data. */
ARM GAS  C:\Users\LUKASC~1\AppData\Local\Temp\cccWiuOE.s 			page 18


 820:.\Generated_Source\PSoC5/USBFS_1_episr.c ****                             if(USBFS_1_inLength[ep] > USBFS_1_DMA_BYTES_PER_BURST)
 150              		.loc 1 820 0
 151 0044 134B     		ldr	r3, .L15+12
 152 0046 33F81430 		ldrh	r3, [r3, r4, lsl #1]
 153 004a 9BB2     		uxth	r3, r3
 154 004c 202B     		cmp	r3, #32
 155 004e 04D9     		bls	.L11
 821:.\Generated_Source\PSoC5/USBFS_1_episr.c ****                             {
 822:.\Generated_Source\PSoC5/USBFS_1_episr.c ****                                 USBFS_1_LoadNextInEP(ep, 0u);
 156              		.loc 1 822 0
 157 0050 2046     		mov	r0, r4
 158 0052 0021     		movs	r1, #0
 159 0054 FFF7FEFF 		bl	USBFS_1_LoadNextInEP
 160              	.LVL5:
 161 0058 02E0     		b	.L12
 162              	.L11:
 823:.\Generated_Source\PSoC5/USBFS_1_episr.c ****                             }
 824:.\Generated_Source\PSoC5/USBFS_1_episr.c ****                             else
 825:.\Generated_Source\PSoC5/USBFS_1_episr.c ****                             {
 826:.\Generated_Source\PSoC5/USBFS_1_episr.c ****                                 USBFS_1_inBufFull[ep] = 1u;
 163              		.loc 1 826 0
 164 005a 0122     		movs	r2, #1
 165 005c 0E4B     		ldr	r3, .L15+16
 166 005e 1A55     		strb	r2, [r3, r4]
 167              	.L12:
 827:.\Generated_Source\PSoC5/USBFS_1_episr.c ****                             }
 828:.\Generated_Source\PSoC5/USBFS_1_episr.c ****                         #endif /* (USBFS_1_EP_MANAGEMENT_DMA_AUTO && (USBFS_1_EP_DMA_AUTO_OPT == 0u
 829:.\Generated_Source\PSoC5/USBFS_1_episr.c ****                     #endif /* (CY_PSOC3 || CY_PSOC5LP) */
 830:.\Generated_Source\PSoC5/USBFS_1_episr.c **** 
 831:.\Generated_Source\PSoC5/USBFS_1_episr.c ****                         /* Arm IN endpoint. */
 832:.\Generated_Source\PSoC5/USBFS_1_episr.c ****                         USBFS_1_SIE_EP_BASE.sieEp[ep].epCr0 = USBFS_1_EP[ep].epMode;
 168              		.loc 1 832 0
 169 0060 06EB4603 		add	r3, r6, r6, lsl #1
 170 0064 9B00     		lsls	r3, r3, #2
 171 0066 0A4A     		ldr	r2, .L15+8
 172 0068 1344     		add	r3, r3, r2
 173 006a 5A79     		ldrb	r2, [r3, #5]	@ zero_extendqisi2
 174 006c D2B2     		uxtb	r2, r2
 175 006e 3101     		lsls	r1, r6, #4
 176 0070 0A4B     		ldr	r3, .L15+20
 177 0072 5A54     		strb	r2, [r3, r1]
 178              	.L10:
 833:.\Generated_Source\PSoC5/USBFS_1_episr.c **** 
 834:.\Generated_Source\PSoC5/USBFS_1_episr.c ****                     #if (defined(USBFS_1_ENABLE_MIDI_STREAMING) && USBFS_1_ISR_SERVICE_MIDI_IN)
 835:.\Generated_Source\PSoC5/USBFS_1_episr.c ****                         if (ep == USBFS_1_midi_in_ep)
 836:.\Generated_Source\PSoC5/USBFS_1_episr.c ****                         {
 837:.\Generated_Source\PSoC5/USBFS_1_episr.c ****                             /* Clear MIDI input pointer. */
 838:.\Generated_Source\PSoC5/USBFS_1_episr.c ****                             USBFS_1_midiInPointer = 0u;
 839:.\Generated_Source\PSoC5/USBFS_1_episr.c ****                         }
 840:.\Generated_Source\PSoC5/USBFS_1_episr.c ****                     #endif /* (USBFS_1_ENABLE_MIDI_STREAMING) */
 841:.\Generated_Source\PSoC5/USBFS_1_episr.c ****                     }
 842:.\Generated_Source\PSoC5/USBFS_1_episr.c ****                 }
 843:.\Generated_Source\PSoC5/USBFS_1_episr.c **** 
 844:.\Generated_Source\PSoC5/USBFS_1_episr.c ****             #if (USBFS_1_EP_MANAGEMENT_DMA_MANUAL)
 845:.\Generated_Source\PSoC5/USBFS_1_episr.c ****                 /* Handle DMA completion event for OUT endpoints. */
 846:.\Generated_Source\PSoC5/USBFS_1_episr.c ****                 if (0u != (epStatus & USBFS_1_ARB_EPX_SR_DMA_GNT))
 847:.\Generated_Source\PSoC5/USBFS_1_episr.c ****                 {
ARM GAS  C:\Users\LUKASC~1\AppData\Local\Temp\cccWiuOE.s 			page 19


 848:.\Generated_Source\PSoC5/USBFS_1_episr.c ****                     if (0u == (USBFS_1_EP[ep].addr & USBFS_1_DIR_IN))
 849:.\Generated_Source\PSoC5/USBFS_1_episr.c ****                     {
 850:.\Generated_Source\PSoC5/USBFS_1_episr.c ****                         /* Notify user that data has been copied from endpoint buffer. */
 851:.\Generated_Source\PSoC5/USBFS_1_episr.c ****                         USBFS_1_EP[ep].apiEpState = USBFS_1_NO_EVENT_PENDING;
 852:.\Generated_Source\PSoC5/USBFS_1_episr.c **** 
 853:.\Generated_Source\PSoC5/USBFS_1_episr.c ****                         /* DMA done coping data: OUT endpoint has to be re-armed by user. */
 854:.\Generated_Source\PSoC5/USBFS_1_episr.c ****                     }
 855:.\Generated_Source\PSoC5/USBFS_1_episr.c ****                 }
 856:.\Generated_Source\PSoC5/USBFS_1_episr.c ****             #endif /* (USBFS_1_EP_MANAGEMENT_DMA_MANUAL) */
 857:.\Generated_Source\PSoC5/USBFS_1_episr.c **** 
 858:.\Generated_Source\PSoC5/USBFS_1_episr.c ****             #if (CY_PSOC4 && USBFS_1_EP_MANAGEMENT_DMA_AUTO)
 859:.\Generated_Source\PSoC5/USBFS_1_episr.c ****                 /* Handle DMA completion event for OUT endpoints. */
 860:.\Generated_Source\PSoC5/USBFS_1_episr.c ****                 if (0u != (epStatus & USBFS_1_ARB_EPX_INT_DMA_TERMIN))
 861:.\Generated_Source\PSoC5/USBFS_1_episr.c ****                 {
 862:.\Generated_Source\PSoC5/USBFS_1_episr.c ****                     uint32 channelNum = USBFS_1_DmaChan[ep];
 863:.\Generated_Source\PSoC5/USBFS_1_episr.c **** 
 864:.\Generated_Source\PSoC5/USBFS_1_episr.c ****                     /* Restore burst counter for endpoint. */
 865:.\Generated_Source\PSoC5/USBFS_1_episr.c ****                     USBFS_1_DmaEpBurstCnt[ep] = USBFS_1_DmaEpBurstCntBackup[ep];
 866:.\Generated_Source\PSoC5/USBFS_1_episr.c **** 
 867:.\Generated_Source\PSoC5/USBFS_1_episr.c ****                     /* Disable DMA channel to restore descriptor configuration. The on-going transf
 868:.\Generated_Source\PSoC5/USBFS_1_episr.c ****                     USBFS_1_CyDmaChDisable(channelNum);
 869:.\Generated_Source\PSoC5/USBFS_1_episr.c **** 
 870:.\Generated_Source\PSoC5/USBFS_1_episr.c ****                     /* Generate DMA tr_out signal to notify USB IP that DMA is done. This signal is
 871:.\Generated_Source\PSoC5/USBFS_1_episr.c ****                     * when transfer was aborted (it occurs when host writes less bytes than buffer 
 872:.\Generated_Source\PSoC5/USBFS_1_episr.c ****                     */
 873:.\Generated_Source\PSoC5/USBFS_1_episr.c ****                     USBFS_1_CyDmaTriggerOut(USBFS_1_DmaBurstEndOut[ep]);
 874:.\Generated_Source\PSoC5/USBFS_1_episr.c **** 
 875:.\Generated_Source\PSoC5/USBFS_1_episr.c ****                     /* Restore destination address for output endpoint. */
 876:.\Generated_Source\PSoC5/USBFS_1_episr.c ****                     USBFS_1_CyDmaSetDstAddress(channelNum, USBFS_1_DMA_DESCR0, (void*) ((uint32) US
 877:.\Generated_Source\PSoC5/USBFS_1_episr.c ****                     USBFS_1_CyDmaSetDstAddress(channelNum, USBFS_1_DMA_DESCR1, (void*) ((uint32) US
 878:.\Generated_Source\PSoC5/USBFS_1_episr.c ****                                                                                                    
 879:.\Generated_Source\PSoC5/USBFS_1_episr.c **** 
 880:.\Generated_Source\PSoC5/USBFS_1_episr.c ****                     /* Restore number of data elements to transfer which was adjusted for last burs
 881:.\Generated_Source\PSoC5/USBFS_1_episr.c ****                     if (0u != (USBFS_1_DmaEpLastBurstEl[ep] & USBFS_1_DMA_DESCR_REVERT))
 882:.\Generated_Source\PSoC5/USBFS_1_episr.c ****                     {
 883:.\Generated_Source\PSoC5/USBFS_1_episr.c ****                         USBFS_1_CyDmaSetNumDataElements(channelNum, (USBFS_1_DmaEpLastBurstEl[ep] >
 884:.\Generated_Source\PSoC5/USBFS_1_episr.c ****                                                                              USBFS_1_DMA_GET_MAX_EL
 885:.\Generated_Source\PSoC5/USBFS_1_episr.c ****                     }
 886:.\Generated_Source\PSoC5/USBFS_1_episr.c **** 
 887:.\Generated_Source\PSoC5/USBFS_1_episr.c ****                     /* Validate descriptor 0 and 1 (also reset current state). Command to start wit
 888:.\Generated_Source\PSoC5/USBFS_1_episr.c ****                     USBFS_1_CyDmaValidateDescriptor(channelNum, USBFS_1_DMA_DESCR0);
 889:.\Generated_Source\PSoC5/USBFS_1_episr.c ****                     USBFS_1_CyDmaValidateDescriptor(channelNum, USBFS_1_DMA_DESCR1);
 890:.\Generated_Source\PSoC5/USBFS_1_episr.c ****                     USBFS_1_CyDmaSetDescriptor0Next(channelNum);
 891:.\Generated_Source\PSoC5/USBFS_1_episr.c **** 
 892:.\Generated_Source\PSoC5/USBFS_1_episr.c ****                     /* Enable DMA channel: configuration complete. */
 893:.\Generated_Source\PSoC5/USBFS_1_episr.c ****                     USBFS_1_CyDmaChEnable(channelNum);
 894:.\Generated_Source\PSoC5/USBFS_1_episr.c ****                     
 895:.\Generated_Source\PSoC5/USBFS_1_episr.c ****                     
 896:.\Generated_Source\PSoC5/USBFS_1_episr.c ****                     /* Read CR0 register to clear SIE lock. */
 897:.\Generated_Source\PSoC5/USBFS_1_episr.c ****                     (void) USBFS_1_SIE_EP_BASE.sieEp[ep].epCr0;
 898:.\Generated_Source\PSoC5/USBFS_1_episr.c ****                     
 899:.\Generated_Source\PSoC5/USBFS_1_episr.c ****                     /* Toggle all endpoint types except ISOC. */
 900:.\Generated_Source\PSoC5/USBFS_1_episr.c ****                     if (USBFS_1_GET_EP_TYPE(ep) != USBFS_1_EP_TYPE_ISOC)
 901:.\Generated_Source\PSoC5/USBFS_1_episr.c ****                     {
 902:.\Generated_Source\PSoC5/USBFS_1_episr.c ****                         USBFS_1_EP[ep].epToggle ^= USBFS_1_EPX_CNT_DATA_TOGGLE;
 903:.\Generated_Source\PSoC5/USBFS_1_episr.c ****                     }
 904:.\Generated_Source\PSoC5/USBFS_1_episr.c ****             
ARM GAS  C:\Users\LUKASC~1\AppData\Local\Temp\cccWiuOE.s 			page 20


 905:.\Generated_Source\PSoC5/USBFS_1_episr.c ****                     /* Notify user that data has been copied from endpoint buffer. */
 906:.\Generated_Source\PSoC5/USBFS_1_episr.c ****                     USBFS_1_EP[ep].apiEpState = USBFS_1_EVENT_PENDING;
 907:.\Generated_Source\PSoC5/USBFS_1_episr.c ****                     
 908:.\Generated_Source\PSoC5/USBFS_1_episr.c ****                 #if (defined(USBFS_1_ENABLE_MIDI_STREAMING) && \
 909:.\Generated_Source\PSoC5/USBFS_1_episr.c ****                     !defined(USBFS_1_MAIN_SERVICE_MIDI_OUT) && USBFS_1_ISR_SERVICE_MIDI_OUT)
 910:.\Generated_Source\PSoC5/USBFS_1_episr.c ****                     if (USBFS_1_midi_out_ep == ep)
 911:.\Generated_Source\PSoC5/USBFS_1_episr.c ****                     {
 912:.\Generated_Source\PSoC5/USBFS_1_episr.c ****                         USBFS_1_MIDI_OUT_Service();
 913:.\Generated_Source\PSoC5/USBFS_1_episr.c ****                     }
 914:.\Generated_Source\PSoC5/USBFS_1_episr.c ****                 #endif /* (USBFS_1_ISR_SERVICE_MIDI_OUT) */
 915:.\Generated_Source\PSoC5/USBFS_1_episr.c ****                 }
 916:.\Generated_Source\PSoC5/USBFS_1_episr.c ****             #endif /* (CY_PSOC4 && USBFS_1_EP_MANAGEMENT_DMA_AUTO) */
 917:.\Generated_Source\PSoC5/USBFS_1_episr.c **** 
 918:.\Generated_Source\PSoC5/USBFS_1_episr.c **** 
 919:.\Generated_Source\PSoC5/USBFS_1_episr.c ****                 /* `#START ARB_USER_CODE` Place your code here for handle Buffer Underflow/Overflow
 920:.\Generated_Source\PSoC5/USBFS_1_episr.c **** 
 921:.\Generated_Source\PSoC5/USBFS_1_episr.c ****                 /* `#END` */
 922:.\Generated_Source\PSoC5/USBFS_1_episr.c **** 
 923:.\Generated_Source\PSoC5/USBFS_1_episr.c ****             #ifdef USBFS_1_ARB_ISR_CALLBACK
 924:.\Generated_Source\PSoC5/USBFS_1_episr.c ****                 USBFS_1_ARB_ISR_Callback(ep, epStatus);
 925:.\Generated_Source\PSoC5/USBFS_1_episr.c ****             #endif /* (USBFS_1_ARB_ISR_CALLBACK) */
 926:.\Generated_Source\PSoC5/USBFS_1_episr.c **** 
 927:.\Generated_Source\PSoC5/USBFS_1_episr.c ****                 /* Clear serviced endpoint interrupt sources. */
 928:.\Generated_Source\PSoC5/USBFS_1_episr.c ****                 USBFS_1_ARB_EP_BASE.arbEp[ep].epSr = epStatus;
 179              		.loc 1 928 0
 180 0074 3601     		lsls	r6, r6, #4
 181 0076 0A4B     		ldr	r3, .L15+24
 182 0078 9D55     		strb	r5, [r3, r6]
 183              	.LVL6:
 184              	.L9:
 929:.\Generated_Source\PSoC5/USBFS_1_episr.c ****             }
 930:.\Generated_Source\PSoC5/USBFS_1_episr.c **** 
 931:.\Generated_Source\PSoC5/USBFS_1_episr.c ****             ++ep;
 185              		.loc 1 931 0
 186 007a 0134     		adds	r4, r4, #1
 187              	.LVL7:
 188 007c E4B2     		uxtb	r4, r4
 189              	.LVL8:
 932:.\Generated_Source\PSoC5/USBFS_1_episr.c ****             arbIntrStatus >>= 1u;
 190              		.loc 1 932 0
 191 007e 7F08     		lsrs	r7, r7, #1
 192              	.LVL9:
 193              	.L8:
 801:.\Generated_Source\PSoC5/USBFS_1_episr.c ****         {
 194              		.loc 1 801 0
 195 0080 002F     		cmp	r7, #0
 196 0082 C3D1     		bne	.L13
 933:.\Generated_Source\PSoC5/USBFS_1_episr.c ****         }
 934:.\Generated_Source\PSoC5/USBFS_1_episr.c **** 
 935:.\Generated_Source\PSoC5/USBFS_1_episr.c ****         /* `#START ARB_END_USER_CODE` Place your code here */
 936:.\Generated_Source\PSoC5/USBFS_1_episr.c **** 
 937:.\Generated_Source\PSoC5/USBFS_1_episr.c ****         /* `#END` */
 938:.\Generated_Source\PSoC5/USBFS_1_episr.c **** 
 939:.\Generated_Source\PSoC5/USBFS_1_episr.c ****     #ifdef USBFS_1_ARB_ISR_EXIT_CALLBACK
 940:.\Generated_Source\PSoC5/USBFS_1_episr.c ****         USBFS_1_ARB_ISR_ExitCallback();
 941:.\Generated_Source\PSoC5/USBFS_1_episr.c ****     #endif /* (USBFS_1_ARB_ISR_EXIT_CALLBACK) */
 942:.\Generated_Source\PSoC5/USBFS_1_episr.c ****     }
ARM GAS  C:\Users\LUKASC~1\AppData\Local\Temp\cccWiuOE.s 			page 21


 197              		.loc 1 942 0
 198 0084 F8BD     		pop	{r3, r4, r5, r6, r7, pc}
 199              	.LVL10:
 200              	.L16:
 201 0086 00BF     		.align	2
 202              	.L15:
 203 0088 9F600040 		.word	1073766559
 204 008c 70600040 		.word	1073766512
 205 0090 00000000 		.word	USBFS_1_EP
 206 0094 00000000 		.word	USBFS_1_inLength
 207 0098 00000000 		.word	USBFS_1_inBufFull
 208 009c FE5F0040 		.word	1073766398
 209 00a0 72600040 		.word	1073766514
 210              		.cfi_endproc
 211              	.LFE2:
 212              		.size	USBFS_1_ARB_ISR, .-USBFS_1_ARB_ISR
 213              		.section	.text.USBFS_1_EP_DMA_DONE_ISR,"ax",%progbits
 214              		.align	2
 215              		.global	USBFS_1_EP_DMA_DONE_ISR
 216              		.thumb
 217              		.thumb_func
 218              		.type	USBFS_1_EP_DMA_DONE_ISR, %function
 219              	USBFS_1_EP_DMA_DONE_ISR:
 220              	.LFB3:
 943:.\Generated_Source\PSoC5/USBFS_1_episr.c **** 
 944:.\Generated_Source\PSoC5/USBFS_1_episr.c **** #endif /*  (USBFS_1_ARB_ISR_ACTIVE && USBFS_1_EP_MANAGEMENT_DMA) */
 945:.\Generated_Source\PSoC5/USBFS_1_episr.c **** 
 946:.\Generated_Source\PSoC5/USBFS_1_episr.c **** 
 947:.\Generated_Source\PSoC5/USBFS_1_episr.c **** #if (USBFS_1_EP_MANAGEMENT_DMA_AUTO)
 948:.\Generated_Source\PSoC5/USBFS_1_episr.c **** #if (CY_PSOC4)
 949:.\Generated_Source\PSoC5/USBFS_1_episr.c ****     #if (USBFS_1_DMA1_ACTIVE)
 950:.\Generated_Source\PSoC5/USBFS_1_episr.c ****         /******************************************************************************
 951:.\Generated_Source\PSoC5/USBFS_1_episr.c ****         * Function Name: USBFS_1_EP1_DMA_DONE_ISR
 952:.\Generated_Source\PSoC5/USBFS_1_episr.c ****         ***************************************************************************//**
 953:.\Generated_Source\PSoC5/USBFS_1_episr.c ****         *
 954:.\Generated_Source\PSoC5/USBFS_1_episr.c ****         *  Endpoint 1 DMA Done Interrupt Service Routine.
 955:.\Generated_Source\PSoC5/USBFS_1_episr.c ****         *
 956:.\Generated_Source\PSoC5/USBFS_1_episr.c ****         *
 957:.\Generated_Source\PSoC5/USBFS_1_episr.c ****         ******************************************************************************/
 958:.\Generated_Source\PSoC5/USBFS_1_episr.c ****         void USBFS_1_EP1_DMA_DONE_ISR(void)
 959:.\Generated_Source\PSoC5/USBFS_1_episr.c ****         {
 960:.\Generated_Source\PSoC5/USBFS_1_episr.c ****             uint32 nextAddr;
 961:.\Generated_Source\PSoC5/USBFS_1_episr.c **** 
 962:.\Generated_Source\PSoC5/USBFS_1_episr.c ****             /* Manage data elements which remain to transfer. */
 963:.\Generated_Source\PSoC5/USBFS_1_episr.c ****             if (0u != USBFS_1_DmaEpBurstCnt[USBFS_1_EP1])
 964:.\Generated_Source\PSoC5/USBFS_1_episr.c ****             {
 965:.\Generated_Source\PSoC5/USBFS_1_episr.c ****                 /* Decrement burst counter. */
 966:.\Generated_Source\PSoC5/USBFS_1_episr.c ****                 --USBFS_1_DmaEpBurstCnt[USBFS_1_EP1];
 967:.\Generated_Source\PSoC5/USBFS_1_episr.c ****             }
 968:.\Generated_Source\PSoC5/USBFS_1_episr.c ****             else
 969:.\Generated_Source\PSoC5/USBFS_1_episr.c ****             {
 970:.\Generated_Source\PSoC5/USBFS_1_episr.c ****                 /* Adjust length of last burst. */
 971:.\Generated_Source\PSoC5/USBFS_1_episr.c ****                 USBFS_1_CyDmaSetNumDataElements(USBFS_1_EP1_DMA_CH,
 972:.\Generated_Source\PSoC5/USBFS_1_episr.c ****                                                         ((uint32) USBFS_1_DmaEpLastBurstEl[USBFS_1_
 973:.\Generated_Source\PSoC5/USBFS_1_episr.c ****                                                         ((uint32) USBFS_1_DmaEpLastBurstEl[USBFS_1_
 974:.\Generated_Source\PSoC5/USBFS_1_episr.c ****             }
 975:.\Generated_Source\PSoC5/USBFS_1_episr.c **** 
ARM GAS  C:\Users\LUKASC~1\AppData\Local\Temp\cccWiuOE.s 			page 22


 976:.\Generated_Source\PSoC5/USBFS_1_episr.c ****             /* Advance source for input endpoint or destination for output endpoint. */
 977:.\Generated_Source\PSoC5/USBFS_1_episr.c ****             if (0u != (USBFS_1_EP[USBFS_1_EP1].addr & USBFS_1_DIR_IN))
 978:.\Generated_Source\PSoC5/USBFS_1_episr.c ****             {
 979:.\Generated_Source\PSoC5/USBFS_1_episr.c ****                 /* Change source for descriptor 0. */
 980:.\Generated_Source\PSoC5/USBFS_1_episr.c ****                 nextAddr = (uint32) USBFS_1_CyDmaGetSrcAddress(USBFS_1_EP1_DMA_CH, USBFS_1_DMA_DESC
 981:.\Generated_Source\PSoC5/USBFS_1_episr.c ****                 nextAddr += (2u * USBFS_1_DMA_BYTES_PER_BURST);
 982:.\Generated_Source\PSoC5/USBFS_1_episr.c ****                 USBFS_1_CyDmaSetSrcAddress(USBFS_1_EP1_DMA_CH, USBFS_1_DMA_DESCR0, (void *) nextAdd
 983:.\Generated_Source\PSoC5/USBFS_1_episr.c **** 
 984:.\Generated_Source\PSoC5/USBFS_1_episr.c ****                 /* Change source for descriptor 1. */
 985:.\Generated_Source\PSoC5/USBFS_1_episr.c ****                 nextAddr += USBFS_1_DMA_BYTES_PER_BURST;
 986:.\Generated_Source\PSoC5/USBFS_1_episr.c ****                 USBFS_1_CyDmaSetSrcAddress(USBFS_1_EP1_DMA_CH, USBFS_1_DMA_DESCR1, (void *) nextAdd
 987:.\Generated_Source\PSoC5/USBFS_1_episr.c ****             }
 988:.\Generated_Source\PSoC5/USBFS_1_episr.c ****             else
 989:.\Generated_Source\PSoC5/USBFS_1_episr.c ****             {
 990:.\Generated_Source\PSoC5/USBFS_1_episr.c ****                 /* Change destination for descriptor 0. */
 991:.\Generated_Source\PSoC5/USBFS_1_episr.c ****                 nextAddr  = (uint32) USBFS_1_CyDmaGetDstAddress(USBFS_1_EP1_DMA_CH, USBFS_1_DMA_DES
 992:.\Generated_Source\PSoC5/USBFS_1_episr.c ****                 nextAddr += (2u * USBFS_1_DMA_BYTES_PER_BURST);
 993:.\Generated_Source\PSoC5/USBFS_1_episr.c ****                 USBFS_1_CyDmaSetDstAddress(USBFS_1_EP1_DMA_CH, USBFS_1_DMA_DESCR0, (void *) nextAdd
 994:.\Generated_Source\PSoC5/USBFS_1_episr.c **** 
 995:.\Generated_Source\PSoC5/USBFS_1_episr.c ****                 /* Change destination for descriptor 1. */
 996:.\Generated_Source\PSoC5/USBFS_1_episr.c ****                 nextAddr += USBFS_1_DMA_BYTES_PER_BURST;
 997:.\Generated_Source\PSoC5/USBFS_1_episr.c ****                 USBFS_1_CyDmaSetDstAddress(USBFS_1_EP1_DMA_CH, USBFS_1_DMA_DESCR1, (void *) nextAdd
 998:.\Generated_Source\PSoC5/USBFS_1_episr.c ****             }
 999:.\Generated_Source\PSoC5/USBFS_1_episr.c **** 
1000:.\Generated_Source\PSoC5/USBFS_1_episr.c ****             /* Enable DMA to execute transfer as it was disabled because there were no valid descri
1001:.\Generated_Source\PSoC5/USBFS_1_episr.c ****             USBFS_1_CyDmaValidateDescriptor(USBFS_1_EP1_DMA_CH, USBFS_1_DMA_DESCR0);
1002:.\Generated_Source\PSoC5/USBFS_1_episr.c ****             USBFS_1_CyDmaChEnable (USBFS_1_EP1_DMA_CH);
1003:.\Generated_Source\PSoC5/USBFS_1_episr.c ****             USBFS_1_CyDmaTriggerIn(USBFS_1_DmaReqOut[USBFS_1_EP1]);
1004:.\Generated_Source\PSoC5/USBFS_1_episr.c ****         }
1005:.\Generated_Source\PSoC5/USBFS_1_episr.c ****     #endif /* (USBFS_1_DMA1_ACTIVE) */
1006:.\Generated_Source\PSoC5/USBFS_1_episr.c **** 
1007:.\Generated_Source\PSoC5/USBFS_1_episr.c **** 
1008:.\Generated_Source\PSoC5/USBFS_1_episr.c ****     #if (USBFS_1_DMA2_ACTIVE)
1009:.\Generated_Source\PSoC5/USBFS_1_episr.c ****         /******************************************************************************
1010:.\Generated_Source\PSoC5/USBFS_1_episr.c ****         * Function Name: USBFS_1_EP2_DMA_DONE_ISR
1011:.\Generated_Source\PSoC5/USBFS_1_episr.c ****         ***************************************************************************//**
1012:.\Generated_Source\PSoC5/USBFS_1_episr.c ****         *
1013:.\Generated_Source\PSoC5/USBFS_1_episr.c ****         *  Endpoint 2 DMA Done Interrupt Service Routine.
1014:.\Generated_Source\PSoC5/USBFS_1_episr.c ****         *
1015:.\Generated_Source\PSoC5/USBFS_1_episr.c ****         *
1016:.\Generated_Source\PSoC5/USBFS_1_episr.c ****         ******************************************************************************/
1017:.\Generated_Source\PSoC5/USBFS_1_episr.c ****         void USBFS_1_EP2_DMA_DONE_ISR(void)
1018:.\Generated_Source\PSoC5/USBFS_1_episr.c ****         {
1019:.\Generated_Source\PSoC5/USBFS_1_episr.c ****             uint32 nextAddr;
1020:.\Generated_Source\PSoC5/USBFS_1_episr.c **** 
1021:.\Generated_Source\PSoC5/USBFS_1_episr.c ****             /* Manage data elements which remain to transfer. */
1022:.\Generated_Source\PSoC5/USBFS_1_episr.c ****             if (0u != USBFS_1_DmaEpBurstCnt[USBFS_1_EP2])
1023:.\Generated_Source\PSoC5/USBFS_1_episr.c ****             {
1024:.\Generated_Source\PSoC5/USBFS_1_episr.c ****                 /* Decrement burst counter. */
1025:.\Generated_Source\PSoC5/USBFS_1_episr.c ****                 --USBFS_1_DmaEpBurstCnt[USBFS_1_EP2];
1026:.\Generated_Source\PSoC5/USBFS_1_episr.c ****             }
1027:.\Generated_Source\PSoC5/USBFS_1_episr.c ****             else
1028:.\Generated_Source\PSoC5/USBFS_1_episr.c ****             {
1029:.\Generated_Source\PSoC5/USBFS_1_episr.c ****                 /* Adjust length of last burst. */
1030:.\Generated_Source\PSoC5/USBFS_1_episr.c ****                 USBFS_1_CyDmaSetNumDataElements(USBFS_1_EP2_DMA_CH,
1031:.\Generated_Source\PSoC5/USBFS_1_episr.c ****                                                         ((uint32) USBFS_1_DmaEpLastBurstEl[USBFS_1_
1032:.\Generated_Source\PSoC5/USBFS_1_episr.c ****                                                         ((uint32) USBFS_1_DmaEpLastBurstEl[USBFS_1_
ARM GAS  C:\Users\LUKASC~1\AppData\Local\Temp\cccWiuOE.s 			page 23


1033:.\Generated_Source\PSoC5/USBFS_1_episr.c ****             }
1034:.\Generated_Source\PSoC5/USBFS_1_episr.c **** 
1035:.\Generated_Source\PSoC5/USBFS_1_episr.c ****             /* Advance source for input endpoint or destination for output endpoint. */
1036:.\Generated_Source\PSoC5/USBFS_1_episr.c ****             if (0u != (USBFS_1_EP[USBFS_1_EP2].addr & USBFS_1_DIR_IN))
1037:.\Generated_Source\PSoC5/USBFS_1_episr.c ****             {
1038:.\Generated_Source\PSoC5/USBFS_1_episr.c ****                 /* Change source for descriptor 0. */
1039:.\Generated_Source\PSoC5/USBFS_1_episr.c ****                 nextAddr = (uint32) USBFS_1_CyDmaGetSrcAddress(USBFS_1_EP2_DMA_CH, USBFS_1_DMA_DESC
1040:.\Generated_Source\PSoC5/USBFS_1_episr.c ****                 nextAddr += (2u * USBFS_1_DMA_BYTES_PER_BURST);
1041:.\Generated_Source\PSoC5/USBFS_1_episr.c ****                 USBFS_1_CyDmaSetSrcAddress(USBFS_1_EP2_DMA_CH, USBFS_1_DMA_DESCR0, (void *) nextAdd
1042:.\Generated_Source\PSoC5/USBFS_1_episr.c **** 
1043:.\Generated_Source\PSoC5/USBFS_1_episr.c ****                 /* Change source for descriptor 1. */
1044:.\Generated_Source\PSoC5/USBFS_1_episr.c ****                 nextAddr += USBFS_1_DMA_BYTES_PER_BURST;
1045:.\Generated_Source\PSoC5/USBFS_1_episr.c ****                 USBFS_1_CyDmaSetSrcAddress(USBFS_1_EP2_DMA_CH, USBFS_1_DMA_DESCR1, (void *) nextAdd
1046:.\Generated_Source\PSoC5/USBFS_1_episr.c ****             }
1047:.\Generated_Source\PSoC5/USBFS_1_episr.c ****             else
1048:.\Generated_Source\PSoC5/USBFS_1_episr.c ****             {
1049:.\Generated_Source\PSoC5/USBFS_1_episr.c ****                 /* Change destination for descriptor 0. */
1050:.\Generated_Source\PSoC5/USBFS_1_episr.c ****                 nextAddr  = (uint32) USBFS_1_CyDmaGetDstAddress(USBFS_1_EP2_DMA_CH, USBFS_1_DMA_DES
1051:.\Generated_Source\PSoC5/USBFS_1_episr.c ****                 nextAddr += (2u * USBFS_1_DMA_BYTES_PER_BURST);
1052:.\Generated_Source\PSoC5/USBFS_1_episr.c ****                 USBFS_1_CyDmaSetDstAddress(USBFS_1_EP2_DMA_CH, USBFS_1_DMA_DESCR0, (void *) nextAdd
1053:.\Generated_Source\PSoC5/USBFS_1_episr.c **** 
1054:.\Generated_Source\PSoC5/USBFS_1_episr.c ****                 /* Change destination for descriptor 1. */
1055:.\Generated_Source\PSoC5/USBFS_1_episr.c ****                 nextAddr += USBFS_1_DMA_BYTES_PER_BURST;
1056:.\Generated_Source\PSoC5/USBFS_1_episr.c ****                 USBFS_1_CyDmaSetDstAddress(USBFS_1_EP2_DMA_CH, USBFS_1_DMA_DESCR1, (void *) nextAdd
1057:.\Generated_Source\PSoC5/USBFS_1_episr.c ****             }
1058:.\Generated_Source\PSoC5/USBFS_1_episr.c **** 
1059:.\Generated_Source\PSoC5/USBFS_1_episr.c ****             /* Enable DMA to execute transfer as it was disabled because there were no valid descri
1060:.\Generated_Source\PSoC5/USBFS_1_episr.c ****             USBFS_1_CyDmaValidateDescriptor(USBFS_1_EP2_DMA_CH, USBFS_1_DMA_DESCR0);
1061:.\Generated_Source\PSoC5/USBFS_1_episr.c ****             USBFS_1_CyDmaChEnable (USBFS_1_EP2_DMA_CH);
1062:.\Generated_Source\PSoC5/USBFS_1_episr.c ****             USBFS_1_CyDmaTriggerIn(USBFS_1_DmaReqOut[USBFS_1_EP2]);
1063:.\Generated_Source\PSoC5/USBFS_1_episr.c ****         }
1064:.\Generated_Source\PSoC5/USBFS_1_episr.c ****     #endif /* (USBFS_1_DMA2_ACTIVE) */
1065:.\Generated_Source\PSoC5/USBFS_1_episr.c **** 
1066:.\Generated_Source\PSoC5/USBFS_1_episr.c **** 
1067:.\Generated_Source\PSoC5/USBFS_1_episr.c ****     #if (USBFS_1_DMA3_ACTIVE)
1068:.\Generated_Source\PSoC5/USBFS_1_episr.c ****         /******************************************************************************
1069:.\Generated_Source\PSoC5/USBFS_1_episr.c ****         * Function Name: USBFS_1_EP3_DMA_DONE_ISR
1070:.\Generated_Source\PSoC5/USBFS_1_episr.c ****         ***************************************************************************//**
1071:.\Generated_Source\PSoC5/USBFS_1_episr.c ****         *
1072:.\Generated_Source\PSoC5/USBFS_1_episr.c ****         *  Endpoint 3 DMA Done Interrupt Service Routine.
1073:.\Generated_Source\PSoC5/USBFS_1_episr.c ****         *
1074:.\Generated_Source\PSoC5/USBFS_1_episr.c ****         *
1075:.\Generated_Source\PSoC5/USBFS_1_episr.c ****         ******************************************************************************/
1076:.\Generated_Source\PSoC5/USBFS_1_episr.c ****         void USBFS_1_EP3_DMA_DONE_ISR(void)
1077:.\Generated_Source\PSoC5/USBFS_1_episr.c ****         {
1078:.\Generated_Source\PSoC5/USBFS_1_episr.c ****             uint32 nextAddr;
1079:.\Generated_Source\PSoC5/USBFS_1_episr.c **** 
1080:.\Generated_Source\PSoC5/USBFS_1_episr.c ****             /* Manage data elements which remain to transfer. */
1081:.\Generated_Source\PSoC5/USBFS_1_episr.c ****             if (0u != USBFS_1_DmaEpBurstCnt[USBFS_1_EP3])
1082:.\Generated_Source\PSoC5/USBFS_1_episr.c ****             {
1083:.\Generated_Source\PSoC5/USBFS_1_episr.c ****                 /* Decrement burst counter. */
1084:.\Generated_Source\PSoC5/USBFS_1_episr.c ****                 --USBFS_1_DmaEpBurstCnt[USBFS_1_EP3];
1085:.\Generated_Source\PSoC5/USBFS_1_episr.c ****             }
1086:.\Generated_Source\PSoC5/USBFS_1_episr.c ****             else
1087:.\Generated_Source\PSoC5/USBFS_1_episr.c ****             {
1088:.\Generated_Source\PSoC5/USBFS_1_episr.c ****                 /* Adjust length of last burst. */
1089:.\Generated_Source\PSoC5/USBFS_1_episr.c ****                 USBFS_1_CyDmaSetNumDataElements(USBFS_1_EP3_DMA_CH,
ARM GAS  C:\Users\LUKASC~1\AppData\Local\Temp\cccWiuOE.s 			page 24


1090:.\Generated_Source\PSoC5/USBFS_1_episr.c ****                                                         ((uint32) USBFS_1_DmaEpLastBurstEl[USBFS_1_
1091:.\Generated_Source\PSoC5/USBFS_1_episr.c ****                                                         ((uint32) USBFS_1_DmaEpLastBurstEl[USBFS_1_
1092:.\Generated_Source\PSoC5/USBFS_1_episr.c ****             }
1093:.\Generated_Source\PSoC5/USBFS_1_episr.c **** 
1094:.\Generated_Source\PSoC5/USBFS_1_episr.c ****             /* Advance source for input endpoint or destination for output endpoint. */
1095:.\Generated_Source\PSoC5/USBFS_1_episr.c ****             if (0u != (USBFS_1_EP[USBFS_1_EP3].addr & USBFS_1_DIR_IN))
1096:.\Generated_Source\PSoC5/USBFS_1_episr.c ****             {
1097:.\Generated_Source\PSoC5/USBFS_1_episr.c ****                 /* Change source for descriptor 0. */
1098:.\Generated_Source\PSoC5/USBFS_1_episr.c ****                 nextAddr = (uint32) USBFS_1_CyDmaGetSrcAddress(USBFS_1_EP3_DMA_CH, USBFS_1_DMA_DESC
1099:.\Generated_Source\PSoC5/USBFS_1_episr.c ****                 nextAddr += (2u * USBFS_1_DMA_BYTES_PER_BURST);
1100:.\Generated_Source\PSoC5/USBFS_1_episr.c ****                 USBFS_1_CyDmaSetSrcAddress(USBFS_1_EP3_DMA_CH, USBFS_1_DMA_DESCR0, (void *) nextAdd
1101:.\Generated_Source\PSoC5/USBFS_1_episr.c **** 
1102:.\Generated_Source\PSoC5/USBFS_1_episr.c ****                 /* Change source for descriptor 1. */
1103:.\Generated_Source\PSoC5/USBFS_1_episr.c ****                 nextAddr += USBFS_1_DMA_BYTES_PER_BURST;
1104:.\Generated_Source\PSoC5/USBFS_1_episr.c ****                 USBFS_1_CyDmaSetSrcAddress(USBFS_1_EP3_DMA_CH, USBFS_1_DMA_DESCR1, (void *) nextAdd
1105:.\Generated_Source\PSoC5/USBFS_1_episr.c ****             }
1106:.\Generated_Source\PSoC5/USBFS_1_episr.c ****             else
1107:.\Generated_Source\PSoC5/USBFS_1_episr.c ****             {
1108:.\Generated_Source\PSoC5/USBFS_1_episr.c ****                 /* Change destination for descriptor 0. */
1109:.\Generated_Source\PSoC5/USBFS_1_episr.c ****                 nextAddr  = (uint32) USBFS_1_CyDmaGetDstAddress(USBFS_1_EP3_DMA_CH, USBFS_1_DMA_DES
1110:.\Generated_Source\PSoC5/USBFS_1_episr.c ****                 nextAddr += (2u * USBFS_1_DMA_BYTES_PER_BURST);
1111:.\Generated_Source\PSoC5/USBFS_1_episr.c ****                 USBFS_1_CyDmaSetDstAddress(USBFS_1_EP3_DMA_CH, USBFS_1_DMA_DESCR0, (void *) nextAdd
1112:.\Generated_Source\PSoC5/USBFS_1_episr.c **** 
1113:.\Generated_Source\PSoC5/USBFS_1_episr.c ****                 /* Change destination for descriptor 1. */
1114:.\Generated_Source\PSoC5/USBFS_1_episr.c ****                 nextAddr += USBFS_1_DMA_BYTES_PER_BURST;
1115:.\Generated_Source\PSoC5/USBFS_1_episr.c ****                 USBFS_1_CyDmaSetDstAddress(USBFS_1_EP3_DMA_CH, USBFS_1_DMA_DESCR1, (void *) nextAdd
1116:.\Generated_Source\PSoC5/USBFS_1_episr.c ****             }
1117:.\Generated_Source\PSoC5/USBFS_1_episr.c **** 
1118:.\Generated_Source\PSoC5/USBFS_1_episr.c ****             /* Enable DMA to execute transfer as it was disabled because there were no valid descri
1119:.\Generated_Source\PSoC5/USBFS_1_episr.c ****             USBFS_1_CyDmaValidateDescriptor(USBFS_1_EP3_DMA_CH, USBFS_1_DMA_DESCR0);
1120:.\Generated_Source\PSoC5/USBFS_1_episr.c ****             USBFS_1_CyDmaChEnable (USBFS_1_EP3_DMA_CH);
1121:.\Generated_Source\PSoC5/USBFS_1_episr.c ****             USBFS_1_CyDmaTriggerIn(USBFS_1_DmaReqOut[USBFS_1_EP3]);
1122:.\Generated_Source\PSoC5/USBFS_1_episr.c ****         }
1123:.\Generated_Source\PSoC5/USBFS_1_episr.c ****     #endif /* (USBFS_1_DMA3_ACTIVE) */
1124:.\Generated_Source\PSoC5/USBFS_1_episr.c **** 
1125:.\Generated_Source\PSoC5/USBFS_1_episr.c **** 
1126:.\Generated_Source\PSoC5/USBFS_1_episr.c ****     #if (USBFS_1_DMA4_ACTIVE)
1127:.\Generated_Source\PSoC5/USBFS_1_episr.c ****         /******************************************************************************
1128:.\Generated_Source\PSoC5/USBFS_1_episr.c ****         * Function Name: USBFS_1_EP4_DMA_DONE_ISR
1129:.\Generated_Source\PSoC5/USBFS_1_episr.c ****         ***************************************************************************//**
1130:.\Generated_Source\PSoC5/USBFS_1_episr.c ****         *
1131:.\Generated_Source\PSoC5/USBFS_1_episr.c ****         *  Endpoint 4 DMA Done Interrupt Service Routine.
1132:.\Generated_Source\PSoC5/USBFS_1_episr.c ****         *
1133:.\Generated_Source\PSoC5/USBFS_1_episr.c ****         *
1134:.\Generated_Source\PSoC5/USBFS_1_episr.c ****         ******************************************************************************/
1135:.\Generated_Source\PSoC5/USBFS_1_episr.c ****         void USBFS_1_EP4_DMA_DONE_ISR(void)
1136:.\Generated_Source\PSoC5/USBFS_1_episr.c ****         {
1137:.\Generated_Source\PSoC5/USBFS_1_episr.c ****             uint32 nextAddr;
1138:.\Generated_Source\PSoC5/USBFS_1_episr.c **** 
1139:.\Generated_Source\PSoC5/USBFS_1_episr.c ****             /* Manage data elements which remain to transfer. */
1140:.\Generated_Source\PSoC5/USBFS_1_episr.c ****             if (0u != USBFS_1_DmaEpBurstCnt[USBFS_1_EP4])
1141:.\Generated_Source\PSoC5/USBFS_1_episr.c ****             {
1142:.\Generated_Source\PSoC5/USBFS_1_episr.c ****                 /* Decrement burst counter. */
1143:.\Generated_Source\PSoC5/USBFS_1_episr.c ****                 --USBFS_1_DmaEpBurstCnt[USBFS_1_EP4];
1144:.\Generated_Source\PSoC5/USBFS_1_episr.c ****             }
1145:.\Generated_Source\PSoC5/USBFS_1_episr.c ****             else
1146:.\Generated_Source\PSoC5/USBFS_1_episr.c ****             {
ARM GAS  C:\Users\LUKASC~1\AppData\Local\Temp\cccWiuOE.s 			page 25


1147:.\Generated_Source\PSoC5/USBFS_1_episr.c ****                 /* Adjust length of last burst. */
1148:.\Generated_Source\PSoC5/USBFS_1_episr.c ****                 USBFS_1_CyDmaSetNumDataElements(USBFS_1_EP4_DMA_CH,
1149:.\Generated_Source\PSoC5/USBFS_1_episr.c ****                                                         ((uint32) USBFS_1_DmaEpLastBurstEl[USBFS_1_
1150:.\Generated_Source\PSoC5/USBFS_1_episr.c ****                                                         ((uint32) USBFS_1_DmaEpLastBurstEl[USBFS_1_
1151:.\Generated_Source\PSoC5/USBFS_1_episr.c ****             }
1152:.\Generated_Source\PSoC5/USBFS_1_episr.c **** 
1153:.\Generated_Source\PSoC5/USBFS_1_episr.c ****             /* Advance source for input endpoint or destination for output endpoint. */
1154:.\Generated_Source\PSoC5/USBFS_1_episr.c ****             if (0u != (USBFS_1_EP[USBFS_1_EP4].addr & USBFS_1_DIR_IN))
1155:.\Generated_Source\PSoC5/USBFS_1_episr.c ****             {
1156:.\Generated_Source\PSoC5/USBFS_1_episr.c ****                 /* Change source for descriptor 0. */
1157:.\Generated_Source\PSoC5/USBFS_1_episr.c ****                 nextAddr = (uint32) USBFS_1_CyDmaGetSrcAddress(USBFS_1_EP4_DMA_CH, USBFS_1_DMA_DESC
1158:.\Generated_Source\PSoC5/USBFS_1_episr.c ****                 nextAddr += (2u * USBFS_1_DMA_BYTES_PER_BURST);
1159:.\Generated_Source\PSoC5/USBFS_1_episr.c ****                 USBFS_1_CyDmaSetSrcAddress(USBFS_1_EP4_DMA_CH, USBFS_1_DMA_DESCR0, (void *) nextAdd
1160:.\Generated_Source\PSoC5/USBFS_1_episr.c **** 
1161:.\Generated_Source\PSoC5/USBFS_1_episr.c ****                 /* Change source for descriptor 1. */
1162:.\Generated_Source\PSoC5/USBFS_1_episr.c ****                 nextAddr += USBFS_1_DMA_BYTES_PER_BURST;
1163:.\Generated_Source\PSoC5/USBFS_1_episr.c ****                 USBFS_1_CyDmaSetSrcAddress(USBFS_1_EP4_DMA_CH, USBFS_1_DMA_DESCR1, (void *) nextAdd
1164:.\Generated_Source\PSoC5/USBFS_1_episr.c ****             }
1165:.\Generated_Source\PSoC5/USBFS_1_episr.c ****             else
1166:.\Generated_Source\PSoC5/USBFS_1_episr.c ****             {
1167:.\Generated_Source\PSoC5/USBFS_1_episr.c ****                 /* Change destination for descriptor 0. */
1168:.\Generated_Source\PSoC5/USBFS_1_episr.c ****                 nextAddr  = (uint32) USBFS_1_CyDmaGetDstAddress(USBFS_1_EP4_DMA_CH, USBFS_1_DMA_DES
1169:.\Generated_Source\PSoC5/USBFS_1_episr.c ****                 nextAddr += (2u * USBFS_1_DMA_BYTES_PER_BURST);
1170:.\Generated_Source\PSoC5/USBFS_1_episr.c ****                 USBFS_1_CyDmaSetDstAddress(USBFS_1_EP4_DMA_CH, USBFS_1_DMA_DESCR0, (void *) nextAdd
1171:.\Generated_Source\PSoC5/USBFS_1_episr.c **** 
1172:.\Generated_Source\PSoC5/USBFS_1_episr.c ****                 /* Change destination for descriptor 1. */
1173:.\Generated_Source\PSoC5/USBFS_1_episr.c ****                 nextAddr += USBFS_1_DMA_BYTES_PER_BURST;
1174:.\Generated_Source\PSoC5/USBFS_1_episr.c ****                 USBFS_1_CyDmaSetDstAddress(USBFS_1_EP4_DMA_CH, USBFS_1_DMA_DESCR1, (void *) nextAdd
1175:.\Generated_Source\PSoC5/USBFS_1_episr.c ****             }
1176:.\Generated_Source\PSoC5/USBFS_1_episr.c **** 
1177:.\Generated_Source\PSoC5/USBFS_1_episr.c ****             /* Enable DMA to execute transfer as it was disabled because there were no valid descri
1178:.\Generated_Source\PSoC5/USBFS_1_episr.c ****             USBFS_1_CyDmaValidateDescriptor(USBFS_1_EP4_DMA_CH, USBFS_1_DMA_DESCR0);
1179:.\Generated_Source\PSoC5/USBFS_1_episr.c ****             USBFS_1_CyDmaChEnable (USBFS_1_EP4_DMA_CH);
1180:.\Generated_Source\PSoC5/USBFS_1_episr.c ****             USBFS_1_CyDmaTriggerIn(USBFS_1_DmaReqOut[USBFS_1_EP4]);
1181:.\Generated_Source\PSoC5/USBFS_1_episr.c ****         }
1182:.\Generated_Source\PSoC5/USBFS_1_episr.c ****     #endif /* (USBFS_1_DMA4_ACTIVE) */
1183:.\Generated_Source\PSoC5/USBFS_1_episr.c **** 
1184:.\Generated_Source\PSoC5/USBFS_1_episr.c **** 
1185:.\Generated_Source\PSoC5/USBFS_1_episr.c ****     #if (USBFS_1_DMA5_ACTIVE)
1186:.\Generated_Source\PSoC5/USBFS_1_episr.c ****         /******************************************************************************
1187:.\Generated_Source\PSoC5/USBFS_1_episr.c ****         * Function Name: USBFS_1_EP5_DMA_DONE_ISR
1188:.\Generated_Source\PSoC5/USBFS_1_episr.c ****         ***************************************************************************//**
1189:.\Generated_Source\PSoC5/USBFS_1_episr.c ****         *
1190:.\Generated_Source\PSoC5/USBFS_1_episr.c ****         *  Endpoint 5 DMA Done Interrupt Service Routine.
1191:.\Generated_Source\PSoC5/USBFS_1_episr.c ****         *
1192:.\Generated_Source\PSoC5/USBFS_1_episr.c ****         *
1193:.\Generated_Source\PSoC5/USBFS_1_episr.c ****         ******************************************************************************/
1194:.\Generated_Source\PSoC5/USBFS_1_episr.c ****         void USBFS_1_EP5_DMA_DONE_ISR(void)
1195:.\Generated_Source\PSoC5/USBFS_1_episr.c ****         {
1196:.\Generated_Source\PSoC5/USBFS_1_episr.c ****             uint32 nextAddr;
1197:.\Generated_Source\PSoC5/USBFS_1_episr.c **** 
1198:.\Generated_Source\PSoC5/USBFS_1_episr.c ****             /* Manage data elements which remain to transfer. */
1199:.\Generated_Source\PSoC5/USBFS_1_episr.c ****             if (0u != USBFS_1_DmaEpBurstCnt[USBFS_1_EP5])
1200:.\Generated_Source\PSoC5/USBFS_1_episr.c ****             {
1201:.\Generated_Source\PSoC5/USBFS_1_episr.c ****                 /* Decrement burst counter. */
1202:.\Generated_Source\PSoC5/USBFS_1_episr.c ****                 --USBFS_1_DmaEpBurstCnt[USBFS_1_EP5];
1203:.\Generated_Source\PSoC5/USBFS_1_episr.c ****             }
ARM GAS  C:\Users\LUKASC~1\AppData\Local\Temp\cccWiuOE.s 			page 26


1204:.\Generated_Source\PSoC5/USBFS_1_episr.c ****             else
1205:.\Generated_Source\PSoC5/USBFS_1_episr.c ****             {
1206:.\Generated_Source\PSoC5/USBFS_1_episr.c ****                 /* Adjust length of last burst. */
1207:.\Generated_Source\PSoC5/USBFS_1_episr.c ****                 USBFS_1_CyDmaSetNumDataElements(USBFS_1_EP5_DMA_CH,
1208:.\Generated_Source\PSoC5/USBFS_1_episr.c ****                                                         ((uint32) USBFS_1_DmaEpLastBurstEl[USBFS_1_
1209:.\Generated_Source\PSoC5/USBFS_1_episr.c ****                                                         ((uint32) USBFS_1_DmaEpLastBurstEl[USBFS_1_
1210:.\Generated_Source\PSoC5/USBFS_1_episr.c ****             }
1211:.\Generated_Source\PSoC5/USBFS_1_episr.c **** 
1212:.\Generated_Source\PSoC5/USBFS_1_episr.c ****             /* Advance source for input endpoint or destination for output endpoint. */
1213:.\Generated_Source\PSoC5/USBFS_1_episr.c ****             if (0u != (USBFS_1_EP[USBFS_1_EP5].addr & USBFS_1_DIR_IN))
1214:.\Generated_Source\PSoC5/USBFS_1_episr.c ****             {
1215:.\Generated_Source\PSoC5/USBFS_1_episr.c ****                 /* Change source for descriptor 0. */
1216:.\Generated_Source\PSoC5/USBFS_1_episr.c ****                 nextAddr = (uint32) USBFS_1_CyDmaGetSrcAddress(USBFS_1_EP5_DMA_CH, USBFS_1_DMA_DESC
1217:.\Generated_Source\PSoC5/USBFS_1_episr.c ****                 nextAddr += (2u * USBFS_1_DMA_BYTES_PER_BURST);
1218:.\Generated_Source\PSoC5/USBFS_1_episr.c ****                 USBFS_1_CyDmaSetSrcAddress(USBFS_1_EP5_DMA_CH, USBFS_1_DMA_DESCR0, (void *) nextAdd
1219:.\Generated_Source\PSoC5/USBFS_1_episr.c **** 
1220:.\Generated_Source\PSoC5/USBFS_1_episr.c ****                 /* Change source for descriptor 1. */
1221:.\Generated_Source\PSoC5/USBFS_1_episr.c ****                 nextAddr += USBFS_1_DMA_BYTES_PER_BURST;
1222:.\Generated_Source\PSoC5/USBFS_1_episr.c ****                 USBFS_1_CyDmaSetSrcAddress(USBFS_1_EP5_DMA_CH, USBFS_1_DMA_DESCR1, (void *) nextAdd
1223:.\Generated_Source\PSoC5/USBFS_1_episr.c ****             }
1224:.\Generated_Source\PSoC5/USBFS_1_episr.c ****             else
1225:.\Generated_Source\PSoC5/USBFS_1_episr.c ****             {
1226:.\Generated_Source\PSoC5/USBFS_1_episr.c ****                 /* Change destination for descriptor 0. */
1227:.\Generated_Source\PSoC5/USBFS_1_episr.c ****                 nextAddr  = (uint32) USBFS_1_CyDmaGetDstAddress(USBFS_1_EP5_DMA_CH, USBFS_1_DMA_DES
1228:.\Generated_Source\PSoC5/USBFS_1_episr.c ****                 nextAddr += (2u * USBFS_1_DMA_BYTES_PER_BURST);
1229:.\Generated_Source\PSoC5/USBFS_1_episr.c ****                 USBFS_1_CyDmaSetDstAddress(USBFS_1_EP5_DMA_CH, USBFS_1_DMA_DESCR0, (void *) nextAdd
1230:.\Generated_Source\PSoC5/USBFS_1_episr.c **** 
1231:.\Generated_Source\PSoC5/USBFS_1_episr.c ****                 /* Change destination for descriptor 1. */
1232:.\Generated_Source\PSoC5/USBFS_1_episr.c ****                 nextAddr += USBFS_1_DMA_BYTES_PER_BURST;
1233:.\Generated_Source\PSoC5/USBFS_1_episr.c ****                 USBFS_1_CyDmaSetDstAddress(USBFS_1_EP5_DMA_CH, USBFS_1_DMA_DESCR1, (void *) nextAdd
1234:.\Generated_Source\PSoC5/USBFS_1_episr.c ****             }
1235:.\Generated_Source\PSoC5/USBFS_1_episr.c **** 
1236:.\Generated_Source\PSoC5/USBFS_1_episr.c ****             /* Enable DMA to execute transfer as it was disabled because there were no valid descri
1237:.\Generated_Source\PSoC5/USBFS_1_episr.c ****             USBFS_1_CyDmaValidateDescriptor(USBFS_1_EP5_DMA_CH, USBFS_1_DMA_DESCR0);
1238:.\Generated_Source\PSoC5/USBFS_1_episr.c ****             USBFS_1_CyDmaChEnable (USBFS_1_EP5_DMA_CH);
1239:.\Generated_Source\PSoC5/USBFS_1_episr.c ****             USBFS_1_CyDmaTriggerIn(USBFS_1_DmaReqOut[USBFS_1_EP5]);
1240:.\Generated_Source\PSoC5/USBFS_1_episr.c ****         }
1241:.\Generated_Source\PSoC5/USBFS_1_episr.c ****     #endif /* (USBFS_1_DMA5_ACTIVE) */
1242:.\Generated_Source\PSoC5/USBFS_1_episr.c **** 
1243:.\Generated_Source\PSoC5/USBFS_1_episr.c **** 
1244:.\Generated_Source\PSoC5/USBFS_1_episr.c ****     #if (USBFS_1_DMA6_ACTIVE)
1245:.\Generated_Source\PSoC5/USBFS_1_episr.c ****         /******************************************************************************
1246:.\Generated_Source\PSoC5/USBFS_1_episr.c ****         * Function Name: USBFS_1_EP6_DMA_DONE_ISR
1247:.\Generated_Source\PSoC5/USBFS_1_episr.c ****         ***************************************************************************//**
1248:.\Generated_Source\PSoC5/USBFS_1_episr.c ****         *
1249:.\Generated_Source\PSoC5/USBFS_1_episr.c ****         *  Endpoint 6 DMA Done Interrupt Service Routine.
1250:.\Generated_Source\PSoC5/USBFS_1_episr.c ****         *
1251:.\Generated_Source\PSoC5/USBFS_1_episr.c ****         *
1252:.\Generated_Source\PSoC5/USBFS_1_episr.c ****         ******************************************************************************/
1253:.\Generated_Source\PSoC5/USBFS_1_episr.c ****         void USBFS_1_EP6_DMA_DONE_ISR(void)
1254:.\Generated_Source\PSoC5/USBFS_1_episr.c ****         {
1255:.\Generated_Source\PSoC5/USBFS_1_episr.c ****             uint32 nextAddr;
1256:.\Generated_Source\PSoC5/USBFS_1_episr.c **** 
1257:.\Generated_Source\PSoC5/USBFS_1_episr.c ****             /* Manage data elements which remain to transfer. */
1258:.\Generated_Source\PSoC5/USBFS_1_episr.c ****             if (0u != USBFS_1_DmaEpBurstCnt[USBFS_1_EP6])
1259:.\Generated_Source\PSoC5/USBFS_1_episr.c ****             {
1260:.\Generated_Source\PSoC5/USBFS_1_episr.c ****                 /* Decrement burst counter. */
ARM GAS  C:\Users\LUKASC~1\AppData\Local\Temp\cccWiuOE.s 			page 27


1261:.\Generated_Source\PSoC5/USBFS_1_episr.c ****                 --USBFS_1_DmaEpBurstCnt[USBFS_1_EP6];
1262:.\Generated_Source\PSoC5/USBFS_1_episr.c ****             }
1263:.\Generated_Source\PSoC5/USBFS_1_episr.c ****             else
1264:.\Generated_Source\PSoC5/USBFS_1_episr.c ****             {
1265:.\Generated_Source\PSoC5/USBFS_1_episr.c ****                 /* Adjust length of last burst. */
1266:.\Generated_Source\PSoC5/USBFS_1_episr.c ****                 USBFS_1_CyDmaSetNumDataElements(USBFS_1_EP6_DMA_CH,
1267:.\Generated_Source\PSoC5/USBFS_1_episr.c ****                                                         ((uint32) USBFS_1_DmaEpLastBurstEl[USBFS_1_
1268:.\Generated_Source\PSoC5/USBFS_1_episr.c ****                                                         ((uint32) USBFS_1_DmaEpLastBurstEl[USBFS_1_
1269:.\Generated_Source\PSoC5/USBFS_1_episr.c ****             }
1270:.\Generated_Source\PSoC5/USBFS_1_episr.c **** 
1271:.\Generated_Source\PSoC5/USBFS_1_episr.c ****             /* Advance source for input endpoint or destination for output endpoint. */
1272:.\Generated_Source\PSoC5/USBFS_1_episr.c ****             if (0u != (USBFS_1_EP[USBFS_1_EP6].addr & USBFS_1_DIR_IN))
1273:.\Generated_Source\PSoC5/USBFS_1_episr.c ****             {
1274:.\Generated_Source\PSoC5/USBFS_1_episr.c ****                 /* Change source for descriptor 0. */
1275:.\Generated_Source\PSoC5/USBFS_1_episr.c ****                 nextAddr = (uint32) USBFS_1_CyDmaGetSrcAddress(USBFS_1_EP6_DMA_CH, USBFS_1_DMA_DESC
1276:.\Generated_Source\PSoC5/USBFS_1_episr.c ****                 nextAddr += (2u * USBFS_1_DMA_BYTES_PER_BURST);
1277:.\Generated_Source\PSoC5/USBFS_1_episr.c ****                 USBFS_1_CyDmaSetSrcAddress(USBFS_1_EP6_DMA_CH, USBFS_1_DMA_DESCR0, (void *) nextAdd
1278:.\Generated_Source\PSoC5/USBFS_1_episr.c **** 
1279:.\Generated_Source\PSoC5/USBFS_1_episr.c ****                 /* Change source for descriptor 1. */
1280:.\Generated_Source\PSoC5/USBFS_1_episr.c ****                 nextAddr += USBFS_1_DMA_BYTES_PER_BURST;
1281:.\Generated_Source\PSoC5/USBFS_1_episr.c ****                 USBFS_1_CyDmaSetSrcAddress(USBFS_1_EP6_DMA_CH, USBFS_1_DMA_DESCR1, (void *) nextAdd
1282:.\Generated_Source\PSoC5/USBFS_1_episr.c ****             }
1283:.\Generated_Source\PSoC5/USBFS_1_episr.c ****             else
1284:.\Generated_Source\PSoC5/USBFS_1_episr.c ****             {
1285:.\Generated_Source\PSoC5/USBFS_1_episr.c ****                 /* Change destination for descriptor 0. */
1286:.\Generated_Source\PSoC5/USBFS_1_episr.c ****                 nextAddr  = (uint32) USBFS_1_CyDmaGetDstAddress(USBFS_1_EP6_DMA_CH, USBFS_1_DMA_DES
1287:.\Generated_Source\PSoC5/USBFS_1_episr.c ****                 nextAddr += (2u * USBFS_1_DMA_BYTES_PER_BURST);
1288:.\Generated_Source\PSoC5/USBFS_1_episr.c ****                 USBFS_1_CyDmaSetDstAddress(USBFS_1_EP6_DMA_CH, USBFS_1_DMA_DESCR0, (void *) nextAdd
1289:.\Generated_Source\PSoC5/USBFS_1_episr.c **** 
1290:.\Generated_Source\PSoC5/USBFS_1_episr.c ****                 /* Change destination for descriptor 1. */
1291:.\Generated_Source\PSoC5/USBFS_1_episr.c ****                 nextAddr += USBFS_1_DMA_BYTES_PER_BURST;
1292:.\Generated_Source\PSoC5/USBFS_1_episr.c ****                 USBFS_1_CyDmaSetDstAddress(USBFS_1_EP6_DMA_CH, USBFS_1_DMA_DESCR1, (void *) nextAdd
1293:.\Generated_Source\PSoC5/USBFS_1_episr.c ****             }
1294:.\Generated_Source\PSoC5/USBFS_1_episr.c **** 
1295:.\Generated_Source\PSoC5/USBFS_1_episr.c ****             /* Enable the DMA to execute transfer as it was disabled because there were no valid de
1296:.\Generated_Source\PSoC5/USBFS_1_episr.c ****             USBFS_1_CyDmaValidateDescriptor(USBFS_1_EP6_DMA_CH, USBFS_1_DMA_DESCR0);
1297:.\Generated_Source\PSoC5/USBFS_1_episr.c ****             USBFS_1_CyDmaChEnable (USBFS_1_EP6_DMA_CH);
1298:.\Generated_Source\PSoC5/USBFS_1_episr.c ****             USBFS_1_CyDmaTriggerIn(USBFS_1_DmaReqOut[USBFS_1_EP6]);
1299:.\Generated_Source\PSoC5/USBFS_1_episr.c ****         }
1300:.\Generated_Source\PSoC5/USBFS_1_episr.c ****     #endif /* (USBFS_1_DMA6_ACTIVE) */
1301:.\Generated_Source\PSoC5/USBFS_1_episr.c **** 
1302:.\Generated_Source\PSoC5/USBFS_1_episr.c **** 
1303:.\Generated_Source\PSoC5/USBFS_1_episr.c ****     #if (USBFS_1_DMA7_ACTIVE)
1304:.\Generated_Source\PSoC5/USBFS_1_episr.c ****         /******************************************************************************
1305:.\Generated_Source\PSoC5/USBFS_1_episr.c ****         * Function Name: USBFS_1_EP7_DMA_DONE_ISR
1306:.\Generated_Source\PSoC5/USBFS_1_episr.c ****         ***************************************************************************//**
1307:.\Generated_Source\PSoC5/USBFS_1_episr.c ****         *
1308:.\Generated_Source\PSoC5/USBFS_1_episr.c ****         *  Endpoint 7 DMA Done Interrupt Service Routine.
1309:.\Generated_Source\PSoC5/USBFS_1_episr.c ****         *
1310:.\Generated_Source\PSoC5/USBFS_1_episr.c ****         *
1311:.\Generated_Source\PSoC5/USBFS_1_episr.c ****         ******************************************************************************/
1312:.\Generated_Source\PSoC5/USBFS_1_episr.c ****         void USBFS_1_EP7_DMA_DONE_ISR(void)
1313:.\Generated_Source\PSoC5/USBFS_1_episr.c ****         {
1314:.\Generated_Source\PSoC5/USBFS_1_episr.c ****             uint32 nextAddr;
1315:.\Generated_Source\PSoC5/USBFS_1_episr.c **** 
1316:.\Generated_Source\PSoC5/USBFS_1_episr.c ****             /* Manage data elements which remain to transfer. */
1317:.\Generated_Source\PSoC5/USBFS_1_episr.c ****             if (0u != USBFS_1_DmaEpBurstCnt[USBFS_1_EP7])
ARM GAS  C:\Users\LUKASC~1\AppData\Local\Temp\cccWiuOE.s 			page 28


1318:.\Generated_Source\PSoC5/USBFS_1_episr.c ****             {
1319:.\Generated_Source\PSoC5/USBFS_1_episr.c ****                 /* Decrement burst counter. */
1320:.\Generated_Source\PSoC5/USBFS_1_episr.c ****                 --USBFS_1_DmaEpBurstCnt[USBFS_1_EP7];
1321:.\Generated_Source\PSoC5/USBFS_1_episr.c ****             }
1322:.\Generated_Source\PSoC5/USBFS_1_episr.c ****             else
1323:.\Generated_Source\PSoC5/USBFS_1_episr.c ****             {
1324:.\Generated_Source\PSoC5/USBFS_1_episr.c ****                 /* Adjust length of last burst. */
1325:.\Generated_Source\PSoC5/USBFS_1_episr.c ****                 USBFS_1_CyDmaSetNumDataElements(USBFS_1_EP7_DMA_CH,
1326:.\Generated_Source\PSoC5/USBFS_1_episr.c ****                                                         ((uint32) USBFS_1_DmaEpLastBurstEl[USBFS_1_
1327:.\Generated_Source\PSoC5/USBFS_1_episr.c ****                                                         ((uint32) USBFS_1_DmaEpLastBurstEl[USBFS_1_
1328:.\Generated_Source\PSoC5/USBFS_1_episr.c ****             }
1329:.\Generated_Source\PSoC5/USBFS_1_episr.c **** 
1330:.\Generated_Source\PSoC5/USBFS_1_episr.c ****             /* Advance source for input endpoint or destination for output endpoint. */
1331:.\Generated_Source\PSoC5/USBFS_1_episr.c ****             if (0u != (USBFS_1_EP[USBFS_1_EP7].addr & USBFS_1_DIR_IN))
1332:.\Generated_Source\PSoC5/USBFS_1_episr.c ****             {
1333:.\Generated_Source\PSoC5/USBFS_1_episr.c ****                 /* Change source for descriptor 0. */
1334:.\Generated_Source\PSoC5/USBFS_1_episr.c ****                 nextAddr = (uint32) USBFS_1_CyDmaGetSrcAddress(USBFS_1_EP7_DMA_CH, USBFS_1_DMA_DESC
1335:.\Generated_Source\PSoC5/USBFS_1_episr.c ****                 nextAddr += (2u * USBFS_1_DMA_BYTES_PER_BURST);
1336:.\Generated_Source\PSoC5/USBFS_1_episr.c ****                 USBFS_1_CyDmaSetSrcAddress(USBFS_1_EP7_DMA_CH, USBFS_1_DMA_DESCR0, (void *) nextAdd
1337:.\Generated_Source\PSoC5/USBFS_1_episr.c **** 
1338:.\Generated_Source\PSoC5/USBFS_1_episr.c ****                 /* Change source for descriptor 1. */
1339:.\Generated_Source\PSoC5/USBFS_1_episr.c ****                 nextAddr += USBFS_1_DMA_BYTES_PER_BURST;
1340:.\Generated_Source\PSoC5/USBFS_1_episr.c ****                 USBFS_1_CyDmaSetSrcAddress(USBFS_1_EP7_DMA_CH, USBFS_1_DMA_DESCR1, (void *) nextAdd
1341:.\Generated_Source\PSoC5/USBFS_1_episr.c ****             }
1342:.\Generated_Source\PSoC5/USBFS_1_episr.c ****             else
1343:.\Generated_Source\PSoC5/USBFS_1_episr.c ****             {
1344:.\Generated_Source\PSoC5/USBFS_1_episr.c ****                 /* Change destination for descriptor 0. */
1345:.\Generated_Source\PSoC5/USBFS_1_episr.c ****                 nextAddr  = (uint32) USBFS_1_CyDmaGetDstAddress(USBFS_1_EP7_DMA_CH, USBFS_1_DMA_DES
1346:.\Generated_Source\PSoC5/USBFS_1_episr.c ****                 nextAddr += (2u * USBFS_1_DMA_BYTES_PER_BURST);
1347:.\Generated_Source\PSoC5/USBFS_1_episr.c ****                 USBFS_1_CyDmaSetDstAddress(USBFS_1_EP7_DMA_CH, USBFS_1_DMA_DESCR0, (void *) nextAdd
1348:.\Generated_Source\PSoC5/USBFS_1_episr.c **** 
1349:.\Generated_Source\PSoC5/USBFS_1_episr.c ****                 /* Change destination for descriptor 1. */
1350:.\Generated_Source\PSoC5/USBFS_1_episr.c ****                 nextAddr += USBFS_1_DMA_BYTES_PER_BURST;
1351:.\Generated_Source\PSoC5/USBFS_1_episr.c ****                 USBFS_1_CyDmaSetDstAddress(USBFS_1_EP7_DMA_CH, USBFS_1_DMA_DESCR1, (void *) nextAdd
1352:.\Generated_Source\PSoC5/USBFS_1_episr.c ****             }
1353:.\Generated_Source\PSoC5/USBFS_1_episr.c **** 
1354:.\Generated_Source\PSoC5/USBFS_1_episr.c ****             /* Enable DMA to execute transfer as it was disabled because there were no valid descri
1355:.\Generated_Source\PSoC5/USBFS_1_episr.c ****             USBFS_1_CyDmaValidateDescriptor(USBFS_1_EP7_DMA_CH, USBFS_1_DMA_DESCR0);
1356:.\Generated_Source\PSoC5/USBFS_1_episr.c ****             USBFS_1_CyDmaChEnable (USBFS_1_EP7_DMA_CH);
1357:.\Generated_Source\PSoC5/USBFS_1_episr.c ****             USBFS_1_CyDmaTriggerIn(USBFS_1_DmaReqOut[USBFS_1_EP7]);
1358:.\Generated_Source\PSoC5/USBFS_1_episr.c ****         }
1359:.\Generated_Source\PSoC5/USBFS_1_episr.c ****     #endif /* (USBFS_1_DMA7_ACTIVE) */
1360:.\Generated_Source\PSoC5/USBFS_1_episr.c **** 
1361:.\Generated_Source\PSoC5/USBFS_1_episr.c **** 
1362:.\Generated_Source\PSoC5/USBFS_1_episr.c ****     #if (USBFS_1_DMA8_ACTIVE)
1363:.\Generated_Source\PSoC5/USBFS_1_episr.c ****         /******************************************************************************
1364:.\Generated_Source\PSoC5/USBFS_1_episr.c ****         * Function Name: USBFS_1_EP8_DMA_DONE_ISR
1365:.\Generated_Source\PSoC5/USBFS_1_episr.c ****         ***************************************************************************//**
1366:.\Generated_Source\PSoC5/USBFS_1_episr.c ****         *
1367:.\Generated_Source\PSoC5/USBFS_1_episr.c ****         *  Endpoint 8 DMA Done Interrupt Service Routine.
1368:.\Generated_Source\PSoC5/USBFS_1_episr.c ****         *
1369:.\Generated_Source\PSoC5/USBFS_1_episr.c ****         *
1370:.\Generated_Source\PSoC5/USBFS_1_episr.c ****         ******************************************************************************/
1371:.\Generated_Source\PSoC5/USBFS_1_episr.c ****         void USBFS_1_EP8_DMA_DONE_ISR(void)
1372:.\Generated_Source\PSoC5/USBFS_1_episr.c ****         {
1373:.\Generated_Source\PSoC5/USBFS_1_episr.c ****             uint32 nextAddr;
1374:.\Generated_Source\PSoC5/USBFS_1_episr.c **** 
ARM GAS  C:\Users\LUKASC~1\AppData\Local\Temp\cccWiuOE.s 			page 29


1375:.\Generated_Source\PSoC5/USBFS_1_episr.c ****             /* Manage data elements which remain to transfer. */
1376:.\Generated_Source\PSoC5/USBFS_1_episr.c ****             if (0u != USBFS_1_DmaEpBurstCnt[USBFS_1_EP8])
1377:.\Generated_Source\PSoC5/USBFS_1_episr.c ****             {
1378:.\Generated_Source\PSoC5/USBFS_1_episr.c ****                 /* Decrement burst counter. */
1379:.\Generated_Source\PSoC5/USBFS_1_episr.c ****                 --USBFS_1_DmaEpBurstCnt[USBFS_1_EP8];
1380:.\Generated_Source\PSoC5/USBFS_1_episr.c ****             }
1381:.\Generated_Source\PSoC5/USBFS_1_episr.c ****             else
1382:.\Generated_Source\PSoC5/USBFS_1_episr.c ****             {
1383:.\Generated_Source\PSoC5/USBFS_1_episr.c ****                 /* Adjust length of last burst. */
1384:.\Generated_Source\PSoC5/USBFS_1_episr.c ****                 USBFS_1_CyDmaSetNumDataElements(USBFS_1_EP8_DMA_CH,
1385:.\Generated_Source\PSoC5/USBFS_1_episr.c ****                                                         ((uint32) USBFS_1_DmaEpLastBurstEl[USBFS_1_
1386:.\Generated_Source\PSoC5/USBFS_1_episr.c ****                                                         ((uint32) USBFS_1_DmaEpLastBurstEl[USBFS_1_
1387:.\Generated_Source\PSoC5/USBFS_1_episr.c ****             }
1388:.\Generated_Source\PSoC5/USBFS_1_episr.c **** 
1389:.\Generated_Source\PSoC5/USBFS_1_episr.c ****             /* Advance source for input endpoint or destination for output endpoint. */
1390:.\Generated_Source\PSoC5/USBFS_1_episr.c ****             if (0u != (USBFS_1_EP[USBFS_1_EP8].addr & USBFS_1_DIR_IN))
1391:.\Generated_Source\PSoC5/USBFS_1_episr.c ****             {
1392:.\Generated_Source\PSoC5/USBFS_1_episr.c ****                 /* Change source for descriptor 0. */
1393:.\Generated_Source\PSoC5/USBFS_1_episr.c ****                 nextAddr = (uint32) USBFS_1_CyDmaGetSrcAddress(USBFS_1_EP8_DMA_CH, USBFS_1_DMA_DESC
1394:.\Generated_Source\PSoC5/USBFS_1_episr.c ****                 nextAddr += (2u * USBFS_1_DMA_BYTES_PER_BURST);
1395:.\Generated_Source\PSoC5/USBFS_1_episr.c ****                 USBFS_1_CyDmaSetSrcAddress(USBFS_1_EP8_DMA_CH, USBFS_1_DMA_DESCR0, (void *) nextAdd
1396:.\Generated_Source\PSoC5/USBFS_1_episr.c **** 
1397:.\Generated_Source\PSoC5/USBFS_1_episr.c ****                 /* Change source for descriptor 1. */
1398:.\Generated_Source\PSoC5/USBFS_1_episr.c ****                 nextAddr += USBFS_1_DMA_BYTES_PER_BURST;
1399:.\Generated_Source\PSoC5/USBFS_1_episr.c ****                 USBFS_1_CyDmaSetSrcAddress(USBFS_1_EP8_DMA_CH, USBFS_1_DMA_DESCR1, (void *) nextAdd
1400:.\Generated_Source\PSoC5/USBFS_1_episr.c ****             }
1401:.\Generated_Source\PSoC5/USBFS_1_episr.c ****             else
1402:.\Generated_Source\PSoC5/USBFS_1_episr.c ****             {
1403:.\Generated_Source\PSoC5/USBFS_1_episr.c ****                 /* Change destination for descriptor 0. */
1404:.\Generated_Source\PSoC5/USBFS_1_episr.c ****                 nextAddr  = (uint32) USBFS_1_CyDmaGetDstAddress(USBFS_1_EP8_DMA_CH, USBFS_1_DMA_DES
1405:.\Generated_Source\PSoC5/USBFS_1_episr.c ****                 nextAddr += (2u * USBFS_1_DMA_BYTES_PER_BURST);
1406:.\Generated_Source\PSoC5/USBFS_1_episr.c ****                 USBFS_1_CyDmaSetDstAddress(USBFS_1_EP8_DMA_CH, USBFS_1_DMA_DESCR0, (void *) nextAdd
1407:.\Generated_Source\PSoC5/USBFS_1_episr.c **** 
1408:.\Generated_Source\PSoC5/USBFS_1_episr.c ****                 /* Change destination for descriptor 1. */
1409:.\Generated_Source\PSoC5/USBFS_1_episr.c ****                 nextAddr += USBFS_1_DMA_BYTES_PER_BURST;
1410:.\Generated_Source\PSoC5/USBFS_1_episr.c ****                 USBFS_1_CyDmaSetDstAddress(USBFS_1_EP8_DMA_CH, USBFS_1_DMA_DESCR1, (void *) nextAdd
1411:.\Generated_Source\PSoC5/USBFS_1_episr.c ****             }
1412:.\Generated_Source\PSoC5/USBFS_1_episr.c **** 
1413:.\Generated_Source\PSoC5/USBFS_1_episr.c ****             /* Enable DMA to execute transfer as it was disabled because there were no valid descri
1414:.\Generated_Source\PSoC5/USBFS_1_episr.c ****             USBFS_1_CyDmaValidateDescriptor(USBFS_1_EP8_DMA_CH, USBFS_1_DMA_DESCR0);
1415:.\Generated_Source\PSoC5/USBFS_1_episr.c ****             USBFS_1_CyDmaChEnable (USBFS_1_EP8_DMA_CH);
1416:.\Generated_Source\PSoC5/USBFS_1_episr.c ****             USBFS_1_CyDmaTriggerIn(USBFS_1_DmaReqOut[USBFS_1_EP8]);
1417:.\Generated_Source\PSoC5/USBFS_1_episr.c ****         }
1418:.\Generated_Source\PSoC5/USBFS_1_episr.c ****     #endif /* (USBFS_1_DMA8_ACTIVE) */
1419:.\Generated_Source\PSoC5/USBFS_1_episr.c **** 
1420:.\Generated_Source\PSoC5/USBFS_1_episr.c **** #else
1421:.\Generated_Source\PSoC5/USBFS_1_episr.c ****     #if (USBFS_1_EP_DMA_AUTO_OPT == 0u)
1422:.\Generated_Source\PSoC5/USBFS_1_episr.c ****         /******************************************************************************
1423:.\Generated_Source\PSoC5/USBFS_1_episr.c ****         * Function Name: USBFS_1_EP_DMA_DONE_ISR
1424:.\Generated_Source\PSoC5/USBFS_1_episr.c ****         ***************************************************************************//**
1425:.\Generated_Source\PSoC5/USBFS_1_episr.c ****         *
1426:.\Generated_Source\PSoC5/USBFS_1_episr.c ****         *  DMA Done Interrupt Service Routine.
1427:.\Generated_Source\PSoC5/USBFS_1_episr.c ****         *
1428:.\Generated_Source\PSoC5/USBFS_1_episr.c ****         *
1429:.\Generated_Source\PSoC5/USBFS_1_episr.c ****         ******************************************************************************/
1430:.\Generated_Source\PSoC5/USBFS_1_episr.c ****         CY_ISR(USBFS_1_EP_DMA_DONE_ISR)
1431:.\Generated_Source\PSoC5/USBFS_1_episr.c ****         {
ARM GAS  C:\Users\LUKASC~1\AppData\Local\Temp\cccWiuOE.s 			page 30


 221              		.loc 1 1431 0
 222              		.cfi_startproc
 223              		@ args = 0, pretend = 0, frame = 0
 224              		@ frame_needed = 0, uses_anonymous_args = 0
 225 0000 2DE9F041 		push	{r4, r5, r6, r7, r8, lr}
 226              		.cfi_def_cfa_offset 24
 227              		.cfi_offset 4, -24
 228              		.cfi_offset 5, -20
 229              		.cfi_offset 6, -16
 230              		.cfi_offset 7, -12
 231              		.cfi_offset 8, -8
 232              		.cfi_offset 14, -4
 233              	.LVL11:
1432:.\Generated_Source\PSoC5/USBFS_1_episr.c ****             uint8 int8Status;
1433:.\Generated_Source\PSoC5/USBFS_1_episr.c ****             uint8 int17Status;
1434:.\Generated_Source\PSoC5/USBFS_1_episr.c ****             uint8 ep_status;
1435:.\Generated_Source\PSoC5/USBFS_1_episr.c ****             uint8 ep = USBFS_1_EP1;
1436:.\Generated_Source\PSoC5/USBFS_1_episr.c **** 
1437:.\Generated_Source\PSoC5/USBFS_1_episr.c ****         #ifdef USBFS_1_EP_DMA_DONE_ISR_ENTRY_CALLBACK
1438:.\Generated_Source\PSoC5/USBFS_1_episr.c ****             USBFS_1_EP_DMA_DONE_ISR_EntryCallback();
1439:.\Generated_Source\PSoC5/USBFS_1_episr.c ****         #endif /* (USBFS_1_EP_DMA_DONE_ISR_ENTRY_CALLBACK) */
1440:.\Generated_Source\PSoC5/USBFS_1_episr.c **** 
1441:.\Generated_Source\PSoC5/USBFS_1_episr.c ****             /* `#START EP_DMA_DONE_BEGIN_USER_CODE` Place your code here */
1442:.\Generated_Source\PSoC5/USBFS_1_episr.c **** 
1443:.\Generated_Source\PSoC5/USBFS_1_episr.c ****             /* `#END` */
1444:.\Generated_Source\PSoC5/USBFS_1_episr.c **** 
1445:.\Generated_Source\PSoC5/USBFS_1_episr.c ****             /* Read clear on read status register with EP source of interrupt. */
1446:.\Generated_Source\PSoC5/USBFS_1_episr.c ****             int17Status = USBFS_1_EP17_DMA_Done_SR_Read() & USBFS_1_EP17_SR_MASK;
 234              		.loc 1 1446 0
 235 0004 FFF7FEFF 		bl	USBFS_1_EP17_DMA_Done_SR_Read
 236              	.LVL12:
 237 0008 00F07F05 		and	r5, r0, #127
 238              	.LVL13:
1447:.\Generated_Source\PSoC5/USBFS_1_episr.c ****             int8Status  = USBFS_1_EP8_DMA_Done_SR_Read()  & USBFS_1_EP8_SR_MASK;
 239              		.loc 1 1447 0
 240 000c FFF7FEFF 		bl	USBFS_1_EP8_DMA_Done_SR_Read
 241              	.LVL14:
 242 0010 00F00306 		and	r6, r0, #3
 243              	.LVL15:
1435:.\Generated_Source\PSoC5/USBFS_1_episr.c **** 
 244              		.loc 1 1435 0
 245 0014 0124     		movs	r4, #1
1448:.\Generated_Source\PSoC5/USBFS_1_episr.c **** 
1449:.\Generated_Source\PSoC5/USBFS_1_episr.c ****             while (int8Status != 0u)
 246              		.loc 1 1449 0
 247 0016 2BE0     		b	.L18
 248              	.LVL16:
 249              	.L20:
1450:.\Generated_Source\PSoC5/USBFS_1_episr.c ****             {
1451:.\Generated_Source\PSoC5/USBFS_1_episr.c ****                 while (int17Status != 0u)
1452:.\Generated_Source\PSoC5/USBFS_1_episr.c ****                 {
1453:.\Generated_Source\PSoC5/USBFS_1_episr.c ****                     if ((int17Status & 1u) != 0u)  /* If EpX interrupt present. */
 250              		.loc 1 1453 0
 251 0018 15F0010F 		tst	r5, #1
 252 001c 1ED0     		beq	.L19
1454:.\Generated_Source\PSoC5/USBFS_1_episr.c ****                     {
1455:.\Generated_Source\PSoC5/USBFS_1_episr.c ****                         /* Read Endpoint Status Register. */
ARM GAS  C:\Users\LUKASC~1\AppData\Local\Temp\cccWiuOE.s 			page 31


1456:.\Generated_Source\PSoC5/USBFS_1_episr.c ****                         ep_status = USBFS_1_ARB_EP_BASE.arbEp[ep].epSr;
 253              		.loc 1 1456 0
 254 001e 2201     		lsls	r2, r4, #4
 255 0020 154B     		ldr	r3, .L24
 256 0022 9B5C     		ldrb	r3, [r3, r2]	@ zero_extendqisi2
 257              	.LVL17:
1457:.\Generated_Source\PSoC5/USBFS_1_episr.c **** 
1458:.\Generated_Source\PSoC5/USBFS_1_episr.c ****                         if ((0u == (ep_status & USBFS_1_ARB_EPX_SR_IN_BUF_FULL)) &&
 258              		.loc 1 1458 0
 259 0024 13F0010F 		tst	r3, #1
 260 0028 18D1     		bne	.L19
1459:.\Generated_Source\PSoC5/USBFS_1_episr.c ****                             (0u ==USBFS_1_inBufFull[ep]))
 261              		.loc 1 1459 0 discriminator 1
 262 002a 144B     		ldr	r3, .L24+4
 263              	.LVL18:
 264 002c 1B5D     		ldrb	r3, [r3, r4]	@ zero_extendqisi2
1458:.\Generated_Source\PSoC5/USBFS_1_episr.c ****                             (0u ==USBFS_1_inBufFull[ep]))
 265              		.loc 1 1458 0 discriminator 1
 266 002e 13F0FF0F 		tst	r3, #255
 267 0032 13D1     		bne	.L19
1460:.\Generated_Source\PSoC5/USBFS_1_episr.c ****                         {
1461:.\Generated_Source\PSoC5/USBFS_1_episr.c ****                             /* `#START EP_DMA_DONE_USER_CODE` Place your code here */
1462:.\Generated_Source\PSoC5/USBFS_1_episr.c **** 
1463:.\Generated_Source\PSoC5/USBFS_1_episr.c ****                             /* `#END` */
1464:.\Generated_Source\PSoC5/USBFS_1_episr.c **** 
1465:.\Generated_Source\PSoC5/USBFS_1_episr.c ****                         #ifdef USBFS_1_EP_DMA_DONE_ISR_CALLBACK
1466:.\Generated_Source\PSoC5/USBFS_1_episr.c ****                             USBFS_1_EP_DMA_DONE_ISR_Callback();
1467:.\Generated_Source\PSoC5/USBFS_1_episr.c ****                         #endif /* (USBFS_1_EP_DMA_DONE_ISR_CALLBACK) */
1468:.\Generated_Source\PSoC5/USBFS_1_episr.c **** 
1469:.\Generated_Source\PSoC5/USBFS_1_episr.c ****                             /* Transfer again 2 last bytes into pre-fetch endpoint area. */
1470:.\Generated_Source\PSoC5/USBFS_1_episr.c ****                             USBFS_1_ARB_EP_BASE.arbEp[ep].rwWaMsb = 0u;
 268              		.loc 1 1470 0
 269 0034 DFF84880 		ldr	r8, .L24+8
 270 0038 1746     		mov	r7, r2
 271 003a 4244     		add	r2, r8, r2
 272 003c 0023     		movs	r3, #0
 273 003e 5371     		strb	r3, [r2, #5]
1471:.\Generated_Source\PSoC5/USBFS_1_episr.c ****                             USBFS_1_ARB_EP_BASE.arbEp[ep].rwWa = (USBFS_1_DMA_BYTES_PER_BURST * ep)
 274              		.loc 1 1471 0
 275 0040 6301     		lsls	r3, r4, #5
 276 0042 023B     		subs	r3, r3, #2
 277 0044 DBB2     		uxtb	r3, r3
 278 0046 1371     		strb	r3, [r2, #4]
1472:.\Generated_Source\PSoC5/USBFS_1_episr.c ****                             USBFS_1_LoadNextInEP(ep, 1u);
 279              		.loc 1 1472 0
 280 0048 2046     		mov	r0, r4
 281 004a 0121     		movs	r1, #1
 282 004c FFF7FEFF 		bl	USBFS_1_LoadNextInEP
 283              	.LVL19:
1473:.\Generated_Source\PSoC5/USBFS_1_episr.c **** 
1474:.\Generated_Source\PSoC5/USBFS_1_episr.c ****                             /* Set Data ready status to generate DMA request. */
1475:.\Generated_Source\PSoC5/USBFS_1_episr.c ****                             USBFS_1_ARB_EP_BASE.arbEp[ep].epCfg |= USBFS_1_ARB_EPX_CFG_IN_DATA_RDY;
 284              		.loc 1 1475 0
 285 0050 18F80730 		ldrb	r3, [r8, r7]	@ zero_extendqisi2
 286 0054 43F00103 		orr	r3, r3, #1
 287 0058 08F80730 		strb	r3, [r8, r7]
 288              	.L19:
ARM GAS  C:\Users\LUKASC~1\AppData\Local\Temp\cccWiuOE.s 			page 32


1476:.\Generated_Source\PSoC5/USBFS_1_episr.c ****                         }
1477:.\Generated_Source\PSoC5/USBFS_1_episr.c ****                     }
1478:.\Generated_Source\PSoC5/USBFS_1_episr.c **** 
1479:.\Generated_Source\PSoC5/USBFS_1_episr.c ****                     ep++;
 289              		.loc 1 1479 0
 290 005c 0134     		adds	r4, r4, #1
 291              	.LVL20:
 292 005e E4B2     		uxtb	r4, r4
 293              	.LVL21:
1480:.\Generated_Source\PSoC5/USBFS_1_episr.c ****                     int17Status >>= 1u;
 294              		.loc 1 1480 0
 295 0060 6D08     		lsrs	r5, r5, #1
 296              	.LVL22:
 297              	.L22:
1451:.\Generated_Source\PSoC5/USBFS_1_episr.c ****                 {
 298              		.loc 1 1451 0
 299 0062 002D     		cmp	r5, #0
 300 0064 D8D1     		bne	.L20
 301              	.LVL23:
1481:.\Generated_Source\PSoC5/USBFS_1_episr.c ****                 }
1482:.\Generated_Source\PSoC5/USBFS_1_episr.c **** 
1483:.\Generated_Source\PSoC5/USBFS_1_episr.c ****                 int8Status >>= 1u;
1484:.\Generated_Source\PSoC5/USBFS_1_episr.c **** 
1485:.\Generated_Source\PSoC5/USBFS_1_episr.c ****                 if (int8Status != 0u)
 302              		.loc 1 1485 0
 303 0066 7608     		lsrs	r6, r6, #1
 304              	.LVL24:
 305 0068 02D0     		beq	.L18
 306              	.LVL25:
1486:.\Generated_Source\PSoC5/USBFS_1_episr.c ****                 {
1487:.\Generated_Source\PSoC5/USBFS_1_episr.c ****                     /* Prepare pointer for EP8. */
1488:.\Generated_Source\PSoC5/USBFS_1_episr.c ****                     ep = USBFS_1_EP8;
1489:.\Generated_Source\PSoC5/USBFS_1_episr.c ****                     int17Status = int8Status & 0x01u;
 307              		.loc 1 1489 0
 308 006a 06F00105 		and	r5, r6, #1
 309              	.LVL26:
1488:.\Generated_Source\PSoC5/USBFS_1_episr.c ****                     int17Status = int8Status & 0x01u;
 310              		.loc 1 1488 0
 311 006e 0824     		movs	r4, #8
 312              	.LVL27:
 313              	.L18:
1449:.\Generated_Source\PSoC5/USBFS_1_episr.c ****             {
 314              		.loc 1 1449 0
 315 0070 002E     		cmp	r6, #0
 316 0072 F6D1     		bne	.L22
1490:.\Generated_Source\PSoC5/USBFS_1_episr.c ****                 }
1491:.\Generated_Source\PSoC5/USBFS_1_episr.c ****             }
1492:.\Generated_Source\PSoC5/USBFS_1_episr.c **** 
1493:.\Generated_Source\PSoC5/USBFS_1_episr.c ****             /* `#START EP_DMA_DONE_END_USER_CODE` Place your code here */
1494:.\Generated_Source\PSoC5/USBFS_1_episr.c **** 
1495:.\Generated_Source\PSoC5/USBFS_1_episr.c ****             /* `#END` */
1496:.\Generated_Source\PSoC5/USBFS_1_episr.c **** 
1497:.\Generated_Source\PSoC5/USBFS_1_episr.c ****     #ifdef USBFS_1_EP_DMA_DONE_ISR_EXIT_CALLBACK
1498:.\Generated_Source\PSoC5/USBFS_1_episr.c ****         USBFS_1_EP_DMA_DONE_ISR_ExitCallback();
1499:.\Generated_Source\PSoC5/USBFS_1_episr.c ****     #endif /* (USBFS_1_EP_DMA_DONE_ISR_EXIT_CALLBACK) */
1500:.\Generated_Source\PSoC5/USBFS_1_episr.c ****         }
 317              		.loc 1 1500 0
ARM GAS  C:\Users\LUKASC~1\AppData\Local\Temp\cccWiuOE.s 			page 33


 318 0074 BDE8F081 		pop	{r4, r5, r6, r7, r8, pc}
 319              	.LVL28:
 320              	.L25:
 321              		.align	2
 322              	.L24:
 323 0078 72600040 		.word	1073766514
 324 007c 00000000 		.word	USBFS_1_inBufFull
 325 0080 70600040 		.word	1073766512
 326              		.cfi_endproc
 327              	.LFE3:
 328              		.size	USBFS_1_EP_DMA_DONE_ISR, .-USBFS_1_EP_DMA_DONE_ISR
 329              		.text
 330              	.Letext0:
 331              		.file 2 ".\\Generated_Source\\PSoC5\\cytypes.h"
 332              		.file 3 ".\\Generated_Source\\PSoC5\\USBFS_1.h"
 333              		.file 4 ".\\Generated_Source\\PSoC5\\USBFS_1_pvt.h"
 334              		.file 5 ".\\Generated_Source\\PSoC5\\USBFS_1_EP17_DMA_Done_SR.h"
 335              		.file 6 ".\\Generated_Source\\PSoC5\\USBFS_1_EP8_DMA_Done_SR.h"