ARM GAS  C:\Users\LUKASC~1\AppData\Local\Temp\ccX4OJiL.s 			page 1


   1              		.syntax unified
   2              		.cpu cortex-m3
   3              		.fpu softvfp
   4              		.eabi_attribute 20, 1
   5              		.eabi_attribute 21, 1
   6              		.eabi_attribute 23, 3
   7              		.eabi_attribute 24, 1
   8              		.eabi_attribute 25, 1
   9              		.eabi_attribute 26, 1
  10              		.eabi_attribute 30, 1
  11              		.eabi_attribute 34, 1
  12              		.eabi_attribute 18, 4
  13              		.thumb
  14              		.file	"USBFS_1.c"
  15              		.text
  16              	.Ltext0:
  17              		.cfi_sections	.debug_frame
  18              		.section	.text.USBFS_1_Init,"ax",%progbits
  19              		.align	2
  20              		.global	USBFS_1_Init
  21              		.thumb
  22              		.thumb_func
  23              		.type	USBFS_1_Init, %function
  24              	USBFS_1_Init:
  25              	.LFB1:
  26              		.file 1 ".\\Generated_Source\\PSoC5\\USBFS_1.c"
   1:.\Generated_Source\PSoC5/USBFS_1.c **** /***************************************************************************//**
   2:.\Generated_Source\PSoC5/USBFS_1.c **** * \file USBFS_1.c
   3:.\Generated_Source\PSoC5/USBFS_1.c **** * \version 3.0
   4:.\Generated_Source\PSoC5/USBFS_1.c **** *
   5:.\Generated_Source\PSoC5/USBFS_1.c **** * \brief
   6:.\Generated_Source\PSoC5/USBFS_1.c **** *  This file contains the global USBFS API functions.
   7:.\Generated_Source\PSoC5/USBFS_1.c **** *
   8:.\Generated_Source\PSoC5/USBFS_1.c **** * Note:
   9:.\Generated_Source\PSoC5/USBFS_1.c **** *  Many of the functions use an endpoint number. SRAM arrays are sized with 9
  10:.\Generated_Source\PSoC5/USBFS_1.c **** *  elements, so they are indexed directly by epNumber.  The SIE and ARB
  11:.\Generated_Source\PSoC5/USBFS_1.c **** *  registers are indexed by variations of epNumber - 1.
  12:.\Generated_Source\PSoC5/USBFS_1.c **** *
  13:.\Generated_Source\PSoC5/USBFS_1.c **** ********************************************************************************
  14:.\Generated_Source\PSoC5/USBFS_1.c **** * \copyright
  15:.\Generated_Source\PSoC5/USBFS_1.c **** * Copyright 2008-2015, Cypress Semiconductor Corporation.  All rights reserved.
  16:.\Generated_Source\PSoC5/USBFS_1.c **** * You may use this file only in accordance with the license, terms, conditions,
  17:.\Generated_Source\PSoC5/USBFS_1.c **** * disclaimers, and limitations in the end user license agreement accompanying
  18:.\Generated_Source\PSoC5/USBFS_1.c **** * the software package with which this file was provided.
  19:.\Generated_Source\PSoC5/USBFS_1.c **** *******************************************************************************/
  20:.\Generated_Source\PSoC5/USBFS_1.c **** 
  21:.\Generated_Source\PSoC5/USBFS_1.c **** #include "USBFS_1_pvt.h"
  22:.\Generated_Source\PSoC5/USBFS_1.c **** #include "USBFS_1_cydmac.h"
  23:.\Generated_Source\PSoC5/USBFS_1.c **** #include "USBFS_1_hid.h"
  24:.\Generated_Source\PSoC5/USBFS_1.c **** 
  25:.\Generated_Source\PSoC5/USBFS_1.c **** 
  26:.\Generated_Source\PSoC5/USBFS_1.c **** /***************************************
  27:.\Generated_Source\PSoC5/USBFS_1.c **** * Global data allocation
  28:.\Generated_Source\PSoC5/USBFS_1.c **** ***************************************/
  29:.\Generated_Source\PSoC5/USBFS_1.c **** 
  30:.\Generated_Source\PSoC5/USBFS_1.c **** /** Indicates whether the USBFS has been initialized. The variable is
  31:.\Generated_Source\PSoC5/USBFS_1.c **** * initialized to 0 after device reset and set to 1 the first time USBFS_Start()
ARM GAS  C:\Users\LUKASC~1\AppData\Local\Temp\ccX4OJiL.s 			page 2


  32:.\Generated_Source\PSoC5/USBFS_1.c **** * is called. This allows the Component to restart without reinitialization after
  33:.\Generated_Source\PSoC5/USBFS_1.c **** * the first call to the USBFS_Start() routine.
  34:.\Generated_Source\PSoC5/USBFS_1.c **** * If re-initialization of the Component is required, the variable should be set
  35:.\Generated_Source\PSoC5/USBFS_1.c **** * to 0 before the USBFS_Start() routine is called. Alternatively, the USBFS can
  36:.\Generated_Source\PSoC5/USBFS_1.c **** * be reinitialized by calling both USBFS_Init() and USBFS_InitComponent()
  37:.\Generated_Source\PSoC5/USBFS_1.c **** * functions.
  38:.\Generated_Source\PSoC5/USBFS_1.c **** */
  39:.\Generated_Source\PSoC5/USBFS_1.c **** uint8 USBFS_1_initVar = 0u;
  40:.\Generated_Source\PSoC5/USBFS_1.c **** 
  41:.\Generated_Source\PSoC5/USBFS_1.c **** #if (USBFS_1_EP_MANAGEMENT_DMA)
  42:.\Generated_Source\PSoC5/USBFS_1.c ****     #if (CY_PSOC4)
  43:.\Generated_Source\PSoC5/USBFS_1.c ****         static void USBFS_1_InitEpDma(void);
  44:.\Generated_Source\PSoC5/USBFS_1.c **** 
  45:.\Generated_Source\PSoC5/USBFS_1.c ****         /* DMA chanels assigend for endpoints. */
  46:.\Generated_Source\PSoC5/USBFS_1.c ****         const uint8 USBFS_1_DmaChan[USBFS_1_MAX_EP] =
  47:.\Generated_Source\PSoC5/USBFS_1.c ****         {
  48:.\Generated_Source\PSoC5/USBFS_1.c ****             0u,
  49:.\Generated_Source\PSoC5/USBFS_1.c ****             0u,
  50:.\Generated_Source\PSoC5/USBFS_1.c ****             (uint8) USBFS_1_ep2_dma_CHANNEL,
  51:.\Generated_Source\PSoC5/USBFS_1.c ****             0u,
  52:.\Generated_Source\PSoC5/USBFS_1.c ****             0u,
  53:.\Generated_Source\PSoC5/USBFS_1.c ****             0u,
  54:.\Generated_Source\PSoC5/USBFS_1.c ****             0u,
  55:.\Generated_Source\PSoC5/USBFS_1.c ****             0u,
  56:.\Generated_Source\PSoC5/USBFS_1.c ****             0u,
  57:.\Generated_Source\PSoC5/USBFS_1.c ****         };        
  58:.\Generated_Source\PSoC5/USBFS_1.c ****     #else
  59:.\Generated_Source\PSoC5/USBFS_1.c ****         /* DMA chanels assigend for endpoints. */
  60:.\Generated_Source\PSoC5/USBFS_1.c ****         uint8 USBFS_1_DmaChan[USBFS_1_MAX_EP];
  61:.\Generated_Source\PSoC5/USBFS_1.c ****         
  62:.\Generated_Source\PSoC5/USBFS_1.c ****         /* DMA TDs require for PSoC 3/5LP operation. */
  63:.\Generated_Source\PSoC5/USBFS_1.c ****         uint8 USBFS_1_DmaTd[USBFS_1_MAX_EP];
  64:.\Generated_Source\PSoC5/USBFS_1.c ****     #endif /* (CY_PSOC4) */
  65:.\Generated_Source\PSoC5/USBFS_1.c **** #endif /* (USBFS_1_EP_MANAGEMENT_DMA) */
  66:.\Generated_Source\PSoC5/USBFS_1.c **** 
  67:.\Generated_Source\PSoC5/USBFS_1.c **** #if (USBFS_1_EP_MANAGEMENT_DMA_AUTO)
  68:.\Generated_Source\PSoC5/USBFS_1.c **** #if (CY_PSOC4)
  69:.\Generated_Source\PSoC5/USBFS_1.c ****     /* Number of DMA bursts. */
  70:.\Generated_Source\PSoC5/USBFS_1.c ****     uint8  USBFS_1_DmaEpBurstCnt   [USBFS_1_MAX_EP];
  71:.\Generated_Source\PSoC5/USBFS_1.c ****     
  72:.\Generated_Source\PSoC5/USBFS_1.c ****     /* Number of bytes to transfer in last DMA burst. */
  73:.\Generated_Source\PSoC5/USBFS_1.c ****     uint8  USBFS_1_DmaEpLastBurstEl[USBFS_1_MAX_EP];
  74:.\Generated_Source\PSoC5/USBFS_1.c **** 
  75:.\Generated_Source\PSoC5/USBFS_1.c ****     /* Storage for arrays above. */
  76:.\Generated_Source\PSoC5/USBFS_1.c ****     uint8  USBFS_1_DmaEpBurstCntBackup  [USBFS_1_MAX_EP];
  77:.\Generated_Source\PSoC5/USBFS_1.c ****     uint32 USBFS_1_DmaEpBufferAddrBackup[USBFS_1_MAX_EP];
  78:.\Generated_Source\PSoC5/USBFS_1.c ****      
  79:.\Generated_Source\PSoC5/USBFS_1.c ****     /* DMA trigger mux output for usb.dma_req[0-7]. */
  80:.\Generated_Source\PSoC5/USBFS_1.c ****     const uint8 USBFS_1_DmaReqOut[USBFS_1_MAX_EP] =
  81:.\Generated_Source\PSoC5/USBFS_1.c ****     {
  82:.\Generated_Source\PSoC5/USBFS_1.c ****         0u,
  83:.\Generated_Source\PSoC5/USBFS_1.c ****         0u,
  84:.\Generated_Source\PSoC5/USBFS_1.c ****         USBFS_1_ep2_dma__TR_OUTPUT,
  85:.\Generated_Source\PSoC5/USBFS_1.c ****         0u,
  86:.\Generated_Source\PSoC5/USBFS_1.c ****         0u,
  87:.\Generated_Source\PSoC5/USBFS_1.c ****         0u,
  88:.\Generated_Source\PSoC5/USBFS_1.c ****         0u,
ARM GAS  C:\Users\LUKASC~1\AppData\Local\Temp\ccX4OJiL.s 			page 3


  89:.\Generated_Source\PSoC5/USBFS_1.c ****         0u,
  90:.\Generated_Source\PSoC5/USBFS_1.c ****         0u,
  91:.\Generated_Source\PSoC5/USBFS_1.c ****     };
  92:.\Generated_Source\PSoC5/USBFS_1.c **** 
  93:.\Generated_Source\PSoC5/USBFS_1.c ****     /* DMA trigger mux output for usb.dma_burstend[0-7]. */
  94:.\Generated_Source\PSoC5/USBFS_1.c ****     const uint8 USBFS_1_DmaBurstEndOut[USBFS_1_MAX_EP] =
  95:.\Generated_Source\PSoC5/USBFS_1.c ****     {
  96:.\Generated_Source\PSoC5/USBFS_1.c ****         0u,
  97:.\Generated_Source\PSoC5/USBFS_1.c ****         USBFS_1_BURSTEND_0_TR_OUTPUT,
  98:.\Generated_Source\PSoC5/USBFS_1.c ****         USBFS_1_BURSTEND_1_TR_OUTPUT,
  99:.\Generated_Source\PSoC5/USBFS_1.c ****         USBFS_1_BURSTEND_2_TR_OUTPUT,
 100:.\Generated_Source\PSoC5/USBFS_1.c ****         USBFS_1_BURSTEND_3_TR_OUTPUT,
 101:.\Generated_Source\PSoC5/USBFS_1.c ****         USBFS_1_BURSTEND_4_TR_OUTPUT,
 102:.\Generated_Source\PSoC5/USBFS_1.c ****         USBFS_1_BURSTEND_5_TR_OUTPUT,
 103:.\Generated_Source\PSoC5/USBFS_1.c ****         USBFS_1_BURSTEND_6_TR_OUTPUT,
 104:.\Generated_Source\PSoC5/USBFS_1.c ****         USBFS_1_BURSTEND_7_TR_OUTPUT
 105:.\Generated_Source\PSoC5/USBFS_1.c ****     };
 106:.\Generated_Source\PSoC5/USBFS_1.c ****     
 107:.\Generated_Source\PSoC5/USBFS_1.c **** #else
 108:.\Generated_Source\PSoC5/USBFS_1.c ****     #if (USBFS_1_EP_DMA_AUTO_OPT == 0u)
 109:.\Generated_Source\PSoC5/USBFS_1.c ****         static uint8 clearInDataRdyStatus = USBFS_1_ARB_EPX_CFG_DEFAULT;
 110:.\Generated_Source\PSoC5/USBFS_1.c ****         uint8 USBFS_1_DmaNextTd[USBFS_1_MAX_EP];
 111:.\Generated_Source\PSoC5/USBFS_1.c ****         const uint8 USBFS_1_epX_TD_TERMOUT_EN[USBFS_1_MAX_EP] =
 112:.\Generated_Source\PSoC5/USBFS_1.c ****         {
 113:.\Generated_Source\PSoC5/USBFS_1.c ****             0u,
 114:.\Generated_Source\PSoC5/USBFS_1.c ****             0u,
 115:.\Generated_Source\PSoC5/USBFS_1.c ****             USBFS_1_ep2__TD_TERMOUT_EN,
 116:.\Generated_Source\PSoC5/USBFS_1.c ****             0u,
 117:.\Generated_Source\PSoC5/USBFS_1.c ****             0u,
 118:.\Generated_Source\PSoC5/USBFS_1.c ****             0u,
 119:.\Generated_Source\PSoC5/USBFS_1.c ****             0u,
 120:.\Generated_Source\PSoC5/USBFS_1.c ****             0u,
 121:.\Generated_Source\PSoC5/USBFS_1.c ****             0u,
 122:.\Generated_Source\PSoC5/USBFS_1.c ****         };
 123:.\Generated_Source\PSoC5/USBFS_1.c **** 
 124:.\Generated_Source\PSoC5/USBFS_1.c ****         volatile uint16 USBFS_1_inLength[USBFS_1_MAX_EP];
 125:.\Generated_Source\PSoC5/USBFS_1.c ****         const uint8 *USBFS_1_inDataPointer[USBFS_1_MAX_EP];
 126:.\Generated_Source\PSoC5/USBFS_1.c ****         volatile uint8 USBFS_1_inBufFull[USBFS_1_MAX_EP];
 127:.\Generated_Source\PSoC5/USBFS_1.c ****     #endif /* (USBFS_1_EP_DMA_AUTO_OPT == 0u) */
 128:.\Generated_Source\PSoC5/USBFS_1.c **** #endif /* (CY_PSOC4) */
 129:.\Generated_Source\PSoC5/USBFS_1.c **** #endif /* (USBFS_1_EP_MANAGEMENT_DMA_AUTO) */
 130:.\Generated_Source\PSoC5/USBFS_1.c **** 
 131:.\Generated_Source\PSoC5/USBFS_1.c **** 
 132:.\Generated_Source\PSoC5/USBFS_1.c **** /*******************************************************************************
 133:.\Generated_Source\PSoC5/USBFS_1.c **** * Function Name: USBFS_1_Start
 134:.\Generated_Source\PSoC5/USBFS_1.c **** ****************************************************************************//**
 135:.\Generated_Source\PSoC5/USBFS_1.c **** *
 136:.\Generated_Source\PSoC5/USBFS_1.c **** *   This function performs all required initialization for the USBFS component.
 137:.\Generated_Source\PSoC5/USBFS_1.c **** *   After this function call, the USB device initiates communication with the
 138:.\Generated_Source\PSoC5/USBFS_1.c **** *   host by pull-up D+ line. This is the preferred method to begin component
 139:.\Generated_Source\PSoC5/USBFS_1.c **** *   operation.
 140:.\Generated_Source\PSoC5/USBFS_1.c **** *
 141:.\Generated_Source\PSoC5/USBFS_1.c **** *   Note that global interrupts have to be enabled because interrupts are
 142:.\Generated_Source\PSoC5/USBFS_1.c **** *   required for USBFS component operation.
 143:.\Generated_Source\PSoC5/USBFS_1.c **** *
 144:.\Generated_Source\PSoC5/USBFS_1.c **** *   PSoC 4200L devices: when USBFS component configured to DMA with Automatic
 145:.\Generated_Source\PSoC5/USBFS_1.c **** *   Buffer Management, the DMA interrupt priority is changed to the highest
ARM GAS  C:\Users\LUKASC~1\AppData\Local\Temp\ccX4OJiL.s 			page 4


 146:.\Generated_Source\PSoC5/USBFS_1.c **** *   (priority 0) inside this function.
 147:.\Generated_Source\PSoC5/USBFS_1.c **** *
 148:.\Generated_Source\PSoC5/USBFS_1.c **** *   PSoC 3/PSoC 5LP devices: when USBFS component configured to DMA with
 149:.\Generated_Source\PSoC5/USBFS_1.c **** *   Automatic Buffer Management, the Arbiter interrupt priority is changed to
 150:.\Generated_Source\PSoC5/USBFS_1.c **** *   the highest (priority 0) inside this function.
 151:.\Generated_Source\PSoC5/USBFS_1.c **** *
 152:.\Generated_Source\PSoC5/USBFS_1.c **** *  \param device
 153:.\Generated_Source\PSoC5/USBFS_1.c **** *          Contains the device number of the desired device descriptor.
 154:.\Generated_Source\PSoC5/USBFS_1.c **** *          The device number can be found in the Device Descriptor Tab of
 155:.\Generated_Source\PSoC5/USBFS_1.c **** *          "Configure" dialog, under the settings of desired Device Descriptor,
 156:.\Generated_Source\PSoC5/USBFS_1.c **** *          in the "Device Number" field.
 157:.\Generated_Source\PSoC5/USBFS_1.c **** *  \param mode:
 158:.\Generated_Source\PSoC5/USBFS_1.c **** *   The operating voltage. This determines whether the voltage regulator
 159:.\Generated_Source\PSoC5/USBFS_1.c **** *   is enabled for 5V operation or if pass through mode is used for 3.3V
 160:.\Generated_Source\PSoC5/USBFS_1.c **** *   operation. Symbolic names and their associated values are given in the
 161:.\Generated_Source\PSoC5/USBFS_1.c **** *   following list.
 162:.\Generated_Source\PSoC5/USBFS_1.c **** *
 163:.\Generated_Source\PSoC5/USBFS_1.c **** *       *USBFS_1_3V_OPERATION* - Disable voltage regulator and pass-
 164:.\Generated_Source\PSoC5/USBFS_1.c **** *                                      through Vcc for pull-up
 165:.\Generated_Source\PSoC5/USBFS_1.c **** *
 166:.\Generated_Source\PSoC5/USBFS_1.c **** *       *USBFS_1_5V_OPERATION* - Enable voltage regulator and use
 167:.\Generated_Source\PSoC5/USBFS_1.c **** *                                      regulator for pull-up
 168:.\Generated_Source\PSoC5/USBFS_1.c **** *
 169:.\Generated_Source\PSoC5/USBFS_1.c **** *       *USBFS_1_DWR_POWER_OPERATION* - Enable or disable the voltage
 170:.\Generated_Source\PSoC5/USBFS_1.c **** *                                      regulator depending on the power supply
 171:.\Generated_Source\PSoC5/USBFS_1.c **** *                                      voltage configuration in the DWR tab.
 172:.\Generated_Source\PSoC5/USBFS_1.c **** *                                      For PSoC 3/5LP devices, the VDDD supply
 173:.\Generated_Source\PSoC5/USBFS_1.c **** *                                      voltage is considered and for PSoC 4A-L,
 174:.\Generated_Source\PSoC5/USBFS_1.c **** *                                      the VBUS supply voltage is considered.*
 175:.\Generated_Source\PSoC5/USBFS_1.c **** * \globalvars
 176:.\Generated_Source\PSoC5/USBFS_1.c **** *  \ref USBFS_1_initVar
 177:.\Generated_Source\PSoC5/USBFS_1.c **** *
 178:.\Generated_Source\PSoC5/USBFS_1.c **** * \sideeffect
 179:.\Generated_Source\PSoC5/USBFS_1.c **** *   This function will reset all communication states to default.
 180:.\Generated_Source\PSoC5/USBFS_1.c **** *
 181:.\Generated_Source\PSoC5/USBFS_1.c **** * \reentrant
 182:.\Generated_Source\PSoC5/USBFS_1.c **** *  No.
 183:.\Generated_Source\PSoC5/USBFS_1.c **** *
 184:.\Generated_Source\PSoC5/USBFS_1.c **** *******************************************************************************/
 185:.\Generated_Source\PSoC5/USBFS_1.c **** void USBFS_1_Start(uint8 device, uint8 mode) 
 186:.\Generated_Source\PSoC5/USBFS_1.c **** {
 187:.\Generated_Source\PSoC5/USBFS_1.c ****     if (0u == USBFS_1_initVar)
 188:.\Generated_Source\PSoC5/USBFS_1.c ****     {
 189:.\Generated_Source\PSoC5/USBFS_1.c ****         USBFS_1_Init();
 190:.\Generated_Source\PSoC5/USBFS_1.c ****         USBFS_1_initVar = 1u;
 191:.\Generated_Source\PSoC5/USBFS_1.c ****     }
 192:.\Generated_Source\PSoC5/USBFS_1.c **** 
 193:.\Generated_Source\PSoC5/USBFS_1.c ****     USBFS_1_InitComponent(device, mode);
 194:.\Generated_Source\PSoC5/USBFS_1.c **** }
 195:.\Generated_Source\PSoC5/USBFS_1.c **** 
 196:.\Generated_Source\PSoC5/USBFS_1.c **** 
 197:.\Generated_Source\PSoC5/USBFS_1.c **** /*******************************************************************************
 198:.\Generated_Source\PSoC5/USBFS_1.c **** * Function Name: USBFS_1_Init
 199:.\Generated_Source\PSoC5/USBFS_1.c **** ****************************************************************************//**
 200:.\Generated_Source\PSoC5/USBFS_1.c **** *
 201:.\Generated_Source\PSoC5/USBFS_1.c **** * This function initializes or restores the component according to the
 202:.\Generated_Source\PSoC5/USBFS_1.c **** * customizer Configure dialog settings. It is not necessary to call
ARM GAS  C:\Users\LUKASC~1\AppData\Local\Temp\ccX4OJiL.s 			page 5


 203:.\Generated_Source\PSoC5/USBFS_1.c **** * USBFS_1_Init() because the USBFS_1_Start() routine calls
 204:.\Generated_Source\PSoC5/USBFS_1.c **** * this function and is the preferred method to begin component operation.
 205:.\Generated_Source\PSoC5/USBFS_1.c **** *
 206:.\Generated_Source\PSoC5/USBFS_1.c **** * \reentrant
 207:.\Generated_Source\PSoC5/USBFS_1.c **** *  No.
 208:.\Generated_Source\PSoC5/USBFS_1.c **** *
 209:.\Generated_Source\PSoC5/USBFS_1.c **** *******************************************************************************/
 210:.\Generated_Source\PSoC5/USBFS_1.c **** void USBFS_1_Init(void) 
 211:.\Generated_Source\PSoC5/USBFS_1.c **** {
  27              		.loc 1 211 0
  28              		.cfi_startproc
  29              		@ args = 0, pretend = 0, frame = 0
  30              		@ frame_needed = 0, uses_anonymous_args = 0
  31 0000 F8B5     		push	{r3, r4, r5, r6, r7, lr}
  32              		.cfi_def_cfa_offset 24
  33              		.cfi_offset 3, -24
  34              		.cfi_offset 4, -20
  35              		.cfi_offset 5, -16
  36              		.cfi_offset 6, -12
  37              		.cfi_offset 7, -8
  38              		.cfi_offset 14, -4
 212:.\Generated_Source\PSoC5/USBFS_1.c **** #if (CY_PSOC4)
 213:.\Generated_Source\PSoC5/USBFS_1.c ****     /* Enable clock to USB IP. */
 214:.\Generated_Source\PSoC5/USBFS_1.c ****     USBFS_1_USB_CLK_EN_REG = USBFS_1_USB_CLK_CSR_CLK_EN;
 215:.\Generated_Source\PSoC5/USBFS_1.c **** 
 216:.\Generated_Source\PSoC5/USBFS_1.c ****     /* The internal regulator (CR1.REG_ENABLE) is enabled in
 217:.\Generated_Source\PSoC5/USBFS_1.c ****     * USBFS_1_InitComponent() if it is required.
 218:.\Generated_Source\PSoC5/USBFS_1.c ****     */
 219:.\Generated_Source\PSoC5/USBFS_1.c **** 
 220:.\Generated_Source\PSoC5/USBFS_1.c ****     /* Enable USBIO control on drive mode of D+ and D- pins. */
 221:.\Generated_Source\PSoC5/USBFS_1.c ****     USBFS_1_USBIO_CR1_REG &= ~ (uint32) USBFS_1_USBIO_CR1_IOMODE;
 222:.\Generated_Source\PSoC5/USBFS_1.c **** 
 223:.\Generated_Source\PSoC5/USBFS_1.c ****     /* Set number of LF CLK to detect UBS bus reset. */
 224:.\Generated_Source\PSoC5/USBFS_1.c ****     USBFS_1_BUS_RST_CNT_REG = USBFS_1_DEFUALT_BUS_RST_CNT;
 225:.\Generated_Source\PSoC5/USBFS_1.c **** 
 226:.\Generated_Source\PSoC5/USBFS_1.c ****     /* Select VBUS detection source and clear PHY isolate. The application level
 227:.\Generated_Source\PSoC5/USBFS_1.c ****     * must ensure that VBUS is valid. There is no need to wait 2us before VBUS is valid.
 228:.\Generated_Source\PSoC5/USBFS_1.c ****     */
 229:.\Generated_Source\PSoC5/USBFS_1.c ****     USBFS_1_POWER_CTRL_REG = USBFS_1_DEFAULT_POWER_CTRL_VBUS;
 230:.\Generated_Source\PSoC5/USBFS_1.c **** 
 231:.\Generated_Source\PSoC5/USBFS_1.c ****     /* Enable PHY detector and single-ended and differential receivers. */
 232:.\Generated_Source\PSoC5/USBFS_1.c ****     USBFS_1_POWER_CTRL_REG |= USBFS_1_DEFAULT_POWER_CTRL_PHY;
 233:.\Generated_Source\PSoC5/USBFS_1.c **** 
 234:.\Generated_Source\PSoC5/USBFS_1.c ****     /* Suspend clear sequence. */
 235:.\Generated_Source\PSoC5/USBFS_1.c ****     USBFS_1_POWER_CTRL_REG &= (uint32) ~USBFS_1_POWER_CTRL_SUSPEND;
 236:.\Generated_Source\PSoC5/USBFS_1.c ****     CyDelayUs(USBFS_1_WAIT_SUSPEND_DEL_DISABLE);
 237:.\Generated_Source\PSoC5/USBFS_1.c ****     USBFS_1_POWER_CTRL_REG &= (uint32) ~USBFS_1_POWER_CTRL_SUSPEND_DEL;
 238:.\Generated_Source\PSoC5/USBFS_1.c **** 
 239:.\Generated_Source\PSoC5/USBFS_1.c ****     /* Sets IMO lock options and clear all other bits. */
 240:.\Generated_Source\PSoC5/USBFS_1.c ****     USBFS_1_CR1_REG = USBFS_1_DEFUALT_CR1;
 241:.\Generated_Source\PSoC5/USBFS_1.c **** 
 242:.\Generated_Source\PSoC5/USBFS_1.c ****     /* Configure level (hi, lo, med) for each interrupt source. */
 243:.\Generated_Source\PSoC5/USBFS_1.c ****     USBFS_1_INTR_LVL_SEL_REG = USBFS_1_DEFAULT_INTR_LVL_SEL;
 244:.\Generated_Source\PSoC5/USBFS_1.c **** 
 245:.\Generated_Source\PSoC5/USBFS_1.c ****     /* Configure interrupt sources from: SOF, Bus Reset and EP0. */
 246:.\Generated_Source\PSoC5/USBFS_1.c ****     USBFS_1_INTR_SIE_MASK_REG = USBFS_1_DEFAULT_INTR_SIE_MASK;
 247:.\Generated_Source\PSoC5/USBFS_1.c **** 
ARM GAS  C:\Users\LUKASC~1\AppData\Local\Temp\ccX4OJiL.s 			page 6


 248:.\Generated_Source\PSoC5/USBFS_1.c **** #else
 249:.\Generated_Source\PSoC5/USBFS_1.c ****     uint8 enableInterrupts = CyEnterCriticalSection();
  39              		.loc 1 249 0
  40 0002 FFF7FEFF 		bl	CyEnterCriticalSection
  41              	.LVL0:
  42 0006 0546     		mov	r5, r0
  43              	.LVL1:
 250:.\Generated_Source\PSoC5/USBFS_1.c **** 
 251:.\Generated_Source\PSoC5/USBFS_1.c **** #if (USBFS_1_EP_MANAGEMENT_DMA)
 252:.\Generated_Source\PSoC5/USBFS_1.c ****     uint16 i;
 253:.\Generated_Source\PSoC5/USBFS_1.c **** #endif /* (USBFS_1_EP_MANAGEMENT_DMA) */
 254:.\Generated_Source\PSoC5/USBFS_1.c **** 
 255:.\Generated_Source\PSoC5/USBFS_1.c ****     /* Enable USB block. */
 256:.\Generated_Source\PSoC5/USBFS_1.c ****     USBFS_1_PM_ACT_CFG_REG |= USBFS_1_PM_ACT_EN_FSUSB;
  44              		.loc 1 256 0
  45 0008 3D4A     		ldr	r2, .L5
  46 000a 1378     		ldrb	r3, [r2]	@ zero_extendqisi2
  47 000c 43F00103 		orr	r3, r3, #1
  48 0010 1370     		strb	r3, [r2]
 257:.\Generated_Source\PSoC5/USBFS_1.c ****     /* Enable USB block for Standby Power Mode. */
 258:.\Generated_Source\PSoC5/USBFS_1.c ****     USBFS_1_PM_STBY_CFG_REG |= USBFS_1_PM_STBY_EN_FSUSB;
  49              		.loc 1 258 0
  50 0012 1032     		adds	r2, r2, #16
  51 0014 1378     		ldrb	r3, [r2]	@ zero_extendqisi2
  52 0016 43F00103 		orr	r3, r3, #1
  53 001a 1370     		strb	r3, [r2]
 259:.\Generated_Source\PSoC5/USBFS_1.c **** 
 260:.\Generated_Source\PSoC5/USBFS_1.c ****     /* Enable core clock. */
 261:.\Generated_Source\PSoC5/USBFS_1.c ****     USBFS_1_USB_CLK_EN_REG = USBFS_1_USB_CLK_ENABLE;
  54              		.loc 1 261 0
  55 001c 0127     		movs	r7, #1
  56 001e 394B     		ldr	r3, .L5+4
  57 0020 1F70     		strb	r7, [r3]
 262:.\Generated_Source\PSoC5/USBFS_1.c **** 
 263:.\Generated_Source\PSoC5/USBFS_1.c ****     USBFS_1_CR1_REG = USBFS_1_CR1_ENABLE_LOCK;
  58              		.loc 1 263 0
  59 0022 0226     		movs	r6, #2
  60 0024 943B     		subs	r3, r3, #148
  61 0026 1E70     		strb	r6, [r3]
 264:.\Generated_Source\PSoC5/USBFS_1.c **** 
 265:.\Generated_Source\PSoC5/USBFS_1.c ****     /* ENABLING USBIO PADS IN USB MODE FROM I/O MODE. */
 266:.\Generated_Source\PSoC5/USBFS_1.c ****     /* Ensure USB transmit enable is low (USB_USBIO_CR0.ten). - Manual Transmission - Disabled. */
 267:.\Generated_Source\PSoC5/USBFS_1.c ****     USBFS_1_USBIO_CR0_REG &= (uint8) ~USBFS_1_USBIO_CR0_TEN;
  62              		.loc 1 267 0
  63 0028 02F5E252 		add	r2, r2, #7232
  64 002c 1B32     		adds	r2, r2, #27
  65 002e 1378     		ldrb	r3, [r2]	@ zero_extendqisi2
  66 0030 03F07F03 		and	r3, r3, #127
  67 0034 1370     		strb	r3, [r2]
 268:.\Generated_Source\PSoC5/USBFS_1.c ****     CyDelayUs(USBFS_1_WAIT_REG_STABILITY_50NS);  /* ~50ns delay. */
  68              		.loc 1 268 0
  69 0036 0020     		movs	r0, #0
  70 0038 FFF7FEFF 		bl	CyDelayUs
  71              	.LVL2:
 269:.\Generated_Source\PSoC5/USBFS_1.c ****     /* Disable USBIO by asserting PM.USB_CR0.fsusbio_pd_n(Inverted.
 270:.\Generated_Source\PSoC5/USBFS_1.c ****     *  high. These bits will be set low by the power manager out-of-reset.
 271:.\Generated_Source\PSoC5/USBFS_1.c ****     *  Also confirm USBIO pull-up is disabled.
ARM GAS  C:\Users\LUKASC~1\AppData\Local\Temp\ccX4OJiL.s 			page 7


 272:.\Generated_Source\PSoC5/USBFS_1.c ****     */
 273:.\Generated_Source\PSoC5/USBFS_1.c ****     USBFS_1_PM_USB_CR0_REG &= (uint8) ~(USBFS_1_PM_USB_CR0_PD_N |
  72              		.loc 1 273 0
  73 003c 324C     		ldr	r4, .L5+8
  74 003e 2378     		ldrb	r3, [r4]	@ zero_extendqisi2
  75 0040 03F0F903 		and	r3, r3, #249
  76 0044 2370     		strb	r3, [r4]
 274:.\Generated_Source\PSoC5/USBFS_1.c ****                                                  USBFS_1_PM_USB_CR0_PD_PULLUP_N);
 275:.\Generated_Source\PSoC5/USBFS_1.c **** 
 276:.\Generated_Source\PSoC5/USBFS_1.c ****     /* Select IOMODE to USB mode. */
 277:.\Generated_Source\PSoC5/USBFS_1.c ****     USBFS_1_USBIO_CR1_REG &= (uint8) ~USBFS_1_USBIO_CR1_IOMODE;
  77              		.loc 1 277 0
  78 0046 314A     		ldr	r2, .L5+12
  79 0048 1378     		ldrb	r3, [r2]	@ zero_extendqisi2
  80 004a 03F0DF03 		and	r3, r3, #223
  81 004e 1370     		strb	r3, [r2]
 278:.\Generated_Source\PSoC5/USBFS_1.c **** 
 279:.\Generated_Source\PSoC5/USBFS_1.c ****     /* Enable USBIO reference by setting PM.USB_CR0.fsusbio_ref_en. */
 280:.\Generated_Source\PSoC5/USBFS_1.c ****     USBFS_1_PM_USB_CR0_REG |= USBFS_1_PM_USB_CR0_REF_EN;
  82              		.loc 1 280 0
  83 0050 2378     		ldrb	r3, [r4]	@ zero_extendqisi2
  84 0052 3B43     		orrs	r3, r3, r7
  85 0054 2370     		strb	r3, [r4]
 281:.\Generated_Source\PSoC5/USBFS_1.c ****     /* Reference is available for 1us after regulator is enabled. */
 282:.\Generated_Source\PSoC5/USBFS_1.c ****     CyDelayUs(USBFS_1_WAIT_REG_STABILITY_1US);
  86              		.loc 1 282 0
  87 0056 3846     		mov	r0, r7
  88 0058 FFF7FEFF 		bl	CyDelayUs
  89              	.LVL3:
 283:.\Generated_Source\PSoC5/USBFS_1.c ****     /* OR 40us after power is restored. */
 284:.\Generated_Source\PSoC5/USBFS_1.c ****     CyDelayUs(USBFS_1_WAIT_VREF_RESTORE);
  90              		.loc 1 284 0
  91 005c 2820     		movs	r0, #40
  92 005e FFF7FEFF 		bl	CyDelayUs
  93              	.LVL4:
 285:.\Generated_Source\PSoC5/USBFS_1.c ****     /* Ensure single-ended disable bits are low (PRT15.INP_DIS[7:6])(input receiver enabled). */
 286:.\Generated_Source\PSoC5/USBFS_1.c ****     USBFS_1_DM_INP_DIS_REG &= (uint8) ~USBFS_1_DM_MASK;
  94              		.loc 1 286 0
  95 0062 2B4B     		ldr	r3, .L5+16
  96 0064 1A78     		ldrb	r2, [r3]	@ zero_extendqisi2
  97 0066 02F07F02 		and	r2, r2, #127
  98 006a 1A70     		strb	r2, [r3]
 287:.\Generated_Source\PSoC5/USBFS_1.c ****     USBFS_1_DP_INP_DIS_REG &= (uint8) ~USBFS_1_DP_MASK;
  99              		.loc 1 287 0
 100 006c 1A78     		ldrb	r2, [r3]	@ zero_extendqisi2
 101 006e 02F0BF02 		and	r2, r2, #191
 102 0072 1A70     		strb	r2, [r3]
 288:.\Generated_Source\PSoC5/USBFS_1.c **** 
 289:.\Generated_Source\PSoC5/USBFS_1.c ****     /* Enable USBIO. */
 290:.\Generated_Source\PSoC5/USBFS_1.c ****     USBFS_1_PM_USB_CR0_REG |= USBFS_1_PM_USB_CR0_PD_N;
 103              		.loc 1 290 0
 104 0074 2378     		ldrb	r3, [r4]	@ zero_extendqisi2
 105 0076 3343     		orrs	r3, r3, r6
 106 0078 2370     		strb	r3, [r4]
 291:.\Generated_Source\PSoC5/USBFS_1.c ****     CyDelayUs(USBFS_1_WAIT_PD_PULLUP_N_ENABLE);
 107              		.loc 1 291 0
 108 007a 3046     		mov	r0, r6
ARM GAS  C:\Users\LUKASC~1\AppData\Local\Temp\ccX4OJiL.s 			page 8


 109 007c FFF7FEFF 		bl	CyDelayUs
 110              	.LVL5:
 292:.\Generated_Source\PSoC5/USBFS_1.c ****     /* Set USBIO pull-up enable. */
 293:.\Generated_Source\PSoC5/USBFS_1.c ****     USBFS_1_PM_USB_CR0_REG |= USBFS_1_PM_USB_CR0_PD_PULLUP_N;
 111              		.loc 1 293 0
 112 0080 2378     		ldrb	r3, [r4]	@ zero_extendqisi2
 113 0082 43F00403 		orr	r3, r3, #4
 114 0086 2370     		strb	r3, [r4]
 294:.\Generated_Source\PSoC5/USBFS_1.c **** 
 295:.\Generated_Source\PSoC5/USBFS_1.c ****     /* Reset Arbiter Write Address register for endpoint 1. */
 296:.\Generated_Source\PSoC5/USBFS_1.c ****     CY_SET_REG8(USBFS_1_ARB_RW1_WA_PTR,     0u);
 115              		.loc 1 296 0
 116 0088 0023     		movs	r3, #0
 117 008a 224A     		ldr	r2, .L5+20
 118 008c 1370     		strb	r3, [r2]
 297:.\Generated_Source\PSoC5/USBFS_1.c ****     CY_SET_REG8(USBFS_1_ARB_RW1_WA_MSB_PTR, 0u);
 119              		.loc 1 297 0
 120 008e 0132     		adds	r2, r2, #1
 121 0090 1370     		strb	r3, [r2]
 122              	.LVL6:
 298:.\Generated_Source\PSoC5/USBFS_1.c **** 
 299:.\Generated_Source\PSoC5/USBFS_1.c **** #if (USBFS_1_EP_MANAGEMENT_DMA)
 300:.\Generated_Source\PSoC5/USBFS_1.c ****     /* Initialize transfer descriptor. This will be used to detect DMA state - initialized or not. 
 301:.\Generated_Source\PSoC5/USBFS_1.c ****     for (i = 0u; i < USBFS_1_MAX_EP; ++i)
 123              		.loc 1 301 0
 124 0092 06E0     		b	.L2
 125              	.LVL7:
 126              	.L3:
 302:.\Generated_Source\PSoC5/USBFS_1.c ****     {
 303:.\Generated_Source\PSoC5/USBFS_1.c ****         USBFS_1_DmaTd[i] = DMA_INVALID_TD;
 127              		.loc 1 303 0 discriminator 3
 128 0094 FF22     		movs	r2, #255
 129 0096 2049     		ldr	r1, .L5+24
 130 0098 CA54     		strb	r2, [r1, r3]
 304:.\Generated_Source\PSoC5/USBFS_1.c **** 
 305:.\Generated_Source\PSoC5/USBFS_1.c ****     #if (USBFS_1_EP_MANAGEMENT_DMA_AUTO && (USBFS_1_EP_DMA_AUTO_OPT == 0u))
 306:.\Generated_Source\PSoC5/USBFS_1.c ****         USBFS_1_DmaNextTd[i] = DMA_INVALID_TD;
 131              		.loc 1 306 0 discriminator 3
 132 009a 2049     		ldr	r1, .L5+28
 133 009c CA54     		strb	r2, [r1, r3]
 301:.\Generated_Source\PSoC5/USBFS_1.c ****     {
 134              		.loc 1 301 0 discriminator 3
 135 009e 0133     		adds	r3, r3, #1
 136              	.LVL8:
 137 00a0 9BB2     		uxth	r3, r3
 138              	.LVL9:
 139              	.L2:
 301:.\Generated_Source\PSoC5/USBFS_1.c ****     {
 140              		.loc 1 301 0 is_stmt 0 discriminator 1
 141 00a2 082B     		cmp	r3, #8
 142 00a4 F6D9     		bls	.L3
 307:.\Generated_Source\PSoC5/USBFS_1.c ****     #endif /* (USBFS_1_EP_MANAGEMENT_DMA_AUTO && (USBFS_1_EP_DMA_AUTO_OPT == 0u)) */
 308:.\Generated_Source\PSoC5/USBFS_1.c ****     }
 309:.\Generated_Source\PSoC5/USBFS_1.c **** #endif /* (USBFS_1_EP_MANAGEMENT_DMA) */
 310:.\Generated_Source\PSoC5/USBFS_1.c **** 
 311:.\Generated_Source\PSoC5/USBFS_1.c ****     CyExitCriticalSection(enableInterrupts);
 143              		.loc 1 311 0 is_stmt 1
ARM GAS  C:\Users\LUKASC~1\AppData\Local\Temp\ccX4OJiL.s 			page 9


 144 00a6 2846     		mov	r0, r5
 145 00a8 FFF7FEFF 		bl	CyExitCriticalSection
 146              	.LVL10:
 312:.\Generated_Source\PSoC5/USBFS_1.c **** #endif /* (CY_PSOC4) */
 313:.\Generated_Source\PSoC5/USBFS_1.c **** 
 314:.\Generated_Source\PSoC5/USBFS_1.c ****     /* Configure interrupts from USB block. */
 315:.\Generated_Source\PSoC5/USBFS_1.c **** #if (CY_PSOC4)
 316:.\Generated_Source\PSoC5/USBFS_1.c ****     /* Configure hi_int: set handler and priority. */
 317:.\Generated_Source\PSoC5/USBFS_1.c ****     CyIntSetPriority     (USBFS_1_INTR_HI_VECT_NUM,  USBFS_1_INTR_HI_PRIORITY);
 318:.\Generated_Source\PSoC5/USBFS_1.c ****     (void) CyIntSetVector(USBFS_1_INTR_HI_VECT_NUM, &USBFS_1_INTR_HI_ISR);
 319:.\Generated_Source\PSoC5/USBFS_1.c **** 
 320:.\Generated_Source\PSoC5/USBFS_1.c ****     /* Configure lo_int: set handler and priority. */
 321:.\Generated_Source\PSoC5/USBFS_1.c ****     CyIntSetPriority     (USBFS_1_INTR_LO_VECT_NUM,  USBFS_1_INTR_LO_PRIORITY);
 322:.\Generated_Source\PSoC5/USBFS_1.c ****     (void) CyIntSetVector(USBFS_1_INTR_LO_VECT_NUM, &USBFS_1_INTR_LO_ISR);
 323:.\Generated_Source\PSoC5/USBFS_1.c **** 
 324:.\Generated_Source\PSoC5/USBFS_1.c ****     /* Configure med_int: set handler and priority (routed through DSI). */
 325:.\Generated_Source\PSoC5/USBFS_1.c ****     CyIntSetPriority     (USBFS_1_INTR_MED_VECT_NUM,  USBFS_1_INTR_MED_PRIORITY);
 326:.\Generated_Source\PSoC5/USBFS_1.c ****     (void) CyIntSetVector(USBFS_1_INTR_MED_VECT_NUM, &USBFS_1_INTR_MED_ISR);
 327:.\Generated_Source\PSoC5/USBFS_1.c **** 
 328:.\Generated_Source\PSoC5/USBFS_1.c **** #else
 329:.\Generated_Source\PSoC5/USBFS_1.c ****     /* Set bus reset interrupt. */
 330:.\Generated_Source\PSoC5/USBFS_1.c ****     CyIntSetPriority(USBFS_1_BUS_RESET_VECT_NUM, USBFS_1_BUS_RESET_PRIOR);
 147              		.loc 1 330 0
 148 00ac 1720     		movs	r0, #23
 149 00ae 0721     		movs	r1, #7
 150 00b0 FFF7FEFF 		bl	CyIntSetPriority
 151              	.LVL11:
 331:.\Generated_Source\PSoC5/USBFS_1.c ****     (void) CyIntSetVector(USBFS_1_BUS_RESET_VECT_NUM,   &USBFS_1_BUS_RESET_ISR);
 152              		.loc 1 331 0
 153 00b4 1720     		movs	r0, #23
 154 00b6 1A49     		ldr	r1, .L5+32
 155 00b8 FFF7FEFF 		bl	CyIntSetVector
 156              	.LVL12:
 332:.\Generated_Source\PSoC5/USBFS_1.c **** 
 333:.\Generated_Source\PSoC5/USBFS_1.c ****     /* Set Control Endpoint Interrupt. */
 334:.\Generated_Source\PSoC5/USBFS_1.c ****     CyIntSetPriority(USBFS_1_EP_0_VECT_NUM, USBFS_1_EP_0_PRIOR);
 157              		.loc 1 334 0
 158 00bc 1820     		movs	r0, #24
 159 00be 0721     		movs	r1, #7
 160 00c0 FFF7FEFF 		bl	CyIntSetPriority
 161              	.LVL13:
 335:.\Generated_Source\PSoC5/USBFS_1.c ****     (void) CyIntSetVector(USBFS_1_EP_0_VECT_NUM,   &USBFS_1_EP_0_ISR);
 162              		.loc 1 335 0
 163 00c4 1820     		movs	r0, #24
 164 00c6 1749     		ldr	r1, .L5+36
 165 00c8 FFF7FEFF 		bl	CyIntSetVector
 166              	.LVL14:
 336:.\Generated_Source\PSoC5/USBFS_1.c **** 
 337:.\Generated_Source\PSoC5/USBFS_1.c ****     /* Set SOF interrupt. */
 338:.\Generated_Source\PSoC5/USBFS_1.c ****     #if (USBFS_1_SOF_ISR_ACTIVE)
 339:.\Generated_Source\PSoC5/USBFS_1.c ****         CyIntSetPriority     (USBFS_1_SOF_VECT_NUM,  USBFS_1_SOF_PRIOR);
 340:.\Generated_Source\PSoC5/USBFS_1.c ****         (void) CyIntSetVector(USBFS_1_SOF_VECT_NUM, &USBFS_1_SOF_ISR);
 341:.\Generated_Source\PSoC5/USBFS_1.c ****     #endif /* (USBFS_1_SOF_ISR_ACTIVE) */
 342:.\Generated_Source\PSoC5/USBFS_1.c **** 
 343:.\Generated_Source\PSoC5/USBFS_1.c ****     /* Set Data Endpoint 1 Interrupt. */
 344:.\Generated_Source\PSoC5/USBFS_1.c ****     #if (USBFS_1_EP1_ISR_ACTIVE)
 345:.\Generated_Source\PSoC5/USBFS_1.c ****         CyIntSetPriority     (USBFS_1_EP_1_VECT_NUM,  USBFS_1_EP_1_PRIOR);
ARM GAS  C:\Users\LUKASC~1\AppData\Local\Temp\ccX4OJiL.s 			page 10


 346:.\Generated_Source\PSoC5/USBFS_1.c ****         (void) CyIntSetVector(USBFS_1_EP_1_VECT_NUM,  &USBFS_1_EP_1_ISR);
 347:.\Generated_Source\PSoC5/USBFS_1.c ****     #endif /* (USBFS_1_EP1_ISR_ACTIVE) */
 348:.\Generated_Source\PSoC5/USBFS_1.c **** 
 349:.\Generated_Source\PSoC5/USBFS_1.c ****     /* Set Data Endpoint 2 Interrupt. */
 350:.\Generated_Source\PSoC5/USBFS_1.c ****     #if (USBFS_1_EP2_ISR_ACTIVE)
 351:.\Generated_Source\PSoC5/USBFS_1.c ****         CyIntSetPriority     (USBFS_1_EP_2_VECT_NUM,  USBFS_1_EP_2_PRIOR);
 167              		.loc 1 351 0
 168 00cc 0120     		movs	r0, #1
 169 00ce 0721     		movs	r1, #7
 170 00d0 FFF7FEFF 		bl	CyIntSetPriority
 171              	.LVL15:
 352:.\Generated_Source\PSoC5/USBFS_1.c ****         (void) CyIntSetVector(USBFS_1_EP_2_VECT_NUM, &USBFS_1_EP_2_ISR);
 172              		.loc 1 352 0
 173 00d4 0120     		movs	r0, #1
 174 00d6 1449     		ldr	r1, .L5+40
 175 00d8 FFF7FEFF 		bl	CyIntSetVector
 176              	.LVL16:
 353:.\Generated_Source\PSoC5/USBFS_1.c ****     #endif /* (USBFS_1_EP2_ISR_ACTIVE) */
 354:.\Generated_Source\PSoC5/USBFS_1.c **** 
 355:.\Generated_Source\PSoC5/USBFS_1.c ****     /* Set Data Endpoint 3 Interrupt. */
 356:.\Generated_Source\PSoC5/USBFS_1.c ****     #if (USBFS_1_EP3_ISR_ACTIVE)
 357:.\Generated_Source\PSoC5/USBFS_1.c ****         CyIntSetPriority     (USBFS_1_EP_3_VECT_NUM,  USBFS_1_EP_3_PRIOR);
 358:.\Generated_Source\PSoC5/USBFS_1.c ****         (void) CyIntSetVector(USBFS_1_EP_3_VECT_NUM, &USBFS_1_EP_3_ISR);
 359:.\Generated_Source\PSoC5/USBFS_1.c ****     #endif /* (USBFS_1_EP3_ISR_ACTIVE) */
 360:.\Generated_Source\PSoC5/USBFS_1.c **** 
 361:.\Generated_Source\PSoC5/USBFS_1.c ****     /* Set Data Endpoint 4 Interrupt. */
 362:.\Generated_Source\PSoC5/USBFS_1.c ****     #if (USBFS_1_EP4_ISR_ACTIVE)
 363:.\Generated_Source\PSoC5/USBFS_1.c ****         CyIntSetPriority     (USBFS_1_EP_4_VECT_NUM,  USBFS_1_EP_4_PRIOR);
 364:.\Generated_Source\PSoC5/USBFS_1.c ****         (void) CyIntSetVector(USBFS_1_EP_4_VECT_NUM, &USBFS_1_EP_4_ISR);
 365:.\Generated_Source\PSoC5/USBFS_1.c ****     #endif /* (USBFS_1_EP4_ISR_ACTIVE) */
 366:.\Generated_Source\PSoC5/USBFS_1.c **** 
 367:.\Generated_Source\PSoC5/USBFS_1.c ****     /* Set Data Endpoint 5 Interrupt. */
 368:.\Generated_Source\PSoC5/USBFS_1.c ****     #if (USBFS_1_EP5_ISR_ACTIVE)
 369:.\Generated_Source\PSoC5/USBFS_1.c ****         CyIntSetPriority     (USBFS_1_EP_5_VECT_NUM,  USBFS_1_EP_5_PRIOR);
 370:.\Generated_Source\PSoC5/USBFS_1.c ****         (void) CyIntSetVector(USBFS_1_EP_5_VECT_NUM, &USBFS_1_EP_5_ISR);
 371:.\Generated_Source\PSoC5/USBFS_1.c ****     #endif /* (USBFS_1_EP5_ISR_ACTIVE) */
 372:.\Generated_Source\PSoC5/USBFS_1.c **** 
 373:.\Generated_Source\PSoC5/USBFS_1.c ****     /* Set Data Endpoint 6 Interrupt. */
 374:.\Generated_Source\PSoC5/USBFS_1.c ****     #if (USBFS_1_EP6_ISR_ACTIVE)
 375:.\Generated_Source\PSoC5/USBFS_1.c ****         CyIntSetPriority     (USBFS_1_EP_6_VECT_NUM,  USBFS_1_EP_6_PRIOR);
 376:.\Generated_Source\PSoC5/USBFS_1.c ****         (void) CyIntSetVector(USBFS_1_EP_6_VECT_NUM, &USBFS_1_EP_6_ISR);
 377:.\Generated_Source\PSoC5/USBFS_1.c ****     #endif /* (USBFS_1_EP6_ISR_ACTIVE) */
 378:.\Generated_Source\PSoC5/USBFS_1.c **** 
 379:.\Generated_Source\PSoC5/USBFS_1.c ****      /* Set Data Endpoint 7 Interrupt. */
 380:.\Generated_Source\PSoC5/USBFS_1.c ****     #if (USBFS_1_EP7_ISR_ACTIVE)
 381:.\Generated_Source\PSoC5/USBFS_1.c ****         CyIntSetPriority     (USBFS_1_EP_7_VECT_NUM,  USBFS_1_EP_7_PRIOR);
 382:.\Generated_Source\PSoC5/USBFS_1.c ****         (void) CyIntSetVector(USBFS_1_EP_7_VECT_NUM, &USBFS_1_EP_7_ISR);
 383:.\Generated_Source\PSoC5/USBFS_1.c ****     #endif /* (USBFS_1_EP7_ISR_ACTIVE) */
 384:.\Generated_Source\PSoC5/USBFS_1.c **** 
 385:.\Generated_Source\PSoC5/USBFS_1.c ****     /* Set Data Endpoint 8 Interrupt. */
 386:.\Generated_Source\PSoC5/USBFS_1.c ****     #if (USBFS_1_EP8_ISR_ACTIVE)
 387:.\Generated_Source\PSoC5/USBFS_1.c ****         CyIntSetPriority     (USBFS_1_EP_8_VECT_NUM,  USBFS_1_EP_8_PRIOR);
 388:.\Generated_Source\PSoC5/USBFS_1.c ****         (void) CyIntSetVector(USBFS_1_EP_8_VECT_NUM, &USBFS_1_EP_8_ISR);
 389:.\Generated_Source\PSoC5/USBFS_1.c ****     #endif /* (USBFS_1_EP8_ISR_ACTIVE) */
 390:.\Generated_Source\PSoC5/USBFS_1.c **** 
 391:.\Generated_Source\PSoC5/USBFS_1.c ****     /* Set ARB Interrupt. */
 392:.\Generated_Source\PSoC5/USBFS_1.c ****     #if (USBFS_1_EP_MANAGEMENT_DMA && USBFS_1_ARB_ISR_ACTIVE)
ARM GAS  C:\Users\LUKASC~1\AppData\Local\Temp\ccX4OJiL.s 			page 11


 393:.\Generated_Source\PSoC5/USBFS_1.c ****         CyIntSetPriority     (USBFS_1_ARB_VECT_NUM,  USBFS_1_ARB_PRIOR);
 177              		.loc 1 393 0
 178 00dc 1620     		movs	r0, #22
 179 00de 0021     		movs	r1, #0
 180 00e0 FFF7FEFF 		bl	CyIntSetPriority
 181              	.LVL17:
 394:.\Generated_Source\PSoC5/USBFS_1.c ****         (void) CyIntSetVector(USBFS_1_ARB_VECT_NUM, &USBFS_1_ARB_ISR);
 182              		.loc 1 394 0
 183 00e4 1620     		movs	r0, #22
 184 00e6 1149     		ldr	r1, .L5+44
 185 00e8 FFF7FEFF 		bl	CyIntSetVector
 186              	.LVL18:
 395:.\Generated_Source\PSoC5/USBFS_1.c ****     #endif /* (USBFS_1_EP_MANAGEMENT_DMA && USBFS_1_ARB_ISR_ACTIVE) */
 396:.\Generated_Source\PSoC5/USBFS_1.c **** #endif /* (CY_PSOC4) */
 397:.\Generated_Source\PSoC5/USBFS_1.c **** 
 398:.\Generated_Source\PSoC5/USBFS_1.c ****     /* Common: Configure GPIO interrupt for wakeup. */
 399:.\Generated_Source\PSoC5/USBFS_1.c **** #if (USBFS_1_DP_ISR_ACTIVE)
 400:.\Generated_Source\PSoC5/USBFS_1.c ****     CyIntSetPriority     (USBFS_1_DP_INTC_VECT_NUM,  USBFS_1_DP_INTC_PRIORITY);
 187              		.loc 1 400 0
 188 00ec 0C20     		movs	r0, #12
 189 00ee 0721     		movs	r1, #7
 190 00f0 FFF7FEFF 		bl	CyIntSetPriority
 191              	.LVL19:
 401:.\Generated_Source\PSoC5/USBFS_1.c ****     (void) CyIntSetVector(USBFS_1_DP_INTC_VECT_NUM, &USBFS_1_DP_ISR);
 192              		.loc 1 401 0
 193 00f4 0C20     		movs	r0, #12
 194 00f6 0E49     		ldr	r1, .L5+48
 195 00f8 FFF7FEFF 		bl	CyIntSetVector
 196              	.LVL20:
 197 00fc F8BD     		pop	{r3, r4, r5, r6, r7, pc}
 198              	.LVL21:
 199              	.L6:
 200 00fe 00BF     		.align	2
 201              	.L5:
 202 0100 A5430040 		.word	1073759141
 203 0104 9D600040 		.word	1073766557
 204 0108 94430040 		.word	1073759124
 205 010c 12600040 		.word	1073766418
 206 0110 F8510040 		.word	1073762808
 207 0114 84600040 		.word	1073766532
 208 0118 00000000 		.word	USBFS_1_DmaTd
 209 011c 00000000 		.word	USBFS_1_DmaNextTd
 210 0120 00000000 		.word	USBFS_1_BUS_RESET_ISR
 211 0124 00000000 		.word	USBFS_1_EP_0_ISR
 212 0128 00000000 		.word	USBFS_1_EP_2_ISR
 213 012c 00000000 		.word	USBFS_1_ARB_ISR
 214 0130 00000000 		.word	USBFS_1_DP_ISR
 215              		.cfi_endproc
 216              	.LFE1:
 217              		.size	USBFS_1_Init, .-USBFS_1_Init
 218              		.section	.text.USBFS_1_InitComponent,"ax",%progbits
 219              		.align	2
 220              		.global	USBFS_1_InitComponent
 221              		.thumb
 222              		.thumb_func
 223              		.type	USBFS_1_InitComponent, %function
 224              	USBFS_1_InitComponent:
ARM GAS  C:\Users\LUKASC~1\AppData\Local\Temp\ccX4OJiL.s 			page 12


 225              	.LFB2:
 402:.\Generated_Source\PSoC5/USBFS_1.c **** #endif /* (USBFS_1_DP_ISR_ACTIVE) */
 403:.\Generated_Source\PSoC5/USBFS_1.c **** 
 404:.\Generated_Source\PSoC5/USBFS_1.c **** #if (USBFS_1_EP_MANAGEMENT_DMA && CY_PSOC4)
 405:.\Generated_Source\PSoC5/USBFS_1.c ****     /* Initialize DMA channels. */
 406:.\Generated_Source\PSoC5/USBFS_1.c ****     USBFS_1_InitEpDma();
 407:.\Generated_Source\PSoC5/USBFS_1.c **** #endif /* (USBFS_1_EP_MANAGEMENT_DMA && CY_PSOC4) */
 408:.\Generated_Source\PSoC5/USBFS_1.c **** }
 409:.\Generated_Source\PSoC5/USBFS_1.c **** 
 410:.\Generated_Source\PSoC5/USBFS_1.c **** 
 411:.\Generated_Source\PSoC5/USBFS_1.c **** /*******************************************************************************
 412:.\Generated_Source\PSoC5/USBFS_1.c **** * Function Name: USBFS_1_InitComponent
 413:.\Generated_Source\PSoC5/USBFS_1.c **** ****************************************************************************//**
 414:.\Generated_Source\PSoC5/USBFS_1.c **** *
 415:.\Generated_Source\PSoC5/USBFS_1.c **** *   This function initializes the component’s global variables and initiates
 416:.\Generated_Source\PSoC5/USBFS_1.c **** *   communication with the host by pull-up D+ line.
 417:.\Generated_Source\PSoC5/USBFS_1.c **** *
 418:.\Generated_Source\PSoC5/USBFS_1.c **** * \param device:
 419:.\Generated_Source\PSoC5/USBFS_1.c **** *   Contains the device number of the desired device descriptor. The device
 420:.\Generated_Source\PSoC5/USBFS_1.c **** *   number can be found in the Device Descriptor Tab of "Configure" dialog,
 421:.\Generated_Source\PSoC5/USBFS_1.c **** *   under the settings of desired Device Descriptor, in the *Device Number*
 422:.\Generated_Source\PSoC5/USBFS_1.c **** *   field.
 423:.\Generated_Source\PSoC5/USBFS_1.c **** *  \param mode:
 424:.\Generated_Source\PSoC5/USBFS_1.c **** *   The operating voltage. This determines whether the voltage regulator
 425:.\Generated_Source\PSoC5/USBFS_1.c **** *   is enabled for 5V operation or if pass through mode is used for 3.3V
 426:.\Generated_Source\PSoC5/USBFS_1.c **** *   operation. Symbolic names and their associated values are given in the
 427:.\Generated_Source\PSoC5/USBFS_1.c **** *   following list.
 428:.\Generated_Source\PSoC5/USBFS_1.c **** *
 429:.\Generated_Source\PSoC5/USBFS_1.c **** *       *USBFS_1_3V_OPERATION* - Disable voltage regulator and pass-
 430:.\Generated_Source\PSoC5/USBFS_1.c **** *                                      through Vcc for pull-up
 431:.\Generated_Source\PSoC5/USBFS_1.c **** *
 432:.\Generated_Source\PSoC5/USBFS_1.c **** *       *USBFS_1_5V_OPERATION* - Enable voltage regulator and use
 433:.\Generated_Source\PSoC5/USBFS_1.c **** *                                      regulator for pull-up
 434:.\Generated_Source\PSoC5/USBFS_1.c **** *
 435:.\Generated_Source\PSoC5/USBFS_1.c **** *       *USBFS_1_DWR_POWER_OPERATION* - Enable or disable the voltage
 436:.\Generated_Source\PSoC5/USBFS_1.c **** *                                      regulator depending on the power supply
 437:.\Generated_Source\PSoC5/USBFS_1.c **** *                                      voltage configuration in the DWR tab.
 438:.\Generated_Source\PSoC5/USBFS_1.c **** *                                      For PSoC 3/5LP devices, the VDDD supply
 439:.\Generated_Source\PSoC5/USBFS_1.c **** *                                      voltage is considered and for PSoC 4A-L,
 440:.\Generated_Source\PSoC5/USBFS_1.c **** *                                      the VBUS supply voltage is considered.
 441:.\Generated_Source\PSoC5/USBFS_1.c **** *
 442:.\Generated_Source\PSoC5/USBFS_1.c **** * \globalvars
 443:.\Generated_Source\PSoC5/USBFS_1.c **** *   \ref USBFS_1_device
 444:.\Generated_Source\PSoC5/USBFS_1.c **** *   \ref USBFS_1_transferState
 445:.\Generated_Source\PSoC5/USBFS_1.c **** *   \ref USBFS_1_configuration
 446:.\Generated_Source\PSoC5/USBFS_1.c **** *   \ref USBFS_1_deviceStatus
 447:.\Generated_Source\PSoC5/USBFS_1.c **** *
 448:.\Generated_Source\PSoC5/USBFS_1.c **** *   \ref USBFS_1_deviceAddress - Contains the current device address. This
 449:.\Generated_Source\PSoC5/USBFS_1.c **** *       variable is initialized to zero in this API. The Host starts to communicate
 450:.\Generated_Source\PSoC5/USBFS_1.c **** *      to the device with address 0 and then sets it to a whatever value using a
 451:.\Generated_Source\PSoC5/USBFS_1.c **** *      SET_ADDRESS request.
 452:.\Generated_Source\PSoC5/USBFS_1.c **** *
 453:.\Generated_Source\PSoC5/USBFS_1.c **** *   \ref USBFS_1_lastPacketSize - Initialized to 0;
 454:.\Generated_Source\PSoC5/USBFS_1.c **** *
 455:.\Generated_Source\PSoC5/USBFS_1.c **** * \reentrant
 456:.\Generated_Source\PSoC5/USBFS_1.c **** *  No.
 457:.\Generated_Source\PSoC5/USBFS_1.c **** *
ARM GAS  C:\Users\LUKASC~1\AppData\Local\Temp\ccX4OJiL.s 			page 13


 458:.\Generated_Source\PSoC5/USBFS_1.c **** *******************************************************************************/
 459:.\Generated_Source\PSoC5/USBFS_1.c **** void USBFS_1_InitComponent(uint8 device, uint8 mode) 
 460:.\Generated_Source\PSoC5/USBFS_1.c **** {
 226              		.loc 1 460 0
 227              		.cfi_startproc
 228              		@ args = 0, pretend = 0, frame = 0
 229              		@ frame_needed = 0, uses_anonymous_args = 0
 230              	.LVL22:
 231 0000 10B5     		push	{r4, lr}
 232              		.cfi_def_cfa_offset 8
 233              		.cfi_offset 4, -8
 234              		.cfi_offset 14, -4
 235 0002 0C46     		mov	r4, r1
 461:.\Generated_Source\PSoC5/USBFS_1.c ****     /* Initialize _hidProtocol variable to comply with
 462:.\Generated_Source\PSoC5/USBFS_1.c ****     *  HID 7.2.6 Set_Protocol Request:
 463:.\Generated_Source\PSoC5/USBFS_1.c ****     *  "When initialized, all devices default to report protocol."
 464:.\Generated_Source\PSoC5/USBFS_1.c ****     */
 465:.\Generated_Source\PSoC5/USBFS_1.c **** #if defined(USBFS_1_ENABLE_HID_CLASS)
 466:.\Generated_Source\PSoC5/USBFS_1.c ****     uint8 i;
 467:.\Generated_Source\PSoC5/USBFS_1.c **** 
 468:.\Generated_Source\PSoC5/USBFS_1.c ****     for (i = 0u; i < USBFS_1_MAX_INTERFACES_NUMBER; i++)
 469:.\Generated_Source\PSoC5/USBFS_1.c ****     {
 470:.\Generated_Source\PSoC5/USBFS_1.c ****         USBFS_1_hidProtocol[i] = USBFS_1_PROTOCOL_REPORT;
 471:.\Generated_Source\PSoC5/USBFS_1.c ****     }
 472:.\Generated_Source\PSoC5/USBFS_1.c **** #endif /* USBFS_1_ENABLE_HID_CLASS */
 473:.\Generated_Source\PSoC5/USBFS_1.c **** 
 474:.\Generated_Source\PSoC5/USBFS_1.c ****     /* Store device number to access descriptor. */
 475:.\Generated_Source\PSoC5/USBFS_1.c ****     USBFS_1_device = device;
 236              		.loc 1 475 0
 237 0004 254B     		ldr	r3, .L14
 238 0006 1870     		strb	r0, [r3]
 476:.\Generated_Source\PSoC5/USBFS_1.c **** 
 477:.\Generated_Source\PSoC5/USBFS_1.c ****     /* Reset component internal variables. */
 478:.\Generated_Source\PSoC5/USBFS_1.c ****     USBFS_1_transferState   = USBFS_1_TRANS_STATE_IDLE;
 239              		.loc 1 478 0
 240 0008 0023     		movs	r3, #0
 241 000a 254A     		ldr	r2, .L14+4
 242 000c 1370     		strb	r3, [r2]
 479:.\Generated_Source\PSoC5/USBFS_1.c ****     USBFS_1_configurationChanged = 0u;
 243              		.loc 1 479 0
 244 000e 254A     		ldr	r2, .L14+8
 245 0010 1370     		strb	r3, [r2]
 480:.\Generated_Source\PSoC5/USBFS_1.c ****     USBFS_1_configuration   = 0u;
 246              		.loc 1 480 0
 247 0012 254A     		ldr	r2, .L14+12
 248 0014 1370     		strb	r3, [r2]
 481:.\Generated_Source\PSoC5/USBFS_1.c ****     USBFS_1_interfaceNumber = 0u;
 249              		.loc 1 481 0
 250 0016 254A     		ldr	r2, .L14+16
 251 0018 1370     		strb	r3, [r2]
 482:.\Generated_Source\PSoC5/USBFS_1.c ****     USBFS_1_deviceAddress   = 0u;
 252              		.loc 1 482 0
 253 001a 254A     		ldr	r2, .L14+20
 254 001c 1370     		strb	r3, [r2]
 483:.\Generated_Source\PSoC5/USBFS_1.c ****     USBFS_1_deviceStatus    = 0u;
 255              		.loc 1 483 0
 256 001e 254A     		ldr	r2, .L14+24
ARM GAS  C:\Users\LUKASC~1\AppData\Local\Temp\ccX4OJiL.s 			page 14


 257 0020 1370     		strb	r3, [r2]
 484:.\Generated_Source\PSoC5/USBFS_1.c ****     USBFS_1_lastPacketSize  = 0u;
 258              		.loc 1 484 0
 259 0022 254A     		ldr	r2, .L14+28
 260 0024 1370     		strb	r3, [r2]
 485:.\Generated_Source\PSoC5/USBFS_1.c **** 
 486:.\Generated_Source\PSoC5/USBFS_1.c ****     /* Enable component interrupts. */
 487:.\Generated_Source\PSoC5/USBFS_1.c **** #if (CY_PSOC4)
 488:.\Generated_Source\PSoC5/USBFS_1.c ****     CyIntEnable(USBFS_1_INTR_HI_VECT_NUM);
 489:.\Generated_Source\PSoC5/USBFS_1.c ****     CyIntEnable(USBFS_1_INTR_MED_VECT_NUM);
 490:.\Generated_Source\PSoC5/USBFS_1.c ****     CyIntEnable(USBFS_1_INTR_LO_VECT_NUM);
 491:.\Generated_Source\PSoC5/USBFS_1.c **** #else
 492:.\Generated_Source\PSoC5/USBFS_1.c ****     CyIntEnable(USBFS_1_BUS_RESET_VECT_NUM);
 261              		.loc 1 492 0
 262 0026 254B     		ldr	r3, .L14+32
 263 0028 4FF40002 		mov	r2, #8388608
 264 002c 1A60     		str	r2, [r3]
 493:.\Generated_Source\PSoC5/USBFS_1.c ****     CyIntEnable(USBFS_1_EP_0_VECT_NUM);
 265              		.loc 1 493 0
 266 002e 4FF08072 		mov	r2, #16777216
 267 0032 1A60     		str	r2, [r3]
 494:.\Generated_Source\PSoC5/USBFS_1.c **** 
 495:.\Generated_Source\PSoC5/USBFS_1.c ****     #if (USBFS_1_SOF_ISR_ACTIVE)
 496:.\Generated_Source\PSoC5/USBFS_1.c ****         CyIntEnable(USBFS_1_SOF_VECT_NUM);
 497:.\Generated_Source\PSoC5/USBFS_1.c ****     #endif /* (USBFS_1_SOF_ISR_ACTIVE) */
 498:.\Generated_Source\PSoC5/USBFS_1.c **** 
 499:.\Generated_Source\PSoC5/USBFS_1.c ****     #if (USBFS_1_EP1_ISR_ACTIVE)
 500:.\Generated_Source\PSoC5/USBFS_1.c ****         CyIntEnable(USBFS_1_EP_1_VECT_NUM);
 501:.\Generated_Source\PSoC5/USBFS_1.c ****     #endif /* (USBFS_1_EP1_ISR_ACTIVE) */
 502:.\Generated_Source\PSoC5/USBFS_1.c **** 
 503:.\Generated_Source\PSoC5/USBFS_1.c ****     #if (USBFS_1_EP2_ISR_ACTIVE)
 504:.\Generated_Source\PSoC5/USBFS_1.c ****         CyIntEnable(USBFS_1_EP_2_VECT_NUM);
 268              		.loc 1 504 0
 269 0034 0222     		movs	r2, #2
 270 0036 1A60     		str	r2, [r3]
 505:.\Generated_Source\PSoC5/USBFS_1.c ****     #endif /* (USBFS_1_EP5_ISR_ACTIVE) */
 506:.\Generated_Source\PSoC5/USBFS_1.c **** 
 507:.\Generated_Source\PSoC5/USBFS_1.c ****     #if (USBFS_1_EP3_ISR_ACTIVE)
 508:.\Generated_Source\PSoC5/USBFS_1.c ****         CyIntEnable(USBFS_1_EP_3_VECT_NUM);
 509:.\Generated_Source\PSoC5/USBFS_1.c ****     #endif /* (USBFS_1_EP5_ISR_ACTIVE) */
 510:.\Generated_Source\PSoC5/USBFS_1.c **** 
 511:.\Generated_Source\PSoC5/USBFS_1.c ****     #if (USBFS_1_EP4_ISR_ACTIVE)
 512:.\Generated_Source\PSoC5/USBFS_1.c ****         CyIntEnable(USBFS_1_EP_4_VECT_NUM);
 513:.\Generated_Source\PSoC5/USBFS_1.c ****     #endif /* (USBFS_1_EP5_ISR_ACTIVE) */
 514:.\Generated_Source\PSoC5/USBFS_1.c **** 
 515:.\Generated_Source\PSoC5/USBFS_1.c ****     #if (USBFS_1_EP5_ISR_ACTIVE)
 516:.\Generated_Source\PSoC5/USBFS_1.c ****         CyIntEnable(USBFS_1_EP_5_VECT_NUM);
 517:.\Generated_Source\PSoC5/USBFS_1.c ****     #endif /* (USBFS_1_EP5_ISR_ACTIVE) */
 518:.\Generated_Source\PSoC5/USBFS_1.c **** 
 519:.\Generated_Source\PSoC5/USBFS_1.c ****     #if (USBFS_1_EP6_ISR_ACTIVE)
 520:.\Generated_Source\PSoC5/USBFS_1.c ****         CyIntEnable(USBFS_1_EP_6_VECT_NUM);
 521:.\Generated_Source\PSoC5/USBFS_1.c ****     #endif /* USBFS_1_EP6_ISR_REMOVE */
 522:.\Generated_Source\PSoC5/USBFS_1.c **** 
 523:.\Generated_Source\PSoC5/USBFS_1.c ****     #if (USBFS_1_EP7_ISR_ACTIVE)
 524:.\Generated_Source\PSoC5/USBFS_1.c ****         CyIntEnable(USBFS_1_EP_7_VECT_NUM);
 525:.\Generated_Source\PSoC5/USBFS_1.c ****     #endif /* (USBFS_1_EP7_ISR_ACTIVE) */
 526:.\Generated_Source\PSoC5/USBFS_1.c **** 
ARM GAS  C:\Users\LUKASC~1\AppData\Local\Temp\ccX4OJiL.s 			page 15


 527:.\Generated_Source\PSoC5/USBFS_1.c ****     #if (USBFS_1_EP8_ISR_ACTIVE)
 528:.\Generated_Source\PSoC5/USBFS_1.c ****         CyIntEnable(USBFS_1_EP_8_VECT_NUM);
 529:.\Generated_Source\PSoC5/USBFS_1.c ****     #endif /* (USBFS_1_EP8_ISR_ACTIVE) */
 530:.\Generated_Source\PSoC5/USBFS_1.c **** #endif /* (CY_PSOC4) */
 531:.\Generated_Source\PSoC5/USBFS_1.c **** 
 532:.\Generated_Source\PSoC5/USBFS_1.c **** #if (USBFS_1_EP_MANAGEMENT_DMA && USBFS_1_ARB_ISR_ACTIVE)
 533:.\Generated_Source\PSoC5/USBFS_1.c ****     /* Enable ARB EP interrupt sources. */
 534:.\Generated_Source\PSoC5/USBFS_1.c ****     USBFS_1_ARB_INT_EN_REG = USBFS_1_DEFAULT_ARB_INT_EN;
 271              		.loc 1 534 0
 272 0038 2149     		ldr	r1, .L14+36
 273              	.LVL23:
 274 003a 0A70     		strb	r2, [r1]
 535:.\Generated_Source\PSoC5/USBFS_1.c **** 
 536:.\Generated_Source\PSoC5/USBFS_1.c ****     #if (CY_PSOC3 || CY_PSOC5)
 537:.\Generated_Source\PSoC5/USBFS_1.c ****         CyIntEnable(USBFS_1_ARB_VECT_NUM);
 275              		.loc 1 537 0
 276 003c 4FF48002 		mov	r2, #4194304
 277 0040 1A60     		str	r2, [r3]
 538:.\Generated_Source\PSoC5/USBFS_1.c ****     #endif /* (CY_PSOC3 || CY_PSOC5) */
 539:.\Generated_Source\PSoC5/USBFS_1.c **** #endif   /* (USBFS_1_EP_MANAGEMENT_DMA && USBFS_1_ARB_ISR_ACTIVE) */
 540:.\Generated_Source\PSoC5/USBFS_1.c **** 
 541:.\Generated_Source\PSoC5/USBFS_1.c **** /* Arbiter configuration for DMA transfers. */
 542:.\Generated_Source\PSoC5/USBFS_1.c **** #if (USBFS_1_EP_MANAGEMENT_DMA)
 543:.\Generated_Source\PSoC5/USBFS_1.c ****     /* Configure Arbiter for Manual or Auto DMA operation and clear configuration completion. */
 544:.\Generated_Source\PSoC5/USBFS_1.c ****     USBFS_1_ARB_CFG_REG = USBFS_1_DEFAULT_ARB_CFG;
 278              		.loc 1 544 0
 279 0042 5022     		movs	r2, #80
 280 0044 1F4B     		ldr	r3, .L14+40
 281 0046 1A70     		strb	r2, [r3]
 545:.\Generated_Source\PSoC5/USBFS_1.c **** 
 546:.\Generated_Source\PSoC5/USBFS_1.c ****     #if (CY_PSOC4)
 547:.\Generated_Source\PSoC5/USBFS_1.c ****         /* Enable DMA operation. */
 548:.\Generated_Source\PSoC5/USBFS_1.c ****         CyDmaEnable();
 549:.\Generated_Source\PSoC5/USBFS_1.c **** 
 550:.\Generated_Source\PSoC5/USBFS_1.c ****         #if (USBFS_1_EP_MANAGEMENT_DMA_AUTO)
 551:.\Generated_Source\PSoC5/USBFS_1.c ****             /* Change DMA priority to be highest. */
 552:.\Generated_Source\PSoC5/USBFS_1.c ****              CyIntSetPriority(CYDMA_INTR_NUMBER, USBFS_1_DMA_AUTO_INTR_PRIO);
 553:.\Generated_Source\PSoC5/USBFS_1.c ****         #endif /* (USBFS_1_EP_MANAGEMENT_DMA_AUTO) */
 554:.\Generated_Source\PSoC5/USBFS_1.c ****     #endif /* (CY_PSOC4) */
 555:.\Generated_Source\PSoC5/USBFS_1.c **** 
 556:.\Generated_Source\PSoC5/USBFS_1.c ****     #if (USBFS_1_EP_MANAGEMENT_DMA_AUTO)
 557:.\Generated_Source\PSoC5/USBFS_1.c ****         #if (CY_PSOC4)
 558:.\Generated_Source\PSoC5/USBFS_1.c ****             /* Enable DMA interrupt to handle DMA management. */
 559:.\Generated_Source\PSoC5/USBFS_1.c ****             CyIntEnable(CYDMA_INTR_NUMBER);
 560:.\Generated_Source\PSoC5/USBFS_1.c ****         #else
 561:.\Generated_Source\PSoC5/USBFS_1.c ****             #if (USBFS_1_EP_DMA_AUTO_OPT == 0u)
 562:.\Generated_Source\PSoC5/USBFS_1.c ****                 /* Initialize interrupts which handle verification of successful DMA transaction. *
 563:.\Generated_Source\PSoC5/USBFS_1.c ****                 USBFS_1_EP_DMA_Done_isr_StartEx(&USBFS_1_EP_DMA_DONE_ISR);
 282              		.loc 1 563 0
 283 0048 1F48     		ldr	r0, .L14+44
 284              	.LVL24:
 285 004a FFF7FEFF 		bl	USBFS_1_EP_DMA_Done_isr_StartEx
 286              	.LVL25:
 564:.\Generated_Source\PSoC5/USBFS_1.c ****                 USBFS_1_EP17_DMA_Done_SR_InterruptEnable();
 287              		.loc 1 564 0
 288 004e FFF7FEFF 		bl	USBFS_1_EP17_DMA_Done_SR_InterruptEnable
 289              	.LVL26:
ARM GAS  C:\Users\LUKASC~1\AppData\Local\Temp\ccX4OJiL.s 			page 16


 565:.\Generated_Source\PSoC5/USBFS_1.c ****                 USBFS_1_EP8_DMA_Done_SR_InterruptEnable();
 290              		.loc 1 565 0
 291 0052 FFF7FEFF 		bl	USBFS_1_EP8_DMA_Done_SR_InterruptEnable
 292              	.LVL27:
 566:.\Generated_Source\PSoC5/USBFS_1.c ****             #endif /* (USBFS_1_EP_DMA_AUTO_OPT == 0u) */
 567:.\Generated_Source\PSoC5/USBFS_1.c ****         #endif /* (CY_PSOC4) */
 568:.\Generated_Source\PSoC5/USBFS_1.c ****     #endif /* (USBFS_1_EP_MANAGEMENT_DMA_AUTO) */
 569:.\Generated_Source\PSoC5/USBFS_1.c **** #endif /* (USBFS_1_EP_MANAGEMENT_DMA) */
 570:.\Generated_Source\PSoC5/USBFS_1.c **** 
 571:.\Generated_Source\PSoC5/USBFS_1.c ****     /* Enable USB regulator depends on operation voltage. IMO Locking is enabled in Init(). */
 572:.\Generated_Source\PSoC5/USBFS_1.c ****     switch(mode)
 293              		.loc 1 572 0
 294 0056 14B1     		cbz	r4, .L9
 295 0058 012C     		cmp	r4, #1
 296 005a 06D0     		beq	.L10
 297 005c 0BE0     		b	.L12
 298              	.L9:
 573:.\Generated_Source\PSoC5/USBFS_1.c ****     {
 574:.\Generated_Source\PSoC5/USBFS_1.c ****     case USBFS_1_3V_OPERATION:
 575:.\Generated_Source\PSoC5/USBFS_1.c ****         /* Disable regulator for 3V operation. */
 576:.\Generated_Source\PSoC5/USBFS_1.c ****         USBFS_1_CR1_REG &= (uint8) ~USBFS_1_CR1_REG_ENABLE;
 299              		.loc 1 576 0
 300 005e 1B4A     		ldr	r2, .L14+48
 301 0060 1378     		ldrb	r3, [r2]	@ zero_extendqisi2
 302 0062 03F0FE03 		and	r3, r3, #254
 303 0066 1370     		strb	r3, [r2]
 577:.\Generated_Source\PSoC5/USBFS_1.c ****         break;
 304              		.loc 1 577 0
 305 0068 0AE0     		b	.L11
 306              	.L10:
 578:.\Generated_Source\PSoC5/USBFS_1.c **** 
 579:.\Generated_Source\PSoC5/USBFS_1.c ****     case USBFS_1_5V_OPERATION:
 580:.\Generated_Source\PSoC5/USBFS_1.c ****         /* Enable regulator for 5V operation. */
 581:.\Generated_Source\PSoC5/USBFS_1.c ****         USBFS_1_CR1_REG |= (uint8)  USBFS_1_CR1_REG_ENABLE;
 307              		.loc 1 581 0
 308 006a 184A     		ldr	r2, .L14+48
 309 006c 1378     		ldrb	r3, [r2]	@ zero_extendqisi2
 310 006e 43F00103 		orr	r3, r3, #1
 311 0072 1370     		strb	r3, [r2]
 582:.\Generated_Source\PSoC5/USBFS_1.c ****         break;
 312              		.loc 1 582 0
 313 0074 04E0     		b	.L11
 314              	.L12:
 583:.\Generated_Source\PSoC5/USBFS_1.c **** 
 584:.\Generated_Source\PSoC5/USBFS_1.c ****     default: /* Check DWR settings of USB power supply. */
 585:.\Generated_Source\PSoC5/USBFS_1.c ****     #if (USBFS_1_VDDD_MV < USBFS_1_3500MV)
 586:.\Generated_Source\PSoC5/USBFS_1.c ****         /* Disable regulator for 3V operation. */
 587:.\Generated_Source\PSoC5/USBFS_1.c ****         USBFS_1_CR1_REG &= (uint8) ~USBFS_1_CR1_REG_ENABLE;
 588:.\Generated_Source\PSoC5/USBFS_1.c ****     #else
 589:.\Generated_Source\PSoC5/USBFS_1.c ****         /* Enable regulator for 5V operation. */
 590:.\Generated_Source\PSoC5/USBFS_1.c ****         USBFS_1_CR1_REG |= (uint8)  USBFS_1_CR1_REG_ENABLE;
 315              		.loc 1 590 0
 316 0076 154A     		ldr	r2, .L14+48
 317 0078 1378     		ldrb	r3, [r2]	@ zero_extendqisi2
 318 007a 43F00103 		orr	r3, r3, #1
 319 007e 1370     		strb	r3, [r2]
 320              	.L11:
ARM GAS  C:\Users\LUKASC~1\AppData\Local\Temp\ccX4OJiL.s 			page 17


 591:.\Generated_Source\PSoC5/USBFS_1.c ****     #endif /* (USBFS_1_VDDD_MV < USBFS_1_3500MV) */
 592:.\Generated_Source\PSoC5/USBFS_1.c ****         break;
 593:.\Generated_Source\PSoC5/USBFS_1.c ****     }
 594:.\Generated_Source\PSoC5/USBFS_1.c **** 
 595:.\Generated_Source\PSoC5/USBFS_1.c **** #if (CY_PSOC4)
 596:.\Generated_Source\PSoC5/USBFS_1.c ****     /* Clear bus activity. */
 597:.\Generated_Source\PSoC5/USBFS_1.c ****     USBFS_1_CR1_REG &= (uint32) ~USBFS_1_CR1_BUS_ACTIVITY;
 598:.\Generated_Source\PSoC5/USBFS_1.c **** 
 599:.\Generated_Source\PSoC5/USBFS_1.c ****     /* Clear EP0 count register. */
 600:.\Generated_Source\PSoC5/USBFS_1.c ****     USBFS_1_EP0_CNT_REG = USBFS_1_CLEAR_REG;
 601:.\Generated_Source\PSoC5/USBFS_1.c **** 
 602:.\Generated_Source\PSoC5/USBFS_1.c ****     /* Set EP0.CR: ACK Setup, NAK IN/OUT. */
 603:.\Generated_Source\PSoC5/USBFS_1.c ****     USBFS_1_EP0_CR_REG = USBFS_1_MODE_NAK_IN_OUT;
 604:.\Generated_Source\PSoC5/USBFS_1.c **** 
 605:.\Generated_Source\PSoC5/USBFS_1.c ****     #if (USBFS_1_LPM_ACTIVE)
 606:.\Generated_Source\PSoC5/USBFS_1.c ****         if (NULL != USBFS_1_GetBOSPtr())
 607:.\Generated_Source\PSoC5/USBFS_1.c ****         {
 608:.\Generated_Source\PSoC5/USBFS_1.c ****             /* Enable LPM and acknowledge LPM packets for active device.
 609:.\Generated_Source\PSoC5/USBFS_1.c ****             * Reset NYET_EN and SUB_RESP bits in the LPM_CTRL register.
 610:.\Generated_Source\PSoC5/USBFS_1.c ****             */
 611:.\Generated_Source\PSoC5/USBFS_1.c ****             USBFS_1_LPM_CTRL_REG = (USBFS_1_LPM_CTRL_LPM_EN | \
 612:.\Generated_Source\PSoC5/USBFS_1.c ****                                              USBFS_1_LPM_CTRL_LPM_ACK_RESP);
 613:.\Generated_Source\PSoC5/USBFS_1.c ****         }
 614:.\Generated_Source\PSoC5/USBFS_1.c ****         else
 615:.\Generated_Source\PSoC5/USBFS_1.c ****         {
 616:.\Generated_Source\PSoC5/USBFS_1.c ****             /* Disable LPM for active device. */
 617:.\Generated_Source\PSoC5/USBFS_1.c ****             USBFS_1_LPM_CTRL_REG &= (uint32) ~USBFS_1_LPM_CTRL_LPM_EN;
 618:.\Generated_Source\PSoC5/USBFS_1.c ****         }
 619:.\Generated_Source\PSoC5/USBFS_1.c ****     #endif /* (USBFS_1_LPM_ACTIVE) */
 620:.\Generated_Source\PSoC5/USBFS_1.c **** 
 621:.\Generated_Source\PSoC5/USBFS_1.c ****     /* Enable device to responds to USB traffic with address 0. */
 622:.\Generated_Source\PSoC5/USBFS_1.c ****     USBFS_1_CR0_REG = USBFS_1_DEFUALT_CR0;
 623:.\Generated_Source\PSoC5/USBFS_1.c **** 
 624:.\Generated_Source\PSoC5/USBFS_1.c **** #else
 625:.\Generated_Source\PSoC5/USBFS_1.c ****     /* Set EP0.CR: ACK Setup, STALL IN/OUT. */
 626:.\Generated_Source\PSoC5/USBFS_1.c ****     USBFS_1_EP0_CR_REG = USBFS_1_MODE_STALL_IN_OUT;
 321              		.loc 1 626 0
 322 0080 0322     		movs	r2, #3
 323 0082 134B     		ldr	r3, .L14+52
 324 0084 1A70     		strb	r2, [r3]
 627:.\Generated_Source\PSoC5/USBFS_1.c **** 
 628:.\Generated_Source\PSoC5/USBFS_1.c ****     /* Enable device to respond to USB traffic with address 0. */
 629:.\Generated_Source\PSoC5/USBFS_1.c ****     USBFS_1_CR0_REG = USBFS_1_DEFUALT_CR0;
 325              		.loc 1 629 0
 326 0086 8022     		movs	r2, #128
 327 0088 203B     		subs	r3, r3, #32
 328 008a 1A70     		strb	r2, [r3]
 630:.\Generated_Source\PSoC5/USBFS_1.c ****     CyDelayCycles(USBFS_1_WAIT_CR0_REG_STABILITY);
 329              		.loc 1 630 0
 330 008c 0120     		movs	r0, #1
 331 008e FFF7FEFF 		bl	CyDelayCycles
 332              	.LVL28:
 631:.\Generated_Source\PSoC5/USBFS_1.c **** #endif /* (CY_PSOC4) */
 632:.\Generated_Source\PSoC5/USBFS_1.c **** 
 633:.\Generated_Source\PSoC5/USBFS_1.c ****     /* Enable D+ pull-up and keep USB control on IO. */
 634:.\Generated_Source\PSoC5/USBFS_1.c ****     USBFS_1_USBIO_CR1_REG = USBFS_1_USBIO_CR1_USBPUEN;
 333              		.loc 1 634 0
ARM GAS  C:\Users\LUKASC~1\AppData\Local\Temp\ccX4OJiL.s 			page 18


 334 0092 0422     		movs	r2, #4
 335 0094 0F4B     		ldr	r3, .L14+56
 336 0096 1A70     		strb	r2, [r3]
 337 0098 10BD     		pop	{r4, pc}
 338              	.L15:
 339 009a 00BF     		.align	2
 340              	.L14:
 341 009c 00000000 		.word	USBFS_1_device
 342 00a0 00000000 		.word	USBFS_1_transferState
 343 00a4 00000000 		.word	USBFS_1_configurationChanged
 344 00a8 00000000 		.word	USBFS_1_configuration
 345 00ac 00000000 		.word	USBFS_1_interfaceNumber
 346 00b0 00000000 		.word	USBFS_1_deviceAddress
 347 00b4 00000000 		.word	USBFS_1_deviceStatus
 348 00b8 00000000 		.word	USBFS_1_lastPacketSize
 349 00bc 00E100E0 		.word	-536813312
 350 00c0 9E600040 		.word	1073766558
 351 00c4 9C600040 		.word	1073766556
 352 00c8 00000000 		.word	USBFS_1_EP_DMA_DONE_ISR
 353 00cc 09600040 		.word	1073766409
 354 00d0 28600040 		.word	1073766440
 355 00d4 12600040 		.word	1073766418
 356              		.cfi_endproc
 357              	.LFE2:
 358              		.size	USBFS_1_InitComponent, .-USBFS_1_InitComponent
 359              		.section	.text.USBFS_1_Start,"ax",%progbits
 360              		.align	2
 361              		.global	USBFS_1_Start
 362              		.thumb
 363              		.thumb_func
 364              		.type	USBFS_1_Start, %function
 365              	USBFS_1_Start:
 366              	.LFB0:
 186:.\Generated_Source\PSoC5/USBFS_1.c ****     if (0u == USBFS_1_initVar)
 367              		.loc 1 186 0
 368              		.cfi_startproc
 369              		@ args = 0, pretend = 0, frame = 0
 370              		@ frame_needed = 0, uses_anonymous_args = 0
 371              	.LVL29:
 372 0000 38B5     		push	{r3, r4, r5, lr}
 373              		.cfi_def_cfa_offset 16
 374              		.cfi_offset 3, -16
 375              		.cfi_offset 4, -12
 376              		.cfi_offset 5, -8
 377              		.cfi_offset 14, -4
 378 0002 0546     		mov	r5, r0
 379 0004 0C46     		mov	r4, r1
 187:.\Generated_Source\PSoC5/USBFS_1.c ****     {
 380              		.loc 1 187 0
 381 0006 064B     		ldr	r3, .L19
 382 0008 1B78     		ldrb	r3, [r3]	@ zero_extendqisi2
 383 000a 23B9     		cbnz	r3, .L17
 189:.\Generated_Source\PSoC5/USBFS_1.c ****         USBFS_1_initVar = 1u;
 384              		.loc 1 189 0
 385 000c FFF7FEFF 		bl	USBFS_1_Init
 386              	.LVL30:
 190:.\Generated_Source\PSoC5/USBFS_1.c ****     }
ARM GAS  C:\Users\LUKASC~1\AppData\Local\Temp\ccX4OJiL.s 			page 19


 387              		.loc 1 190 0
 388 0010 0122     		movs	r2, #1
 389 0012 034B     		ldr	r3, .L19
 390 0014 1A70     		strb	r2, [r3]
 391              	.L17:
 193:.\Generated_Source\PSoC5/USBFS_1.c **** }
 392              		.loc 1 193 0
 393 0016 2846     		mov	r0, r5
 394 0018 2146     		mov	r1, r4
 395 001a FFF7FEFF 		bl	USBFS_1_InitComponent
 396              	.LVL31:
 397 001e 38BD     		pop	{r3, r4, r5, pc}
 398              	.L20:
 399              		.align	2
 400              	.L19:
 401 0020 00000000 		.word	.LANCHOR0
 402              		.cfi_endproc
 403              	.LFE0:
 404              		.size	USBFS_1_Start, .-USBFS_1_Start
 405              		.section	.text.USBFS_1_ReInitComponent,"ax",%progbits
 406              		.align	2
 407              		.global	USBFS_1_ReInitComponent
 408              		.thumb
 409              		.thumb_func
 410              		.type	USBFS_1_ReInitComponent, %function
 411              	USBFS_1_ReInitComponent:
 412              	.LFB3:
 635:.\Generated_Source\PSoC5/USBFS_1.c **** }
 636:.\Generated_Source\PSoC5/USBFS_1.c **** 
 637:.\Generated_Source\PSoC5/USBFS_1.c **** 
 638:.\Generated_Source\PSoC5/USBFS_1.c **** /*******************************************************************************
 639:.\Generated_Source\PSoC5/USBFS_1.c **** * Function Name: USBFS_1_ReInitComponent
 640:.\Generated_Source\PSoC5/USBFS_1.c **** ****************************************************************************//**
 641:.\Generated_Source\PSoC5/USBFS_1.c **** *
 642:.\Generated_Source\PSoC5/USBFS_1.c **** *  This function reinitialize the component configuration and is
 643:.\Generated_Source\PSoC5/USBFS_1.c **** *  intend to be called from the Reset interrupt.
 644:.\Generated_Source\PSoC5/USBFS_1.c **** *
 645:.\Generated_Source\PSoC5/USBFS_1.c **** * \globalvars
 646:.\Generated_Source\PSoC5/USBFS_1.c **** *   USBFS_1_device - Contains the device number of the desired Device
 647:.\Generated_Source\PSoC5/USBFS_1.c **** *        Descriptor. The device number can be found in the Device Descriptor tab
 648:.\Generated_Source\PSoC5/USBFS_1.c **** *       of the Configure dialog, under the settings of the desired Device Descriptor,
 649:.\Generated_Source\PSoC5/USBFS_1.c **** *       in the Device Number field.
 650:.\Generated_Source\PSoC5/USBFS_1.c **** *   USBFS_1_transferState - This variable is used by the communication
 651:.\Generated_Source\PSoC5/USBFS_1.c **** *       functions to handle the current transfer state. Initialized to
 652:.\Generated_Source\PSoC5/USBFS_1.c **** *       TRANS_STATE_IDLE in this API.
 653:.\Generated_Source\PSoC5/USBFS_1.c **** *   USBFS_1_configuration - Contains the current configuration number
 654:.\Generated_Source\PSoC5/USBFS_1.c **** *       set by the Host using a SET_CONFIGURATION request.
 655:.\Generated_Source\PSoC5/USBFS_1.c **** *       Initialized to zero in this API.
 656:.\Generated_Source\PSoC5/USBFS_1.c **** *   USBFS_1_deviceAddress - Contains the current device address. This
 657:.\Generated_Source\PSoC5/USBFS_1.c **** *       variable is initialized to zero in this API. The Host starts to communicate
 658:.\Generated_Source\PSoC5/USBFS_1.c **** *      to the device with address 0 and then sets it to a whatever value using
 659:.\Generated_Source\PSoC5/USBFS_1.c **** *      a SET_ADDRESS request.
 660:.\Generated_Source\PSoC5/USBFS_1.c **** *   USBFS_1_deviceStatus - Initialized to 0.
 661:.\Generated_Source\PSoC5/USBFS_1.c **** *       This is a two-bit variable which contains the power status in the first bit
 662:.\Generated_Source\PSoC5/USBFS_1.c **** *       (DEVICE_STATUS_BUS_POWERED or DEVICE_STATUS_SELF_POWERED) and the remote
 663:.\Generated_Source\PSoC5/USBFS_1.c **** *       wakeup status (DEVICE_STATUS_REMOTE_WAKEUP) in the second bit.
 664:.\Generated_Source\PSoC5/USBFS_1.c **** *   USBFS_1_lastPacketSize - Initialized to 0;
ARM GAS  C:\Users\LUKASC~1\AppData\Local\Temp\ccX4OJiL.s 			page 20


 665:.\Generated_Source\PSoC5/USBFS_1.c **** *
 666:.\Generated_Source\PSoC5/USBFS_1.c **** * \reentrant
 667:.\Generated_Source\PSoC5/USBFS_1.c **** *  No.
 668:.\Generated_Source\PSoC5/USBFS_1.c **** *
 669:.\Generated_Source\PSoC5/USBFS_1.c **** *******************************************************************************/
 670:.\Generated_Source\PSoC5/USBFS_1.c **** void USBFS_1_ReInitComponent(void) 
 671:.\Generated_Source\PSoC5/USBFS_1.c **** {
 413              		.loc 1 671 0
 414              		.cfi_startproc
 415              		@ args = 0, pretend = 0, frame = 0
 416              		@ frame_needed = 0, uses_anonymous_args = 0
 417              		@ link register save eliminated.
 672:.\Generated_Source\PSoC5/USBFS_1.c ****     /* Initialize _hidProtocol variable to comply with HID 7.2.6 Set_Protocol
 673:.\Generated_Source\PSoC5/USBFS_1.c ****     *  Request: "When initialized, all devices default to report protocol."
 674:.\Generated_Source\PSoC5/USBFS_1.c ****     */
 675:.\Generated_Source\PSoC5/USBFS_1.c **** #if defined(USBFS_1_ENABLE_HID_CLASS)
 676:.\Generated_Source\PSoC5/USBFS_1.c ****     uint8 i;
 677:.\Generated_Source\PSoC5/USBFS_1.c **** 
 678:.\Generated_Source\PSoC5/USBFS_1.c ****     for (i = 0u; i < USBFS_1_MAX_INTERFACES_NUMBER; i++)
 679:.\Generated_Source\PSoC5/USBFS_1.c ****     {
 680:.\Generated_Source\PSoC5/USBFS_1.c ****         USBFS_1_hidProtocol[i] = USBFS_1_PROTOCOL_REPORT;
 681:.\Generated_Source\PSoC5/USBFS_1.c ****     }
 682:.\Generated_Source\PSoC5/USBFS_1.c **** #endif /* USBFS_1_ENABLE_HID_CLASS */
 683:.\Generated_Source\PSoC5/USBFS_1.c **** 
 684:.\Generated_Source\PSoC5/USBFS_1.c ****     /* Reset component internal variables. */
 685:.\Generated_Source\PSoC5/USBFS_1.c ****     USBFS_1_transferState   = USBFS_1_TRANS_STATE_IDLE;
 418              		.loc 1 685 0
 419 0000 0023     		movs	r3, #0
 420 0002 0A4A     		ldr	r2, .L22
 421 0004 1370     		strb	r3, [r2]
 686:.\Generated_Source\PSoC5/USBFS_1.c ****     USBFS_1_configurationChanged = 0u;
 422              		.loc 1 686 0
 423 0006 0A4A     		ldr	r2, .L22+4
 424 0008 1370     		strb	r3, [r2]
 687:.\Generated_Source\PSoC5/USBFS_1.c ****     USBFS_1_configuration   = 0u;
 425              		.loc 1 687 0
 426 000a 0A4A     		ldr	r2, .L22+8
 427 000c 1370     		strb	r3, [r2]
 688:.\Generated_Source\PSoC5/USBFS_1.c ****     USBFS_1_interfaceNumber = 0u;
 428              		.loc 1 688 0
 429 000e 0A4A     		ldr	r2, .L22+12
 430 0010 1370     		strb	r3, [r2]
 689:.\Generated_Source\PSoC5/USBFS_1.c ****     USBFS_1_deviceAddress   = 0u;
 431              		.loc 1 689 0
 432 0012 0A4A     		ldr	r2, .L22+16
 433 0014 1370     		strb	r3, [r2]
 690:.\Generated_Source\PSoC5/USBFS_1.c ****     USBFS_1_deviceStatus    = 0u;
 434              		.loc 1 690 0
 435 0016 0A4A     		ldr	r2, .L22+20
 436 0018 1370     		strb	r3, [r2]
 691:.\Generated_Source\PSoC5/USBFS_1.c ****     USBFS_1_lastPacketSize  = 0u;
 437              		.loc 1 691 0
 438 001a 0A4A     		ldr	r2, .L22+24
 439 001c 1370     		strb	r3, [r2]
 692:.\Generated_Source\PSoC5/USBFS_1.c **** 
 693:.\Generated_Source\PSoC5/USBFS_1.c **** #if (CY_PSOC4)
 694:.\Generated_Source\PSoC5/USBFS_1.c ****     /* Set EP0.CR: ACK Setup, NAK IN/OUT. */
ARM GAS  C:\Users\LUKASC~1\AppData\Local\Temp\ccX4OJiL.s 			page 21


 695:.\Generated_Source\PSoC5/USBFS_1.c ****     USBFS_1_EP0_CR_REG = USBFS_1_MODE_NAK_IN_OUT;
 696:.\Generated_Source\PSoC5/USBFS_1.c **** #else
 697:.\Generated_Source\PSoC5/USBFS_1.c ****     /* Set EP0.CR: ACK Setup, STALL IN/OUT. */
 698:.\Generated_Source\PSoC5/USBFS_1.c ****     USBFS_1_EP0_CR_REG = USBFS_1_MODE_STALL_IN_OUT;
 440              		.loc 1 698 0
 441 001e 0322     		movs	r2, #3
 442 0020 094B     		ldr	r3, .L22+28
 443 0022 1A70     		strb	r2, [r3]
 699:.\Generated_Source\PSoC5/USBFS_1.c **** #endif /* (CY_PSOC4) */
 700:.\Generated_Source\PSoC5/USBFS_1.c **** 
 701:.\Generated_Source\PSoC5/USBFS_1.c ****     /* Enable device to respond to USB traffic with address 0. */
 702:.\Generated_Source\PSoC5/USBFS_1.c ****     USBFS_1_CR0_REG = USBFS_1_DEFUALT_CR0;
 444              		.loc 1 702 0
 445 0024 8022     		movs	r2, #128
 446 0026 203B     		subs	r3, r3, #32
 447 0028 1A70     		strb	r2, [r3]
 448 002a 7047     		bx	lr
 449              	.L23:
 450              		.align	2
 451              	.L22:
 452 002c 00000000 		.word	USBFS_1_transferState
 453 0030 00000000 		.word	USBFS_1_configurationChanged
 454 0034 00000000 		.word	USBFS_1_configuration
 455 0038 00000000 		.word	USBFS_1_interfaceNumber
 456 003c 00000000 		.word	USBFS_1_deviceAddress
 457 0040 00000000 		.word	USBFS_1_deviceStatus
 458 0044 00000000 		.word	USBFS_1_lastPacketSize
 459 0048 28600040 		.word	1073766440
 460              		.cfi_endproc
 461              	.LFE3:
 462              		.size	USBFS_1_ReInitComponent, .-USBFS_1_ReInitComponent
 463              		.section	.text.USBFS_1_CheckActivity,"ax",%progbits
 464              		.align	2
 465              		.global	USBFS_1_CheckActivity
 466              		.thumb
 467              		.thumb_func
 468              		.type	USBFS_1_CheckActivity, %function
 469              	USBFS_1_CheckActivity:
 470              	.LFB5:
 703:.\Generated_Source\PSoC5/USBFS_1.c **** }
 704:.\Generated_Source\PSoC5/USBFS_1.c **** 
 705:.\Generated_Source\PSoC5/USBFS_1.c **** 
 706:.\Generated_Source\PSoC5/USBFS_1.c **** /*******************************************************************************
 707:.\Generated_Source\PSoC5/USBFS_1.c **** * Function Name: USBFS_1_Stop
 708:.\Generated_Source\PSoC5/USBFS_1.c **** ****************************************************************************//**
 709:.\Generated_Source\PSoC5/USBFS_1.c **** *
 710:.\Generated_Source\PSoC5/USBFS_1.c **** *  This function shuts down the USB function including to release
 711:.\Generated_Source\PSoC5/USBFS_1.c **** *  the D+ pull-up and disabling the SIE.
 712:.\Generated_Source\PSoC5/USBFS_1.c **** *
 713:.\Generated_Source\PSoC5/USBFS_1.c **** * \globalvars
 714:.\Generated_Source\PSoC5/USBFS_1.c **** *   \ref USBFS_1_configuration
 715:.\Generated_Source\PSoC5/USBFS_1.c **** *
 716:.\Generated_Source\PSoC5/USBFS_1.c **** *   USBFS_1_deviceAddress - Contains the current device address. This
 717:.\Generated_Source\PSoC5/USBFS_1.c **** *       variable is initialized to zero in this API. The Host starts to communicate
 718:.\Generated_Source\PSoC5/USBFS_1.c **** *      to the device with address 0 and then sets it to a whatever value using
 719:.\Generated_Source\PSoC5/USBFS_1.c **** *      a SET_ADDRESS request.
 720:.\Generated_Source\PSoC5/USBFS_1.c **** *
ARM GAS  C:\Users\LUKASC~1\AppData\Local\Temp\ccX4OJiL.s 			page 22


 721:.\Generated_Source\PSoC5/USBFS_1.c **** *   \ref USBFS_1_deviceStatus
 722:.\Generated_Source\PSoC5/USBFS_1.c **** *
 723:.\Generated_Source\PSoC5/USBFS_1.c **** *   \ref USBFS_1_configurationChanged
 724:.\Generated_Source\PSoC5/USBFS_1.c **** *
 725:.\Generated_Source\PSoC5/USBFS_1.c **** *   USBFS_1_intiVar -  This variable is set to zero
 726:.\Generated_Source\PSoC5/USBFS_1.c **** *
 727:.\Generated_Source\PSoC5/USBFS_1.c **** *******************************************************************************/
 728:.\Generated_Source\PSoC5/USBFS_1.c **** void USBFS_1_Stop(void) 
 729:.\Generated_Source\PSoC5/USBFS_1.c **** {
 730:.\Generated_Source\PSoC5/USBFS_1.c ****     uint8 enableInterrupts;
 731:.\Generated_Source\PSoC5/USBFS_1.c **** 
 732:.\Generated_Source\PSoC5/USBFS_1.c **** #if (USBFS_1_EP_MANAGEMENT_DMA)
 733:.\Generated_Source\PSoC5/USBFS_1.c ****     /* Stop all DMA channels. */
 734:.\Generated_Source\PSoC5/USBFS_1.c ****     USBFS_1_Stop_DMA(USBFS_1_MAX_EP);
 735:.\Generated_Source\PSoC5/USBFS_1.c **** #endif /* (USBFS_1_EP_MANAGEMENT_DMA) */
 736:.\Generated_Source\PSoC5/USBFS_1.c **** 
 737:.\Generated_Source\PSoC5/USBFS_1.c ****     enableInterrupts = CyEnterCriticalSection();
 738:.\Generated_Source\PSoC5/USBFS_1.c **** 
 739:.\Generated_Source\PSoC5/USBFS_1.c ****     /* Disable USB IP to respond to USB traffic. */
 740:.\Generated_Source\PSoC5/USBFS_1.c ****     USBFS_1_CR0_REG &= (uint8) ~USBFS_1_CR0_ENABLE;
 741:.\Generated_Source\PSoC5/USBFS_1.c **** 
 742:.\Generated_Source\PSoC5/USBFS_1.c ****     /* Disable D+ pull-up. */
 743:.\Generated_Source\PSoC5/USBFS_1.c ****     USBFS_1_USBIO_CR1_REG &= (uint8) ~ USBFS_1_USBIO_CR1_USBPUEN;
 744:.\Generated_Source\PSoC5/USBFS_1.c **** 
 745:.\Generated_Source\PSoC5/USBFS_1.c **** #if (CY_PSOC4)
 746:.\Generated_Source\PSoC5/USBFS_1.c ****     /* Disable USBFS block. */
 747:.\Generated_Source\PSoC5/USBFS_1.c ****     USBFS_1_POWER_CTRL_REG &= (uint32) ~USBFS_1_POWER_CTRL_ENABLE;
 748:.\Generated_Source\PSoC5/USBFS_1.c **** #else
 749:.\Generated_Source\PSoC5/USBFS_1.c ****     /* Clear power active and standby mode templates. */
 750:.\Generated_Source\PSoC5/USBFS_1.c ****     USBFS_1_PM_ACT_CFG_REG  &= (uint8) ~USBFS_1_PM_ACT_EN_FSUSB;
 751:.\Generated_Source\PSoC5/USBFS_1.c ****     USBFS_1_PM_STBY_CFG_REG &= (uint8) ~USBFS_1_PM_STBY_EN_FSUSB;
 752:.\Generated_Source\PSoC5/USBFS_1.c **** #endif /* (CY_PSOC4) */
 753:.\Generated_Source\PSoC5/USBFS_1.c **** 
 754:.\Generated_Source\PSoC5/USBFS_1.c ****     CyExitCriticalSection(enableInterrupts);
 755:.\Generated_Source\PSoC5/USBFS_1.c **** 
 756:.\Generated_Source\PSoC5/USBFS_1.c ****     /* Disable component interrupts. */
 757:.\Generated_Source\PSoC5/USBFS_1.c **** #if (CY_PSOC4)
 758:.\Generated_Source\PSoC5/USBFS_1.c ****     CyIntDisable(USBFS_1_INTR_HI_VECT_NUM);
 759:.\Generated_Source\PSoC5/USBFS_1.c ****     CyIntDisable(USBFS_1_INTR_LO_VECT_NUM);
 760:.\Generated_Source\PSoC5/USBFS_1.c ****     CyIntDisable(USBFS_1_INTR_MED_VECT_NUM);
 761:.\Generated_Source\PSoC5/USBFS_1.c **** #else
 762:.\Generated_Source\PSoC5/USBFS_1.c **** 
 763:.\Generated_Source\PSoC5/USBFS_1.c ****     CyIntDisable(USBFS_1_BUS_RESET_VECT_NUM);
 764:.\Generated_Source\PSoC5/USBFS_1.c ****     CyIntDisable(USBFS_1_EP_0_VECT_NUM);
 765:.\Generated_Source\PSoC5/USBFS_1.c **** 
 766:.\Generated_Source\PSoC5/USBFS_1.c ****     #if (USBFS_1_SOF_ISR_ACTIVE)
 767:.\Generated_Source\PSoC5/USBFS_1.c ****         CyIntDisable(USBFS_1_SOF_VECT_NUM);
 768:.\Generated_Source\PSoC5/USBFS_1.c ****     #endif /* (USBFS_1_SOF_ISR_ACTIVE) */
 769:.\Generated_Source\PSoC5/USBFS_1.c **** 
 770:.\Generated_Source\PSoC5/USBFS_1.c ****     #if (USBFS_1_EP1_ISR_ACTIVE)
 771:.\Generated_Source\PSoC5/USBFS_1.c ****         CyIntDisable(USBFS_1_EP_1_VECT_NUM);
 772:.\Generated_Source\PSoC5/USBFS_1.c ****     #endif /* (USBFS_1_EP1_ISR_ACTIVE) */
 773:.\Generated_Source\PSoC5/USBFS_1.c **** 
 774:.\Generated_Source\PSoC5/USBFS_1.c ****     #if (USBFS_1_EP2_ISR_ACTIVE)
 775:.\Generated_Source\PSoC5/USBFS_1.c ****         CyIntDisable(USBFS_1_EP_2_VECT_NUM);
 776:.\Generated_Source\PSoC5/USBFS_1.c ****     #endif /* (USBFS_1_EP2_ISR_ACTIVE) */
 777:.\Generated_Source\PSoC5/USBFS_1.c **** 
ARM GAS  C:\Users\LUKASC~1\AppData\Local\Temp\ccX4OJiL.s 			page 23


 778:.\Generated_Source\PSoC5/USBFS_1.c ****     #if (USBFS_1_EP3_ISR_ACTIVE)
 779:.\Generated_Source\PSoC5/USBFS_1.c ****         CyIntDisable(USBFS_1_EP_3_VECT_NUM);
 780:.\Generated_Source\PSoC5/USBFS_1.c ****     #endif /* (USBFS_1_EP3_ISR_ACTIVE) */
 781:.\Generated_Source\PSoC5/USBFS_1.c **** 
 782:.\Generated_Source\PSoC5/USBFS_1.c ****     #if (USBFS_1_EP4_ISR_ACTIVE)
 783:.\Generated_Source\PSoC5/USBFS_1.c ****         CyIntDisable(USBFS_1_EP_4_VECT_NUM);
 784:.\Generated_Source\PSoC5/USBFS_1.c ****     #endif /* (USBFS_1_EP4_ISR_ACTIVE) */
 785:.\Generated_Source\PSoC5/USBFS_1.c **** 
 786:.\Generated_Source\PSoC5/USBFS_1.c ****     #if (USBFS_1_EP5_ISR_ACTIVE)
 787:.\Generated_Source\PSoC5/USBFS_1.c ****         CyIntDisable(USBFS_1_EP_5_VECT_NUM);
 788:.\Generated_Source\PSoC5/USBFS_1.c ****     #endif /* (USBFS_1_EP5_ISR_ACTIVE) */
 789:.\Generated_Source\PSoC5/USBFS_1.c **** 
 790:.\Generated_Source\PSoC5/USBFS_1.c ****     #if (USBFS_1_EP6_ISR_ACTIVE)
 791:.\Generated_Source\PSoC5/USBFS_1.c ****         CyIntDisable(USBFS_1_EP_6_VECT_NUM);
 792:.\Generated_Source\PSoC5/USBFS_1.c ****     #endif /* USBFS_1_EP6_ISR_REMOVE */
 793:.\Generated_Source\PSoC5/USBFS_1.c **** 
 794:.\Generated_Source\PSoC5/USBFS_1.c ****     #if (USBFS_1_EP7_ISR_ACTIVE)
 795:.\Generated_Source\PSoC5/USBFS_1.c ****         CyIntDisable(USBFS_1_EP_7_VECT_NUM);
 796:.\Generated_Source\PSoC5/USBFS_1.c ****     #endif /* (USBFS_1_EP7_ISR_ACTIVE) */
 797:.\Generated_Source\PSoC5/USBFS_1.c **** 
 798:.\Generated_Source\PSoC5/USBFS_1.c ****     #if (USBFS_1_EP8_ISR_ACTIVE)
 799:.\Generated_Source\PSoC5/USBFS_1.c ****         CyIntDisable(USBFS_1_EP_8_VECT_NUM);
 800:.\Generated_Source\PSoC5/USBFS_1.c ****     #endif /* (USBFS_1_EP8_ISR_ACTIVE) */
 801:.\Generated_Source\PSoC5/USBFS_1.c **** #endif /* (CY_PSOC4) */
 802:.\Generated_Source\PSoC5/USBFS_1.c **** 
 803:.\Generated_Source\PSoC5/USBFS_1.c ****     /* Reset component internal variables. */
 804:.\Generated_Source\PSoC5/USBFS_1.c ****     USBFS_1_configurationChanged = 0u;
 805:.\Generated_Source\PSoC5/USBFS_1.c ****     USBFS_1_configuration   = 0u;
 806:.\Generated_Source\PSoC5/USBFS_1.c ****     USBFS_1_interfaceNumber = 0u;
 807:.\Generated_Source\PSoC5/USBFS_1.c ****     USBFS_1_deviceAddress   = 0u;
 808:.\Generated_Source\PSoC5/USBFS_1.c ****     USBFS_1_deviceStatus    = 0u;
 809:.\Generated_Source\PSoC5/USBFS_1.c **** 
 810:.\Generated_Source\PSoC5/USBFS_1.c ****     /* It is mandatory for correct device startup. */
 811:.\Generated_Source\PSoC5/USBFS_1.c ****     USBFS_1_initVar = 0u;
 812:.\Generated_Source\PSoC5/USBFS_1.c **** }
 813:.\Generated_Source\PSoC5/USBFS_1.c **** 
 814:.\Generated_Source\PSoC5/USBFS_1.c **** 
 815:.\Generated_Source\PSoC5/USBFS_1.c **** /*******************************************************************************
 816:.\Generated_Source\PSoC5/USBFS_1.c **** * Function Name: USBFS_1_CheckActivity
 817:.\Generated_Source\PSoC5/USBFS_1.c **** ****************************************************************************//**
 818:.\Generated_Source\PSoC5/USBFS_1.c **** *
 819:.\Generated_Source\PSoC5/USBFS_1.c **** *  This function returns the activity status of the bus. It clears the hardware
 820:.\Generated_Source\PSoC5/USBFS_1.c **** *  status to provide updated status on the next call of this function. It
 821:.\Generated_Source\PSoC5/USBFS_1.c **** *  provides a way to determine whether any USB bus activity occurred. The
 822:.\Generated_Source\PSoC5/USBFS_1.c **** *  application should use this function to determine if the USB suspend
 823:.\Generated_Source\PSoC5/USBFS_1.c **** *  conditions are met.
 824:.\Generated_Source\PSoC5/USBFS_1.c **** *
 825:.\Generated_Source\PSoC5/USBFS_1.c **** *
 826:.\Generated_Source\PSoC5/USBFS_1.c **** * \return
 827:.\Generated_Source\PSoC5/USBFS_1.c **** *  cystatus: Status of the bus since the last call of the function.
 828:.\Generated_Source\PSoC5/USBFS_1.c **** *  Return Value |   Description
 829:.\Generated_Source\PSoC5/USBFS_1.c **** *  -------------|---------------------------------------------------------------
 830:.\Generated_Source\PSoC5/USBFS_1.c **** *  1            |Bus activity was detected since the last call to this function
 831:.\Generated_Source\PSoC5/USBFS_1.c **** *  0            |Bus activity was not detected since the last call to this function
 832:.\Generated_Source\PSoC5/USBFS_1.c **** *
 833:.\Generated_Source\PSoC5/USBFS_1.c **** *
 834:.\Generated_Source\PSoC5/USBFS_1.c **** *******************************************************************************/
ARM GAS  C:\Users\LUKASC~1\AppData\Local\Temp\ccX4OJiL.s 			page 24


 835:.\Generated_Source\PSoC5/USBFS_1.c **** uint8 USBFS_1_CheckActivity(void) 
 836:.\Generated_Source\PSoC5/USBFS_1.c **** {
 471              		.loc 1 836 0
 472              		.cfi_startproc
 473              		@ args = 0, pretend = 0, frame = 0
 474              		@ frame_needed = 0, uses_anonymous_args = 0
 475              		@ link register save eliminated.
 837:.\Generated_Source\PSoC5/USBFS_1.c ****     uint8 cr1Reg = USBFS_1_CR1_REG;
 476              		.loc 1 837 0
 477 0000 064A     		ldr	r2, .L26
 478 0002 1378     		ldrb	r3, [r2]	@ zero_extendqisi2
 479 0004 DBB2     		uxtb	r3, r3
 480              	.LVL32:
 838:.\Generated_Source\PSoC5/USBFS_1.c **** 
 839:.\Generated_Source\PSoC5/USBFS_1.c ****     /* Clear bus activity. */
 840:.\Generated_Source\PSoC5/USBFS_1.c ****     USBFS_1_CR1_REG = (cr1Reg & (uint8) ~USBFS_1_CR1_BUS_ACTIVITY);
 481              		.loc 1 840 0
 482 0006 03F0FB01 		and	r1, r3, #251
 483 000a 1170     		strb	r1, [r2]
 841:.\Generated_Source\PSoC5/USBFS_1.c **** 
 842:.\Generated_Source\PSoC5/USBFS_1.c ****     /* Get bus activity. */
 843:.\Generated_Source\PSoC5/USBFS_1.c ****     return ((0u != (cr1Reg & USBFS_1_CR1_BUS_ACTIVITY)) ? (1u) : (0u));
 484              		.loc 1 843 0
 485 000c 03F00403 		and	r3, r3, #4
 486              	.LVL33:
 487 0010 03F0FF00 		and	r0, r3, #255
 488 0014 03B1     		cbz	r3, .L25
 489 0016 0120     		movs	r0, #1
 490              	.L25:
 844:.\Generated_Source\PSoC5/USBFS_1.c **** }
 491              		.loc 1 844 0 discriminator 4
 492 0018 7047     		bx	lr
 493              	.L27:
 494 001a 00BF     		.align	2
 495              	.L26:
 496 001c 09600040 		.word	1073766409
 497              		.cfi_endproc
 498              	.LFE5:
 499              		.size	USBFS_1_CheckActivity, .-USBFS_1_CheckActivity
 500              		.section	.text.USBFS_1_GetConfiguration,"ax",%progbits
 501              		.align	2
 502              		.global	USBFS_1_GetConfiguration
 503              		.thumb
 504              		.thumb_func
 505              		.type	USBFS_1_GetConfiguration, %function
 506              	USBFS_1_GetConfiguration:
 507              	.LFB6:
 845:.\Generated_Source\PSoC5/USBFS_1.c **** 
 846:.\Generated_Source\PSoC5/USBFS_1.c **** 
 847:.\Generated_Source\PSoC5/USBFS_1.c **** /*******************************************************************************
 848:.\Generated_Source\PSoC5/USBFS_1.c **** * Function Name: USBFS_1_GetConfiguration
 849:.\Generated_Source\PSoC5/USBFS_1.c **** ****************************************************************************//**
 850:.\Generated_Source\PSoC5/USBFS_1.c **** *
 851:.\Generated_Source\PSoC5/USBFS_1.c **** *  This function gets the current configuration of the USB device.
 852:.\Generated_Source\PSoC5/USBFS_1.c **** *
 853:.\Generated_Source\PSoC5/USBFS_1.c **** * \return
 854:.\Generated_Source\PSoC5/USBFS_1.c **** *  Returns the currently assigned configuration. Returns 0 if the device
ARM GAS  C:\Users\LUKASC~1\AppData\Local\Temp\ccX4OJiL.s 			page 25


 855:.\Generated_Source\PSoC5/USBFS_1.c **** *  is not configured
 856:.\Generated_Source\PSoC5/USBFS_1.c **** *
 857:.\Generated_Source\PSoC5/USBFS_1.c **** *******************************************************************************/
 858:.\Generated_Source\PSoC5/USBFS_1.c **** uint8 USBFS_1_GetConfiguration(void) 
 859:.\Generated_Source\PSoC5/USBFS_1.c **** {
 508              		.loc 1 859 0
 509              		.cfi_startproc
 510              		@ args = 0, pretend = 0, frame = 0
 511              		@ frame_needed = 0, uses_anonymous_args = 0
 512              		@ link register save eliminated.
 860:.\Generated_Source\PSoC5/USBFS_1.c ****     return (USBFS_1_configuration);
 513              		.loc 1 860 0
 514 0000 014B     		ldr	r3, .L29
 515 0002 1878     		ldrb	r0, [r3]	@ zero_extendqisi2
 861:.\Generated_Source\PSoC5/USBFS_1.c **** }
 516              		.loc 1 861 0
 517 0004 7047     		bx	lr
 518              	.L30:
 519 0006 00BF     		.align	2
 520              	.L29:
 521 0008 00000000 		.word	USBFS_1_configuration
 522              		.cfi_endproc
 523              	.LFE6:
 524              		.size	USBFS_1_GetConfiguration, .-USBFS_1_GetConfiguration
 525              		.section	.text.USBFS_1_IsConfigurationChanged,"ax",%progbits
 526              		.align	2
 527              		.global	USBFS_1_IsConfigurationChanged
 528              		.thumb
 529              		.thumb_func
 530              		.type	USBFS_1_IsConfigurationChanged, %function
 531              	USBFS_1_IsConfigurationChanged:
 532              	.LFB7:
 862:.\Generated_Source\PSoC5/USBFS_1.c **** 
 863:.\Generated_Source\PSoC5/USBFS_1.c **** 
 864:.\Generated_Source\PSoC5/USBFS_1.c **** /*******************************************************************************
 865:.\Generated_Source\PSoC5/USBFS_1.c **** * Function Name: USBFS_1_IsConfigurationChanged
 866:.\Generated_Source\PSoC5/USBFS_1.c **** ****************************************************************************//**
 867:.\Generated_Source\PSoC5/USBFS_1.c **** *
 868:.\Generated_Source\PSoC5/USBFS_1.c **** *  This function returns the clear-on-read configuration state.  It is useful
 869:.\Generated_Source\PSoC5/USBFS_1.c **** *  when the host sends double SET_CONFIGURATION request with the same 
 870:.\Generated_Source\PSoC5/USBFS_1.c **** *  configuration number or changes alternate settings of the interface. 
 871:.\Generated_Source\PSoC5/USBFS_1.c **** *  After configuration has been changed the OUT endpoints must be enabled and IN 
 872:.\Generated_Source\PSoC5/USBFS_1.c **** *  endpoint must be loaded with data to start communication with the host.
 873:.\Generated_Source\PSoC5/USBFS_1.c **** *
 874:.\Generated_Source\PSoC5/USBFS_1.c **** * \return
 875:.\Generated_Source\PSoC5/USBFS_1.c **** *  None-zero value when new configuration has been changed, otherwise zero is
 876:.\Generated_Source\PSoC5/USBFS_1.c **** *  returned.
 877:.\Generated_Source\PSoC5/USBFS_1.c **** *
 878:.\Generated_Source\PSoC5/USBFS_1.c **** * \globalvars
 879:.\Generated_Source\PSoC5/USBFS_1.c **** *
 880:.\Generated_Source\PSoC5/USBFS_1.c **** *  \ref USBFS_1_configurationChanged - This variable is set to 1 after
 881:.\Generated_Source\PSoC5/USBFS_1.c **** *   a SET_CONFIGURATION request and cleared in this function.
 882:.\Generated_Source\PSoC5/USBFS_1.c **** *
 883:.\Generated_Source\PSoC5/USBFS_1.c **** *******************************************************************************/
 884:.\Generated_Source\PSoC5/USBFS_1.c **** uint8 USBFS_1_IsConfigurationChanged(void) 
 885:.\Generated_Source\PSoC5/USBFS_1.c **** {
 533              		.loc 1 885 0
ARM GAS  C:\Users\LUKASC~1\AppData\Local\Temp\ccX4OJiL.s 			page 26


 534              		.cfi_startproc
 535              		@ args = 0, pretend = 0, frame = 0
 536              		@ frame_needed = 0, uses_anonymous_args = 0
 537              		@ link register save eliminated.
 538              	.LVL34:
 886:.\Generated_Source\PSoC5/USBFS_1.c ****     uint8 res = 0u;
 887:.\Generated_Source\PSoC5/USBFS_1.c **** 
 888:.\Generated_Source\PSoC5/USBFS_1.c ****     if (USBFS_1_configurationChanged != 0u)
 539              		.loc 1 888 0
 540 0000 064B     		ldr	r3, .L34
 541 0002 1B78     		ldrb	r3, [r3]	@ zero_extendqisi2
 542 0004 13F0FF0F 		tst	r3, #255
 543 0008 05D0     		beq	.L33
 889:.\Generated_Source\PSoC5/USBFS_1.c ****     {
 890:.\Generated_Source\PSoC5/USBFS_1.c ****         res = USBFS_1_configurationChanged;
 544              		.loc 1 890 0
 545 000a 044B     		ldr	r3, .L34
 546 000c 1878     		ldrb	r0, [r3]	@ zero_extendqisi2
 547 000e C0B2     		uxtb	r0, r0
 548              	.LVL35:
 891:.\Generated_Source\PSoC5/USBFS_1.c ****         USBFS_1_configurationChanged = 0u;
 549              		.loc 1 891 0
 550 0010 0022     		movs	r2, #0
 551 0012 1A70     		strb	r2, [r3]
 552 0014 7047     		bx	lr
 553              	.LVL36:
 554              	.L33:
 886:.\Generated_Source\PSoC5/USBFS_1.c ****     uint8 res = 0u;
 555              		.loc 1 886 0
 556 0016 0020     		movs	r0, #0
 557              	.LVL37:
 892:.\Generated_Source\PSoC5/USBFS_1.c ****     }
 893:.\Generated_Source\PSoC5/USBFS_1.c **** 
 894:.\Generated_Source\PSoC5/USBFS_1.c ****     return (res);
 895:.\Generated_Source\PSoC5/USBFS_1.c **** }
 558              		.loc 1 895 0
 559 0018 7047     		bx	lr
 560              	.L35:
 561 001a 00BF     		.align	2
 562              	.L34:
 563 001c 00000000 		.word	USBFS_1_configurationChanged
 564              		.cfi_endproc
 565              	.LFE7:
 566              		.size	USBFS_1_IsConfigurationChanged, .-USBFS_1_IsConfigurationChanged
 567              		.section	.text.USBFS_1_GetInterfaceSetting,"ax",%progbits
 568              		.align	2
 569              		.global	USBFS_1_GetInterfaceSetting
 570              		.thumb
 571              		.thumb_func
 572              		.type	USBFS_1_GetInterfaceSetting, %function
 573              	USBFS_1_GetInterfaceSetting:
 574              	.LFB8:
 896:.\Generated_Source\PSoC5/USBFS_1.c **** 
 897:.\Generated_Source\PSoC5/USBFS_1.c **** 
 898:.\Generated_Source\PSoC5/USBFS_1.c **** /*******************************************************************************
 899:.\Generated_Source\PSoC5/USBFS_1.c **** * Function Name: USBFS_1_GetInterfaceSetting
 900:.\Generated_Source\PSoC5/USBFS_1.c **** ****************************************************************************//**
ARM GAS  C:\Users\LUKASC~1\AppData\Local\Temp\ccX4OJiL.s 			page 27


 901:.\Generated_Source\PSoC5/USBFS_1.c **** *
 902:.\Generated_Source\PSoC5/USBFS_1.c **** *  This function gets the current alternate setting for the specified interface.
 903:.\Generated_Source\PSoC5/USBFS_1.c **** *  It is useful to identify which alternate settings are active in the specified 
 904:.\Generated_Source\PSoC5/USBFS_1.c **** *  interface.
 905:.\Generated_Source\PSoC5/USBFS_1.c **** *
 906:.\Generated_Source\PSoC5/USBFS_1.c **** *  \param
 907:.\Generated_Source\PSoC5/USBFS_1.c **** *  interfaceNumber interface number
 908:.\Generated_Source\PSoC5/USBFS_1.c **** *
 909:.\Generated_Source\PSoC5/USBFS_1.c **** * \return
 910:.\Generated_Source\PSoC5/USBFS_1.c **** *  Returns the current alternate setting for the specified interface.
 911:.\Generated_Source\PSoC5/USBFS_1.c **** *
 912:.\Generated_Source\PSoC5/USBFS_1.c **** *******************************************************************************/
 913:.\Generated_Source\PSoC5/USBFS_1.c **** uint8  USBFS_1_GetInterfaceSetting(uint8 interfaceNumber)
 914:.\Generated_Source\PSoC5/USBFS_1.c ****                                                     
 915:.\Generated_Source\PSoC5/USBFS_1.c **** {
 575              		.loc 1 915 0
 576              		.cfi_startproc
 577              		@ args = 0, pretend = 0, frame = 0
 578              		@ frame_needed = 0, uses_anonymous_args = 0
 579              		@ link register save eliminated.
 580              	.LVL38:
 916:.\Generated_Source\PSoC5/USBFS_1.c ****     return (USBFS_1_interfaceSetting[interfaceNumber]);
 581              		.loc 1 916 0
 582 0000 014B     		ldr	r3, .L37
 583 0002 185C     		ldrb	r0, [r3, r0]	@ zero_extendqisi2
 584              	.LVL39:
 917:.\Generated_Source\PSoC5/USBFS_1.c **** }
 585              		.loc 1 917 0
 586 0004 7047     		bx	lr
 587              	.L38:
 588 0006 00BF     		.align	2
 589              	.L37:
 590 0008 00000000 		.word	USBFS_1_interfaceSetting
 591              		.cfi_endproc
 592              	.LFE8:
 593              		.size	USBFS_1_GetInterfaceSetting, .-USBFS_1_GetInterfaceSetting
 594              		.section	.text.USBFS_1_GetEPState,"ax",%progbits
 595              		.align	2
 596              		.global	USBFS_1_GetEPState
 597              		.thumb
 598              		.thumb_func
 599              		.type	USBFS_1_GetEPState, %function
 600              	USBFS_1_GetEPState:
 601              	.LFB9:
 918:.\Generated_Source\PSoC5/USBFS_1.c **** 
 919:.\Generated_Source\PSoC5/USBFS_1.c **** 
 920:.\Generated_Source\PSoC5/USBFS_1.c **** /*******************************************************************************
 921:.\Generated_Source\PSoC5/USBFS_1.c **** * Function Name: USBFS_1_GetEPState
 922:.\Generated_Source\PSoC5/USBFS_1.c **** ****************************************************************************//**
 923:.\Generated_Source\PSoC5/USBFS_1.c **** *
 924:.\Generated_Source\PSoC5/USBFS_1.c **** *  This function returns the state of the requested endpoint.
 925:.\Generated_Source\PSoC5/USBFS_1.c **** *
 926:.\Generated_Source\PSoC5/USBFS_1.c **** * \param epNumber Data endpoint number
 927:.\Generated_Source\PSoC5/USBFS_1.c **** *
 928:.\Generated_Source\PSoC5/USBFS_1.c **** * \return
 929:.\Generated_Source\PSoC5/USBFS_1.c **** *  Returns the current state of the specified USBFS endpoint. Symbolic names and
 930:.\Generated_Source\PSoC5/USBFS_1.c **** *  their associated values are given in the following table. Use these constants
ARM GAS  C:\Users\LUKASC~1\AppData\Local\Temp\ccX4OJiL.s 			page 28


 931:.\Generated_Source\PSoC5/USBFS_1.c **** *  whenever you write code to change the state of the endpoints, such as ISR
 932:.\Generated_Source\PSoC5/USBFS_1.c **** *  code, to handle data sent or received.
 933:.\Generated_Source\PSoC5/USBFS_1.c **** *
 934:.\Generated_Source\PSoC5/USBFS_1.c **** *  Return Value           | Description
 935:.\Generated_Source\PSoC5/USBFS_1.c **** *  -----------------------|-----------------------------------------------------
 936:.\Generated_Source\PSoC5/USBFS_1.c **** *  USBFS_NO_EVENT_PENDING |The endpoint is awaiting SIE action
 937:.\Generated_Source\PSoC5/USBFS_1.c **** *  USBFS_EVENT_PENDING    |The endpoint is awaiting CPU action
 938:.\Generated_Source\PSoC5/USBFS_1.c **** *  USBFS_NO_EVENT_ALLOWED |The endpoint is locked from access
 939:.\Generated_Source\PSoC5/USBFS_1.c **** *  USBFS_IN_BUFFER_FULL   |The IN endpoint is loaded and the mode is set to ACK IN
 940:.\Generated_Source\PSoC5/USBFS_1.c **** *  USBFS_IN_BUFFER_EMPTY  |An IN transaction occurred and more data can be loaded
 941:.\Generated_Source\PSoC5/USBFS_1.c **** *  USBFS_OUT_BUFFER_EMPTY |The OUT endpoint is set to ACK OUT and is waiting for data
 942:.\Generated_Source\PSoC5/USBFS_1.c **** *  USBFS_OUT_BUFFER_FULL  |An OUT transaction has occurred and data can be read
 943:.\Generated_Source\PSoC5/USBFS_1.c **** *
 944:.\Generated_Source\PSoC5/USBFS_1.c **** *******************************************************************************/
 945:.\Generated_Source\PSoC5/USBFS_1.c **** uint8 USBFS_1_GetEPState(uint8 epNumber) 
 946:.\Generated_Source\PSoC5/USBFS_1.c **** {
 602              		.loc 1 946 0
 603              		.cfi_startproc
 604              		@ args = 0, pretend = 0, frame = 0
 605              		@ frame_needed = 0, uses_anonymous_args = 0
 606              		@ link register save eliminated.
 607              	.LVL40:
 947:.\Generated_Source\PSoC5/USBFS_1.c ****     return (USBFS_1_EP[epNumber].apiEpState);
 608              		.loc 1 947 0
 609 0000 00EB4000 		add	r0, r0, r0, lsl #1
 610              	.LVL41:
 611 0004 8000     		lsls	r0, r0, #2
 612 0006 024B     		ldr	r3, .L40
 613 0008 1844     		add	r0, r0, r3
 614 000a 4078     		ldrb	r0, [r0, #1]	@ zero_extendqisi2
 948:.\Generated_Source\PSoC5/USBFS_1.c **** }
 615              		.loc 1 948 0
 616 000c 7047     		bx	lr
 617              	.L41:
 618 000e 00BF     		.align	2
 619              	.L40:
 620 0010 00000000 		.word	USBFS_1_EP
 621              		.cfi_endproc
 622              	.LFE9:
 623              		.size	USBFS_1_GetEPState, .-USBFS_1_GetEPState
 624              		.section	.text.USBFS_1_GetEPCount,"ax",%progbits
 625              		.align	2
 626              		.global	USBFS_1_GetEPCount
 627              		.thumb
 628              		.thumb_func
 629              		.type	USBFS_1_GetEPCount, %function
 630              	USBFS_1_GetEPCount:
 631              	.LFB10:
 949:.\Generated_Source\PSoC5/USBFS_1.c **** 
 950:.\Generated_Source\PSoC5/USBFS_1.c **** 
 951:.\Generated_Source\PSoC5/USBFS_1.c **** /*******************************************************************************
 952:.\Generated_Source\PSoC5/USBFS_1.c **** * Function Name: USBFS_1_GetEPCount
 953:.\Generated_Source\PSoC5/USBFS_1.c **** ****************************************************************************//**
 954:.\Generated_Source\PSoC5/USBFS_1.c **** *
 955:.\Generated_Source\PSoC5/USBFS_1.c **** *  This function supports Data Endpoints only(EP1-EP8).
 956:.\Generated_Source\PSoC5/USBFS_1.c **** *  Returns the transfer count for the requested endpoint.  The value from
 957:.\Generated_Source\PSoC5/USBFS_1.c **** *  the count registers includes 2 counts for the two byte checksum of the
ARM GAS  C:\Users\LUKASC~1\AppData\Local\Temp\ccX4OJiL.s 			page 29


 958:.\Generated_Source\PSoC5/USBFS_1.c **** *  packet.  This function subtracts the two counts.
 959:.\Generated_Source\PSoC5/USBFS_1.c **** *
 960:.\Generated_Source\PSoC5/USBFS_1.c **** *  \param epNumber Data Endpoint Number.
 961:.\Generated_Source\PSoC5/USBFS_1.c **** *                   Valid values are between 1 and 8.
 962:.\Generated_Source\PSoC5/USBFS_1.c **** *
 963:.\Generated_Source\PSoC5/USBFS_1.c **** * \return
 964:.\Generated_Source\PSoC5/USBFS_1.c **** *  Returns the current byte count from the specified endpoint or 0 for an
 965:.\Generated_Source\PSoC5/USBFS_1.c **** *  invalid endpoint.
 966:.\Generated_Source\PSoC5/USBFS_1.c **** *
 967:.\Generated_Source\PSoC5/USBFS_1.c **** *******************************************************************************/
 968:.\Generated_Source\PSoC5/USBFS_1.c **** uint16 USBFS_1_GetEPCount(uint8 epNumber) 
 969:.\Generated_Source\PSoC5/USBFS_1.c **** {
 632              		.loc 1 969 0
 633              		.cfi_startproc
 634              		@ args = 0, pretend = 0, frame = 0
 635              		@ frame_needed = 0, uses_anonymous_args = 0
 636              		@ link register save eliminated.
 637              	.LVL42:
 970:.\Generated_Source\PSoC5/USBFS_1.c ****     uint16 cntr = 0u;
 971:.\Generated_Source\PSoC5/USBFS_1.c **** 
 972:.\Generated_Source\PSoC5/USBFS_1.c ****     if ((epNumber > USBFS_1_EP0) && (epNumber < USBFS_1_MAX_EP))
 638              		.loc 1 972 0
 639 0000 431E     		subs	r3, r0, #1
 640 0002 DBB2     		uxtb	r3, r3
 641 0004 072B     		cmp	r3, #7
 642 0006 0BD8     		bhi	.L44
 973:.\Generated_Source\PSoC5/USBFS_1.c ****     {
 974:.\Generated_Source\PSoC5/USBFS_1.c ****         /* Get 11-bits EP counter where epCnt0 - 3 bits MSB and epCnt1 - 8 bits LSB. */
 975:.\Generated_Source\PSoC5/USBFS_1.c ****         cntr  = ((uint16) USBFS_1_SIE_EP_BASE.sieEp[epNumber].epCnt0) & USBFS_1_EPX_CNT0_MASK;
 643              		.loc 1 975 0
 644 0008 064B     		ldr	r3, .L45
 645 000a 0001     		lsls	r0, r0, #4
 646              	.LVL43:
 647 000c 1A18     		adds	r2, r3, r0
 648 000e 185C     		ldrb	r0, [r3, r0]	@ zero_extendqisi2
 649 0010 00F00F00 		and	r0, r0, #15
 650              	.LVL44:
 976:.\Generated_Source\PSoC5/USBFS_1.c ****         cntr  = ((uint16) (cntr << 8u)) | ((uint16) USBFS_1_SIE_EP_BASE.sieEp[epNumber].epCnt1);
 651              		.loc 1 976 0
 652 0014 5378     		ldrb	r3, [r2, #1]	@ zero_extendqisi2
 653 0016 43EA0020 		orr	r0, r3, r0, lsl #8
 654              	.LVL45:
 977:.\Generated_Source\PSoC5/USBFS_1.c ****         cntr -= USBFS_1_EPX_CNTX_CRC_COUNT;
 655              		.loc 1 977 0
 656 001a 0238     		subs	r0, r0, #2
 657              	.LVL46:
 658 001c 80B2     		uxth	r0, r0
 659              	.LVL47:
 660 001e 7047     		bx	lr
 661              	.LVL48:
 662              	.L44:
 970:.\Generated_Source\PSoC5/USBFS_1.c **** 
 663              		.loc 1 970 0
 664 0020 0020     		movs	r0, #0
 665              	.LVL49:
 978:.\Generated_Source\PSoC5/USBFS_1.c ****     }
 979:.\Generated_Source\PSoC5/USBFS_1.c **** 
ARM GAS  C:\Users\LUKASC~1\AppData\Local\Temp\ccX4OJiL.s 			page 30


 980:.\Generated_Source\PSoC5/USBFS_1.c ****     return (cntr);
 981:.\Generated_Source\PSoC5/USBFS_1.c **** }
 666              		.loc 1 981 0
 667 0022 7047     		bx	lr
 668              	.L46:
 669              		.align	2
 670              	.L45:
 671 0024 FC5F0040 		.word	1073766396
 672              		.cfi_endproc
 673              	.LFE10:
 674              		.size	USBFS_1_GetEPCount, .-USBFS_1_GetEPCount
 675              		.section	.text.USBFS_1_InitEP_DMA,"ax",%progbits
 676              		.align	2
 677              		.global	USBFS_1_InitEP_DMA
 678              		.thumb
 679              		.thumb_func
 680              		.type	USBFS_1_InitEP_DMA, %function
 681              	USBFS_1_InitEP_DMA:
 682              	.LFB11:
 982:.\Generated_Source\PSoC5/USBFS_1.c **** 
 983:.\Generated_Source\PSoC5/USBFS_1.c **** 
 984:.\Generated_Source\PSoC5/USBFS_1.c **** #if (USBFS_1_EP_MANAGEMENT_DMA)
 985:.\Generated_Source\PSoC5/USBFS_1.c **** #if (CY_PSOC4)
 986:.\Generated_Source\PSoC5/USBFS_1.c ****     /*******************************************************************************
 987:.\Generated_Source\PSoC5/USBFS_1.c ****     * Function Name: USBFS_1_InitEpDma
 988:.\Generated_Source\PSoC5/USBFS_1.c ****     ****************************************************************************//**
 989:.\Generated_Source\PSoC5/USBFS_1.c ****     *
 990:.\Generated_Source\PSoC5/USBFS_1.c ****     *  This function configures priority for all DMA channels utilized by the
 991:.\Generated_Source\PSoC5/USBFS_1.c ****     *  component. Also sets callbacks for DMA auto mode.
 992:.\Generated_Source\PSoC5/USBFS_1.c ****     *
 993:.\Generated_Source\PSoC5/USBFS_1.c ****     *******************************************************************************/
 994:.\Generated_Source\PSoC5/USBFS_1.c ****     static void USBFS_1_InitEpDma(void)
 995:.\Generated_Source\PSoC5/USBFS_1.c ****     {
 996:.\Generated_Source\PSoC5/USBFS_1.c ****     #if (USBFS_1_DMA1_ACTIVE)
 997:.\Generated_Source\PSoC5/USBFS_1.c ****         CYDMA_CH_CTL_BASE.ctl[USBFS_1_ep1_dma_CHANNEL] = USBFS_1_ep1_dma_CHANNEL_CFG;
 998:.\Generated_Source\PSoC5/USBFS_1.c ****     #endif /* (USBFS_1_DMA1_ACTIVE) */
 999:.\Generated_Source\PSoC5/USBFS_1.c **** 
1000:.\Generated_Source\PSoC5/USBFS_1.c ****     #if (USBFS_1_DMA2_ACTIVE)
1001:.\Generated_Source\PSoC5/USBFS_1.c ****         CYDMA_CH_CTL_BASE.ctl[USBFS_1_ep2_dma_CHANNEL] = USBFS_1_ep2_dma_CHANNEL_CFG;
1002:.\Generated_Source\PSoC5/USBFS_1.c ****     #endif /* (USBFS_1_DMA2_ACTIVE) */
1003:.\Generated_Source\PSoC5/USBFS_1.c **** 
1004:.\Generated_Source\PSoC5/USBFS_1.c ****     #if (USBFS_1_DMA3_ACTIVE)
1005:.\Generated_Source\PSoC5/USBFS_1.c ****         CYDMA_CH_CTL_BASE.ctl[USBFS_1_ep3_dma_CHANNEL] = USBFS_1_ep3_dma_CHANNEL_CFG;
1006:.\Generated_Source\PSoC5/USBFS_1.c ****     #endif /* (USBFS_1_DMA3_ACTIVE) */
1007:.\Generated_Source\PSoC5/USBFS_1.c **** 
1008:.\Generated_Source\PSoC5/USBFS_1.c ****     #if (USBFS_1_DMA4_ACTIVE)
1009:.\Generated_Source\PSoC5/USBFS_1.c ****         CYDMA_CH_CTL_BASE.ctl[USBFS_1_ep4_dma_CHANNEL] = USBFS_1_ep4_dma_CHANNEL_CFG;
1010:.\Generated_Source\PSoC5/USBFS_1.c ****     #endif /* (USBFS_1_DMA4_ACTIVE) */
1011:.\Generated_Source\PSoC5/USBFS_1.c **** 
1012:.\Generated_Source\PSoC5/USBFS_1.c ****     #if (USBFS_1_DMA5_ACTIVE)
1013:.\Generated_Source\PSoC5/USBFS_1.c ****         CYDMA_CH_CTL_BASE.ctl[USBFS_1_ep5_dma_CHANNEL] = USBFS_1_ep5_dma_CHANNEL_CFG;
1014:.\Generated_Source\PSoC5/USBFS_1.c ****     #endif /* (USBFS_1_DMA5_ACTIVE) */
1015:.\Generated_Source\PSoC5/USBFS_1.c **** 
1016:.\Generated_Source\PSoC5/USBFS_1.c ****     #if (USBFS_1_DMA6_ACTIVE)
1017:.\Generated_Source\PSoC5/USBFS_1.c ****         CYDMA_CH_CTL_BASE.ctl[USBFS_1_ep6_dma_CHANNEL] = USBFS_1_ep6_dma_CHANNEL_CFG;
1018:.\Generated_Source\PSoC5/USBFS_1.c ****     #endif /* (USBFS_1_DMA6_ACTIVE) */
1019:.\Generated_Source\PSoC5/USBFS_1.c **** 
ARM GAS  C:\Users\LUKASC~1\AppData\Local\Temp\ccX4OJiL.s 			page 31


1020:.\Generated_Source\PSoC5/USBFS_1.c ****     #if (USBFS_1_DMA7_ACTIVE)
1021:.\Generated_Source\PSoC5/USBFS_1.c ****         CYDMA_CH_CTL_BASE.ctl[USBFS_1_ep7_dma_CHANNEL] = USBFS_1_ep7_dma_CHANNEL_CFG;
1022:.\Generated_Source\PSoC5/USBFS_1.c ****     #endif /* (USBFS_1_DMA7_ACTIVE) */
1023:.\Generated_Source\PSoC5/USBFS_1.c **** 
1024:.\Generated_Source\PSoC5/USBFS_1.c ****     #if (USBFS_1_DMA8_ACTIVE)
1025:.\Generated_Source\PSoC5/USBFS_1.c ****         CYDMA_CH_CTL_BASE.ctl[USBFS_1_ep8_dma_CHANNEL] = USBFS_1_ep8_dma_CHANNEL_CFG;
1026:.\Generated_Source\PSoC5/USBFS_1.c ****     #endif /* (USBFS_1_DMA8_ACTIVE) */
1027:.\Generated_Source\PSoC5/USBFS_1.c **** 
1028:.\Generated_Source\PSoC5/USBFS_1.c ****     #if (USBFS_1_EP_MANAGEMENT_DMA_AUTO)
1029:.\Generated_Source\PSoC5/USBFS_1.c ****         /* Initialize DMA channel callbacks. */
1030:.\Generated_Source\PSoC5/USBFS_1.c ****         #if (USBFS_1_DMA1_ACTIVE)
1031:.\Generated_Source\PSoC5/USBFS_1.c ****             (void) USBFS_1_ep1_dma_SetInterruptCallback(&USBFS_1_EP1_DMA_DONE_ISR);
1032:.\Generated_Source\PSoC5/USBFS_1.c ****         #endif /* (USBFS_1_DMA1_ACTIVE) */
1033:.\Generated_Source\PSoC5/USBFS_1.c **** 
1034:.\Generated_Source\PSoC5/USBFS_1.c ****         #if (USBFS_1_DMA2_ACTIVE)
1035:.\Generated_Source\PSoC5/USBFS_1.c ****             (void) USBFS_1_ep2_dma_SetInterruptCallback(&USBFS_1_EP2_DMA_DONE_ISR);
1036:.\Generated_Source\PSoC5/USBFS_1.c ****         #endif /* (USBFS_1_DMA2_ACTIVE) */
1037:.\Generated_Source\PSoC5/USBFS_1.c **** 
1038:.\Generated_Source\PSoC5/USBFS_1.c ****         #if (USBFS_1_DMA3_ACTIVE)
1039:.\Generated_Source\PSoC5/USBFS_1.c ****             (void) USBFS_1_ep3_dma_SetInterruptCallback(&USBFS_1_EP3_DMA_DONE_ISR);
1040:.\Generated_Source\PSoC5/USBFS_1.c ****         #endif /* (USBFS_1_DMA3_ACTIVE) */
1041:.\Generated_Source\PSoC5/USBFS_1.c **** 
1042:.\Generated_Source\PSoC5/USBFS_1.c ****         #if (USBFS_1_DMA4_ACTIVE)
1043:.\Generated_Source\PSoC5/USBFS_1.c ****             (void) USBFS_1_ep4_dma_SetInterruptCallback(&USBFS_1_EP4_DMA_DONE_ISR);
1044:.\Generated_Source\PSoC5/USBFS_1.c ****         #endif /* (USBFS_1_DMA4_ACTIVE) */
1045:.\Generated_Source\PSoC5/USBFS_1.c **** 
1046:.\Generated_Source\PSoC5/USBFS_1.c ****         #if (USBFS_1_DMA5_ACTIVE)
1047:.\Generated_Source\PSoC5/USBFS_1.c ****             (void) USBFS_1_ep5_dma_SetInterruptCallback(&USBFS_1_EP5_DMA_DONE_ISR);
1048:.\Generated_Source\PSoC5/USBFS_1.c ****         #endif /* (USBFS_1_DMA5_ACTIVE) */
1049:.\Generated_Source\PSoC5/USBFS_1.c **** 
1050:.\Generated_Source\PSoC5/USBFS_1.c ****         #if (USBFS_1_DMA6_ACTIVE)
1051:.\Generated_Source\PSoC5/USBFS_1.c ****             (void) USBFS_1_ep6_dma_SetInterruptCallback(&USBFS_1_EP6_DMA_DONE_ISR);
1052:.\Generated_Source\PSoC5/USBFS_1.c ****         #endif /* (USBFS_1_DMA6_ACTIVE) */
1053:.\Generated_Source\PSoC5/USBFS_1.c **** 
1054:.\Generated_Source\PSoC5/USBFS_1.c ****         #if (USBFS_1_DMA7_ACTIVE)
1055:.\Generated_Source\PSoC5/USBFS_1.c ****             (void) USBFS_1_ep7_dma_SetInterruptCallback(&USBFS_1_EP7_DMA_DONE_ISR);
1056:.\Generated_Source\PSoC5/USBFS_1.c ****         #endif /* (USBFS_1_DMA7_ACTIVE) */
1057:.\Generated_Source\PSoC5/USBFS_1.c **** 
1058:.\Generated_Source\PSoC5/USBFS_1.c ****         #if (USBFS_1_DMA8_ACTIVE)
1059:.\Generated_Source\PSoC5/USBFS_1.c ****             (void) USBFS_1_ep8_dma_SetInterruptCallback(&USBFS_1_EP8_DMA_DONE_ISR);
1060:.\Generated_Source\PSoC5/USBFS_1.c ****         #endif /* (USBFS_1_DMA8_ACTIVE) */
1061:.\Generated_Source\PSoC5/USBFS_1.c ****     #endif /* (USBFS_1_EP_MANAGEMENT_DMA_AUTO) */
1062:.\Generated_Source\PSoC5/USBFS_1.c ****     }
1063:.\Generated_Source\PSoC5/USBFS_1.c **** #else
1064:.\Generated_Source\PSoC5/USBFS_1.c **** 
1065:.\Generated_Source\PSoC5/USBFS_1.c **** 
1066:.\Generated_Source\PSoC5/USBFS_1.c ****     /***************************************************************************
1067:.\Generated_Source\PSoC5/USBFS_1.c ****     * Function Name: USBFS_1_InitEP_DMA
1068:.\Generated_Source\PSoC5/USBFS_1.c ****     ************************************************************************//**
1069:.\Generated_Source\PSoC5/USBFS_1.c ****     *
1070:.\Generated_Source\PSoC5/USBFS_1.c ****     *  This function allocates and initializes a DMA channel to be used by the
1071:.\Generated_Source\PSoC5/USBFS_1.c ****     *  USBFS_1_LoadInEP() or USBFS_1_ReadOutEP() APIs for data
1072:.\Generated_Source\PSoC5/USBFS_1.c ****     *  transfer. It is available when the Endpoint Memory Management parameter
1073:.\Generated_Source\PSoC5/USBFS_1.c ****     *  is set to DMA.
1074:.\Generated_Source\PSoC5/USBFS_1.c ****     *
1075:.\Generated_Source\PSoC5/USBFS_1.c ****     *  This function is automatically called from the USBFS_LoadInEP() and USBFS_ReadOutEP() APIs.
1076:.\Generated_Source\PSoC5/USBFS_1.c ****     *
ARM GAS  C:\Users\LUKASC~1\AppData\Local\Temp\ccX4OJiL.s 			page 32


1077:.\Generated_Source\PSoC5/USBFS_1.c ****     *  \param epNumber Contains the data endpoint number.
1078:.\Generated_Source\PSoC5/USBFS_1.c ****     *            Valid values are between 1 and 8.
1079:.\Generated_Source\PSoC5/USBFS_1.c ****     *  \param *pData Pointer to a data array that is related to the EP transfers.
1080:.\Generated_Source\PSoC5/USBFS_1.c ****     *
1081:.\Generated_Source\PSoC5/USBFS_1.c ****     * \reentrant No.
1082:.\Generated_Source\PSoC5/USBFS_1.c ****     *
1083:.\Generated_Source\PSoC5/USBFS_1.c ****     ***************************************************************************/
1084:.\Generated_Source\PSoC5/USBFS_1.c ****     void USBFS_1_InitEP_DMA(uint8 epNumber, const uint8 *pData)
1085:.\Generated_Source\PSoC5/USBFS_1.c ****                                                                     
1086:.\Generated_Source\PSoC5/USBFS_1.c ****     {
 683              		.loc 1 1086 0
 684              		.cfi_startproc
 685              		@ args = 0, pretend = 0, frame = 0
 686              		@ frame_needed = 0, uses_anonymous_args = 0
 687              	.LVL50:
 688 0000 10B5     		push	{r4, lr}
 689              		.cfi_def_cfa_offset 8
 690              		.cfi_offset 4, -8
 691              		.cfi_offset 14, -4
 692 0002 0446     		mov	r4, r0
1087:.\Generated_Source\PSoC5/USBFS_1.c ****         uint16 src;
1088:.\Generated_Source\PSoC5/USBFS_1.c ****         uint16 dst;
1089:.\Generated_Source\PSoC5/USBFS_1.c **** 
1090:.\Generated_Source\PSoC5/USBFS_1.c ****     #if (CY_PSOC3)
1091:.\Generated_Source\PSoC5/USBFS_1.c ****         src = HI16(CYDEV_SRAM_BASE);
1092:.\Generated_Source\PSoC5/USBFS_1.c ****         dst = HI16(CYDEV_PERIPH_BASE);
1093:.\Generated_Source\PSoC5/USBFS_1.c ****         pData = pData;
1094:.\Generated_Source\PSoC5/USBFS_1.c ****     #else
1095:.\Generated_Source\PSoC5/USBFS_1.c ****         if ((USBFS_1_EP[epNumber].addr & USBFS_1_DIR_IN) != 0u)
 693              		.loc 1 1095 0
 694 0004 00EB4000 		add	r0, r0, r0, lsl #1
 695              	.LVL51:
 696 0008 8000     		lsls	r0, r0, #2
 697 000a 114B     		ldr	r3, .L54
 698 000c 1844     		add	r0, r0, r3
 699 000e 0379     		ldrb	r3, [r0, #4]	@ zero_extendqisi2
 700 0010 13F0800F 		tst	r3, #128
 701 0014 03D0     		beq	.L48
1096:.\Generated_Source\PSoC5/USBFS_1.c ****         {
1097:.\Generated_Source\PSoC5/USBFS_1.c ****             /* IN endpoint: source is memory buffer. */
1098:.\Generated_Source\PSoC5/USBFS_1.c ****             src = HI16(pData);
 702              		.loc 1 1098 0
 703 0016 0A0C     		lsrs	r2, r1, #16
 704              	.LVL52:
1099:.\Generated_Source\PSoC5/USBFS_1.c ****             dst = HI16(CYDEV_PERIPH_BASE);
 705              		.loc 1 1099 0
 706 0018 4FF48043 		mov	r3, #16384
 707 001c 02E0     		b	.L49
 708              	.LVL53:
 709              	.L48:
1100:.\Generated_Source\PSoC5/USBFS_1.c ****         }
1101:.\Generated_Source\PSoC5/USBFS_1.c ****         else
1102:.\Generated_Source\PSoC5/USBFS_1.c ****         {
1103:.\Generated_Source\PSoC5/USBFS_1.c ****             /* OUT endpoint: source is USB IP memory buffer. */
1104:.\Generated_Source\PSoC5/USBFS_1.c ****             src = HI16(CYDEV_PERIPH_BASE);
1105:.\Generated_Source\PSoC5/USBFS_1.c ****             dst = HI16(pData);
 710              		.loc 1 1105 0
ARM GAS  C:\Users\LUKASC~1\AppData\Local\Temp\ccX4OJiL.s 			page 33


 711 001e 0B0C     		lsrs	r3, r1, #16
 712              	.LVL54:
1104:.\Generated_Source\PSoC5/USBFS_1.c ****             dst = HI16(pData);
 713              		.loc 1 1104 0
 714 0020 4FF48042 		mov	r2, #16384
 715              	.LVL55:
 716              	.L49:
1106:.\Generated_Source\PSoC5/USBFS_1.c ****         }
1107:.\Generated_Source\PSoC5/USBFS_1.c ****     #endif  /* (CY_PSOC3) */
1108:.\Generated_Source\PSoC5/USBFS_1.c **** 
1109:.\Generated_Source\PSoC5/USBFS_1.c ****         switch(epNumber)
 717              		.loc 1 1109 0
 718 0024 022C     		cmp	r4, #2
 719 0026 05D1     		bne	.L50
1110:.\Generated_Source\PSoC5/USBFS_1.c ****         {
1111:.\Generated_Source\PSoC5/USBFS_1.c ****     #if (USBFS_1_DMA1_ACTIVE)
1112:.\Generated_Source\PSoC5/USBFS_1.c ****         case USBFS_1_EP1:
1113:.\Generated_Source\PSoC5/USBFS_1.c ****             USBFS_1_DmaChan[epNumber] = USBFS_1_ep1_DmaInitialize(USBFS_1_DMA_BYTES_PER_BURST,
1114:.\Generated_Source\PSoC5/USBFS_1.c ****                                                                                     USBFS_1_DMA_REQ
1115:.\Generated_Source\PSoC5/USBFS_1.c ****             break;
1116:.\Generated_Source\PSoC5/USBFS_1.c ****     #endif /* (USBFS_1_DMA1_ACTIVE) */
1117:.\Generated_Source\PSoC5/USBFS_1.c **** 
1118:.\Generated_Source\PSoC5/USBFS_1.c ****     #if (USBFS_1_DMA2_ACTIVE)
1119:.\Generated_Source\PSoC5/USBFS_1.c ****         case USBFS_1_EP2:
1120:.\Generated_Source\PSoC5/USBFS_1.c ****             USBFS_1_DmaChan[epNumber] = USBFS_1_ep2_DmaInitialize(USBFS_1_DMA_BYTES_PER_BURST,
 720              		.loc 1 1120 0
 721 0028 2020     		movs	r0, #32
 722 002a 0121     		movs	r1, #1
 723              	.LVL56:
 724 002c FFF7FEFF 		bl	USBFS_1_ep2_DmaInitialize
 725              	.LVL57:
 726 0030 084B     		ldr	r3, .L54+4
 727 0032 1855     		strb	r0, [r3, r4]
 728              	.L50:
1121:.\Generated_Source\PSoC5/USBFS_1.c ****                                                                                     USBFS_1_DMA_REQ
1122:.\Generated_Source\PSoC5/USBFS_1.c ****             break;
1123:.\Generated_Source\PSoC5/USBFS_1.c ****     #endif /* (USBFS_1_DMA2_ACTIVE) */
1124:.\Generated_Source\PSoC5/USBFS_1.c **** 
1125:.\Generated_Source\PSoC5/USBFS_1.c ****     #if (USBFS_1_DMA3_ACTIVE)
1126:.\Generated_Source\PSoC5/USBFS_1.c ****             case USBFS_1_EP3:
1127:.\Generated_Source\PSoC5/USBFS_1.c ****                 USBFS_1_DmaChan[epNumber] = USBFS_1_ep3_DmaInitialize(USBFS_1_DMA_BYTES_PER_BURST,
1128:.\Generated_Source\PSoC5/USBFS_1.c ****                                                                                         USBFS_1_DMA
1129:.\Generated_Source\PSoC5/USBFS_1.c ****             break;
1130:.\Generated_Source\PSoC5/USBFS_1.c ****     #endif /* (USBFS_1_DMA3_ACTIVE) */
1131:.\Generated_Source\PSoC5/USBFS_1.c **** 
1132:.\Generated_Source\PSoC5/USBFS_1.c ****     #if (USBFS_1_DMA4_ACTIVE)
1133:.\Generated_Source\PSoC5/USBFS_1.c ****             case USBFS_1_EP4:
1134:.\Generated_Source\PSoC5/USBFS_1.c ****                 USBFS_1_DmaChan[epNumber] = USBFS_1_ep4_DmaInitialize(USBFS_1_DMA_BYTES_PER_BURST,
1135:.\Generated_Source\PSoC5/USBFS_1.c ****                                                                                         USBFS_1_DMA
1136:.\Generated_Source\PSoC5/USBFS_1.c ****             break;
1137:.\Generated_Source\PSoC5/USBFS_1.c ****     #endif /* (USBFS_1_DMA4_ACTIVE) */
1138:.\Generated_Source\PSoC5/USBFS_1.c **** 
1139:.\Generated_Source\PSoC5/USBFS_1.c ****     #if (USBFS_1_DMA5_ACTIVE)
1140:.\Generated_Source\PSoC5/USBFS_1.c ****             case USBFS_1_EP5:
1141:.\Generated_Source\PSoC5/USBFS_1.c ****                 USBFS_1_DmaChan[epNumber] = USBFS_1_ep5_DmaInitialize(USBFS_1_DMA_BYTES_PER_BURST,
1142:.\Generated_Source\PSoC5/USBFS_1.c ****                                                                                         USBFS_1_DMA
1143:.\Generated_Source\PSoC5/USBFS_1.c ****             break;
ARM GAS  C:\Users\LUKASC~1\AppData\Local\Temp\ccX4OJiL.s 			page 34


1144:.\Generated_Source\PSoC5/USBFS_1.c ****     #endif /* (USBFS_1_DMA5_ACTIVE) */
1145:.\Generated_Source\PSoC5/USBFS_1.c **** 
1146:.\Generated_Source\PSoC5/USBFS_1.c ****     #if (USBFS_1_DMA6_ACTIVE)
1147:.\Generated_Source\PSoC5/USBFS_1.c ****         case USBFS_1_EP6:
1148:.\Generated_Source\PSoC5/USBFS_1.c ****             USBFS_1_DmaChan[epNumber] = USBFS_1_ep6_DmaInitialize(USBFS_1_DMA_BYTES_PER_BURST,
1149:.\Generated_Source\PSoC5/USBFS_1.c ****                                                                                     USBFS_1_DMA_REQ
1150:.\Generated_Source\PSoC5/USBFS_1.c ****             break;
1151:.\Generated_Source\PSoC5/USBFS_1.c ****     #endif /* (USBFS_1_DMA6_ACTIVE) */
1152:.\Generated_Source\PSoC5/USBFS_1.c **** 
1153:.\Generated_Source\PSoC5/USBFS_1.c ****     #if (USBFS_1_DMA7_ACTIVE)
1154:.\Generated_Source\PSoC5/USBFS_1.c ****         case USBFS_1_EP7:
1155:.\Generated_Source\PSoC5/USBFS_1.c ****                 USBFS_1_DmaChan[epNumber] = USBFS_1_ep7_DmaInitialize(USBFS_1_DMA_BYTES_PER_BURST,
1156:.\Generated_Source\PSoC5/USBFS_1.c ****                                                                                         USBFS_1_DMA
1157:.\Generated_Source\PSoC5/USBFS_1.c ****             break;
1158:.\Generated_Source\PSoC5/USBFS_1.c ****     #endif /* (USBFS_1_DMA7_ACTIVE) */
1159:.\Generated_Source\PSoC5/USBFS_1.c **** 
1160:.\Generated_Source\PSoC5/USBFS_1.c ****     #if (USBFS_1_DMA8_ACTIVE)
1161:.\Generated_Source\PSoC5/USBFS_1.c ****         case USBFS_1_EP8:
1162:.\Generated_Source\PSoC5/USBFS_1.c ****                 USBFS_1_DmaChan[epNumber] = USBFS_1_ep8_DmaInitialize(USBFS_1_DMA_BYTES_PER_BURST,
1163:.\Generated_Source\PSoC5/USBFS_1.c ****                                                                                         USBFS_1_DMA
1164:.\Generated_Source\PSoC5/USBFS_1.c ****             break;
1165:.\Generated_Source\PSoC5/USBFS_1.c ****     #endif /* (USBFS_1_DMA8_ACTIVE) */
1166:.\Generated_Source\PSoC5/USBFS_1.c **** 
1167:.\Generated_Source\PSoC5/USBFS_1.c ****         default:
1168:.\Generated_Source\PSoC5/USBFS_1.c ****             /* Do nothing for endpoints other than 1-8. */
1169:.\Generated_Source\PSoC5/USBFS_1.c ****             break;
1170:.\Generated_Source\PSoC5/USBFS_1.c ****         }
1171:.\Generated_Source\PSoC5/USBFS_1.c **** 
1172:.\Generated_Source\PSoC5/USBFS_1.c ****         if ((epNumber > USBFS_1_EP0) && (epNumber < USBFS_1_MAX_EP))
 729              		.loc 1 1172 0
 730 0034 631E     		subs	r3, r4, #1
 731 0036 DBB2     		uxtb	r3, r3
 732 0038 072B     		cmp	r3, #7
 733 003a 07D8     		bhi	.L47
1173:.\Generated_Source\PSoC5/USBFS_1.c ****         {
1174:.\Generated_Source\PSoC5/USBFS_1.c ****             USBFS_1_DmaTd[epNumber] = CyDmaTdAllocate();
 734              		.loc 1 1174 0
 735 003c FFF7FEFF 		bl	CyDmaTdAllocate
 736              	.LVL58:
 737 0040 054B     		ldr	r3, .L54+8
 738 0042 1855     		strb	r0, [r3, r4]
1175:.\Generated_Source\PSoC5/USBFS_1.c **** 
1176:.\Generated_Source\PSoC5/USBFS_1.c ****         #if (USBFS_1_EP_MANAGEMENT_DMA_AUTO && (USBFS_1_EP_DMA_AUTO_OPT == 0u))
1177:.\Generated_Source\PSoC5/USBFS_1.c ****             USBFS_1_DmaNextTd[epNumber] = CyDmaTdAllocate();
 739              		.loc 1 1177 0
 740 0044 FFF7FEFF 		bl	CyDmaTdAllocate
 741              	.LVL59:
 742 0048 044B     		ldr	r3, .L54+12
 743 004a 1855     		strb	r0, [r3, r4]
 744              	.L47:
 745 004c 10BD     		pop	{r4, pc}
 746              	.L55:
 747 004e 00BF     		.align	2
 748              	.L54:
 749 0050 00000000 		.word	USBFS_1_EP
 750 0054 00000000 		.word	USBFS_1_DmaChan
 751 0058 00000000 		.word	USBFS_1_DmaTd
ARM GAS  C:\Users\LUKASC~1\AppData\Local\Temp\ccX4OJiL.s 			page 35


 752 005c 00000000 		.word	USBFS_1_DmaNextTd
 753              		.cfi_endproc
 754              	.LFE11:
 755              		.size	USBFS_1_InitEP_DMA, .-USBFS_1_InitEP_DMA
 756              		.section	.text.USBFS_1_Stop_DMA,"ax",%progbits
 757              		.align	2
 758              		.global	USBFS_1_Stop_DMA
 759              		.thumb
 760              		.thumb_func
 761              		.type	USBFS_1_Stop_DMA, %function
 762              	USBFS_1_Stop_DMA:
 763              	.LFB12:
1178:.\Generated_Source\PSoC5/USBFS_1.c ****         #endif /* (USBFS_1_EP_MANAGEMENT_DMA_AUTO && (USBFS_1_EP_DMA_AUTO_OPT == 0u)) */
1179:.\Generated_Source\PSoC5/USBFS_1.c ****         }
1180:.\Generated_Source\PSoC5/USBFS_1.c ****     }
1181:.\Generated_Source\PSoC5/USBFS_1.c **** #endif /* (CY_PSOC4) */
1182:.\Generated_Source\PSoC5/USBFS_1.c **** 
1183:.\Generated_Source\PSoC5/USBFS_1.c ****     /***************************************************************************
1184:.\Generated_Source\PSoC5/USBFS_1.c ****     * Function Name: USBFS_1_Stop_DMA
1185:.\Generated_Source\PSoC5/USBFS_1.c ****     ************************************************************************//**
1186:.\Generated_Source\PSoC5/USBFS_1.c ****     *  
1187:.\Generated_Source\PSoC5/USBFS_1.c ****     *  This function stops DMA channel associated with endpoint. It is available 
1188:.\Generated_Source\PSoC5/USBFS_1.c ****     *  when the Endpoint Buffer Management parameter is set to DMA. Call this 
1189:.\Generated_Source\PSoC5/USBFS_1.c ****     *  function when endpoint direction is changed from IN to OUT or vice versa 
1190:.\Generated_Source\PSoC5/USBFS_1.c ****     *  to trigger DMA re-configuration when USBFS_1_LoadInEP() or 
1191:.\Generated_Source\PSoC5/USBFS_1.c ****     *  USBFS_1_ReadOutEP() functions are called the first time. 
1192:.\Generated_Source\PSoC5/USBFS_1.c ****     *  
1193:.\Generated_Source\PSoC5/USBFS_1.c ****     *  \param epNumber: The data endpoint number for which associated DMA 
1194:.\Generated_Source\PSoC5/USBFS_1.c ****     *  channel is stopped. The range of valid values is between 1 and 8. To stop 
1195:.\Generated_Source\PSoC5/USBFS_1.c ****     *  all DMAs associated with endpoints call this function with 
1196:.\Generated_Source\PSoC5/USBFS_1.c ****     *  USBFS_1_MAX_EP argument.
1197:.\Generated_Source\PSoC5/USBFS_1.c ****     *
1198:.\Generated_Source\PSoC5/USBFS_1.c ****     * \reentrant
1199:.\Generated_Source\PSoC5/USBFS_1.c ****     *  No.
1200:.\Generated_Source\PSoC5/USBFS_1.c ****     *
1201:.\Generated_Source\PSoC5/USBFS_1.c ****     ***************************************************************************/
1202:.\Generated_Source\PSoC5/USBFS_1.c ****     void USBFS_1_Stop_DMA(uint8 epNumber) 
1203:.\Generated_Source\PSoC5/USBFS_1.c ****     {
 764              		.loc 1 1203 0
 765              		.cfi_startproc
 766              		@ args = 0, pretend = 0, frame = 0
 767              		@ frame_needed = 0, uses_anonymous_args = 0
 768              	.LVL60:
 769 0000 F8B5     		push	{r3, r4, r5, r6, r7, lr}
 770              		.cfi_def_cfa_offset 24
 771              		.cfi_offset 3, -24
 772              		.cfi_offset 4, -20
 773              		.cfi_offset 5, -16
 774              		.cfi_offset 6, -12
 775              		.cfi_offset 7, -8
 776              		.cfi_offset 14, -4
 777 0002 0646     		mov	r6, r0
1204:.\Generated_Source\PSoC5/USBFS_1.c ****         uint8 i;
1205:.\Generated_Source\PSoC5/USBFS_1.c **** 
1206:.\Generated_Source\PSoC5/USBFS_1.c ****         i = (epNumber < USBFS_1_MAX_EP) ? epNumber : USBFS_1_EP1;
 778              		.loc 1 1206 0
 779 0004 0828     		cmp	r0, #8
ARM GAS  C:\Users\LUKASC~1\AppData\Local\Temp\ccX4OJiL.s 			page 36


 780 0006 01D9     		bls	.L62
 781 0008 0124     		movs	r4, #1
 782 000a 00E0     		b	.L61
 783              	.L62:
 784 000c 0446     		mov	r4, r0
 785              	.LVL61:
 786              	.L61:
1207:.\Generated_Source\PSoC5/USBFS_1.c **** 
1208:.\Generated_Source\PSoC5/USBFS_1.c ****         do
1209:.\Generated_Source\PSoC5/USBFS_1.c ****         {
1210:.\Generated_Source\PSoC5/USBFS_1.c ****         #if (CY_PSOC4)
1211:.\Generated_Source\PSoC5/USBFS_1.c ****             if (0u != USBFS_1_DmaChan[i])
1212:.\Generated_Source\PSoC5/USBFS_1.c ****             {
1213:.\Generated_Source\PSoC5/USBFS_1.c ****                 USBFS_1_CyDmaChDisable(USBFS_1_DmaChan[i]);
1214:.\Generated_Source\PSoC5/USBFS_1.c ****             }
1215:.\Generated_Source\PSoC5/USBFS_1.c ****         #else
1216:.\Generated_Source\PSoC5/USBFS_1.c ****             if(USBFS_1_DmaTd[i] != DMA_INVALID_TD)
 787              		.loc 1 1216 0
 788 000e 2546     		mov	r5, r4
 789 0010 0E4B     		ldr	r3, .L64
 790 0012 1B5D     		ldrb	r3, [r3, r4]	@ zero_extendqisi2
 791 0014 FF2B     		cmp	r3, #255
 792 0016 09D0     		beq	.L58
1217:.\Generated_Source\PSoC5/USBFS_1.c ****             {
1218:.\Generated_Source\PSoC5/USBFS_1.c ****                 (void) CyDmaChDisable(USBFS_1_DmaChan[i]);
 793              		.loc 1 1218 0
 794 0018 0D4B     		ldr	r3, .L64+4
 795 001a 185D     		ldrb	r0, [r3, r4]	@ zero_extendqisi2
 796 001c FFF7FEFF 		bl	CyDmaChDisable
 797              	.LVL62:
1219:.\Generated_Source\PSoC5/USBFS_1.c ****                 CyDmaTdFree(USBFS_1_DmaTd[i]);
 798              		.loc 1 1219 0
 799 0020 0A4F     		ldr	r7, .L64
 800 0022 385D     		ldrb	r0, [r7, r4]	@ zero_extendqisi2
 801 0024 FFF7FEFF 		bl	CyDmaTdFree
 802              	.LVL63:
1220:.\Generated_Source\PSoC5/USBFS_1.c ****                 USBFS_1_DmaTd[i] = DMA_INVALID_TD;
 803              		.loc 1 1220 0
 804 0028 FF23     		movs	r3, #255
 805 002a 3B55     		strb	r3, [r7, r4]
 806              	.L58:
1221:.\Generated_Source\PSoC5/USBFS_1.c ****             }
1222:.\Generated_Source\PSoC5/USBFS_1.c **** 
1223:.\Generated_Source\PSoC5/USBFS_1.c ****             #if (USBFS_1_EP_MANAGEMENT_DMA_AUTO && (USBFS_1_EP_DMA_AUTO_OPT == 0u))
1224:.\Generated_Source\PSoC5/USBFS_1.c ****                 if(USBFS_1_DmaNextTd[i] != DMA_INVALID_TD)
 807              		.loc 1 1224 0
 808 002c 094B     		ldr	r3, .L64+8
 809 002e 585D     		ldrb	r0, [r3, r5]	@ zero_extendqisi2
 810 0030 FF28     		cmp	r0, #255
 811 0032 04D0     		beq	.L59
1225:.\Generated_Source\PSoC5/USBFS_1.c ****                 {
1226:.\Generated_Source\PSoC5/USBFS_1.c ****                     CyDmaTdFree(USBFS_1_DmaNextTd[i]);
 812              		.loc 1 1226 0
 813 0034 FFF7FEFF 		bl	CyDmaTdFree
 814              	.LVL64:
1227:.\Generated_Source\PSoC5/USBFS_1.c ****                     USBFS_1_DmaNextTd[i] = DMA_INVALID_TD;
 815              		.loc 1 1227 0
ARM GAS  C:\Users\LUKASC~1\AppData\Local\Temp\ccX4OJiL.s 			page 37


 816 0038 FF22     		movs	r2, #255
 817 003a 064B     		ldr	r3, .L64+8
 818 003c 5A55     		strb	r2, [r3, r5]
 819              	.L59:
1228:.\Generated_Source\PSoC5/USBFS_1.c ****                 }
1229:.\Generated_Source\PSoC5/USBFS_1.c ****             #endif /* (USBFS_1_EP_MANAGEMENT_DMA_AUTO && (USBFS_1_EP_DMA_AUTO_OPT == 0u)) */
1230:.\Generated_Source\PSoC5/USBFS_1.c **** 
1231:.\Generated_Source\PSoC5/USBFS_1.c ****         #endif /* (CY_PSOC4) */
1232:.\Generated_Source\PSoC5/USBFS_1.c ****             i++;
 820              		.loc 1 1232 0
 821 003e 0134     		adds	r4, r4, #1
 822              	.LVL65:
 823 0040 E4B2     		uxtb	r4, r4
 824              	.LVL66:
1233:.\Generated_Source\PSoC5/USBFS_1.c ****         }
1234:.\Generated_Source\PSoC5/USBFS_1.c ****         while ((i < USBFS_1_MAX_EP) && (epNumber == USBFS_1_MAX_EP));
 825              		.loc 1 1234 0
 826 0042 082C     		cmp	r4, #8
 827 0044 01D8     		bhi	.L56
 828              		.loc 1 1234 0 is_stmt 0 discriminator 1
 829 0046 092E     		cmp	r6, #9
 830 0048 E1D0     		beq	.L61
 831              	.L56:
 832 004a F8BD     		pop	{r3, r4, r5, r6, r7, pc}
 833              	.LVL67:
 834              	.L65:
 835              		.align	2
 836              	.L64:
 837 004c 00000000 		.word	USBFS_1_DmaTd
 838 0050 00000000 		.word	USBFS_1_DmaChan
 839 0054 00000000 		.word	USBFS_1_DmaNextTd
 840              		.cfi_endproc
 841              	.LFE12:
 842              		.size	USBFS_1_Stop_DMA, .-USBFS_1_Stop_DMA
 843              		.section	.text.USBFS_1_Stop,"ax",%progbits
 844              		.align	2
 845              		.global	USBFS_1_Stop
 846              		.thumb
 847              		.thumb_func
 848              		.type	USBFS_1_Stop, %function
 849              	USBFS_1_Stop:
 850              	.LFB4:
 729:.\Generated_Source\PSoC5/USBFS_1.c ****     uint8 enableInterrupts;
 851              		.loc 1 729 0 is_stmt 1
 852              		.cfi_startproc
 853              		@ args = 0, pretend = 0, frame = 0
 854              		@ frame_needed = 0, uses_anonymous_args = 0
 855 0000 08B5     		push	{r3, lr}
 856              		.cfi_def_cfa_offset 8
 857              		.cfi_offset 3, -8
 858              		.cfi_offset 14, -4
 734:.\Generated_Source\PSoC5/USBFS_1.c **** #endif /* (USBFS_1_EP_MANAGEMENT_DMA) */
 859              		.loc 1 734 0
 860 0002 0920     		movs	r0, #9
 861 0004 FFF7FEFF 		bl	USBFS_1_Stop_DMA
 862              	.LVL68:
 737:.\Generated_Source\PSoC5/USBFS_1.c **** 
ARM GAS  C:\Users\LUKASC~1\AppData\Local\Temp\ccX4OJiL.s 			page 38


 863              		.loc 1 737 0
 864 0008 FFF7FEFF 		bl	CyEnterCriticalSection
 865              	.LVL69:
 740:.\Generated_Source\PSoC5/USBFS_1.c **** 
 866              		.loc 1 740 0
 867 000c 174A     		ldr	r2, .L68
 868 000e 1378     		ldrb	r3, [r2]	@ zero_extendqisi2
 869 0010 03F07F03 		and	r3, r3, #127
 870 0014 1370     		strb	r3, [r2]
 743:.\Generated_Source\PSoC5/USBFS_1.c **** 
 871              		.loc 1 743 0
 872 0016 0A32     		adds	r2, r2, #10
 873 0018 1378     		ldrb	r3, [r2]	@ zero_extendqisi2
 874 001a 03F0FB03 		and	r3, r3, #251
 875 001e 1370     		strb	r3, [r2]
 750:.\Generated_Source\PSoC5/USBFS_1.c ****     USBFS_1_PM_STBY_CFG_REG &= (uint8) ~USBFS_1_PM_STBY_EN_FSUSB;
 876              		.loc 1 750 0
 877 0020 A2F5E352 		sub	r2, r2, #7264
 878 0024 0D3A     		subs	r2, r2, #13
 879 0026 1378     		ldrb	r3, [r2]	@ zero_extendqisi2
 880 0028 03F0FE03 		and	r3, r3, #254
 881 002c 1370     		strb	r3, [r2]
 751:.\Generated_Source\PSoC5/USBFS_1.c **** #endif /* (CY_PSOC4) */
 882              		.loc 1 751 0
 883 002e 1032     		adds	r2, r2, #16
 884 0030 1378     		ldrb	r3, [r2]	@ zero_extendqisi2
 885 0032 03F0FE03 		and	r3, r3, #254
 886 0036 1370     		strb	r3, [r2]
 754:.\Generated_Source\PSoC5/USBFS_1.c **** 
 887              		.loc 1 754 0
 888 0038 FFF7FEFF 		bl	CyExitCriticalSection
 889              	.LVL70:
 763:.\Generated_Source\PSoC5/USBFS_1.c ****     CyIntDisable(USBFS_1_EP_0_VECT_NUM);
 890              		.loc 1 763 0
 891 003c 0C4B     		ldr	r3, .L68+4
 892 003e 4FF40002 		mov	r2, #8388608
 893 0042 1A60     		str	r2, [r3]
 764:.\Generated_Source\PSoC5/USBFS_1.c **** 
 894              		.loc 1 764 0
 895 0044 4FF08072 		mov	r2, #16777216
 896 0048 1A60     		str	r2, [r3]
 775:.\Generated_Source\PSoC5/USBFS_1.c ****     #endif /* (USBFS_1_EP2_ISR_ACTIVE) */
 897              		.loc 1 775 0
 898 004a 0222     		movs	r2, #2
 899 004c 1A60     		str	r2, [r3]
 804:.\Generated_Source\PSoC5/USBFS_1.c ****     USBFS_1_configuration   = 0u;
 900              		.loc 1 804 0
 901 004e 0023     		movs	r3, #0
 902 0050 084A     		ldr	r2, .L68+8
 903 0052 1370     		strb	r3, [r2]
 805:.\Generated_Source\PSoC5/USBFS_1.c ****     USBFS_1_interfaceNumber = 0u;
 904              		.loc 1 805 0
 905 0054 084A     		ldr	r2, .L68+12
 906 0056 1370     		strb	r3, [r2]
 806:.\Generated_Source\PSoC5/USBFS_1.c ****     USBFS_1_deviceAddress   = 0u;
 907              		.loc 1 806 0
 908 0058 084A     		ldr	r2, .L68+16
ARM GAS  C:\Users\LUKASC~1\AppData\Local\Temp\ccX4OJiL.s 			page 39


 909 005a 1370     		strb	r3, [r2]
 807:.\Generated_Source\PSoC5/USBFS_1.c ****     USBFS_1_deviceStatus    = 0u;
 910              		.loc 1 807 0
 911 005c 084A     		ldr	r2, .L68+20
 912 005e 1370     		strb	r3, [r2]
 808:.\Generated_Source\PSoC5/USBFS_1.c **** 
 913              		.loc 1 808 0
 914 0060 084A     		ldr	r2, .L68+24
 915 0062 1370     		strb	r3, [r2]
 811:.\Generated_Source\PSoC5/USBFS_1.c **** }
 916              		.loc 1 811 0
 917 0064 084A     		ldr	r2, .L68+28
 918 0066 1370     		strb	r3, [r2]
 919 0068 08BD     		pop	{r3, pc}
 920              	.L69:
 921 006a 00BF     		.align	2
 922              	.L68:
 923 006c 08600040 		.word	1073766408
 924 0070 80E100E0 		.word	-536813184
 925 0074 00000000 		.word	USBFS_1_configurationChanged
 926 0078 00000000 		.word	USBFS_1_configuration
 927 007c 00000000 		.word	USBFS_1_interfaceNumber
 928 0080 00000000 		.word	USBFS_1_deviceAddress
 929 0084 00000000 		.word	USBFS_1_deviceStatus
 930 0088 00000000 		.word	.LANCHOR0
 931              		.cfi_endproc
 932              	.LFE4:
 933              		.size	USBFS_1_Stop, .-USBFS_1_Stop
 934              		.section	.text.USBFS_1_LoadNextInEP,"ax",%progbits
 935              		.align	2
 936              		.global	USBFS_1_LoadNextInEP
 937              		.thumb
 938              		.thumb_func
 939              		.type	USBFS_1_LoadNextInEP, %function
 940              	USBFS_1_LoadNextInEP:
 941              	.LFB13:
1235:.\Generated_Source\PSoC5/USBFS_1.c ****     }
1236:.\Generated_Source\PSoC5/USBFS_1.c **** #endif /* (USBFS_1_EP_MANAGEMENT_DMA) */
1237:.\Generated_Source\PSoC5/USBFS_1.c **** 
1238:.\Generated_Source\PSoC5/USBFS_1.c **** 
1239:.\Generated_Source\PSoC5/USBFS_1.c **** #if (CY_PSOC3 || CY_PSOC5)
1240:.\Generated_Source\PSoC5/USBFS_1.c **** #if (USBFS_1_EP_MANAGEMENT_DMA_AUTO && (USBFS_1_EP_DMA_AUTO_OPT == 0u))
1241:.\Generated_Source\PSoC5/USBFS_1.c ****     /***************************************************************************
1242:.\Generated_Source\PSoC5/USBFS_1.c ****     * Function Name: USBFS_1_LoadNextInEP
1243:.\Generated_Source\PSoC5/USBFS_1.c ****     ************************************************************************//**
1244:.\Generated_Source\PSoC5/USBFS_1.c ****     *
1245:.\Generated_Source\PSoC5/USBFS_1.c ****     * Summary:
1246:.\Generated_Source\PSoC5/USBFS_1.c ****     *  This internal function is used for IN endpoint DMA reconfiguration in
1247:.\Generated_Source\PSoC5/USBFS_1.c ****     *  Auto DMA mode.
1248:.\Generated_Source\PSoC5/USBFS_1.c ****     *
1249:.\Generated_Source\PSoC5/USBFS_1.c ****     * Parameters:
1250:.\Generated_Source\PSoC5/USBFS_1.c ****     *  epNumber: Contains the data endpoint number.
1251:.\Generated_Source\PSoC5/USBFS_1.c ****     *  mode:   0 - Configure DMA to send the the rest of data.
1252:.\Generated_Source\PSoC5/USBFS_1.c ****     *          1 - Configure DMA to repeat 2 last bytes of the first burst.
1253:.\Generated_Source\PSoC5/USBFS_1.c ****     *
1254:.\Generated_Source\PSoC5/USBFS_1.c ****     ***************************************************************************/
1255:.\Generated_Source\PSoC5/USBFS_1.c ****     void USBFS_1_LoadNextInEP(uint8 epNumber, uint8 mode) 
ARM GAS  C:\Users\LUKASC~1\AppData\Local\Temp\ccX4OJiL.s 			page 40


1256:.\Generated_Source\PSoC5/USBFS_1.c ****     {
 942              		.loc 1 1256 0
 943              		.cfi_startproc
 944              		@ args = 0, pretend = 0, frame = 0
 945              		@ frame_needed = 0, uses_anonymous_args = 0
 946              		@ link register save eliminated.
 947              	.LVL71:
1257:.\Generated_Source\PSoC5/USBFS_1.c ****         reg16 *convert;
1258:.\Generated_Source\PSoC5/USBFS_1.c **** 
1259:.\Generated_Source\PSoC5/USBFS_1.c ****         if (mode == 0u)
 948              		.loc 1 1259 0
 949 0000 E1B9     		cbnz	r1, .L71
1260:.\Generated_Source\PSoC5/USBFS_1.c ****         {
1261:.\Generated_Source\PSoC5/USBFS_1.c ****             /* Configure DMA to send rest of data. */
1262:.\Generated_Source\PSoC5/USBFS_1.c ****             /* CyDmaTdSetConfiguration API is optimized to change transfer length only and configur
1263:.\Generated_Source\PSoC5/USBFS_1.c ****             convert = (reg16 *) &CY_DMA_TDMEM_STRUCT_PTR[USBFS_1_DmaTd[epNumber]].TD0[0u];
 950              		.loc 1 1263 0
 951 0002 1D49     		ldr	r1, .L73
 952              	.LVL72:
 953 0004 0B5C     		ldrb	r3, [r1, r0]	@ zero_extendqisi2
 954 0006 DB00     		lsls	r3, r3, #3
 955 0008 03F18043 		add	r3, r3, #1073741824
 956 000c 03F5F043 		add	r3, r3, #30720
 957              	.LVL73:
1264:.\Generated_Source\PSoC5/USBFS_1.c ****             /* Set transfer length. */
1265:.\Generated_Source\PSoC5/USBFS_1.c ****             CY_SET_REG16(convert, USBFS_1_inLength[epNumber] - USBFS_1_DMA_BYTES_PER_BURST);
 958              		.loc 1 1265 0
 959 0010 1A4A     		ldr	r2, .L73+4
 960 0012 32F81020 		ldrh	r2, [r2, r0, lsl #1]
 961 0016 203A     		subs	r2, r2, #32
 962 0018 92B2     		uxth	r2, r2
 963 001a 1A80     		strh	r2, [r3]	@ movhi
1266:.\Generated_Source\PSoC5/USBFS_1.c ****             /* CyDmaTdSetAddress API is optimized to change source address only. */
1267:.\Generated_Source\PSoC5/USBFS_1.c ****             convert = (reg16 *) &CY_DMA_TDMEM_STRUCT_PTR[USBFS_1_DmaTd[epNumber]].TD1[0u];
 964              		.loc 1 1267 0
 965 001c 0B5C     		ldrb	r3, [r1, r0]	@ zero_extendqisi2
 966              	.LVL74:
 967 001e DB00     		lsls	r3, r3, #3
 968 0020 03F18043 		add	r3, r3, #1073741824
 969 0024 03F5F043 		add	r3, r3, #30720
 970              	.LVL75:
1268:.\Generated_Source\PSoC5/USBFS_1.c ****             CY_SET_REG16(convert, LO16((uint32)USBFS_1_inDataPointer[epNumber] +
 971              		.loc 1 1268 0
 972 0028 154A     		ldr	r2, .L73+8
 973 002a 52F82020 		ldr	r2, [r2, r0, lsl #2]
 974 002e 2032     		adds	r2, r2, #32
 975 0030 92B2     		uxth	r2, r2
 976 0032 9A80     		strh	r2, [r3, #4]	@ movhi
1269:.\Generated_Source\PSoC5/USBFS_1.c ****                                             USBFS_1_DMA_BYTES_PER_BURST));
1270:.\Generated_Source\PSoC5/USBFS_1.c ****             USBFS_1_inBufFull[epNumber] = 1u;
 977              		.loc 1 1270 0
 978 0034 0122     		movs	r2, #1
 979 0036 134B     		ldr	r3, .L73+12
 980              	.LVL76:
 981 0038 1A54     		strb	r2, [r3, r0]
 982 003a 14E0     		b	.L72
 983              	.LVL77:
ARM GAS  C:\Users\LUKASC~1\AppData\Local\Temp\ccX4OJiL.s 			page 41


 984              	.L71:
1271:.\Generated_Source\PSoC5/USBFS_1.c ****         }
1272:.\Generated_Source\PSoC5/USBFS_1.c ****         else
1273:.\Generated_Source\PSoC5/USBFS_1.c ****         {
1274:.\Generated_Source\PSoC5/USBFS_1.c ****             /* Configure DMA to repeat 2 last bytes of the first burst. */
1275:.\Generated_Source\PSoC5/USBFS_1.c ****             /* CyDmaTdSetConfiguration API is optimized to change transfer length only and configur
1276:.\Generated_Source\PSoC5/USBFS_1.c ****             convert = (reg16 *) &CY_DMA_TDMEM_STRUCT_PTR[USBFS_1_DmaTd[epNumber]].TD0[0u];
 985              		.loc 1 1276 0
 986 003c 0E4A     		ldr	r2, .L73
 987 003e 135C     		ldrb	r3, [r2, r0]	@ zero_extendqisi2
 988 0040 DB00     		lsls	r3, r3, #3
 989 0042 03F18043 		add	r3, r3, #1073741824
 990 0046 03F5F043 		add	r3, r3, #30720
 991              	.LVL78:
1277:.\Generated_Source\PSoC5/USBFS_1.c ****             /* Set transfer length. */
1278:.\Generated_Source\PSoC5/USBFS_1.c ****             CY_SET_REG16(convert, USBFS_1_DMA_BYTES_REPEAT);
 992              		.loc 1 1278 0
 993 004a 0221     		movs	r1, #2
 994              	.LVL79:
 995 004c 1980     		strh	r1, [r3]	@ movhi
1279:.\Generated_Source\PSoC5/USBFS_1.c ****             /* CyDmaTdSetAddress API is optimized to change source address only. */
1280:.\Generated_Source\PSoC5/USBFS_1.c ****             convert = (reg16 *) &CY_DMA_TDMEM_STRUCT_PTR[USBFS_1_DmaTd[epNumber]].TD1[0u];
 996              		.loc 1 1280 0
 997 004e 135C     		ldrb	r3, [r2, r0]	@ zero_extendqisi2
 998              	.LVL80:
 999 0050 DB00     		lsls	r3, r3, #3
 1000 0052 03F18043 		add	r3, r3, #1073741824
 1001 0056 03F5F043 		add	r3, r3, #30720
 1002              	.LVL81:
1281:.\Generated_Source\PSoC5/USBFS_1.c ****             CY_SET_REG16(convert,  LO16((uint32)USBFS_1_inDataPointer[epNumber] +
 1003              		.loc 1 1281 0
 1004 005a 094A     		ldr	r2, .L73+8
 1005 005c 52F82020 		ldr	r2, [r2, r0, lsl #2]
 1006 0060 1E32     		adds	r2, r2, #30
 1007 0062 92B2     		uxth	r2, r2
 1008 0064 9A80     		strh	r2, [r3, #4]	@ movhi
 1009              	.LVL82:
 1010              	.L72:
1282:.\Generated_Source\PSoC5/USBFS_1.c ****                                    (USBFS_1_DMA_BYTES_PER_BURST - USBFS_1_DMA_BYTES_REPEAT)));
1283:.\Generated_Source\PSoC5/USBFS_1.c ****         }
1284:.\Generated_Source\PSoC5/USBFS_1.c **** 
1285:.\Generated_Source\PSoC5/USBFS_1.c ****         /* CyDmaChSetInitialTd API is optimized to initialize TD. */
1286:.\Generated_Source\PSoC5/USBFS_1.c ****         CY_DMA_CH_STRUCT_PTR[USBFS_1_DmaChan[epNumber]].basic_status[1u] = USBFS_1_DmaTd[epNumber];
 1011              		.loc 1 1286 0
 1012 0066 084B     		ldr	r3, .L73+16
 1013 0068 1A5C     		ldrb	r2, [r3, r0]	@ zero_extendqisi2
 1014 006a 084B     		ldr	r3, .L73+20
 1015 006c 03EB0213 		add	r3, r3, r2, lsl #4
 1016 0070 014A     		ldr	r2, .L73
 1017 0072 125C     		ldrb	r2, [r2, r0]	@ zero_extendqisi2
 1018 0074 5A72     		strb	r2, [r3, #9]
 1019 0076 7047     		bx	lr
 1020              	.L74:
 1021              		.align	2
 1022              	.L73:
 1023 0078 00000000 		.word	USBFS_1_DmaTd
 1024 007c 00000000 		.word	USBFS_1_inLength
ARM GAS  C:\Users\LUKASC~1\AppData\Local\Temp\ccX4OJiL.s 			page 42


 1025 0080 00000000 		.word	USBFS_1_inDataPointer
 1026 0084 00000000 		.word	USBFS_1_inBufFull
 1027 0088 00000000 		.word	USBFS_1_DmaChan
 1028 008c 10700040 		.word	1073770512
 1029              		.cfi_endproc
 1030              	.LFE13:
 1031              		.size	USBFS_1_LoadNextInEP, .-USBFS_1_LoadNextInEP
 1032              		.section	.text.USBFS_1_LoadInEP,"ax",%progbits
 1033              		.align	2
 1034              		.global	USBFS_1_LoadInEP
 1035              		.thumb
 1036              		.thumb_func
 1037              		.type	USBFS_1_LoadInEP, %function
 1038              	USBFS_1_LoadInEP:
 1039              	.LFB14:
1287:.\Generated_Source\PSoC5/USBFS_1.c ****     }
1288:.\Generated_Source\PSoC5/USBFS_1.c **** #endif /* (USBFS_1_EP_MANAGEMENT_DMA_AUTO && (USBFS_1_EP_DMA_AUTO_OPT == 0u)) */
1289:.\Generated_Source\PSoC5/USBFS_1.c **** #endif /* (CY_PSOC3 || CY_PSOC5) */
1290:.\Generated_Source\PSoC5/USBFS_1.c **** 
1291:.\Generated_Source\PSoC5/USBFS_1.c **** 
1292:.\Generated_Source\PSoC5/USBFS_1.c **** /*******************************************************************************
1293:.\Generated_Source\PSoC5/USBFS_1.c **** * Function Name: USBFS_1_LoadInEP
1294:.\Generated_Source\PSoC5/USBFS_1.c **** ****************************************************************************//**
1295:.\Generated_Source\PSoC5/USBFS_1.c **** *
1296:.\Generated_Source\PSoC5/USBFS_1.c **** *  This function performs different functionality depending on the Component’s
1297:.\Generated_Source\PSoC5/USBFS_1.c **** *  configured Endpoint Buffer Management. This parameter is defined in
1298:.\Generated_Source\PSoC5/USBFS_1.c **** *  the Descriptor Root in Component Configure window.
1299:.\Generated_Source\PSoC5/USBFS_1.c **** *
1300:.\Generated_Source\PSoC5/USBFS_1.c **** *  *Manual (Static/Dynamic Allocation):*
1301:.\Generated_Source\PSoC5/USBFS_1.c **** *  This function loads and enables the specified USB data endpoint for an IN
1302:.\Generated_Source\PSoC5/USBFS_1.c **** *  data transfer.
1303:.\Generated_Source\PSoC5/USBFS_1.c **** *
1304:.\Generated_Source\PSoC5/USBFS_1.c **** *  *DMA with Manual Buffer Management:*
1305:.\Generated_Source\PSoC5/USBFS_1.c **** *  Configures DMA for a data transfer from system RAM to endpoint buffer.
1306:.\Generated_Source\PSoC5/USBFS_1.c **** *  Generates request for a transfer.
1307:.\Generated_Source\PSoC5/USBFS_1.c **** *
1308:.\Generated_Source\PSoC5/USBFS_1.c **** *  *DMA with Automatic Buffer Management:*
1309:.\Generated_Source\PSoC5/USBFS_1.c **** *  Configures DMA. This is required only once, so it is done only when parameter
1310:.\Generated_Source\PSoC5/USBFS_1.c **** *  pData is not NULL. When the pData pointer is NULL, the function skips this
1311:.\Generated_Source\PSoC5/USBFS_1.c **** *  task. Sets Data ready status: This generates the first DMA transfer and
1312:.\Generated_Source\PSoC5/USBFS_1.c **** *  prepares data in endpoint buffer.
1313:.\Generated_Source\PSoC5/USBFS_1.c **** *
1314:.\Generated_Source\PSoC5/USBFS_1.c **** *  \param epNumber Contains the data endpoint number.
1315:.\Generated_Source\PSoC5/USBFS_1.c **** *            Valid values are between 1 and 8.
1316:.\Generated_Source\PSoC5/USBFS_1.c **** *  \param *pData A pointer to a data array from which the data for the endpoint space
1317:.\Generated_Source\PSoC5/USBFS_1.c **** *          is loaded.
1318:.\Generated_Source\PSoC5/USBFS_1.c **** *  \param length The number of bytes to transfer from the array and then send as
1319:.\Generated_Source\PSoC5/USBFS_1.c **** *          a result of an IN request. Valid values are between 0 and 512
1320:.\Generated_Source\PSoC5/USBFS_1.c **** *          (1023 for DMA with Automatic Buffer Management mode). The value 512
1321:.\Generated_Source\PSoC5/USBFS_1.c **** *          is applicable if only one endpoint is used.
1322:.\Generated_Source\PSoC5/USBFS_1.c **** *
1323:.\Generated_Source\PSoC5/USBFS_1.c **** *
1324:.\Generated_Source\PSoC5/USBFS_1.c **** * \reentrant
1325:.\Generated_Source\PSoC5/USBFS_1.c **** *  No.
1326:.\Generated_Source\PSoC5/USBFS_1.c **** *
1327:.\Generated_Source\PSoC5/USBFS_1.c **** *******************************************************************************/
1328:.\Generated_Source\PSoC5/USBFS_1.c **** void USBFS_1_LoadInEP(uint8 epNumber, const uint8 pData[], uint16 length)
ARM GAS  C:\Users\LUKASC~1\AppData\Local\Temp\ccX4OJiL.s 			page 43


1329:.\Generated_Source\PSoC5/USBFS_1.c ****                                                                         
1330:.\Generated_Source\PSoC5/USBFS_1.c **** {
 1040              		.loc 1 1330 0
 1041              		.cfi_startproc
 1042              		@ args = 0, pretend = 0, frame = 0
 1043              		@ frame_needed = 0, uses_anonymous_args = 0
 1044              	.LVL83:
 1045 0000 2DE9F047 		push	{r4, r5, r6, r7, r8, r9, r10, lr}
 1046              		.cfi_def_cfa_offset 32
 1047              		.cfi_offset 4, -32
 1048              		.cfi_offset 5, -28
 1049              		.cfi_offset 6, -24
 1050              		.cfi_offset 7, -20
 1051              		.cfi_offset 8, -16
 1052              		.cfi_offset 9, -12
 1053              		.cfi_offset 10, -8
 1054              		.cfi_offset 14, -4
 1055 0004 0446     		mov	r4, r0
1331:.\Generated_Source\PSoC5/USBFS_1.c ****     if ((epNumber > USBFS_1_EP0) && (epNumber < USBFS_1_MAX_EP))
 1056              		.loc 1 1331 0
 1057 0006 431E     		subs	r3, r0, #1
 1058 0008 DBB2     		uxtb	r3, r3
 1059 000a 072B     		cmp	r3, #7
 1060 000c 00F2A280 		bhi	.L75
 1061 0010 0E46     		mov	r6, r1
 1062 0012 1546     		mov	r5, r2
1332:.\Generated_Source\PSoC5/USBFS_1.c ****     {
1333:.\Generated_Source\PSoC5/USBFS_1.c ****     #if (!USBFS_1_EP_MANAGEMENT_DMA_AUTO)
1334:.\Generated_Source\PSoC5/USBFS_1.c ****         /* Limit length to available buffer USB IP buffer size.*/
1335:.\Generated_Source\PSoC5/USBFS_1.c ****         if (length > (USBFS_1_EPX_DATA_BUF_MAX - USBFS_1_EP[epNumber].buffOffset))
1336:.\Generated_Source\PSoC5/USBFS_1.c ****         {
1337:.\Generated_Source\PSoC5/USBFS_1.c ****             length = USBFS_1_EPX_DATA_BUF_MAX - USBFS_1_EP[epNumber].buffOffset;
1338:.\Generated_Source\PSoC5/USBFS_1.c ****         }
1339:.\Generated_Source\PSoC5/USBFS_1.c ****     #endif /* (!USBFS_1_EP_MANAGEMENT_DMA_AUTO) */
1340:.\Generated_Source\PSoC5/USBFS_1.c **** 
1341:.\Generated_Source\PSoC5/USBFS_1.c ****         /* Set count and data toggle. */
1342:.\Generated_Source\PSoC5/USBFS_1.c ****         USBFS_1_SIE_EP_BASE.sieEp[epNumber].epCnt0 = (uint8) HI8(length) | USBFS_1_EP[epNumber].epT
 1063              		.loc 1 1342 0
 1064 0014 00EB4003 		add	r3, r0, r0, lsl #1
 1065 0018 9B00     		lsls	r3, r3, #2
 1066 001a 4F4A     		ldr	r2, .L81
 1067              	.LVL84:
 1068 001c 1344     		add	r3, r3, r2
 1069 001e DB78     		ldrb	r3, [r3, #3]	@ zero_extendqisi2
 1070 0020 43EA1523 		orr	r3, r3, r5, lsr #8
 1071 0024 4D49     		ldr	r1, .L81+4
 1072              	.LVL85:
 1073 0026 0201     		lsls	r2, r0, #4
 1074 0028 8818     		adds	r0, r1, r2
 1075              	.LVL86:
 1076 002a 8B54     		strb	r3, [r1, r2]
1343:.\Generated_Source\PSoC5/USBFS_1.c ****         USBFS_1_SIE_EP_BASE.sieEp[epNumber].epCnt1 = (uint8) LO8(length);
 1077              		.loc 1 1343 0
 1078 002c EBB2     		uxtb	r3, r5
 1079 002e 4370     		strb	r3, [r0, #1]
1344:.\Generated_Source\PSoC5/USBFS_1.c **** 
1345:.\Generated_Source\PSoC5/USBFS_1.c ****     #if (USBFS_1_EP_MANAGEMENT_MANUAL)
ARM GAS  C:\Users\LUKASC~1\AppData\Local\Temp\ccX4OJiL.s 			page 44


1346:.\Generated_Source\PSoC5/USBFS_1.c ****         if (NULL != pData)
1347:.\Generated_Source\PSoC5/USBFS_1.c ****         {
1348:.\Generated_Source\PSoC5/USBFS_1.c **** 			/* Copy data using arbiter data register. */
1349:.\Generated_Source\PSoC5/USBFS_1.c ****             uint16 i;
1350:.\Generated_Source\PSoC5/USBFS_1.c ****             for (i = 0u; i < length; ++i)
1351:.\Generated_Source\PSoC5/USBFS_1.c ****             {
1352:.\Generated_Source\PSoC5/USBFS_1.c ****                 USBFS_1_ARB_EP_BASE.arbEp[epNumber].rwDr = pData[i];
1353:.\Generated_Source\PSoC5/USBFS_1.c ****             }
1354:.\Generated_Source\PSoC5/USBFS_1.c ****         }
1355:.\Generated_Source\PSoC5/USBFS_1.c **** 
1356:.\Generated_Source\PSoC5/USBFS_1.c ****         /* IN endpoint buffer is full - read to be read. */
1357:.\Generated_Source\PSoC5/USBFS_1.c ****         USBFS_1_EP[epNumber].apiEpState = USBFS_1_NO_EVENT_PENDING;
1358:.\Generated_Source\PSoC5/USBFS_1.c **** 
1359:.\Generated_Source\PSoC5/USBFS_1.c ****         /* Arm IN endpoint. */
1360:.\Generated_Source\PSoC5/USBFS_1.c ****         USBFS_1_SIE_EP_BASE.sieEp[epNumber].epCr0 = USBFS_1_EP[epNumber].epMode;
1361:.\Generated_Source\PSoC5/USBFS_1.c **** 
1362:.\Generated_Source\PSoC5/USBFS_1.c ****     #else
1363:.\Generated_Source\PSoC5/USBFS_1.c **** 
1364:.\Generated_Source\PSoC5/USBFS_1.c ****         #if (CY_PSOC3 || CY_PSOC5LP)
1365:.\Generated_Source\PSoC5/USBFS_1.c ****             /* Initialize DMA if it was not initialized. */
1366:.\Generated_Source\PSoC5/USBFS_1.c ****             if (DMA_INVALID_TD == USBFS_1_DmaTd[epNumber])
 1080              		.loc 1 1366 0
 1081 0030 4B4B     		ldr	r3, .L81+8
 1082 0032 1B5D     		ldrb	r3, [r3, r4]	@ zero_extendqisi2
 1083 0034 FF2B     		cmp	r3, #255
 1084 0036 03D1     		bne	.L77
1367:.\Generated_Source\PSoC5/USBFS_1.c ****             {
1368:.\Generated_Source\PSoC5/USBFS_1.c ****                 USBFS_1_InitEP_DMA(epNumber, pData);
 1085              		.loc 1 1368 0
 1086 0038 2046     		mov	r0, r4
 1087 003a 3146     		mov	r1, r6
 1088 003c FFF7FEFF 		bl	USBFS_1_InitEP_DMA
 1089              	.LVL87:
 1090              	.L77:
1369:.\Generated_Source\PSoC5/USBFS_1.c ****             }
1370:.\Generated_Source\PSoC5/USBFS_1.c ****         #endif /* (CY_PSOC3 || CY_PSOC5LP) */
1371:.\Generated_Source\PSoC5/USBFS_1.c **** 
1372:.\Generated_Source\PSoC5/USBFS_1.c ****         #if (USBFS_1_EP_MANAGEMENT_DMA_MANUAL)
1373:.\Generated_Source\PSoC5/USBFS_1.c ****             /* IN endpoint buffer will be fully loaded by DMA shortly. */
1374:.\Generated_Source\PSoC5/USBFS_1.c ****             USBFS_1_EP[epNumber].apiEpState = USBFS_1_NO_EVENT_PENDING;
1375:.\Generated_Source\PSoC5/USBFS_1.c **** 
1376:.\Generated_Source\PSoC5/USBFS_1.c ****             if ((pData != NULL) && (length > 0u))
1377:.\Generated_Source\PSoC5/USBFS_1.c ****             {
1378:.\Generated_Source\PSoC5/USBFS_1.c ****             #if (CY_PSOC4)
1379:.\Generated_Source\PSoC5/USBFS_1.c ****                 uint32 channelNum = (uint32) USBFS_1_DmaChan[epNumber];
1380:.\Generated_Source\PSoC5/USBFS_1.c **** 
1381:.\Generated_Source\PSoC5/USBFS_1.c ****                 /* Disable DMA channel: start configuration. */
1382:.\Generated_Source\PSoC5/USBFS_1.c ****                 USBFS_1_CyDmaChDisable(channelNum);
1383:.\Generated_Source\PSoC5/USBFS_1.c **** 
1384:.\Generated_Source\PSoC5/USBFS_1.c ****                 /* Configure source and destination. */
1385:.\Generated_Source\PSoC5/USBFS_1.c ****                 USBFS_1_CyDmaSetSrcAddress(channelNum, USBFS_1_DMA_DESCR0, (void*) pData);
1386:.\Generated_Source\PSoC5/USBFS_1.c ****                 USBFS_1_CyDmaSetDstAddress(channelNum, USBFS_1_DMA_DESCR0, (void*) &USBFS_1_ARB_EP_
1387:.\Generated_Source\PSoC5/USBFS_1.c **** 
1388:.\Generated_Source\PSoC5/USBFS_1.c ****                 /* Configure DMA descriptor. */
1389:.\Generated_Source\PSoC5/USBFS_1.c ****                 --length;
1390:.\Generated_Source\PSoC5/USBFS_1.c ****                 USBFS_1_CyDmaSetConfiguration(channelNum, USBFS_1_DMA_DESCR0, USBFS_1_DMA_COMMON_CF
1391:.\Generated_Source\PSoC5/USBFS_1.c ****                                                         CYDMA_BYTE | CYDMA_ELEMENT_WORD | CYDMA_INC
ARM GAS  C:\Users\LUKASC~1\AppData\Local\Temp\ccX4OJiL.s 			page 45


1392:.\Generated_Source\PSoC5/USBFS_1.c **** 
1393:.\Generated_Source\PSoC5/USBFS_1.c ****                 /* Validate descriptor to execute on following DMA request. */
1394:.\Generated_Source\PSoC5/USBFS_1.c ****                 USBFS_1_CyDmaValidateDescriptor(channelNum, USBFS_1_DMA_DESCR0);
1395:.\Generated_Source\PSoC5/USBFS_1.c **** 
1396:.\Generated_Source\PSoC5/USBFS_1.c ****                 /* Enable DMA channel: configuration complete. */
1397:.\Generated_Source\PSoC5/USBFS_1.c ****                 USBFS_1_CyDmaChEnable(channelNum);
1398:.\Generated_Source\PSoC5/USBFS_1.c ****             #else
1399:.\Generated_Source\PSoC5/USBFS_1.c ****                 /* Configure DMA to transfer data. */
1400:.\Generated_Source\PSoC5/USBFS_1.c ****                 (void) CyDmaChDisable(USBFS_1_DmaChan[epNumber]);
1401:.\Generated_Source\PSoC5/USBFS_1.c ****                 (void) CyDmaTdSetConfiguration(USBFS_1_DmaTd[epNumber], length, CY_DMA_DISABLE_TD, 
1402:.\Generated_Source\PSoC5/USBFS_1.c ****                 (void) CyDmaTdSetAddress(USBFS_1_DmaTd[epNumber], LO16((uint32) pData), LO16((uint3
1403:.\Generated_Source\PSoC5/USBFS_1.c **** 
1404:.\Generated_Source\PSoC5/USBFS_1.c ****                 /* Enable DMA channel. */
1405:.\Generated_Source\PSoC5/USBFS_1.c ****                 (void) CyDmaChSetInitialTd(USBFS_1_DmaChan[epNumber], USBFS_1_DmaTd[epNumber]);
1406:.\Generated_Source\PSoC5/USBFS_1.c ****                 (void) CyDmaChEnable(USBFS_1_DmaChan[epNumber], 1u);
1407:.\Generated_Source\PSoC5/USBFS_1.c ****             #endif /* (CY_PSOC4) */
1408:.\Generated_Source\PSoC5/USBFS_1.c **** 
1409:.\Generated_Source\PSoC5/USBFS_1.c ****                 /* Generate DMA request. */
1410:.\Generated_Source\PSoC5/USBFS_1.c ****                 USBFS_1_ARB_EP_BASE.arbEp[epNumber].epCfg |=  (uint8)  USBFS_1_ARB_EPX_CFG_DMA_REQ;
1411:.\Generated_Source\PSoC5/USBFS_1.c ****                 USBFS_1_ARB_EP_BASE.arbEp[epNumber].epCfg &=  (uint8) ~USBFS_1_ARB_EPX_CFG_DMA_REQ;
1412:.\Generated_Source\PSoC5/USBFS_1.c **** 
1413:.\Generated_Source\PSoC5/USBFS_1.c ****                 /* IN endpoint will be armed in ARB_ISR(source: IN_BUF_FULL) after first DMA transf
1414:.\Generated_Source\PSoC5/USBFS_1.c ****             }
1415:.\Generated_Source\PSoC5/USBFS_1.c ****             else
1416:.\Generated_Source\PSoC5/USBFS_1.c ****             {
1417:.\Generated_Source\PSoC5/USBFS_1.c ****                 /* When zero-length packet: arm IN endpoint directly. */
1418:.\Generated_Source\PSoC5/USBFS_1.c ****                 USBFS_1_SIE_EP_BASE.sieEp[epNumber].epCr0 = USBFS_1_EP[epNumber].epMode;
1419:.\Generated_Source\PSoC5/USBFS_1.c ****             }
1420:.\Generated_Source\PSoC5/USBFS_1.c ****         #endif /* (USBFS_1_EP_MANAGEMENT_DMA_MANUAL) */
1421:.\Generated_Source\PSoC5/USBFS_1.c **** 
1422:.\Generated_Source\PSoC5/USBFS_1.c ****         #if (USBFS_1_EP_MANAGEMENT_DMA_AUTO)
1423:.\Generated_Source\PSoC5/USBFS_1.c ****             if (pData != NULL)
 1091              		.loc 1 1423 0
 1092 0040 002E     		cmp	r6, #0
 1093 0042 43D0     		beq	.L78
1424:.\Generated_Source\PSoC5/USBFS_1.c ****             {
1425:.\Generated_Source\PSoC5/USBFS_1.c ****             #if (CY_PSOC4)
1426:.\Generated_Source\PSoC5/USBFS_1.c ****                 uint32 channelNum = (uint32) USBFS_1_DmaChan[epNumber];
1427:.\Generated_Source\PSoC5/USBFS_1.c **** 
1428:.\Generated_Source\PSoC5/USBFS_1.c ****                 /* Store address of buffer. */
1429:.\Generated_Source\PSoC5/USBFS_1.c ****                 USBFS_1_DmaEpBufferAddrBackup[epNumber] = (uint32) pData;
1430:.\Generated_Source\PSoC5/USBFS_1.c **** 
1431:.\Generated_Source\PSoC5/USBFS_1.c ****                 /* Disable DMA channel: start configuration. */
1432:.\Generated_Source\PSoC5/USBFS_1.c ****                 USBFS_1_CyDmaChDisable(channelNum);
1433:.\Generated_Source\PSoC5/USBFS_1.c **** 
1434:.\Generated_Source\PSoC5/USBFS_1.c ****                 /* Set destination address. */
1435:.\Generated_Source\PSoC5/USBFS_1.c ****                 USBFS_1_CyDmaSetDstAddress(channelNum, USBFS_1_DMA_DESCR0, (void*) &USBFS_1_ARB_EP_
1436:.\Generated_Source\PSoC5/USBFS_1.c ****                 USBFS_1_CyDmaSetDstAddress(channelNum, USBFS_1_DMA_DESCR1, (void*) &USBFS_1_ARB_EP_
1437:.\Generated_Source\PSoC5/USBFS_1.c **** 
1438:.\Generated_Source\PSoC5/USBFS_1.c ****                 /* Configure DMA descriptor. */
1439:.\Generated_Source\PSoC5/USBFS_1.c ****                 USBFS_1_CyDmaSetConfiguration(channelNum, USBFS_1_DMA_DESCR0, USBFS_1_DMA_COMMON_CF
1440:.\Generated_Source\PSoC5/USBFS_1.c ****                                                         CYDMA_BYTE | CYDMA_ELEMENT_WORD | CYDMA_INC
1441:.\Generated_Source\PSoC5/USBFS_1.c **** 
1442:.\Generated_Source\PSoC5/USBFS_1.c ****                 /* Configure DMA descriptor. */
1443:.\Generated_Source\PSoC5/USBFS_1.c ****                 USBFS_1_CyDmaSetConfiguration(channelNum, USBFS_1_DMA_DESCR1, USBFS_1_DMA_COMMON_CF
1444:.\Generated_Source\PSoC5/USBFS_1.c ****                                                         CYDMA_BYTE | CYDMA_ELEMENT_WORD | CYDMA_INC
1445:.\Generated_Source\PSoC5/USBFS_1.c **** 
ARM GAS  C:\Users\LUKASC~1\AppData\Local\Temp\ccX4OJiL.s 			page 46


1446:.\Generated_Source\PSoC5/USBFS_1.c ****                 /* Enable interrupt from DMA channel. */
1447:.\Generated_Source\PSoC5/USBFS_1.c ****                 USBFS_1_CyDmaSetInterruptMask(channelNum);
1448:.\Generated_Source\PSoC5/USBFS_1.c **** 
1449:.\Generated_Source\PSoC5/USBFS_1.c ****                 /* Validate descriptor 1. It will not be invalided during operation. */
1450:.\Generated_Source\PSoC5/USBFS_1.c ****                 USBFS_1_CyDmaValidateDescriptor(channelNum, USBFS_1_DMA_DESCR1);
1451:.\Generated_Source\PSoC5/USBFS_1.c **** 
1452:.\Generated_Source\PSoC5/USBFS_1.c ****                 /* Enable DMA channel: configuration complete. */
1453:.\Generated_Source\PSoC5/USBFS_1.c ****                 USBFS_1_CyDmaChEnable(channelNum);
1454:.\Generated_Source\PSoC5/USBFS_1.c **** 
1455:.\Generated_Source\PSoC5/USBFS_1.c ****             #else
1456:.\Generated_Source\PSoC5/USBFS_1.c ****                 (void) CyDmaChDisable(USBFS_1_DmaChan[epNumber]);
 1094              		.loc 1 1456 0
 1095 0044 474F     		ldr	r7, .L81+12
 1096 0046 385D     		ldrb	r0, [r7, r4]	@ zero_extendqisi2
 1097 0048 FFF7FEFF 		bl	CyDmaChDisable
 1098              	.LVL88:
1457:.\Generated_Source\PSoC5/USBFS_1.c **** 
1458:.\Generated_Source\PSoC5/USBFS_1.c ****                 #if (USBFS_1_EP_DMA_AUTO_OPT == 0u)
1459:.\Generated_Source\PSoC5/USBFS_1.c ****                     USBFS_1_inLength[epNumber] = length;
 1099              		.loc 1 1459 0
 1100 004c 464B     		ldr	r3, .L81+16
 1101 004e 23F81450 		strh	r5, [r3, r4, lsl #1]	@ movhi
1460:.\Generated_Source\PSoC5/USBFS_1.c ****                     USBFS_1_inDataPointer[epNumber] = pData;
 1102              		.loc 1 1460 0
 1103 0052 464B     		ldr	r3, .L81+20
 1104 0054 43F82460 		str	r6, [r3, r4, lsl #2]
1461:.\Generated_Source\PSoC5/USBFS_1.c **** 
1462:.\Generated_Source\PSoC5/USBFS_1.c ****                     /* Configure DMA to send data only for first burst */
1463:.\Generated_Source\PSoC5/USBFS_1.c ****                     (void) CyDmaTdSetConfiguration(USBFS_1_DmaTd[epNumber],
 1105              		.loc 1 1463 0
 1106 0058 DFF80481 		ldr	r8, .L81+8
 1107 005c DFF82091 		ldr	r9, .L81+40
 1108 0060 18F80400 		ldrb	r0, [r8, r4]	@ zero_extendqisi2
 1109 0064 2946     		mov	r1, r5
 1110 0066 202D     		cmp	r5, #32
 1111 0068 28BF     		it	cs
 1112 006a 2021     		movcs	r1, #32
 1113 006c 19F80420 		ldrb	r2, [r9, r4]	@ zero_extendqisi2
 1114 0070 1123     		movs	r3, #17
 1115 0072 FFF7FEFF 		bl	CyDmaTdSetConfiguration
 1116              	.LVL89:
1464:.\Generated_Source\PSoC5/USBFS_1.c ****                         (length > USBFS_1_DMA_BYTES_PER_BURST) ? USBFS_1_DMA_BYTES_PER_BURST : leng
1465:.\Generated_Source\PSoC5/USBFS_1.c ****                         USBFS_1_DmaNextTd[epNumber], TD_TERMIN_EN | TD_INC_SRC_ADR);
1466:.\Generated_Source\PSoC5/USBFS_1.c ****                     (void) CyDmaTdSetAddress(USBFS_1_DmaTd[epNumber], LO16((uint32) pData),
 1117              		.loc 1 1466 0
 1118 0076 4FEA041A 		lsl	r10, r4, #4
 1119 007a 0AF10802 		add	r2, r10, #8
 1120 007e 3C4D     		ldr	r5, .L81+24
 1121 0080 2A44     		add	r2, r2, r5
 1122 0082 92B2     		uxth	r2, r2
 1123 0084 18F80400 		ldrb	r0, [r8, r4]	@ zero_extendqisi2
 1124 0088 B1B2     		uxth	r1, r6
 1125 008a FFF7FEFF 		bl	CyDmaTdSetAddress
 1126              	.LVL90:
1467:.\Generated_Source\PSoC5/USBFS_1.c ****                                                                                LO16((uint32) &USBFS
1468:.\Generated_Source\PSoC5/USBFS_1.c **** 
1469:.\Generated_Source\PSoC5/USBFS_1.c ****                     /* The second TD will be executed only when the first one fails.
ARM GAS  C:\Users\LUKASC~1\AppData\Local\Temp\ccX4OJiL.s 			page 47


1470:.\Generated_Source\PSoC5/USBFS_1.c ****                     *  The intention of this TD is to generate NRQ interrupt
1471:.\Generated_Source\PSoC5/USBFS_1.c ****                     *  and repeat 2 last bytes of the first burst.
1472:.\Generated_Source\PSoC5/USBFS_1.c ****                     */
1473:.\Generated_Source\PSoC5/USBFS_1.c ****                     (void) CyDmaTdSetConfiguration(USBFS_1_DmaNextTd[epNumber], 1u,
 1127              		.loc 1 1473 0
 1128 008e 19F80420 		ldrb	r2, [r9, r4]	@ zero_extendqisi2
 1129 0092 1046     		mov	r0, r2
 1130 0094 0121     		movs	r1, #1
 1131 0096 374B     		ldr	r3, .L81+28
 1132 0098 1B5D     		ldrb	r3, [r3, r4]	@ zero_extendqisi2
 1133 009a FFF7FEFF 		bl	CyDmaTdSetConfiguration
 1134              	.LVL91:
1474:.\Generated_Source\PSoC5/USBFS_1.c ****                                                    USBFS_1_DmaNextTd[epNumber],
1475:.\Generated_Source\PSoC5/USBFS_1.c ****                                                    USBFS_1_epX_TD_TERMOUT_EN[epNumber]);
1476:.\Generated_Source\PSoC5/USBFS_1.c **** 
1477:.\Generated_Source\PSoC5/USBFS_1.c ****                     /* Configure DmaNextTd to clear Data Ready status. */
1478:.\Generated_Source\PSoC5/USBFS_1.c ****                     (void) CyDmaTdSetAddress(USBFS_1_DmaNextTd[epNumber], LO16((uint32) &clearInDat
 1135              		.loc 1 1478 0
 1136 009e 0AEB0502 		add	r2, r10, r5
 1137 00a2 92B2     		uxth	r2, r2
 1138 00a4 19F80400 		ldrb	r0, [r9, r4]	@ zero_extendqisi2
 1139 00a8 3349     		ldr	r1, .L81+32
 1140 00aa 89B2     		uxth	r1, r1
 1141 00ac FFF7FEFF 		bl	CyDmaTdSetAddress
 1142              	.LVL92:
1479:.\Generated_Source\PSoC5/USBFS_1.c ****                                                                                    LO16((uint32) &U
1480:.\Generated_Source\PSoC5/USBFS_1.c ****                 #else
1481:.\Generated_Source\PSoC5/USBFS_1.c ****                     /* Configure DMA to send all data. */
1482:.\Generated_Source\PSoC5/USBFS_1.c ****                     (void) CyDmaTdSetConfiguration(USBFS_1_DmaTd[epNumber], length,
1483:.\Generated_Source\PSoC5/USBFS_1.c ****                                                    USBFS_1_DmaTd[epNumber], TD_TERMIN_EN | TD_INC_S
1484:.\Generated_Source\PSoC5/USBFS_1.c ****                     (void) CyDmaTdSetAddress(USBFS_1_DmaTd[epNumber], LO16((uint32) pData),
1485:.\Generated_Source\PSoC5/USBFS_1.c ****                                                                                LO16((uint32) &USBFS
1486:.\Generated_Source\PSoC5/USBFS_1.c ****                 #endif /* (USBFS_1_EP_DMA_AUTO_OPT == 0u) */
1487:.\Generated_Source\PSoC5/USBFS_1.c **** 
1488:.\Generated_Source\PSoC5/USBFS_1.c ****                 /* Clear any potential pending DMA requests before starting DMA channel to transfer
1489:.\Generated_Source\PSoC5/USBFS_1.c ****                 (void) CyDmaClearPendingDrq(USBFS_1_DmaChan[epNumber]);
 1143              		.loc 1 1489 0
 1144 00b0 385D     		ldrb	r0, [r7, r4]	@ zero_extendqisi2
 1145 00b2 FFF7FEFF 		bl	CyDmaClearPendingDrq
 1146              	.LVL93:
1490:.\Generated_Source\PSoC5/USBFS_1.c ****                 /* Enable DMA. */
1491:.\Generated_Source\PSoC5/USBFS_1.c ****                 (void) CyDmaChSetInitialTd(USBFS_1_DmaChan[epNumber], USBFS_1_DmaTd[epNumber]);
 1147              		.loc 1 1491 0
 1148 00b6 385D     		ldrb	r0, [r7, r4]	@ zero_extendqisi2
 1149 00b8 18F80410 		ldrb	r1, [r8, r4]	@ zero_extendqisi2
 1150 00bc FFF7FEFF 		bl	CyDmaChSetInitialTd
 1151              	.LVL94:
1492:.\Generated_Source\PSoC5/USBFS_1.c ****                 (void) CyDmaChEnable(USBFS_1_DmaChan[epNumber], 1u);
 1152              		.loc 1 1492 0
 1153 00c0 385D     		ldrb	r0, [r7, r4]	@ zero_extendqisi2
 1154 00c2 0121     		movs	r1, #1
 1155 00c4 FFF7FEFF 		bl	CyDmaChEnable
 1156              	.LVL95:
 1157 00c8 BDE8F087 		pop	{r4, r5, r6, r7, r8, r9, r10, pc}
 1158              	.LVL96:
 1159              	.L78:
1493:.\Generated_Source\PSoC5/USBFS_1.c ****             #endif /* (CY_PSOC4) */
ARM GAS  C:\Users\LUKASC~1\AppData\Local\Temp\ccX4OJiL.s 			page 48


1494:.\Generated_Source\PSoC5/USBFS_1.c ****             }
1495:.\Generated_Source\PSoC5/USBFS_1.c ****             else
1496:.\Generated_Source\PSoC5/USBFS_1.c ****             {
1497:.\Generated_Source\PSoC5/USBFS_1.c ****                 /* IN endpoint buffer (32 bytes) will shortly be preloaded by DMA. */
1498:.\Generated_Source\PSoC5/USBFS_1.c ****                 USBFS_1_EP[epNumber].apiEpState = USBFS_1_NO_EVENT_PENDING;
 1160              		.loc 1 1498 0
 1161 00cc 04EB4403 		add	r3, r4, r4, lsl #1
 1162 00d0 9B00     		lsls	r3, r3, #2
 1163 00d2 214A     		ldr	r2, .L81
 1164 00d4 1344     		add	r3, r3, r2
 1165 00d6 0022     		movs	r2, #0
 1166 00d8 5A70     		strb	r2, [r3, #1]
1499:.\Generated_Source\PSoC5/USBFS_1.c **** 
1500:.\Generated_Source\PSoC5/USBFS_1.c ****                 if (length > 0u)
 1167              		.loc 1 1500 0
 1168 00da 002D     		cmp	r5, #0
 1169 00dc 30D0     		beq	.L79
1501:.\Generated_Source\PSoC5/USBFS_1.c ****                 {
1502:.\Generated_Source\PSoC5/USBFS_1.c ****                 #if (CY_PSOC4)
1503:.\Generated_Source\PSoC5/USBFS_1.c ****                     uint32 lengthDescr0, lengthDescr1;
1504:.\Generated_Source\PSoC5/USBFS_1.c ****                     uint32 channelNum = (uint32) USBFS_1_DmaChan[epNumber];
1505:.\Generated_Source\PSoC5/USBFS_1.c **** 
1506:.\Generated_Source\PSoC5/USBFS_1.c ****                     /* Get number of full bursts. */
1507:.\Generated_Source\PSoC5/USBFS_1.c ****                     USBFS_1_DmaEpBurstCnt[epNumber] = (uint8) (length / USBFS_1_DMA_BYTES_PER_BURST
1508:.\Generated_Source\PSoC5/USBFS_1.c **** 
1509:.\Generated_Source\PSoC5/USBFS_1.c ****                     /* Get number of elements in the last burst. */
1510:.\Generated_Source\PSoC5/USBFS_1.c ****                     USBFS_1_DmaEpLastBurstEl[epNumber] = (uint8) (length % USBFS_1_DMA_BYTES_PER_BU
1511:.\Generated_Source\PSoC5/USBFS_1.c **** 
1512:.\Generated_Source\PSoC5/USBFS_1.c ****                     /* Get total number of bursts. */
1513:.\Generated_Source\PSoC5/USBFS_1.c ****                     USBFS_1_DmaEpBurstCnt[epNumber] += (0u != USBFS_1_DmaEpLastBurstEl[epNumber]) ?
1514:.\Generated_Source\PSoC5/USBFS_1.c **** 
1515:.\Generated_Source\PSoC5/USBFS_1.c ****                     /* Adjust number of data elements transferred in last burst. */
1516:.\Generated_Source\PSoC5/USBFS_1.c ****                     USBFS_1_DmaEpLastBurstEl[epNumber] = (0u != USBFS_1_DmaEpLastBurstEl[epNumber])
1517:.\Generated_Source\PSoC5/USBFS_1.c ****                                                                           (USBFS_1_DmaEpLastBurstEl
1518:.\Generated_Source\PSoC5/USBFS_1.c ****                                                                           (USBFS_1_DMA_BYTES_PER_BU
1519:.\Generated_Source\PSoC5/USBFS_1.c **** 
1520:.\Generated_Source\PSoC5/USBFS_1.c ****                     /* Get number of data elements to transfer for descriptor 0 and 1. */
1521:.\Generated_Source\PSoC5/USBFS_1.c ****                     lengthDescr0 = (1u == USBFS_1_DmaEpBurstCnt[epNumber]) ? USBFS_1_DmaEpLastBurst
1522:.\Generated_Source\PSoC5/USBFS_1.c ****                     lengthDescr1 = (2u == USBFS_1_DmaEpBurstCnt[epNumber]) ? USBFS_1_DmaEpLastBurst
1523:.\Generated_Source\PSoC5/USBFS_1.c **** 
1524:.\Generated_Source\PSoC5/USBFS_1.c **** 
1525:.\Generated_Source\PSoC5/USBFS_1.c ****                     /* Mark which descriptor is last one to execute. */
1526:.\Generated_Source\PSoC5/USBFS_1.c ****                     USBFS_1_DmaEpLastBurstEl[epNumber] |= (0u != (USBFS_1_DmaEpBurstCnt[epNumber] &
1527:.\Generated_Source\PSoC5/USBFS_1.c ****                                                                             USBFS_1_DMA_DESCR0_MASK
1528:.\Generated_Source\PSoC5/USBFS_1.c **** 
1529:.\Generated_Source\PSoC5/USBFS_1.c ****                     /* Adjust burst counter taking to account: 2 valid descriptors and interrupt tr
1530:.\Generated_Source\PSoC5/USBFS_1.c ****                     USBFS_1_DmaEpBurstCnt[epNumber] = USBFS_1_DMA_GET_BURST_CNT(USBFS_1_DmaEpBurstC
1531:.\Generated_Source\PSoC5/USBFS_1.c **** 
1532:.\Generated_Source\PSoC5/USBFS_1.c ****                     /* Restore DMA settings for current transfer. */
1533:.\Generated_Source\PSoC5/USBFS_1.c ****                     USBFS_1_CyDmaChDisable(channelNum);
1534:.\Generated_Source\PSoC5/USBFS_1.c **** 
1535:.\Generated_Source\PSoC5/USBFS_1.c ****                     /* Restore destination address for input endpoint. */
1536:.\Generated_Source\PSoC5/USBFS_1.c ****                     USBFS_1_CyDmaSetSrcAddress(channelNum, USBFS_1_DMA_DESCR0, (void*) ((uint32) US
1537:.\Generated_Source\PSoC5/USBFS_1.c ****                     USBFS_1_CyDmaSetSrcAddress(channelNum, USBFS_1_DMA_DESCR1, (void*) ((uint32) US
1538:.\Generated_Source\PSoC5/USBFS_1.c ****                                                                                                    
1539:.\Generated_Source\PSoC5/USBFS_1.c **** 
1540:.\Generated_Source\PSoC5/USBFS_1.c ****                     /* Set number of elements to transfer. */
ARM GAS  C:\Users\LUKASC~1\AppData\Local\Temp\ccX4OJiL.s 			page 49


1541:.\Generated_Source\PSoC5/USBFS_1.c ****                     USBFS_1_CyDmaSetNumDataElements(channelNum, USBFS_1_DMA_DESCR0, lengthDescr0);
1542:.\Generated_Source\PSoC5/USBFS_1.c ****                     USBFS_1_CyDmaSetNumDataElements(channelNum, USBFS_1_DMA_DESCR1, lengthDescr1);
1543:.\Generated_Source\PSoC5/USBFS_1.c **** 
1544:.\Generated_Source\PSoC5/USBFS_1.c ****                     /* Validate descriptor 0 and command to start with it. */
1545:.\Generated_Source\PSoC5/USBFS_1.c ****                     USBFS_1_CyDmaValidateDescriptor(channelNum, USBFS_1_DMA_DESCR0);
1546:.\Generated_Source\PSoC5/USBFS_1.c ****                     USBFS_1_CyDmaSetDescriptor0Next(channelNum);
1547:.\Generated_Source\PSoC5/USBFS_1.c **** 
1548:.\Generated_Source\PSoC5/USBFS_1.c ****                     /* Enable DMA channel: configuration complete. */
1549:.\Generated_Source\PSoC5/USBFS_1.c ****                     USBFS_1_CyDmaChEnable(channelNum);
1550:.\Generated_Source\PSoC5/USBFS_1.c **** 
1551:.\Generated_Source\PSoC5/USBFS_1.c ****                 #elif (USBFS_1_EP_DMA_AUTO_OPT == 0u)
1552:.\Generated_Source\PSoC5/USBFS_1.c ****                     USBFS_1_inLength[epNumber]  = length;
 1170              		.loc 1 1552 0
 1171 00de 224B     		ldr	r3, .L81+16
 1172 00e0 23F81450 		strh	r5, [r3, r4, lsl #1]	@ movhi
1553:.\Generated_Source\PSoC5/USBFS_1.c ****                     USBFS_1_inBufFull[epNumber] = 0u;
 1173              		.loc 1 1553 0
 1174 00e4 254B     		ldr	r3, .L81+36
 1175 00e6 1A55     		strb	r2, [r3, r4]
1554:.\Generated_Source\PSoC5/USBFS_1.c **** 
1555:.\Generated_Source\PSoC5/USBFS_1.c ****                     (void) CyDmaChDisable(USBFS_1_DmaChan[epNumber]);
 1176              		.loc 1 1555 0
 1177 00e8 1E4E     		ldr	r6, .L81+12
 1178              	.LVL97:
 1179 00ea 305D     		ldrb	r0, [r6, r4]	@ zero_extendqisi2
 1180 00ec FFF7FEFF 		bl	CyDmaChDisable
 1181              	.LVL98:
1556:.\Generated_Source\PSoC5/USBFS_1.c ****                     /* Configure DMA to send data only for first burst. */
1557:.\Generated_Source\PSoC5/USBFS_1.c ****                     (void) CyDmaTdSetConfiguration(
 1182              		.loc 1 1557 0
 1183 00f0 1B4F     		ldr	r7, .L81+8
 1184 00f2 385D     		ldrb	r0, [r7, r4]	@ zero_extendqisi2
 1185 00f4 2946     		mov	r1, r5
 1186 00f6 202D     		cmp	r5, #32
 1187 00f8 28BF     		it	cs
 1188 00fa 2021     		movcs	r1, #32
 1189 00fc 204B     		ldr	r3, .L81+40
 1190 00fe 1A5D     		ldrb	r2, [r3, r4]	@ zero_extendqisi2
 1191 0100 1123     		movs	r3, #17
 1192 0102 FFF7FEFF 		bl	CyDmaTdSetConfiguration
 1193              	.LVL99:
1558:.\Generated_Source\PSoC5/USBFS_1.c ****                         USBFS_1_DmaTd[epNumber], (length > USBFS_1_DMA_BYTES_PER_BURST) ?
1559:.\Generated_Source\PSoC5/USBFS_1.c ****                         USBFS_1_DMA_BYTES_PER_BURST : length,
1560:.\Generated_Source\PSoC5/USBFS_1.c ****                         USBFS_1_DmaNextTd[epNumber], TD_TERMIN_EN | TD_INC_SRC_ADR );
1561:.\Generated_Source\PSoC5/USBFS_1.c ****                     (void) CyDmaTdSetAddress(USBFS_1_DmaTd[epNumber], LO16((uint32)  USBFS_1_inData
 1194              		.loc 1 1561 0
 1195 0106 2201     		lsls	r2, r4, #4
 1196 0108 0832     		adds	r2, r2, #8
 1197 010a 194D     		ldr	r5, .L81+24
 1198 010c 2A44     		add	r2, r2, r5
 1199 010e 92B2     		uxth	r2, r2
 1200 0110 385D     		ldrb	r0, [r7, r4]	@ zero_extendqisi2
 1201 0112 164B     		ldr	r3, .L81+20
 1202 0114 33F82410 		ldrh	r1, [r3, r4, lsl #2]
 1203 0118 FFF7FEFF 		bl	CyDmaTdSetAddress
 1204              	.LVL100:
1562:.\Generated_Source\PSoC5/USBFS_1.c ****                                                                                LO16((uint32) &USBFS
ARM GAS  C:\Users\LUKASC~1\AppData\Local\Temp\ccX4OJiL.s 			page 50


1563:.\Generated_Source\PSoC5/USBFS_1.c ****                     /* Clear Any potential pending DMA requests before starting DMA channel to tran
1564:.\Generated_Source\PSoC5/USBFS_1.c ****                     (void) CyDmaClearPendingDrq(USBFS_1_DmaChan[epNumber]);
 1205              		.loc 1 1564 0
 1206 011c 305D     		ldrb	r0, [r6, r4]	@ zero_extendqisi2
 1207 011e FFF7FEFF 		bl	CyDmaClearPendingDrq
 1208              	.LVL101:
1565:.\Generated_Source\PSoC5/USBFS_1.c ****                     /* Enable DMA. */
1566:.\Generated_Source\PSoC5/USBFS_1.c ****                     (void) CyDmaChSetInitialTd(USBFS_1_DmaChan[epNumber], USBFS_1_DmaTd[epNumber]);
 1209              		.loc 1 1566 0
 1210 0122 305D     		ldrb	r0, [r6, r4]	@ zero_extendqisi2
 1211 0124 395D     		ldrb	r1, [r7, r4]	@ zero_extendqisi2
 1212 0126 FFF7FEFF 		bl	CyDmaChSetInitialTd
 1213              	.LVL102:
1567:.\Generated_Source\PSoC5/USBFS_1.c ****                     (void) CyDmaChEnable(USBFS_1_DmaChan[epNumber], 1u);
 1214              		.loc 1 1567 0
 1215 012a 305D     		ldrb	r0, [r6, r4]	@ zero_extendqisi2
 1216 012c 0121     		movs	r1, #1
 1217 012e FFF7FEFF 		bl	CyDmaChEnable
 1218              	.LVL103:
1568:.\Generated_Source\PSoC5/USBFS_1.c ****                 #endif /* (CY_PSOC4) */
1569:.\Generated_Source\PSoC5/USBFS_1.c **** 
1570:.\Generated_Source\PSoC5/USBFS_1.c ****                 #if !defined (USBFS_1_MANUAL_IN_EP_ARM)
1571:.\Generated_Source\PSoC5/USBFS_1.c ****                     /* Set IN data ready to generate DMA request to load data into endpoint buffer.
1572:.\Generated_Source\PSoC5/USBFS_1.c ****                     USBFS_1_ARB_EP_BASE.arbEp[epNumber].epCfg |= USBFS_1_ARB_EPX_CFG_IN_DATA_RDY;
 1219              		.loc 1 1572 0
 1220 0132 2401     		lsls	r4, r4, #4
 1221 0134 2B5D     		ldrb	r3, [r5, r4]	@ zero_extendqisi2
 1222 0136 43F00103 		orr	r3, r3, #1
 1223 013a 2B55     		strb	r3, [r5, r4]
 1224 013c BDE8F087 		pop	{r4, r5, r6, r7, r8, r9, r10, pc}
 1225              	.LVL104:
 1226              	.L79:
1573:.\Generated_Source\PSoC5/USBFS_1.c ****                 #endif  /* (USBFS_1_MANUAL_IN_EP_ARM) */
1574:.\Generated_Source\PSoC5/USBFS_1.c **** 
1575:.\Generated_Source\PSoC5/USBFS_1.c ****                     /* IN endpoint will be armed in ARB_ISR(source: IN_BUF_FULL) after first DMA tr
1576:.\Generated_Source\PSoC5/USBFS_1.c ****                 }
1577:.\Generated_Source\PSoC5/USBFS_1.c ****                 else
1578:.\Generated_Source\PSoC5/USBFS_1.c ****                 {
1579:.\Generated_Source\PSoC5/USBFS_1.c ****                     /* When zero-length packet: arm IN endpoint directly. */
1580:.\Generated_Source\PSoC5/USBFS_1.c ****                     USBFS_1_SIE_EP_BASE.sieEp[epNumber].epCr0 = USBFS_1_EP[epNumber].epMode;
 1227              		.loc 1 1580 0
 1228 0140 04EB4403 		add	r3, r4, r4, lsl #1
 1229 0144 9B00     		lsls	r3, r3, #2
 1230 0146 044A     		ldr	r2, .L81
 1231 0148 1344     		add	r3, r3, r2
 1232 014a 5A79     		ldrb	r2, [r3, #5]	@ zero_extendqisi2
 1233 014c D2B2     		uxtb	r2, r2
 1234 014e 2401     		lsls	r4, r4, #4
 1235 0150 0C4B     		ldr	r3, .L81+44
 1236 0152 1A55     		strb	r2, [r3, r4]
 1237              	.LVL105:
 1238              	.L75:
 1239 0154 BDE8F087 		pop	{r4, r5, r6, r7, r8, r9, r10, pc}
 1240              	.L82:
 1241              		.align	2
 1242              	.L81:
 1243 0158 00000000 		.word	USBFS_1_EP
ARM GAS  C:\Users\LUKASC~1\AppData\Local\Temp\ccX4OJiL.s 			page 51


 1244 015c FC5F0040 		.word	1073766396
 1245 0160 00000000 		.word	USBFS_1_DmaTd
 1246 0164 00000000 		.word	USBFS_1_DmaChan
 1247 0168 00000000 		.word	USBFS_1_inLength
 1248 016c 00000000 		.word	USBFS_1_inDataPointer
 1249 0170 70600040 		.word	1073766512
 1250 0174 00000000 		.word	.LANCHOR1
 1251 0178 00000000 		.word	.LANCHOR2
 1252 017c 00000000 		.word	USBFS_1_inBufFull
 1253 0180 00000000 		.word	USBFS_1_DmaNextTd
 1254 0184 FE5F0040 		.word	1073766398
 1255              		.cfi_endproc
 1256              	.LFE14:
 1257              		.size	USBFS_1_LoadInEP, .-USBFS_1_LoadInEP
 1258              		.section	.text.USBFS_1_ReadOutEP,"ax",%progbits
 1259              		.align	2
 1260              		.global	USBFS_1_ReadOutEP
 1261              		.thumb
 1262              		.thumb_func
 1263              		.type	USBFS_1_ReadOutEP, %function
 1264              	USBFS_1_ReadOutEP:
 1265              	.LFB15:
1581:.\Generated_Source\PSoC5/USBFS_1.c ****                 }
1582:.\Generated_Source\PSoC5/USBFS_1.c ****             }
1583:.\Generated_Source\PSoC5/USBFS_1.c ****         #endif /* (USBFS_1_EP_MANAGEMENT_DMA_AUTO) */
1584:.\Generated_Source\PSoC5/USBFS_1.c ****     #endif /* (USBFS_1_EP_MANAGEMENT_MANUAL) */
1585:.\Generated_Source\PSoC5/USBFS_1.c ****     }
1586:.\Generated_Source\PSoC5/USBFS_1.c **** }
1587:.\Generated_Source\PSoC5/USBFS_1.c **** 
1588:.\Generated_Source\PSoC5/USBFS_1.c **** 
1589:.\Generated_Source\PSoC5/USBFS_1.c **** /*******************************************************************************
1590:.\Generated_Source\PSoC5/USBFS_1.c **** * Function Name: USBFS_1_ReadOutEP
1591:.\Generated_Source\PSoC5/USBFS_1.c **** ****************************************************************************//**
1592:.\Generated_Source\PSoC5/USBFS_1.c **** *
1593:.\Generated_Source\PSoC5/USBFS_1.c **** *   This function performs different functionality depending on the Component’s
1594:.\Generated_Source\PSoC5/USBFS_1.c **** *   configured Endpoint Buffer Management. This parameter is defined in the
1595:.\Generated_Source\PSoC5/USBFS_1.c **** *   Descriptor Root in Component Configure window.
1596:.\Generated_Source\PSoC5/USBFS_1.c **** *
1597:.\Generated_Source\PSoC5/USBFS_1.c **** *   *Manual (Static/Dynamic Allocation):*
1598:.\Generated_Source\PSoC5/USBFS_1.c **** *   This function moves the specified number of bytes from endpoint buffer to
1599:.\Generated_Source\PSoC5/USBFS_1.c **** *   system RAM. The number of bytes actually transferred from endpoint buffer to
1600:.\Generated_Source\PSoC5/USBFS_1.c **** *   system RAM is the lesser of the actual number of bytes sent by the host or
1601:.\Generated_Source\PSoC5/USBFS_1.c **** *   the number of bytes requested by the length parameter.
1602:.\Generated_Source\PSoC5/USBFS_1.c **** *
1603:.\Generated_Source\PSoC5/USBFS_1.c **** *   *DMA with Manual Buffer Management:*
1604:.\Generated_Source\PSoC5/USBFS_1.c **** *   Configure DMA to transfer data from endpoint buffer to system RAM. Generate
1605:.\Generated_Source\PSoC5/USBFS_1.c **** *   a DMA request. The firmware must wait until the DMA completes the data
1606:.\Generated_Source\PSoC5/USBFS_1.c **** *   transfer after calling the USBFS_1_ReadOutEP() API. For example,
1607:.\Generated_Source\PSoC5/USBFS_1.c **** *   by checking EPstate:
1608:.\Generated_Source\PSoC5/USBFS_1.c **** *
1609:.\Generated_Source\PSoC5/USBFS_1.c **** *   \snippet /USBFS_sut_02.cydsn/main.c checking EPstatey
1610:.\Generated_Source\PSoC5/USBFS_1.c **** *
1611:.\Generated_Source\PSoC5/USBFS_1.c **** *   The USBFS_EnableOutEP() has to be called to allow host to write data into
1612:.\Generated_Source\PSoC5/USBFS_1.c **** *   the endpoint buffer after DMA has completed transfer data from OUT endpoint
1613:.\Generated_Source\PSoC5/USBFS_1.c **** *   buffer to SRAM.
1614:.\Generated_Source\PSoC5/USBFS_1.c **** *
1615:.\Generated_Source\PSoC5/USBFS_1.c **** *   *DMA with Automatic Buffer Management:*
ARM GAS  C:\Users\LUKASC~1\AppData\Local\Temp\ccX4OJiL.s 			page 52


1616:.\Generated_Source\PSoC5/USBFS_1.c **** *   Configure DMA. This is required only once and automatically generates DMA
1617:.\Generated_Source\PSoC5/USBFS_1.c **** *   requests as data arrives
1618:.\Generated_Source\PSoC5/USBFS_1.c **** *
1619:.\Generated_Source\PSoC5/USBFS_1.c **** *  \param epNumber: Contains the data endpoint number.
1620:.\Generated_Source\PSoC5/USBFS_1.c **** *            Valid values are between 1 and 8.
1621:.\Generated_Source\PSoC5/USBFS_1.c **** *  \param pData: A pointer to a data array from which the data for the endpoint
1622:.\Generated_Source\PSoC5/USBFS_1.c **** *         space is loaded.
1623:.\Generated_Source\PSoC5/USBFS_1.c **** *  \param length: The number of bytes to transfer from the USB Out endpoint and
1624:.\Generated_Source\PSoC5/USBFS_1.c **** *          loads it into data array. Valid values are between 0 and 1023. The
1625:.\Generated_Source\PSoC5/USBFS_1.c **** *          function moves fewer than the requested number of bytes if the host
1626:.\Generated_Source\PSoC5/USBFS_1.c **** *          sends fewer bytes than requested.
1627:.\Generated_Source\PSoC5/USBFS_1.c **** *
1628:.\Generated_Source\PSoC5/USBFS_1.c **** * \return
1629:.\Generated_Source\PSoC5/USBFS_1.c **** *  Number of bytes received, 0 for an invalid endpoint.
1630:.\Generated_Source\PSoC5/USBFS_1.c **** *
1631:.\Generated_Source\PSoC5/USBFS_1.c **** * \reentrant
1632:.\Generated_Source\PSoC5/USBFS_1.c **** *  No.
1633:.\Generated_Source\PSoC5/USBFS_1.c **** *
1634:.\Generated_Source\PSoC5/USBFS_1.c **** *******************************************************************************/
1635:.\Generated_Source\PSoC5/USBFS_1.c **** uint16 USBFS_1_ReadOutEP(uint8 epNumber, uint8 pData[], uint16 length)
1636:.\Generated_Source\PSoC5/USBFS_1.c ****                                                                         
1637:.\Generated_Source\PSoC5/USBFS_1.c **** {
 1266              		.loc 1 1637 0
 1267              		.cfi_startproc
 1268              		@ args = 0, pretend = 0, frame = 0
 1269              		@ frame_needed = 0, uses_anonymous_args = 0
 1270              	.LVL106:
 1271 0000 2DE9F041 		push	{r4, r5, r6, r7, r8, lr}
 1272              		.cfi_def_cfa_offset 24
 1273              		.cfi_offset 4, -24
 1274              		.cfi_offset 5, -20
 1275              		.cfi_offset 6, -16
 1276              		.cfi_offset 7, -12
 1277              		.cfi_offset 8, -8
 1278              		.cfi_offset 14, -4
1638:.\Generated_Source\PSoC5/USBFS_1.c ****     if ((pData != NULL) && (epNumber > USBFS_1_EP0) && (epNumber < USBFS_1_MAX_EP))
 1279              		.loc 1 1638 0
 1280 0004 71B3     		cbz	r1, .L86
 1281 0006 0446     		mov	r4, r0
 1282 0008 1546     		mov	r5, r2
 1283 000a 0F46     		mov	r7, r1
 1284              		.loc 1 1638 0 is_stmt 0 discriminator 1
 1285 000c 60B3     		cbz	r0, .L87
 1286              		.loc 1 1638 0 discriminator 2
 1287 000e 0828     		cmp	r0, #8
 1288 0010 2CD8     		bhi	.L88
1639:.\Generated_Source\PSoC5/USBFS_1.c ****     {
1640:.\Generated_Source\PSoC5/USBFS_1.c ****     #if (!USBFS_1_EP_MANAGEMENT_DMA_AUTO)
1641:.\Generated_Source\PSoC5/USBFS_1.c ****         /* Adjust requested length to available data. */
1642:.\Generated_Source\PSoC5/USBFS_1.c ****         length = (length > USBFS_1_GetEPCount(epNumber)) ? USBFS_1_GetEPCount(epNumber) : length;
1643:.\Generated_Source\PSoC5/USBFS_1.c ****     #endif /* (!USBFS_1_EP_MANAGEMENT_DMA_AUTO) */
1644:.\Generated_Source\PSoC5/USBFS_1.c **** 
1645:.\Generated_Source\PSoC5/USBFS_1.c ****     #if (USBFS_1_EP_MANAGEMENT_MANUAL)
1646:.\Generated_Source\PSoC5/USBFS_1.c ****         {
1647:.\Generated_Source\PSoC5/USBFS_1.c ****             /* Copy data using arbiter data register. */
1648:.\Generated_Source\PSoC5/USBFS_1.c ****             uint16 i;
1649:.\Generated_Source\PSoC5/USBFS_1.c ****             for (i = 0u; i < length; ++i)
ARM GAS  C:\Users\LUKASC~1\AppData\Local\Temp\ccX4OJiL.s 			page 53


1650:.\Generated_Source\PSoC5/USBFS_1.c ****             {
1651:.\Generated_Source\PSoC5/USBFS_1.c ****                 pData[i] = (uint8) USBFS_1_ARB_EP_BASE.arbEp[epNumber].rwDr;
1652:.\Generated_Source\PSoC5/USBFS_1.c ****             }
1653:.\Generated_Source\PSoC5/USBFS_1.c ****         }
1654:.\Generated_Source\PSoC5/USBFS_1.c **** 
1655:.\Generated_Source\PSoC5/USBFS_1.c ****         /* Arm OUT endpoint after data has been copied from endpoint buffer. */
1656:.\Generated_Source\PSoC5/USBFS_1.c ****         USBFS_1_EnableOutEP(epNumber);
1657:.\Generated_Source\PSoC5/USBFS_1.c ****     #else
1658:.\Generated_Source\PSoC5/USBFS_1.c **** 
1659:.\Generated_Source\PSoC5/USBFS_1.c ****         #if (CY_PSOC3 || CY_PSOC5LP)
1660:.\Generated_Source\PSoC5/USBFS_1.c ****             /* Initialize DMA if it was not initialized. */
1661:.\Generated_Source\PSoC5/USBFS_1.c ****             if (DMA_INVALID_TD == USBFS_1_DmaTd[epNumber])
 1289              		.loc 1 1661 0 is_stmt 1
 1290 0012 184B     		ldr	r3, .L90
 1291 0014 1B5C     		ldrb	r3, [r3, r0]	@ zero_extendqisi2
 1292 0016 FF2B     		cmp	r3, #255
 1293 0018 01D1     		bne	.L85
1662:.\Generated_Source\PSoC5/USBFS_1.c ****             {
1663:.\Generated_Source\PSoC5/USBFS_1.c ****                 USBFS_1_InitEP_DMA(epNumber, pData);
 1294              		.loc 1 1663 0
 1295 001a FFF7FEFF 		bl	USBFS_1_InitEP_DMA
 1296              	.LVL107:
 1297              	.L85:
1664:.\Generated_Source\PSoC5/USBFS_1.c ****             }
1665:.\Generated_Source\PSoC5/USBFS_1.c ****         #endif /* (CY_PSOC3 || CY_PSOC5LP) */
1666:.\Generated_Source\PSoC5/USBFS_1.c **** 
1667:.\Generated_Source\PSoC5/USBFS_1.c ****         #if (USBFS_1_EP_MANAGEMENT_DMA_MANUAL)
1668:.\Generated_Source\PSoC5/USBFS_1.c ****         #if (CY_PSOC4)
1669:.\Generated_Source\PSoC5/USBFS_1.c ****         {
1670:.\Generated_Source\PSoC5/USBFS_1.c ****             uint32 channelNum = (uint32) USBFS_1_DmaChan[epNumber];
1671:.\Generated_Source\PSoC5/USBFS_1.c **** 
1672:.\Generated_Source\PSoC5/USBFS_1.c ****             /* Disable DMA channel: start configuration. */
1673:.\Generated_Source\PSoC5/USBFS_1.c ****             USBFS_1_CyDmaChDisable(channelNum);
1674:.\Generated_Source\PSoC5/USBFS_1.c **** 
1675:.\Generated_Source\PSoC5/USBFS_1.c ****             /* Configure source and destination. */
1676:.\Generated_Source\PSoC5/USBFS_1.c ****             USBFS_1_CyDmaSetSrcAddress(channelNum, USBFS_1_DMA_DESCR0, (void*) &USBFS_1_ARB_EP_BASE
1677:.\Generated_Source\PSoC5/USBFS_1.c ****             USBFS_1_CyDmaSetDstAddress(channelNum, USBFS_1_DMA_DESCR0, (void*) pData);
1678:.\Generated_Source\PSoC5/USBFS_1.c **** 
1679:.\Generated_Source\PSoC5/USBFS_1.c ****             /* Configure DMA descriptor. */
1680:.\Generated_Source\PSoC5/USBFS_1.c ****             USBFS_1_CyDmaSetConfiguration(channelNum, USBFS_1_DMA_DESCR0, USBFS_1_DMA_COMMON_CFG | 
1681:.\Generated_Source\PSoC5/USBFS_1.c ****                                                     CYDMA_BYTE | CYDMA_WORD_ELEMENT | CYDMA_INC_DST
1682:.\Generated_Source\PSoC5/USBFS_1.c **** 
1683:.\Generated_Source\PSoC5/USBFS_1.c ****             /* Validate descriptor to execute on following DMA request. */
1684:.\Generated_Source\PSoC5/USBFS_1.c ****             USBFS_1_CyDmaValidateDescriptor(channelNum, USBFS_1_DMA_DESCR0);
1685:.\Generated_Source\PSoC5/USBFS_1.c **** 
1686:.\Generated_Source\PSoC5/USBFS_1.c ****             /* Enable DMA channel: configuration complete. */
1687:.\Generated_Source\PSoC5/USBFS_1.c ****             USBFS_1_CyDmaChEnable(channelNum);
1688:.\Generated_Source\PSoC5/USBFS_1.c ****         }
1689:.\Generated_Source\PSoC5/USBFS_1.c ****         #else
1690:.\Generated_Source\PSoC5/USBFS_1.c ****             /* Configure DMA to transfer data. */
1691:.\Generated_Source\PSoC5/USBFS_1.c ****             (void) CyDmaChDisable(USBFS_1_DmaChan[epNumber]);
1692:.\Generated_Source\PSoC5/USBFS_1.c ****             (void) CyDmaTdSetConfiguration(USBFS_1_DmaTd[epNumber], length, CY_DMA_DISABLE_TD, TD_T
1693:.\Generated_Source\PSoC5/USBFS_1.c ****             (void) CyDmaTdSetAddress(USBFS_1_DmaTd[epNumber], LO16((uint32) &USBFS_1_ARB_EP_BASE.ar
1694:.\Generated_Source\PSoC5/USBFS_1.c **** 
1695:.\Generated_Source\PSoC5/USBFS_1.c ****             /* Enable DMA channel. */
1696:.\Generated_Source\PSoC5/USBFS_1.c ****             (void) CyDmaChSetInitialTd(USBFS_1_DmaChan[epNumber], USBFS_1_DmaTd[epNumber]);
1697:.\Generated_Source\PSoC5/USBFS_1.c ****             (void) CyDmaChEnable(USBFS_1_DmaChan[epNumber], 1u);
ARM GAS  C:\Users\LUKASC~1\AppData\Local\Temp\ccX4OJiL.s 			page 54


1698:.\Generated_Source\PSoC5/USBFS_1.c ****         #endif /* (CY_PSOC4) */
1699:.\Generated_Source\PSoC5/USBFS_1.c **** 
1700:.\Generated_Source\PSoC5/USBFS_1.c ****             /* Generate DMA request. */
1701:.\Generated_Source\PSoC5/USBFS_1.c ****             USBFS_1_ARB_EP_BASE.arbEp[epNumber].epCfg |=  (uint8)  USBFS_1_ARB_EPX_CFG_DMA_REQ;
1702:.\Generated_Source\PSoC5/USBFS_1.c ****             USBFS_1_ARB_EP_BASE.arbEp[epNumber].epCfg &=  (uint8) ~USBFS_1_ARB_EPX_CFG_DMA_REQ;
1703:.\Generated_Source\PSoC5/USBFS_1.c **** 
1704:.\Generated_Source\PSoC5/USBFS_1.c ****             /* OUT endpoint has to be armed again by user when DMA transfers have been completed.
1705:.\Generated_Source\PSoC5/USBFS_1.c ****             * NO_EVENT_PENDING: notifies that data has been copied from endpoint buffer.
1706:.\Generated_Source\PSoC5/USBFS_1.c ****             */
1707:.\Generated_Source\PSoC5/USBFS_1.c **** 
1708:.\Generated_Source\PSoC5/USBFS_1.c ****         #endif /* (USBFS_1_EP_MANAGEMENT_DMA_MANUAL) */
1709:.\Generated_Source\PSoC5/USBFS_1.c **** 
1710:.\Generated_Source\PSoC5/USBFS_1.c ****         #if (USBFS_1_EP_MANAGEMENT_DMA_AUTO)
1711:.\Generated_Source\PSoC5/USBFS_1.c ****         #if (CY_PSOC4)
1712:.\Generated_Source\PSoC5/USBFS_1.c ****         {
1713:.\Generated_Source\PSoC5/USBFS_1.c ****             uint32 channelNum = (uint32) USBFS_1_DmaChan[epNumber];
1714:.\Generated_Source\PSoC5/USBFS_1.c ****             uint32 lengthDescr0, lengthDescr1;
1715:.\Generated_Source\PSoC5/USBFS_1.c **** 
1716:.\Generated_Source\PSoC5/USBFS_1.c ****             /* Get number of full bursts. */
1717:.\Generated_Source\PSoC5/USBFS_1.c ****             USBFS_1_DmaEpBurstCnt[epNumber] = (uint8) (length / USBFS_1_DMA_BYTES_PER_BURST);
1718:.\Generated_Source\PSoC5/USBFS_1.c **** 
1719:.\Generated_Source\PSoC5/USBFS_1.c ****             /* Get number of elements in the last burst. */
1720:.\Generated_Source\PSoC5/USBFS_1.c ****             USBFS_1_DmaEpLastBurstEl[epNumber] = (uint8) (length % USBFS_1_DMA_BYTES_PER_BURST);
1721:.\Generated_Source\PSoC5/USBFS_1.c **** 
1722:.\Generated_Source\PSoC5/USBFS_1.c ****             /* Get total number of bursts. */
1723:.\Generated_Source\PSoC5/USBFS_1.c ****             USBFS_1_DmaEpBurstCnt[epNumber] += (0u != USBFS_1_DmaEpLastBurstEl[epNumber]) ? 1u : 0u
1724:.\Generated_Source\PSoC5/USBFS_1.c **** 
1725:.\Generated_Source\PSoC5/USBFS_1.c ****             /* Adjust number of the data elements transfered in last burst. */
1726:.\Generated_Source\PSoC5/USBFS_1.c ****             USBFS_1_DmaEpLastBurstEl[epNumber] = (0u != USBFS_1_DmaEpLastBurstEl[epNumber]) ?
1727:.\Generated_Source\PSoC5/USBFS_1.c ****                                                                   (USBFS_1_DmaEpLastBurstEl[epNumbe
1728:.\Generated_Source\PSoC5/USBFS_1.c ****                                                                   (USBFS_1_DMA_BYTES_PER_BURST - 1u
1729:.\Generated_Source\PSoC5/USBFS_1.c **** 
1730:.\Generated_Source\PSoC5/USBFS_1.c ****             /* Get number of data elements to transfer for descriptor 0 and 1. */
1731:.\Generated_Source\PSoC5/USBFS_1.c ****             lengthDescr0 = (1u == USBFS_1_DmaEpBurstCnt[epNumber]) ? USBFS_1_DmaEpLastBurstEl[epNum
1732:.\Generated_Source\PSoC5/USBFS_1.c ****             lengthDescr1 = (2u == USBFS_1_DmaEpBurstCnt[epNumber]) ? USBFS_1_DmaEpLastBurstEl[epNum
1733:.\Generated_Source\PSoC5/USBFS_1.c **** 
1734:.\Generated_Source\PSoC5/USBFS_1.c ****             /* Mark if revert number of data elements in descriptor after transfer completion. */
1735:.\Generated_Source\PSoC5/USBFS_1.c ****             USBFS_1_DmaEpLastBurstEl[epNumber] |= (USBFS_1_DmaEpBurstCnt[epNumber] > 2u) ? USBFS_1_
1736:.\Generated_Source\PSoC5/USBFS_1.c **** 
1737:.\Generated_Source\PSoC5/USBFS_1.c ****             /* Mark last descriptor to be executed. */
1738:.\Generated_Source\PSoC5/USBFS_1.c ****             USBFS_1_DmaEpLastBurstEl[epNumber] |= (0u != (USBFS_1_DmaEpBurstCnt[epNumber] & 0x1u)) 
1739:.\Generated_Source\PSoC5/USBFS_1.c ****                                                                     USBFS_1_DMA_DESCR0_MASK : USBFS
1740:.\Generated_Source\PSoC5/USBFS_1.c **** 
1741:.\Generated_Source\PSoC5/USBFS_1.c ****             /* Adjust burst counter taking to account: 2 valid descriptors and interrupt trigger af
1742:.\Generated_Source\PSoC5/USBFS_1.c ****             USBFS_1_DmaEpBurstCnt[epNumber] = USBFS_1_DMA_GET_BURST_CNT(USBFS_1_DmaEpBurstCnt[epNum
1743:.\Generated_Source\PSoC5/USBFS_1.c **** 
1744:.\Generated_Source\PSoC5/USBFS_1.c ****             /* Store address of buffer and burst counter for endpoint. */
1745:.\Generated_Source\PSoC5/USBFS_1.c ****             USBFS_1_DmaEpBufferAddrBackup[epNumber] = (uint32) pData;
1746:.\Generated_Source\PSoC5/USBFS_1.c ****             USBFS_1_DmaEpBurstCntBackup[epNumber]   = USBFS_1_DmaEpBurstCnt[epNumber];
1747:.\Generated_Source\PSoC5/USBFS_1.c **** 
1748:.\Generated_Source\PSoC5/USBFS_1.c ****             /* Disable DMA channel: start configuration. */
1749:.\Generated_Source\PSoC5/USBFS_1.c ****             USBFS_1_CyDmaChDisable(channelNum);
1750:.\Generated_Source\PSoC5/USBFS_1.c **** 
1751:.\Generated_Source\PSoC5/USBFS_1.c ****             /* Set destination address. */
1752:.\Generated_Source\PSoC5/USBFS_1.c ****             USBFS_1_CyDmaSetSrcAddress(channelNum, USBFS_1_DMA_DESCR0, (void*) &USBFS_1_ARB_EP_BASE
1753:.\Generated_Source\PSoC5/USBFS_1.c ****             USBFS_1_CyDmaSetSrcAddress(channelNum, USBFS_1_DMA_DESCR1, (void*) &USBFS_1_ARB_EP_BASE
1754:.\Generated_Source\PSoC5/USBFS_1.c **** 
ARM GAS  C:\Users\LUKASC~1\AppData\Local\Temp\ccX4OJiL.s 			page 55


1755:.\Generated_Source\PSoC5/USBFS_1.c ****             USBFS_1_CyDmaSetDstAddress(channelNum, USBFS_1_DMA_DESCR0, (void*) ((uint32) pData));
1756:.\Generated_Source\PSoC5/USBFS_1.c ****             USBFS_1_CyDmaSetDstAddress(channelNum, USBFS_1_DMA_DESCR1, (void*) ((uint32) pData + US
1757:.\Generated_Source\PSoC5/USBFS_1.c **** 
1758:.\Generated_Source\PSoC5/USBFS_1.c ****             /* Configure DMA descriptor. */
1759:.\Generated_Source\PSoC5/USBFS_1.c ****             USBFS_1_CyDmaSetConfiguration(channelNum, USBFS_1_DMA_DESCR0, USBFS_1_DMA_COMMON_CFG  |
1760:.\Generated_Source\PSoC5/USBFS_1.c ****                                                     CYDMA_BYTE | CYDMA_WORD_ELEMENT | CYDMA_INC_DST
1761:.\Generated_Source\PSoC5/USBFS_1.c **** 
1762:.\Generated_Source\PSoC5/USBFS_1.c ****             /* Configure DMA descriptor. */
1763:.\Generated_Source\PSoC5/USBFS_1.c ****             USBFS_1_CyDmaSetConfiguration(channelNum, USBFS_1_DMA_DESCR1, USBFS_1_DMA_COMMON_CFG  |
1764:.\Generated_Source\PSoC5/USBFS_1.c ****                                                     CYDMA_BYTE | CYDMA_WORD_ELEMENT | CYDMA_INC_DST
1765:.\Generated_Source\PSoC5/USBFS_1.c **** 
1766:.\Generated_Source\PSoC5/USBFS_1.c ****             /* Enable interrupt from DMA channel. */
1767:.\Generated_Source\PSoC5/USBFS_1.c ****             USBFS_1_CyDmaSetInterruptMask(channelNum);
1768:.\Generated_Source\PSoC5/USBFS_1.c **** 
1769:.\Generated_Source\PSoC5/USBFS_1.c ****             /* Validate DMA descriptor 0 and 1. */
1770:.\Generated_Source\PSoC5/USBFS_1.c ****             USBFS_1_CyDmaValidateDescriptor(channelNum, USBFS_1_DMA_DESCR0);
1771:.\Generated_Source\PSoC5/USBFS_1.c ****             USBFS_1_CyDmaValidateDescriptor(channelNum, USBFS_1_DMA_DESCR1);
1772:.\Generated_Source\PSoC5/USBFS_1.c **** 
1773:.\Generated_Source\PSoC5/USBFS_1.c ****             /* Enable DMA channel: configuration complete. */
1774:.\Generated_Source\PSoC5/USBFS_1.c ****             USBFS_1_CyDmaChEnable(channelNum);
1775:.\Generated_Source\PSoC5/USBFS_1.c ****         }
1776:.\Generated_Source\PSoC5/USBFS_1.c ****         #else
1777:.\Generated_Source\PSoC5/USBFS_1.c ****             (void) CyDmaChDisable(USBFS_1_DmaChan[epNumber]);
 1298              		.loc 1 1777 0
 1299 001e 164E     		ldr	r6, .L90+4
 1300 0020 305D     		ldrb	r0, [r6, r4]	@ zero_extendqisi2
 1301 0022 FFF7FEFF 		bl	CyDmaChDisable
 1302              	.LVL108:
1778:.\Generated_Source\PSoC5/USBFS_1.c ****             (void) CyDmaTdSetConfiguration(USBFS_1_DmaTd[epNumber], length,  USBFS_1_DmaTd[epNumber
 1303              		.loc 1 1778 0
 1304 0026 DFF84C80 		ldr	r8, .L90
 1305 002a 18F80420 		ldrb	r2, [r8, r4]	@ zero_extendqisi2
 1306 002e 1046     		mov	r0, r2
 1307 0030 2946     		mov	r1, r5
 1308 0032 1223     		movs	r3, #18
 1309 0034 FFF7FEFF 		bl	CyDmaTdSetConfiguration
 1310              	.LVL109:
1779:.\Generated_Source\PSoC5/USBFS_1.c ****             (void) CyDmaTdSetAddress(USBFS_1_DmaTd[epNumber], LO16((uint32) &USBFS_1_ARB_EP_BASE.ar
 1311              		.loc 1 1779 0
 1312 0038 2101     		lsls	r1, r4, #4
 1313 003a 18F80400 		ldrb	r0, [r8, r4]	@ zero_extendqisi2
 1314 003e 01F5C041 		add	r1, r1, #24576
 1315 0042 7831     		adds	r1, r1, #120
 1316 0044 BAB2     		uxth	r2, r7
 1317 0046 FFF7FEFF 		bl	CyDmaTdSetAddress
 1318              	.LVL110:
1780:.\Generated_Source\PSoC5/USBFS_1.c **** 
1781:.\Generated_Source\PSoC5/USBFS_1.c ****             /* Clear Any potential pending DMA requests before starting DMA channel to transfer dat
1782:.\Generated_Source\PSoC5/USBFS_1.c ****             (void) CyDmaClearPendingDrq(USBFS_1_DmaChan[epNumber]);
 1319              		.loc 1 1782 0
 1320 004a 305D     		ldrb	r0, [r6, r4]	@ zero_extendqisi2
 1321 004c FFF7FEFF 		bl	CyDmaClearPendingDrq
 1322              	.LVL111:
1783:.\Generated_Source\PSoC5/USBFS_1.c **** 
1784:.\Generated_Source\PSoC5/USBFS_1.c ****             /* Enable DMA channel. */
1785:.\Generated_Source\PSoC5/USBFS_1.c ****             (void) CyDmaChSetInitialTd(USBFS_1_DmaChan[epNumber], USBFS_1_DmaTd[epNumber]);
 1323              		.loc 1 1785 0
ARM GAS  C:\Users\LUKASC~1\AppData\Local\Temp\ccX4OJiL.s 			page 56


 1324 0050 305D     		ldrb	r0, [r6, r4]	@ zero_extendqisi2
 1325 0052 18F80410 		ldrb	r1, [r8, r4]	@ zero_extendqisi2
 1326 0056 FFF7FEFF 		bl	CyDmaChSetInitialTd
 1327              	.LVL112:
1786:.\Generated_Source\PSoC5/USBFS_1.c ****             (void) CyDmaChEnable(USBFS_1_DmaChan[epNumber], 1u);
 1328              		.loc 1 1786 0
 1329 005a 305D     		ldrb	r0, [r6, r4]	@ zero_extendqisi2
 1330 005c 0121     		movs	r1, #1
 1331 005e FFF7FEFF 		bl	CyDmaChEnable
 1332              	.LVL113:
 1333 0062 04E0     		b	.L84
 1334              	.LVL114:
 1335              	.L86:
1787:.\Generated_Source\PSoC5/USBFS_1.c ****         #endif /* (CY_PSOC4) */
1788:.\Generated_Source\PSoC5/USBFS_1.c **** 
1789:.\Generated_Source\PSoC5/USBFS_1.c ****             /* OUT endpoint has to be armed again by user when DMA transfers have been completed.
1790:.\Generated_Source\PSoC5/USBFS_1.c ****             * NO_EVENT_PENDING: notifies that data has been copied from endpoint buffer.
1791:.\Generated_Source\PSoC5/USBFS_1.c ****             */
1792:.\Generated_Source\PSoC5/USBFS_1.c **** 
1793:.\Generated_Source\PSoC5/USBFS_1.c ****         #endif /* (USBFS_1_EP_MANAGEMENT_DMA_AUTO) */
1794:.\Generated_Source\PSoC5/USBFS_1.c ****     #endif /* (USBFS_1_EP_MANAGEMENT_MANUAL) */
1795:.\Generated_Source\PSoC5/USBFS_1.c ****     }
1796:.\Generated_Source\PSoC5/USBFS_1.c ****     else
1797:.\Generated_Source\PSoC5/USBFS_1.c ****     {
1798:.\Generated_Source\PSoC5/USBFS_1.c ****         length = 0u;
 1336              		.loc 1 1798 0
 1337 0064 0025     		movs	r5, #0
 1338 0066 02E0     		b	.L84
 1339              	.L87:
 1340 0068 0025     		movs	r5, #0
 1341 006a 00E0     		b	.L84
 1342              	.L88:
 1343 006c 0025     		movs	r5, #0
 1344              	.LVL115:
 1345              	.L84:
1799:.\Generated_Source\PSoC5/USBFS_1.c ****     }
1800:.\Generated_Source\PSoC5/USBFS_1.c **** 
1801:.\Generated_Source\PSoC5/USBFS_1.c ****     return (length);
1802:.\Generated_Source\PSoC5/USBFS_1.c **** }
 1346              		.loc 1 1802 0
 1347 006e 2846     		mov	r0, r5
 1348 0070 BDE8F081 		pop	{r4, r5, r6, r7, r8, pc}
 1349              	.LVL116:
 1350              	.L91:
 1351              		.align	2
 1352              	.L90:
 1353 0074 00000000 		.word	USBFS_1_DmaTd
 1354 0078 00000000 		.word	USBFS_1_DmaChan
 1355              		.cfi_endproc
 1356              	.LFE15:
 1357              		.size	USBFS_1_ReadOutEP, .-USBFS_1_ReadOutEP
 1358              		.section	.text.USBFS_1_EnableOutEP,"ax",%progbits
 1359              		.align	2
 1360              		.global	USBFS_1_EnableOutEP
 1361              		.thumb
 1362              		.thumb_func
 1363              		.type	USBFS_1_EnableOutEP, %function
ARM GAS  C:\Users\LUKASC~1\AppData\Local\Temp\ccX4OJiL.s 			page 57


 1364              	USBFS_1_EnableOutEP:
 1365              	.LFB16:
1803:.\Generated_Source\PSoC5/USBFS_1.c **** 
1804:.\Generated_Source\PSoC5/USBFS_1.c **** 
1805:.\Generated_Source\PSoC5/USBFS_1.c **** #if (USBFS_1_16BITS_EP_ACCESS_ENABLE)
1806:.\Generated_Source\PSoC5/USBFS_1.c **** /*******************************************************************************
1807:.\Generated_Source\PSoC5/USBFS_1.c **** * Function Name: USBFS_1_LoadInEP16
1808:.\Generated_Source\PSoC5/USBFS_1.c **** ****************************************************************************//**
1809:.\Generated_Source\PSoC5/USBFS_1.c **** *
1810:.\Generated_Source\PSoC5/USBFS_1.c **** *  This function performs different functionality depending on the Component’s
1811:.\Generated_Source\PSoC5/USBFS_1.c **** *  configured Endpoint Buffer Management. This parameter is defined in
1812:.\Generated_Source\PSoC5/USBFS_1.c **** *  the Descriptor Root in Component Configure window.
1813:.\Generated_Source\PSoC5/USBFS_1.c **** *
1814:.\Generated_Source\PSoC5/USBFS_1.c **** *  *Manual (Static/Dynamic Allocation):*
1815:.\Generated_Source\PSoC5/USBFS_1.c **** *  This function loads and enables the specified USB data endpoint for an IN
1816:.\Generated_Source\PSoC5/USBFS_1.c **** *  data transfer.
1817:.\Generated_Source\PSoC5/USBFS_1.c **** *
1818:.\Generated_Source\PSoC5/USBFS_1.c **** *  *DMA with Manual Buffer Management:*
1819:.\Generated_Source\PSoC5/USBFS_1.c **** *  Configures DMA for a data transfer from system RAM to endpoint buffer.
1820:.\Generated_Source\PSoC5/USBFS_1.c **** *  Generates request for a transfer.
1821:.\Generated_Source\PSoC5/USBFS_1.c **** *
1822:.\Generated_Source\PSoC5/USBFS_1.c **** *  *DMA with Automatic Buffer Management:*
1823:.\Generated_Source\PSoC5/USBFS_1.c **** *  Configures DMA. This is required only once, so it is done only when parameter
1824:.\Generated_Source\PSoC5/USBFS_1.c **** *  pData is not NULL. When the pData pointer is NULL, the function skips this
1825:.\Generated_Source\PSoC5/USBFS_1.c **** *  task. Sets Data ready status: This generates the first DMA transfer and
1826:.\Generated_Source\PSoC5/USBFS_1.c **** *  prepares data in endpoint buffer.
1827:.\Generated_Source\PSoC5/USBFS_1.c **** *
1828:.\Generated_Source\PSoC5/USBFS_1.c **** *  \param epNumber Contains the data endpoint number.
1829:.\Generated_Source\PSoC5/USBFS_1.c **** *        Valid values are between 1 and 8.
1830:.\Generated_Source\PSoC5/USBFS_1.c **** *  \param *pData A pointer to a data array from which the data for the endpoint
1831:.\Generated_Source\PSoC5/USBFS_1.c **** *        space is loaded. It shall be ensured that this pointer address is even
1832:.\Generated_Source\PSoC5/USBFS_1.c **** *        to ensure the 16-bit transfer is aligned to even address. Else, a hard
1833:.\Generated_Source\PSoC5/USBFS_1.c **** *        fault condition can occur.
1834:.\Generated_Source\PSoC5/USBFS_1.c **** *  \param length The number of bytes to transfer from the array and then send as
1835:.\Generated_Source\PSoC5/USBFS_1.c **** *        a result of an IN request. Valid values are between 0 and 512 (1023 for
1836:.\Generated_Source\PSoC5/USBFS_1.c **** *        DMA with Automatic Buffer Management mode). The value 512 is applicable
1837:.\Generated_Source\PSoC5/USBFS_1.c **** *        if only one endpoint is used.
1838:.\Generated_Source\PSoC5/USBFS_1.c **** *
1839:.\Generated_Source\PSoC5/USBFS_1.c **** * \reentrant
1840:.\Generated_Source\PSoC5/USBFS_1.c **** *  No.
1841:.\Generated_Source\PSoC5/USBFS_1.c **** *
1842:.\Generated_Source\PSoC5/USBFS_1.c **** *******************************************************************************/
1843:.\Generated_Source\PSoC5/USBFS_1.c **** void USBFS_1_LoadInEP16(uint8 epNumber, const uint8 pData[], uint16 length)
1844:.\Generated_Source\PSoC5/USBFS_1.c **** {
1845:.\Generated_Source\PSoC5/USBFS_1.c ****     /* Check array alignment on half-word boundary. */
1846:.\Generated_Source\PSoC5/USBFS_1.c ****     CYASSERT(0u == (((uint32) pData) & 0x01u));
1847:.\Generated_Source\PSoC5/USBFS_1.c **** 
1848:.\Generated_Source\PSoC5/USBFS_1.c ****     if ((epNumber > USBFS_1_EP0) && (epNumber < USBFS_1_MAX_EP))
1849:.\Generated_Source\PSoC5/USBFS_1.c ****     {
1850:.\Generated_Source\PSoC5/USBFS_1.c ****     #if (!USBFS_1_EP_MANAGEMENT_DMA_AUTO)
1851:.\Generated_Source\PSoC5/USBFS_1.c ****         /* Limit length to available buffer USB IP buffer size. */
1852:.\Generated_Source\PSoC5/USBFS_1.c ****         if (length > (USBFS_1_EPX_DATA_BUF_MAX - USBFS_1_EP[epNumber].buffOffset))
1853:.\Generated_Source\PSoC5/USBFS_1.c ****         {
1854:.\Generated_Source\PSoC5/USBFS_1.c ****             length = USBFS_1_EPX_DATA_BUF_MAX - USBFS_1_EP[epNumber].buffOffset;
1855:.\Generated_Source\PSoC5/USBFS_1.c ****         }
1856:.\Generated_Source\PSoC5/USBFS_1.c ****     #endif /* (!USBFS_1_EP_MANAGEMENT_DMA_AUTO) */
1857:.\Generated_Source\PSoC5/USBFS_1.c **** 
ARM GAS  C:\Users\LUKASC~1\AppData\Local\Temp\ccX4OJiL.s 			page 58


1858:.\Generated_Source\PSoC5/USBFS_1.c ****         /* Set count and data toggle. */
1859:.\Generated_Source\PSoC5/USBFS_1.c ****         USBFS_1_SIE_EP_BASE.sieEp[epNumber].epCnt0 = (uint32) HI8(length) | USBFS_1_EP[epNumber].ep
1860:.\Generated_Source\PSoC5/USBFS_1.c ****         USBFS_1_SIE_EP_BASE.sieEp[epNumber].epCnt1 = (uint32) LO8(length);
1861:.\Generated_Source\PSoC5/USBFS_1.c **** 
1862:.\Generated_Source\PSoC5/USBFS_1.c ****         /* Adjust requested length: 2 bytes are handled at one data register access. */
1863:.\Generated_Source\PSoC5/USBFS_1.c ****         length += (length & 0x01u);
1864:.\Generated_Source\PSoC5/USBFS_1.c **** 
1865:.\Generated_Source\PSoC5/USBFS_1.c ****     #if (USBFS_1_EP_MANAGEMENT_MANUAL)
1866:.\Generated_Source\PSoC5/USBFS_1.c ****         if (NULL != pData)
1867:.\Generated_Source\PSoC5/USBFS_1.c ****         {
1868:.\Generated_Source\PSoC5/USBFS_1.c ****             /* Convert uint8 array to uint16. */
1869:.\Generated_Source\PSoC5/USBFS_1.c ****             const uint16 *dataBuf = (uint16 *) pData;
1870:.\Generated_Source\PSoC5/USBFS_1.c **** 
1871:.\Generated_Source\PSoC5/USBFS_1.c ****             /* Copy data using 16-bits arbiter data register. */
1872:.\Generated_Source\PSoC5/USBFS_1.c ****             uint16 i;
1873:.\Generated_Source\PSoC5/USBFS_1.c ****             for (i = 0u; i < (length >> 1u); ++i)
1874:.\Generated_Source\PSoC5/USBFS_1.c ****             {
1875:.\Generated_Source\PSoC5/USBFS_1.c ****                 USBFS_1_ARB_EP16_BASE.arbEp[epNumber].rwDr16 = dataBuf[i];
1876:.\Generated_Source\PSoC5/USBFS_1.c ****             }
1877:.\Generated_Source\PSoC5/USBFS_1.c ****         }
1878:.\Generated_Source\PSoC5/USBFS_1.c **** 
1879:.\Generated_Source\PSoC5/USBFS_1.c ****         /* IN endpoint buffer is full - read to be read. */
1880:.\Generated_Source\PSoC5/USBFS_1.c ****         USBFS_1_EP[epNumber].apiEpState = USBFS_1_NO_EVENT_PENDING;
1881:.\Generated_Source\PSoC5/USBFS_1.c **** 
1882:.\Generated_Source\PSoC5/USBFS_1.c ****         /* Arm IN endpoint. */
1883:.\Generated_Source\PSoC5/USBFS_1.c ****         USBFS_1_SIE_EP_BASE.sieEp[epNumber].epCr0 = USBFS_1_EP[epNumber].epMode;
1884:.\Generated_Source\PSoC5/USBFS_1.c **** 
1885:.\Generated_Source\PSoC5/USBFS_1.c ****     #else
1886:.\Generated_Source\PSoC5/USBFS_1.c **** 
1887:.\Generated_Source\PSoC5/USBFS_1.c ****         #if (USBFS_1_EP_MANAGEMENT_DMA_MANUAL)
1888:.\Generated_Source\PSoC5/USBFS_1.c ****             /* IN endpoint buffer will be fully loaded by DMA shortly. */
1889:.\Generated_Source\PSoC5/USBFS_1.c ****             USBFS_1_EP[epNumber].apiEpState = USBFS_1_NO_EVENT_PENDING;
1890:.\Generated_Source\PSoC5/USBFS_1.c **** 
1891:.\Generated_Source\PSoC5/USBFS_1.c ****             if ((pData != NULL) && (length > 0u))
1892:.\Generated_Source\PSoC5/USBFS_1.c ****             {
1893:.\Generated_Source\PSoC5/USBFS_1.c ****                 uint32 channelNum = (uint32) USBFS_1_DmaChan[epNumber];
1894:.\Generated_Source\PSoC5/USBFS_1.c **** 
1895:.\Generated_Source\PSoC5/USBFS_1.c ****                 /* Disable DMA channel: start configuration. */
1896:.\Generated_Source\PSoC5/USBFS_1.c ****                 USBFS_1_CyDmaChDisable(channelNum);
1897:.\Generated_Source\PSoC5/USBFS_1.c **** 
1898:.\Generated_Source\PSoC5/USBFS_1.c ****                 /* Configure source and destination. */
1899:.\Generated_Source\PSoC5/USBFS_1.c ****                 USBFS_1_CyDmaSetSrcAddress(channelNum, USBFS_1_DMA_DESCR0, (void*) pData);
1900:.\Generated_Source\PSoC5/USBFS_1.c ****                 USBFS_1_CyDmaSetDstAddress(channelNum, USBFS_1_DMA_DESCR0, (void*) &USBFS_1_ARB_EP1
1901:.\Generated_Source\PSoC5/USBFS_1.c **** 
1902:.\Generated_Source\PSoC5/USBFS_1.c ****                 /* Configure DMA descriptor. */
1903:.\Generated_Source\PSoC5/USBFS_1.c ****                 length = (length >> 1u) - 1u;
1904:.\Generated_Source\PSoC5/USBFS_1.c ****                 USBFS_1_CyDmaSetConfiguration(channelNum, USBFS_1_DMA_DESCR0, USBFS_1_DMA_COMMON_CF
1905:.\Generated_Source\PSoC5/USBFS_1.c ****                                                         CYDMA_HALFWORD | CYDMA_ELEMENT_WORD | CYDMA
1906:.\Generated_Source\PSoC5/USBFS_1.c **** 
1907:.\Generated_Source\PSoC5/USBFS_1.c ****                 /* Validate descriptor to execute on following DMA request. */
1908:.\Generated_Source\PSoC5/USBFS_1.c ****                 USBFS_1_CyDmaValidateDescriptor(channelNum, USBFS_1_DMA_DESCR0);
1909:.\Generated_Source\PSoC5/USBFS_1.c **** 
1910:.\Generated_Source\PSoC5/USBFS_1.c ****                 /* Enable DMA channel: configuration complete. */
1911:.\Generated_Source\PSoC5/USBFS_1.c ****                 USBFS_1_CyDmaChEnable(channelNum);
1912:.\Generated_Source\PSoC5/USBFS_1.c **** 
1913:.\Generated_Source\PSoC5/USBFS_1.c ****                 /* Generate DMA request. */
1914:.\Generated_Source\PSoC5/USBFS_1.c ****                 USBFS_1_ARB_EP_BASE.arbEp[epNumber].epCfg |=  (uint32)  USBFS_1_ARB_EPX_CFG_DMA_REQ
ARM GAS  C:\Users\LUKASC~1\AppData\Local\Temp\ccX4OJiL.s 			page 59


1915:.\Generated_Source\PSoC5/USBFS_1.c ****                 USBFS_1_ARB_EP_BASE.arbEp[epNumber].epCfg &=  (uint32) ~USBFS_1_ARB_EPX_CFG_DMA_REQ
1916:.\Generated_Source\PSoC5/USBFS_1.c **** 
1917:.\Generated_Source\PSoC5/USBFS_1.c ****                 /* IN endpoint will be armed in ARB_ISR(source: IN_BUF_FULL) after first DMA transf
1918:.\Generated_Source\PSoC5/USBFS_1.c ****             }
1919:.\Generated_Source\PSoC5/USBFS_1.c ****             else
1920:.\Generated_Source\PSoC5/USBFS_1.c ****             {
1921:.\Generated_Source\PSoC5/USBFS_1.c ****                 /* When zero-length packet: arm IN endpoint directly. */
1922:.\Generated_Source\PSoC5/USBFS_1.c ****                 USBFS_1_SIE_EP_BASE.sieEp[epNumber].epCr0 = USBFS_1_EP[epNumber].epMode;
1923:.\Generated_Source\PSoC5/USBFS_1.c ****             }
1924:.\Generated_Source\PSoC5/USBFS_1.c ****         #endif /* (USBFS_1_EP_MANAGEMENT_DMA_MANUAL) */
1925:.\Generated_Source\PSoC5/USBFS_1.c **** 
1926:.\Generated_Source\PSoC5/USBFS_1.c ****         #if (USBFS_1_EP_MANAGEMENT_DMA_AUTO)
1927:.\Generated_Source\PSoC5/USBFS_1.c ****             if (pData != NULL)
1928:.\Generated_Source\PSoC5/USBFS_1.c ****             {
1929:.\Generated_Source\PSoC5/USBFS_1.c ****                 uint32 channelNum = (uint32) USBFS_1_DmaChan[epNumber];
1930:.\Generated_Source\PSoC5/USBFS_1.c **** 
1931:.\Generated_Source\PSoC5/USBFS_1.c ****                 /* Store address of buffer. */
1932:.\Generated_Source\PSoC5/USBFS_1.c ****                 USBFS_1_DmaEpBufferAddrBackup[epNumber] = (uint32) pData;
1933:.\Generated_Source\PSoC5/USBFS_1.c **** 
1934:.\Generated_Source\PSoC5/USBFS_1.c ****                 /* Disable DMA channel: start configuration. */
1935:.\Generated_Source\PSoC5/USBFS_1.c ****                 USBFS_1_CyDmaChDisable(channelNum);
1936:.\Generated_Source\PSoC5/USBFS_1.c **** 
1937:.\Generated_Source\PSoC5/USBFS_1.c ****                 /* Set destination address. */
1938:.\Generated_Source\PSoC5/USBFS_1.c ****                 USBFS_1_CyDmaSetDstAddress(channelNum, USBFS_1_DMA_DESCR0, (void*) &USBFS_1_ARB_EP1
1939:.\Generated_Source\PSoC5/USBFS_1.c ****                 USBFS_1_CyDmaSetDstAddress(channelNum, USBFS_1_DMA_DESCR1, (void*) &USBFS_1_ARB_EP1
1940:.\Generated_Source\PSoC5/USBFS_1.c **** 
1941:.\Generated_Source\PSoC5/USBFS_1.c ****                 /* Configure DMA descriptor. */
1942:.\Generated_Source\PSoC5/USBFS_1.c ****                 USBFS_1_CyDmaSetConfiguration(channelNum, USBFS_1_DMA_DESCR0, USBFS_1_DMA_COMMON_CF
1943:.\Generated_Source\PSoC5/USBFS_1.c ****                                                         CYDMA_HALFWORD | CYDMA_ELEMENT_WORD | CYDMA
1944:.\Generated_Source\PSoC5/USBFS_1.c **** 
1945:.\Generated_Source\PSoC5/USBFS_1.c ****                 /* Configure DMA descriptor. */
1946:.\Generated_Source\PSoC5/USBFS_1.c ****                 USBFS_1_CyDmaSetConfiguration(channelNum, USBFS_1_DMA_DESCR1, USBFS_1_DMA_COMMON_CF
1947:.\Generated_Source\PSoC5/USBFS_1.c ****                                                         CYDMA_HALFWORD | CYDMA_ELEMENT_WORD | CYDMA
1948:.\Generated_Source\PSoC5/USBFS_1.c **** 
1949:.\Generated_Source\PSoC5/USBFS_1.c ****                 /* Enable interrupt from DMA channel. */
1950:.\Generated_Source\PSoC5/USBFS_1.c ****                 USBFS_1_CyDmaSetInterruptMask(channelNum);
1951:.\Generated_Source\PSoC5/USBFS_1.c **** 
1952:.\Generated_Source\PSoC5/USBFS_1.c ****                 /* Validate descriptor 1. It will not be invalided during operation. */
1953:.\Generated_Source\PSoC5/USBFS_1.c ****                 USBFS_1_CyDmaValidateDescriptor(channelNum, USBFS_1_DMA_DESCR1);
1954:.\Generated_Source\PSoC5/USBFS_1.c **** 
1955:.\Generated_Source\PSoC5/USBFS_1.c ****                 /* Enable DMA channel: configuration complete. */
1956:.\Generated_Source\PSoC5/USBFS_1.c ****                 USBFS_1_CyDmaChEnable(channelNum);
1957:.\Generated_Source\PSoC5/USBFS_1.c ****             }
1958:.\Generated_Source\PSoC5/USBFS_1.c ****             else
1959:.\Generated_Source\PSoC5/USBFS_1.c ****             {
1960:.\Generated_Source\PSoC5/USBFS_1.c ****                 /* IN endpoint buffer (32 bytes) will shortly be preloaded by DMA. */
1961:.\Generated_Source\PSoC5/USBFS_1.c ****                 USBFS_1_EP[epNumber].apiEpState = USBFS_1_NO_EVENT_PENDING;
1962:.\Generated_Source\PSoC5/USBFS_1.c **** 
1963:.\Generated_Source\PSoC5/USBFS_1.c ****                 if (length > 0u)
1964:.\Generated_Source\PSoC5/USBFS_1.c ****                 {
1965:.\Generated_Source\PSoC5/USBFS_1.c ****                     uint32 lengthDescr0, lengthDescr1;
1966:.\Generated_Source\PSoC5/USBFS_1.c ****                     uint32 channelNum = (uint32) USBFS_1_DmaChan[epNumber];
1967:.\Generated_Source\PSoC5/USBFS_1.c **** 
1968:.\Generated_Source\PSoC5/USBFS_1.c ****                     /* Get number of full bursts. */
1969:.\Generated_Source\PSoC5/USBFS_1.c ****                     USBFS_1_DmaEpBurstCnt[epNumber] = (uint8) (length / USBFS_1_DMA_BYTES_PER_BURST
1970:.\Generated_Source\PSoC5/USBFS_1.c **** 
1971:.\Generated_Source\PSoC5/USBFS_1.c ****                     /* Get number of elements in the last burst. */
ARM GAS  C:\Users\LUKASC~1\AppData\Local\Temp\ccX4OJiL.s 			page 60


1972:.\Generated_Source\PSoC5/USBFS_1.c ****                     USBFS_1_DmaEpLastBurstEl[epNumber] = (uint8) (length % USBFS_1_DMA_BYTES_PER_BU
1973:.\Generated_Source\PSoC5/USBFS_1.c **** 
1974:.\Generated_Source\PSoC5/USBFS_1.c ****                     /* Get total number of bursts. */
1975:.\Generated_Source\PSoC5/USBFS_1.c ****                     USBFS_1_DmaEpBurstCnt[epNumber] += (0u != USBFS_1_DmaEpLastBurstEl[epNumber]) ?
1976:.\Generated_Source\PSoC5/USBFS_1.c **** 
1977:.\Generated_Source\PSoC5/USBFS_1.c ****                     /* Adjust number of data elements transferred in last burst. */
1978:.\Generated_Source\PSoC5/USBFS_1.c ****                     USBFS_1_DmaEpLastBurstEl[epNumber] = (0u != USBFS_1_DmaEpLastBurstEl[epNumber])
1979:.\Generated_Source\PSoC5/USBFS_1.c ****                                                                           ((USBFS_1_DmaEpLastBurstE
1980:.\Generated_Source\PSoC5/USBFS_1.c ****                                                                            (USBFS_1_DMA_HALFWORDS_P
1981:.\Generated_Source\PSoC5/USBFS_1.c **** 
1982:.\Generated_Source\PSoC5/USBFS_1.c ****                     /* Get number of data elements to transfer for descriptor 0 and 1. */
1983:.\Generated_Source\PSoC5/USBFS_1.c ****                     lengthDescr0 = (1u == USBFS_1_DmaEpBurstCnt[epNumber]) ? USBFS_1_DmaEpLastBurst
1984:.\Generated_Source\PSoC5/USBFS_1.c ****                     lengthDescr1 = (2u == USBFS_1_DmaEpBurstCnt[epNumber]) ? USBFS_1_DmaEpLastBurst
1985:.\Generated_Source\PSoC5/USBFS_1.c **** 
1986:.\Generated_Source\PSoC5/USBFS_1.c ****                     /* Mark which descriptor is last one to execute. */
1987:.\Generated_Source\PSoC5/USBFS_1.c ****                     USBFS_1_DmaEpLastBurstEl[epNumber] |= (0u != (USBFS_1_DmaEpBurstCnt[epNumber] &
1988:.\Generated_Source\PSoC5/USBFS_1.c ****                                                                             USBFS_1_DMA_DESCR0_MASK
1989:.\Generated_Source\PSoC5/USBFS_1.c **** 
1990:.\Generated_Source\PSoC5/USBFS_1.c ****                     /* Adjust burst counter taking to account: 2 valid descriptors and interrupt tr
1991:.\Generated_Source\PSoC5/USBFS_1.c ****                     USBFS_1_DmaEpBurstCnt[epNumber] = USBFS_1_DMA_GET_BURST_CNT(USBFS_1_DmaEpBurstC
1992:.\Generated_Source\PSoC5/USBFS_1.c **** 
1993:.\Generated_Source\PSoC5/USBFS_1.c ****                     /* Restore DMA settings for current transfer. */
1994:.\Generated_Source\PSoC5/USBFS_1.c ****                     USBFS_1_CyDmaChDisable(channelNum);
1995:.\Generated_Source\PSoC5/USBFS_1.c **** 
1996:.\Generated_Source\PSoC5/USBFS_1.c ****                     /* Restore destination address for input endpoint. */
1997:.\Generated_Source\PSoC5/USBFS_1.c ****                     USBFS_1_CyDmaSetSrcAddress(channelNum, USBFS_1_DMA_DESCR0, (void*) ((uint32) US
1998:.\Generated_Source\PSoC5/USBFS_1.c ****                     USBFS_1_CyDmaSetSrcAddress(channelNum, USBFS_1_DMA_DESCR1, (void*) ((uint32) US
1999:.\Generated_Source\PSoC5/USBFS_1.c ****                                                                                                    
2000:.\Generated_Source\PSoC5/USBFS_1.c **** 
2001:.\Generated_Source\PSoC5/USBFS_1.c ****                     /* Set number of elements to transfer. */
2002:.\Generated_Source\PSoC5/USBFS_1.c ****                     USBFS_1_CyDmaSetNumDataElements(channelNum, USBFS_1_DMA_DESCR0, lengthDescr0);
2003:.\Generated_Source\PSoC5/USBFS_1.c ****                     USBFS_1_CyDmaSetNumDataElements(channelNum, USBFS_1_DMA_DESCR1, lengthDescr1);
2004:.\Generated_Source\PSoC5/USBFS_1.c **** 
2005:.\Generated_Source\PSoC5/USBFS_1.c ****                     /* Validate descriptor 0 and command to start with it. */
2006:.\Generated_Source\PSoC5/USBFS_1.c ****                     USBFS_1_CyDmaValidateDescriptor(channelNum, USBFS_1_DMA_DESCR0);
2007:.\Generated_Source\PSoC5/USBFS_1.c ****                     USBFS_1_CyDmaSetDescriptor0Next(channelNum);
2008:.\Generated_Source\PSoC5/USBFS_1.c **** 
2009:.\Generated_Source\PSoC5/USBFS_1.c ****                     /* Enable DMA channel: configuration complete. */
2010:.\Generated_Source\PSoC5/USBFS_1.c ****                     USBFS_1_CyDmaChEnable(channelNum);
2011:.\Generated_Source\PSoC5/USBFS_1.c **** 
2012:.\Generated_Source\PSoC5/USBFS_1.c ****                 #if !defined (USBFS_1_MANUAL_IN_EP_ARM)
2013:.\Generated_Source\PSoC5/USBFS_1.c ****                     /* Set IN data ready to generate DMA request to load data into endpoint buffer.
2014:.\Generated_Source\PSoC5/USBFS_1.c ****                     USBFS_1_ARB_EP_BASE.arbEp[epNumber].epCfg |= USBFS_1_ARB_EPX_CFG_IN_DATA_RDY;
2015:.\Generated_Source\PSoC5/USBFS_1.c ****                 #endif  /* (USBFS_1_MANUAL_IN_EP_ARM) */
2016:.\Generated_Source\PSoC5/USBFS_1.c **** 
2017:.\Generated_Source\PSoC5/USBFS_1.c ****                     /* IN endpoint will be armed in ARB_ISR(source: IN_BUF_FULL) after first DMA tr
2018:.\Generated_Source\PSoC5/USBFS_1.c ****                 }
2019:.\Generated_Source\PSoC5/USBFS_1.c ****                 else
2020:.\Generated_Source\PSoC5/USBFS_1.c ****                 {
2021:.\Generated_Source\PSoC5/USBFS_1.c ****                     /* When zero-length packet: arm IN endpoint directly. */
2022:.\Generated_Source\PSoC5/USBFS_1.c ****                     USBFS_1_SIE_EP_BASE.sieEp[epNumber].epCr0 = USBFS_1_EP[epNumber].epMode;
2023:.\Generated_Source\PSoC5/USBFS_1.c ****                 }
2024:.\Generated_Source\PSoC5/USBFS_1.c ****             }
2025:.\Generated_Source\PSoC5/USBFS_1.c ****         #endif /* (USBFS_1_EP_MANAGEMENT_DMA_AUTO) */
2026:.\Generated_Source\PSoC5/USBFS_1.c ****     #endif /* (USBFS_1_EP_MANAGEMENT_MANUAL) */
2027:.\Generated_Source\PSoC5/USBFS_1.c ****     }
2028:.\Generated_Source\PSoC5/USBFS_1.c **** }
ARM GAS  C:\Users\LUKASC~1\AppData\Local\Temp\ccX4OJiL.s 			page 61


2029:.\Generated_Source\PSoC5/USBFS_1.c **** 
2030:.\Generated_Source\PSoC5/USBFS_1.c **** 
2031:.\Generated_Source\PSoC5/USBFS_1.c **** /*******************************************************************************
2032:.\Generated_Source\PSoC5/USBFS_1.c **** * Function Name: USBFS_1_ReadOutEP16
2033:.\Generated_Source\PSoC5/USBFS_1.c **** ****************************************************************************//**
2034:.\Generated_Source\PSoC5/USBFS_1.c **** *
2035:.\Generated_Source\PSoC5/USBFS_1.c **** *   This function performs different functionality depending on the Component’s
2036:.\Generated_Source\PSoC5/USBFS_1.c **** *   configured Endpoint Buffer Management. This parameter is defined in the
2037:.\Generated_Source\PSoC5/USBFS_1.c **** *   Descriptor Root in Component Configure window.
2038:.\Generated_Source\PSoC5/USBFS_1.c **** *
2039:.\Generated_Source\PSoC5/USBFS_1.c **** *   *Manual (Static/Dynamic Allocation):*
2040:.\Generated_Source\PSoC5/USBFS_1.c **** *   This function moves the specified number of bytes from endpoint buffer to
2041:.\Generated_Source\PSoC5/USBFS_1.c **** *   system RAM. The number of bytes actually transferred from endpoint buffer to
2042:.\Generated_Source\PSoC5/USBFS_1.c **** *   system RAM is the lesser of the actual number of bytes sent by the host or
2043:.\Generated_Source\PSoC5/USBFS_1.c **** *   the number of bytes requested by the length parameter.
2044:.\Generated_Source\PSoC5/USBFS_1.c **** *
2045:.\Generated_Source\PSoC5/USBFS_1.c **** *   *DMA with Manual Buffer Management:*
2046:.\Generated_Source\PSoC5/USBFS_1.c **** *   Configure DMA to transfer data from endpoint buffer to system RAM. Generate
2047:.\Generated_Source\PSoC5/USBFS_1.c **** *   a DMA request. The firmware must wait until the DMA completes the data
2048:.\Generated_Source\PSoC5/USBFS_1.c **** *   transfer after calling the USBFS_1_ReadOutEP() API. For example,
2049:.\Generated_Source\PSoC5/USBFS_1.c **** *   by checking EPstate:
2050:.\Generated_Source\PSoC5/USBFS_1.c **** *
2051:.\Generated_Source\PSoC5/USBFS_1.c **** *   \snippet /USBFS_sut_02.cydsn/main.c checking EPstatey
2052:.\Generated_Source\PSoC5/USBFS_1.c **** *
2053:.\Generated_Source\PSoC5/USBFS_1.c **** *   The USBFS_EnableOutEP() has to be called to allow host to write data into
2054:.\Generated_Source\PSoC5/USBFS_1.c **** *   the endpoint buffer after DMA has completed transfer data from OUT endpoint
2055:.\Generated_Source\PSoC5/USBFS_1.c **** *   buffer to SRAM.
2056:.\Generated_Source\PSoC5/USBFS_1.c **** *
2057:.\Generated_Source\PSoC5/USBFS_1.c **** *   *DMA with Automatic Buffer Management:*
2058:.\Generated_Source\PSoC5/USBFS_1.c **** *   Configure DMA. This is required only once and automatically generates DMA
2059:.\Generated_Source\PSoC5/USBFS_1.c **** *   requests as data arrives
2060:.\Generated_Source\PSoC5/USBFS_1.c **** *
2061:.\Generated_Source\PSoC5/USBFS_1.c **** *  \param epNumber: Contains the data endpoint number.
2062:.\Generated_Source\PSoC5/USBFS_1.c **** *         Valid values are between 1 and 8.
2063:.\Generated_Source\PSoC5/USBFS_1.c **** *  \param pData: A pointer to a data array into which the data for the endpoint
2064:.\Generated_Source\PSoC5/USBFS_1.c **** *         space is copied. It shall be ensured that this pointer address is
2065:.\Generated_Source\PSoC5/USBFS_1.c **** *         even to ensure the 16-bit transfer is aligned to even address. Else,
2066:.\Generated_Source\PSoC5/USBFS_1.c **** *         a hard fault condition can occur.
2067:.\Generated_Source\PSoC5/USBFS_1.c **** *  \param length: The number of bytes to transfer from the USB Out endpoint and
2068:.\Generated_Source\PSoC5/USBFS_1.c **** *         loads it into data array. Valid values are between 0 and 1023. The
2069:.\Generated_Source\PSoC5/USBFS_1.c **** *         function moves fewer than the requested number of bytes if the host
2070:.\Generated_Source\PSoC5/USBFS_1.c **** *         sends fewer bytes than requested.
2071:.\Generated_Source\PSoC5/USBFS_1.c **** *
2072:.\Generated_Source\PSoC5/USBFS_1.c **** * \return
2073:.\Generated_Source\PSoC5/USBFS_1.c **** *  Number of bytes received, 0 for an invalid endpoint.
2074:.\Generated_Source\PSoC5/USBFS_1.c **** *
2075:.\Generated_Source\PSoC5/USBFS_1.c **** * \reentrant
2076:.\Generated_Source\PSoC5/USBFS_1.c **** *  No.
2077:.\Generated_Source\PSoC5/USBFS_1.c **** *
2078:.\Generated_Source\PSoC5/USBFS_1.c **** *******************************************************************************/
2079:.\Generated_Source\PSoC5/USBFS_1.c **** uint16 USBFS_1_ReadOutEP16(uint8 epNumber, uint8 pData[], uint16 length)
2080:.\Generated_Source\PSoC5/USBFS_1.c **** {
2081:.\Generated_Source\PSoC5/USBFS_1.c ****     uint32 adjLength;
2082:.\Generated_Source\PSoC5/USBFS_1.c **** 
2083:.\Generated_Source\PSoC5/USBFS_1.c ****     /* Check array alignment on half-word boundary */
2084:.\Generated_Source\PSoC5/USBFS_1.c ****     CYASSERT(0u == (((uint32) pData) & 0x01u));
2085:.\Generated_Source\PSoC5/USBFS_1.c **** 
ARM GAS  C:\Users\LUKASC~1\AppData\Local\Temp\ccX4OJiL.s 			page 62


2086:.\Generated_Source\PSoC5/USBFS_1.c ****     if ((pData != NULL) && (epNumber > USBFS_1_EP0) && (epNumber < USBFS_1_MAX_EP))
2087:.\Generated_Source\PSoC5/USBFS_1.c ****     {
2088:.\Generated_Source\PSoC5/USBFS_1.c ****     #if (!USBFS_1_EP_MANAGEMENT_DMA_AUTO)
2089:.\Generated_Source\PSoC5/USBFS_1.c ****         /* Adjust requested length to available data. */
2090:.\Generated_Source\PSoC5/USBFS_1.c ****         length = (length > USBFS_1_GetEPCount(epNumber)) ? USBFS_1_GetEPCount(epNumber) : length;
2091:.\Generated_Source\PSoC5/USBFS_1.c ****     #endif /* (!USBFS_1_EP_MANAGEMENT_DMA_AUTO) */
2092:.\Generated_Source\PSoC5/USBFS_1.c **** 
2093:.\Generated_Source\PSoC5/USBFS_1.c ****     /* Adjust requested length: 2 bytes are handled at one data register access. */
2094:.\Generated_Source\PSoC5/USBFS_1.c ****     adjLength =  length + ((uint32)length & 1u);
2095:.\Generated_Source\PSoC5/USBFS_1.c **** 
2096:.\Generated_Source\PSoC5/USBFS_1.c ****     #if (USBFS_1_EP_MANAGEMENT_MANUAL)
2097:.\Generated_Source\PSoC5/USBFS_1.c ****         {
2098:.\Generated_Source\PSoC5/USBFS_1.c ****             /* Convert uint8 array to uint16. */
2099:.\Generated_Source\PSoC5/USBFS_1.c ****             uint16 *dataBuf = (uint16 *) pData;
2100:.\Generated_Source\PSoC5/USBFS_1.c **** 
2101:.\Generated_Source\PSoC5/USBFS_1.c ****             /* Copy data using 16-bits arbiter data register. */
2102:.\Generated_Source\PSoC5/USBFS_1.c ****             uint16 i;
2103:.\Generated_Source\PSoC5/USBFS_1.c ****             for (i = 0u; i < (adjLength >> 1u); ++i)
2104:.\Generated_Source\PSoC5/USBFS_1.c ****             {
2105:.\Generated_Source\PSoC5/USBFS_1.c ****                 dataBuf[i] = (uint16) USBFS_1_ARB_EP16_BASE.arbEp[epNumber].rwDr16;
2106:.\Generated_Source\PSoC5/USBFS_1.c ****             }
2107:.\Generated_Source\PSoC5/USBFS_1.c ****         }
2108:.\Generated_Source\PSoC5/USBFS_1.c **** 
2109:.\Generated_Source\PSoC5/USBFS_1.c ****         /* Arm OUT endpoint after data has been read from endpoint buffer. */
2110:.\Generated_Source\PSoC5/USBFS_1.c ****         USBFS_1_EnableOutEP(epNumber);
2111:.\Generated_Source\PSoC5/USBFS_1.c ****     #else
2112:.\Generated_Source\PSoC5/USBFS_1.c **** 
2113:.\Generated_Source\PSoC5/USBFS_1.c ****         #if (USBFS_1_EP_MANAGEMENT_DMA_MANUAL)
2114:.\Generated_Source\PSoC5/USBFS_1.c ****         {
2115:.\Generated_Source\PSoC5/USBFS_1.c ****             uint32 channelNum = (uint32) USBFS_1_DmaChan[epNumber];
2116:.\Generated_Source\PSoC5/USBFS_1.c **** 
2117:.\Generated_Source\PSoC5/USBFS_1.c ****             /* Disable DMA channel: start configuration. */
2118:.\Generated_Source\PSoC5/USBFS_1.c ****             USBFS_1_CyDmaChDisable(channelNum);
2119:.\Generated_Source\PSoC5/USBFS_1.c **** 
2120:.\Generated_Source\PSoC5/USBFS_1.c ****             /* Configure source and destination. */
2121:.\Generated_Source\PSoC5/USBFS_1.c ****             USBFS_1_CyDmaSetSrcAddress(channelNum, USBFS_1_DMA_DESCR0, (void*) &USBFS_1_ARB_EP16_BA
2122:.\Generated_Source\PSoC5/USBFS_1.c ****             USBFS_1_CyDmaSetDstAddress(channelNum, USBFS_1_DMA_DESCR0, (void*) pData);
2123:.\Generated_Source\PSoC5/USBFS_1.c **** 
2124:.\Generated_Source\PSoC5/USBFS_1.c ****             /* Configure DMA descriptor. */
2125:.\Generated_Source\PSoC5/USBFS_1.c ****             USBFS_1_CyDmaSetConfiguration(channelNum, USBFS_1_DMA_DESCR0, USBFS_1_DMA_COMMON_CFG | 
2126:.\Generated_Source\PSoC5/USBFS_1.c ****                                                     CYDMA_HALFWORD | CYDMA_WORD_ELEMENT | CYDMA_INC
2127:.\Generated_Source\PSoC5/USBFS_1.c **** 
2128:.\Generated_Source\PSoC5/USBFS_1.c ****             /* Validate descriptor to execute on following DMA request. */
2129:.\Generated_Source\PSoC5/USBFS_1.c ****             USBFS_1_CyDmaValidateDescriptor(channelNum, USBFS_1_DMA_DESCR0);
2130:.\Generated_Source\PSoC5/USBFS_1.c **** 
2131:.\Generated_Source\PSoC5/USBFS_1.c ****             /* Enable DMA channel: configuration complete. */
2132:.\Generated_Source\PSoC5/USBFS_1.c ****             USBFS_1_CyDmaChEnable(channelNum);
2133:.\Generated_Source\PSoC5/USBFS_1.c **** 
2134:.\Generated_Source\PSoC5/USBFS_1.c ****             /* Generate DMA request. */
2135:.\Generated_Source\PSoC5/USBFS_1.c ****             USBFS_1_ARB_EP_BASE.arbEp[epNumber].epCfg |=  (uint32)  USBFS_1_ARB_EPX_CFG_DMA_REQ;
2136:.\Generated_Source\PSoC5/USBFS_1.c ****             USBFS_1_ARB_EP_BASE.arbEp[epNumber].epCfg &=  (uint32) ~USBFS_1_ARB_EPX_CFG_DMA_REQ;
2137:.\Generated_Source\PSoC5/USBFS_1.c **** 
2138:.\Generated_Source\PSoC5/USBFS_1.c ****             /* OUT endpoint has to be armed again by user when DMA transfers have been completed.
2139:.\Generated_Source\PSoC5/USBFS_1.c ****             * NO_EVENT_PENDING: notifies that data has been copied from endpoint buffer.
2140:.\Generated_Source\PSoC5/USBFS_1.c ****             */
2141:.\Generated_Source\PSoC5/USBFS_1.c ****         }
2142:.\Generated_Source\PSoC5/USBFS_1.c ****         #endif /* (USBFS_1_EP_MANAGEMENT_DMA_MANUAL) */
ARM GAS  C:\Users\LUKASC~1\AppData\Local\Temp\ccX4OJiL.s 			page 63


2143:.\Generated_Source\PSoC5/USBFS_1.c **** 
2144:.\Generated_Source\PSoC5/USBFS_1.c ****         #if (USBFS_1_EP_MANAGEMENT_DMA_AUTO)
2145:.\Generated_Source\PSoC5/USBFS_1.c ****         {
2146:.\Generated_Source\PSoC5/USBFS_1.c ****             uint32 lengthDescr0, lengthDescr1;
2147:.\Generated_Source\PSoC5/USBFS_1.c ****             uint32 channelNum = (uint32) USBFS_1_DmaChan[epNumber];
2148:.\Generated_Source\PSoC5/USBFS_1.c **** 
2149:.\Generated_Source\PSoC5/USBFS_1.c ****             /* Get number of full bursts. */
2150:.\Generated_Source\PSoC5/USBFS_1.c ****             USBFS_1_DmaEpBurstCnt[epNumber] = (uint8) (adjLength / USBFS_1_DMA_BYTES_PER_BURST);
2151:.\Generated_Source\PSoC5/USBFS_1.c **** 
2152:.\Generated_Source\PSoC5/USBFS_1.c ****             /* Get number of elements in last burst. */
2153:.\Generated_Source\PSoC5/USBFS_1.c ****             USBFS_1_DmaEpLastBurstEl[epNumber] = (uint8) (adjLength % USBFS_1_DMA_BYTES_PER_BURST);
2154:.\Generated_Source\PSoC5/USBFS_1.c **** 
2155:.\Generated_Source\PSoC5/USBFS_1.c ****             /* Get total number of bursts. */
2156:.\Generated_Source\PSoC5/USBFS_1.c ****             USBFS_1_DmaEpBurstCnt[epNumber] += (0u != USBFS_1_DmaEpLastBurstEl[epNumber]) ? 1u : 0u
2157:.\Generated_Source\PSoC5/USBFS_1.c **** 
2158:.\Generated_Source\PSoC5/USBFS_1.c ****             /* Adjust number of data elements transferred in last burst. */
2159:.\Generated_Source\PSoC5/USBFS_1.c ****             USBFS_1_DmaEpLastBurstEl[epNumber] = (0u != USBFS_1_DmaEpLastBurstEl[epNumber]) ?
2160:.\Generated_Source\PSoC5/USBFS_1.c ****                                                                   ((USBFS_1_DmaEpLastBurstEl[epNumb
2161:.\Generated_Source\PSoC5/USBFS_1.c ****                                                                    (USBFS_1_DMA_HALFWORDS_PER_BURST
2162:.\Generated_Source\PSoC5/USBFS_1.c **** 
2163:.\Generated_Source\PSoC5/USBFS_1.c ****             /* Get number of data elements to transfer for descriptor 0 and 1. */
2164:.\Generated_Source\PSoC5/USBFS_1.c ****             lengthDescr0 = (1u == USBFS_1_DmaEpBurstCnt[epNumber]) ? USBFS_1_DmaEpLastBurstEl[epNum
2165:.\Generated_Source\PSoC5/USBFS_1.c ****             lengthDescr1 = (2u == USBFS_1_DmaEpBurstCnt[epNumber]) ? USBFS_1_DmaEpLastBurstEl[epNum
2166:.\Generated_Source\PSoC5/USBFS_1.c **** 
2167:.\Generated_Source\PSoC5/USBFS_1.c ****             /* Mark last descriptor to be executed. */
2168:.\Generated_Source\PSoC5/USBFS_1.c ****             USBFS_1_DmaEpLastBurstEl[epNumber] |= (0u != (USBFS_1_DmaEpBurstCnt[epNumber] & 0x1u)) 
2169:.\Generated_Source\PSoC5/USBFS_1.c ****                                                                     USBFS_1_DMA_DESCR0_MASK : USBFS
2170:.\Generated_Source\PSoC5/USBFS_1.c **** 
2171:.\Generated_Source\PSoC5/USBFS_1.c ****             /* Mark if revert number of data elements in descriptor after transfer completion. */
2172:.\Generated_Source\PSoC5/USBFS_1.c ****             USBFS_1_DmaEpLastBurstEl[epNumber] |= (USBFS_1_DmaEpBurstCnt[epNumber] > 2u) ? USBFS_1_
2173:.\Generated_Source\PSoC5/USBFS_1.c **** 
2174:.\Generated_Source\PSoC5/USBFS_1.c ****             /* Mark that 16-bits access to data register is performed. */
2175:.\Generated_Source\PSoC5/USBFS_1.c ****             USBFS_1_DmaEpLastBurstEl[epNumber] |= USBFS_1_DMA_DESCR_16BITS;
2176:.\Generated_Source\PSoC5/USBFS_1.c **** 
2177:.\Generated_Source\PSoC5/USBFS_1.c ****             /* Adjust burst counter taking to account: 2 valid descriptors and interrupt trigger af
2178:.\Generated_Source\PSoC5/USBFS_1.c ****             USBFS_1_DmaEpBurstCnt[epNumber] = USBFS_1_DMA_GET_BURST_CNT(USBFS_1_DmaEpBurstCnt[epNum
2179:.\Generated_Source\PSoC5/USBFS_1.c **** 
2180:.\Generated_Source\PSoC5/USBFS_1.c ****             /* Store address of buffer and burst counter for endpoint. */
2181:.\Generated_Source\PSoC5/USBFS_1.c ****             USBFS_1_DmaEpBufferAddrBackup[epNumber] = (uint32) pData;
2182:.\Generated_Source\PSoC5/USBFS_1.c ****             USBFS_1_DmaEpBurstCntBackup[epNumber]   = USBFS_1_DmaEpBurstCnt[epNumber];
2183:.\Generated_Source\PSoC5/USBFS_1.c **** 
2184:.\Generated_Source\PSoC5/USBFS_1.c ****             /* Disable DMA channel: start configuration. */
2185:.\Generated_Source\PSoC5/USBFS_1.c ****             USBFS_1_CyDmaChDisable(channelNum);
2186:.\Generated_Source\PSoC5/USBFS_1.c **** 
2187:.\Generated_Source\PSoC5/USBFS_1.c ****             /* Set destination address. */
2188:.\Generated_Source\PSoC5/USBFS_1.c ****             USBFS_1_CyDmaSetSrcAddress(channelNum, USBFS_1_DMA_DESCR0, (void*) &USBFS_1_ARB_EP16_BA
2189:.\Generated_Source\PSoC5/USBFS_1.c ****             USBFS_1_CyDmaSetSrcAddress(channelNum, USBFS_1_DMA_DESCR1, (void*) &USBFS_1_ARB_EP16_BA
2190:.\Generated_Source\PSoC5/USBFS_1.c **** 
2191:.\Generated_Source\PSoC5/USBFS_1.c ****             USBFS_1_CyDmaSetDstAddress(channelNum, USBFS_1_DMA_DESCR0, (void*) ((uint32) pData));
2192:.\Generated_Source\PSoC5/USBFS_1.c ****             USBFS_1_CyDmaSetDstAddress(channelNum, USBFS_1_DMA_DESCR1, (void*) ((uint32) pData + US
2193:.\Generated_Source\PSoC5/USBFS_1.c **** 
2194:.\Generated_Source\PSoC5/USBFS_1.c ****             /* Configure DMA descriptor 0. */
2195:.\Generated_Source\PSoC5/USBFS_1.c ****             USBFS_1_CyDmaSetConfiguration(channelNum, USBFS_1_DMA_DESCR0, USBFS_1_DMA_COMMON_CFG  |
2196:.\Generated_Source\PSoC5/USBFS_1.c ****                                                     CYDMA_HALFWORD | CYDMA_WORD_ELEMENT | CYDMA_INC
2197:.\Generated_Source\PSoC5/USBFS_1.c **** 
2198:.\Generated_Source\PSoC5/USBFS_1.c ****             /* Configure DMA descriptor 1. */
2199:.\Generated_Source\PSoC5/USBFS_1.c ****             USBFS_1_CyDmaSetConfiguration(channelNum, USBFS_1_DMA_DESCR1, USBFS_1_DMA_COMMON_CFG  |
ARM GAS  C:\Users\LUKASC~1\AppData\Local\Temp\ccX4OJiL.s 			page 64


