ARM GAS  C:\Users\LUKASC~1\AppData\Local\Temp\ccX4OJiL.s 			page 1


   1              		.syntax unified
   2              		.cpu cortex-m3
   3              		.fpu softvfp
   4              		.eabi_attribute 20, 1
   5              		.eabi_attribute 21, 1
   6              		.eabi_attribute 23, 3
   7              		.eabi_attribute 24, 1
   8              		.eabi_attribute 25, 1
   9              		.eabi_attribute 26, 1
  10              		.eabi_attribute 30, 1
  11              		.eabi_attribute 34, 1
  12              		.eabi_attribute 18, 4
  13              		.thumb
  14              		.file	"USBFS_1.c"
  15              		.text
  16              	.Ltext0:
  17              		.cfi_sections	.debug_frame
  18              		.section	.text.USBFS_1_Init,"ax",%progbits
  19              		.align	2
  20              		.global	USBFS_1_Init
  21              		.thumb
  22              		.thumb_func
  23              		.type	USBFS_1_Init, %function
  24              	USBFS_1_Init:
  25              	.LFB1:
  26              		.file 1 ".\\Generated_Source\\PSoC5\\USBFS_1.c"
   1:.\Generated_Source\PSoC5/USBFS_1.c **** /***************************************************************************//**
   2:.\Generated_Source\PSoC5/USBFS_1.c **** * \file USBFS_1.c
   3:.\Generated_Source\PSoC5/USBFS_1.c **** * \version 3.0
   4:.\Generated_Source\PSoC5/USBFS_1.c **** *
   5:.\Generated_Source\PSoC5/USBFS_1.c **** * \brief
   6:.\Generated_Source\PSoC5/USBFS_1.c **** *  This file contains the global USBFS API functions.
   7:.\Generated_Source\PSoC5/USBFS_1.c **** *
   8:.\Generated_Source\PSoC5/USBFS_1.c **** * Note:
   9:.\Generated_Source\PSoC5/USBFS_1.c **** *  Many of the functions use an endpoint number. SRAM arrays are sized with 9
  10:.\Generated_Source\PSoC5/USBFS_1.c **** *  elements, so they are indexed directly by epNumber.  The SIE and ARB
  11:.\Generated_Source\PSoC5/USBFS_1.c **** *  registers are indexed by variations of epNumber - 1.
  12:.\Generated_Source\PSoC5/USBFS_1.c **** *
  13:.\Generated_Source\PSoC5/USBFS_1.c **** ********************************************************************************
  14:.\Generated_Source\PSoC5/USBFS_1.c **** * \copyright
  15:.\Generated_Source\PSoC5/USBFS_1.c **** * Copyright 2008-2015, Cypress Semiconductor Corporation.  All rights reserved.
  16:.\Generated_Source\PSoC5/USBFS_1.c **** * You may use this file only in accordance with the license, terms, conditions,
  17:.\Generated_Source\PSoC5/USBFS_1.c **** * disclaimers, and limitations in the end user license agreement accompanying
  18:.\Generated_Source\PSoC5/USBFS_1.c **** * the software package with which this file was provided.
  19:.\Generated_Source\PSoC5/USBFS_1.c **** *******************************************************************************/
  20:.\Generated_Source\PSoC5/USBFS_1.c **** 
  21:.\Generated_Source\PSoC5/USBFS_1.c **** #include "USBFS_1_pvt.h"
  22:.\Generated_Source\PSoC5/USBFS_1.c **** #include "USBFS_1_cydmac.h"
  23:.\Generated_Source\PSoC5/USBFS_1.c **** #include "USBFS_1_hid.h"
  24:.\Generated_Source\PSoC5/USBFS_1.c **** 
  25:.\Generated_Source\PSoC5/USBFS_1.c **** 
  26:.\Generated_Source\PSoC5/USBFS_1.c **** /***************************************
  27:.\Generated_Source\PSoC5/USBFS_1.c **** * Global data allocation
  28:.\Generated_Source\PSoC5/USBFS_1.c **** ***************************************/
  29:.\Generated_Source\PSoC5/USBFS_1.c **** 
  30:.\Generated_Source\PSoC5/USBFS_1.c **** /** Indicates whether the USBFS has been initialized. The variable is
  31:.\Generated_Source\PSoC5/USBFS_1.c **** * initialized to 0 after device reset and set to 1 the first time USBFS_Start()
ARM GAS  C:\Users\LUKASC~1\AppData\Local\Temp\ccX4OJiL.s 			page 2


  32:.\Generated_Source\PSoC5/USBFS_1.c **** * is called. This allows the Component to restart without reinitialization after
  33:.\Generated_Source\PSoC5/USBFS_1.c **** * the first call to the USBFS_Start() routine.
  34:.\Generated_Source\PSoC5/USBFS_1.c **** * If re-initialization of the Component is required, the variable should be set
  35:.\Generated_Source\PSoC5/USBFS_1.c **** * to 0 before the USBFS_Start() routine is called. Alternatively, the USBFS can
  36:.\Generated_Source\PSoC5/USBFS_1.c **** * be reinitialized by calling both USBFS_Init() and USBFS_InitComponent()
  37:.\Generated_Source\PSoC5/USBFS_1.c **** * functions.
  38:.\Generated_Source\PSoC5/USBFS_1.c **** */
  39:.\Generated_Source\PSoC5/USBFS_1.c **** uint8 USBFS_1_initVar = 0u;
  40:.\Generated_Source\PSoC5/USBFS_1.c **** 
  41:.\Generated_Source\PSoC5/USBFS_1.c **** #if (USBFS_1_EP_MANAGEMENT_DMA)
  42:.\Generated_Source\PSoC5/USBFS_1.c ****     #if (CY_PSOC4)
  43:.\Generated_Source\PSoC5/USBFS_1.c ****         static void USBFS_1_InitEpDma(void);
  44:.\Generated_Source\PSoC5/USBFS_1.c **** 
  45:.\Generated_Source\PSoC5/USBFS_1.c ****         /* DMA chanels assigend for endpoints. */
  46:.\Generated_Source\PSoC5/USBFS_1.c ****         const uint8 USBFS_1_DmaChan[USBFS_1_MAX_EP] =
  47:.\Generated_Source\PSoC5/USBFS_1.c ****         {
  48:.\Generated_Source\PSoC5/USBFS_1.c ****             0u,
  49:.\Generated_Source\PSoC5/USBFS_1.c ****             0u,
  50:.\Generated_Source\PSoC5/USBFS_1.c ****             (uint8) USBFS_1_ep2_dma_CHANNEL,
  51:.\Generated_Source\PSoC5/USBFS_1.c ****             0u,
  52:.\Generated_Source\PSoC5/USBFS_1.c ****             0u,
  53:.\Generated_Source\PSoC5/USBFS_1.c ****             0u,
  54:.\Generated_Source\PSoC5/USBFS_1.c ****             0u,
  55:.\Generated_Source\PSoC5/USBFS_1.c ****             0u,
  56:.\Generated_Source\PSoC5/USBFS_1.c ****             0u,
  57:.\Generated_Source\PSoC5/USBFS_1.c ****         };        
  58:.\Generated_Source\PSoC5/USBFS_1.c ****     #else
  59:.\Generated_Source\PSoC5/USBFS_1.c ****         /* DMA chanels assigend for endpoints. */
  60:.\Generated_Source\PSoC5/USBFS_1.c ****         uint8 USBFS_1_DmaChan[USBFS_1_MAX_EP];
  61:.\Generated_Source\PSoC5/USBFS_1.c ****         
  62:.\Generated_Source\PSoC5/USBFS_1.c ****         /* DMA TDs require for PSoC 3/5LP operation. */
  63:.\Generated_Source\PSoC5/USBFS_1.c ****         uint8 USBFS_1_DmaTd[USBFS_1_MAX_EP];
  64:.\Generated_Source\PSoC5/USBFS_1.c ****     #endif /* (CY_PSOC4) */
  65:.\Generated_Source\PSoC5/USBFS_1.c **** #endif /* (USBFS_1_EP_MANAGEMENT_DMA) */
  66:.\Generated_Source\PSoC5/USBFS_1.c **** 
  67:.\Generated_Source\PSoC5/USBFS_1.c **** #if (USBFS_1_EP_MANAGEMENT_DMA_AUTO)
  68:.\Generated_Source\PSoC5/USBFS_1.c **** #if (CY_PSOC4)
  69:.\Generated_Source\PSoC5/USBFS_1.c ****     /* Number of DMA bursts. */
  70:.\Generated_Source\PSoC5/USBFS_1.c ****     uint8  USBFS_1_DmaEpBurstCnt   [USBFS_1_MAX_EP];
  71:.\Generated_Source\PSoC5/USBFS_1.c ****     
  72:.\Generated_Source\PSoC5/USBFS_1.c ****     /* Number of bytes to transfer in last DMA burst. */
  73:.\Generated_Source\PSoC5/USBFS_1.c ****     uint8  USBFS_1_DmaEpLastBurstEl[USBFS_1_MAX_EP];
  74:.\Generated_Source\PSoC5/USBFS_1.c **** 
  75:.\Generated_Source\PSoC5/USBFS_1.c ****     /* Storage for arrays above. */
  76:.\Generated_Source\PSoC5/USBFS_1.c ****     uint8  USBFS_1_DmaEpBurstCntBackup  [USBFS_1_MAX_EP];
  77:.\Generated_Source\PSoC5/USBFS_1.c ****     uint32 USBFS_1_DmaEpBufferAddrBackup[USBFS_1_MAX_EP];
  78:.\Generated_Source\PSoC5/USBFS_1.c ****      
  79:.\Generated_Source\PSoC5/USBFS_1.c ****     /* DMA trigger mux output for usb.dma_req[0-7]. */
  80:.\Generated_Source\PSoC5/USBFS_1.c ****     const uint8 USBFS_1_DmaReqOut[USBFS_1_MAX_EP] =
  81:.\Generated_Source\PSoC5/USBFS_1.c ****     {
  82:.\Generated_Source\PSoC5/USBFS_1.c ****         0u,
  83:.\Generated_Source\PSoC5/USBFS_1.c ****         0u,
  84:.\Generated_Source\PSoC5/USBFS_1.c ****         USBFS_1_ep2_dma__TR_OUTPUT,
  85:.\Generated_Source\PSoC5/USBFS_1.c ****         0u,
  86:.\Generated_Source\PSoC5/USBFS_1.c ****         0u,
  87:.\Generated_Source\PSoC5/USBFS_1.c ****         0u,
  88:.\Generated_Source\PSoC5/USBFS_1.c ****         0u,
ARM GAS  C:\Users\LUKASC~1\AppData\Local\Temp\ccX4OJiL.s 			page 3


  89:.\Generated_Source\PSoC5/USBFS_1.c ****         0u,
  90:.\Generated_Source\PSoC5/USBFS_1.c ****         0u,
  91:.\Generated_Source\PSoC5/USBFS_1.c ****     };
  92:.\Generated_Source\PSoC5/USBFS_1.c **** 
  93:.\Generated_Source\PSoC5/USBFS_1.c ****     /* DMA trigger mux output for usb.dma_burstend[0-7]. */
  94:.\Generated_Source\PSoC5/USBFS_1.c ****     const uint8 USBFS_1_DmaBurstEndOut[USBFS_1_MAX_EP] =
  95:.\Generated_Source\PSoC5/USBFS_1.c ****     {
  96:.\Generated_Source\PSoC5/USBFS_1.c ****         0u,
  97:.\Generated_Source\PSoC5/USBFS_1.c ****         USBFS_1_BURSTEND_0_TR_OUTPUT,
  98:.\Generated_Source\PSoC5/USBFS_1.c ****         USBFS_1_BURSTEND_1_TR_OUTPUT,
  99:.\Generated_Source\PSoC5/USBFS_1.c ****         USBFS_1_BURSTEND_2_TR_OUTPUT,
 100:.\Generated_Source\PSoC5/USBFS_1.c ****         USBFS_1_BURSTEND_3_TR_OUTPUT,
 101:.\Generated_Source\PSoC5/USBFS_1.c ****         USBFS_1_BURSTEND_4_TR_OUTPUT,
 102:.\Generated_Source\PSoC5/USBFS_1.c ****         USBFS_1_BURSTEND_5_TR_OUTPUT,
 103:.\Generated_Source\PSoC5/USBFS_1.c ****         USBFS_1_BURSTEND_6_TR_OUTPUT,
 104:.\Generated_Source\PSoC5/USBFS_1.c ****         USBFS_1_BURSTEND_7_TR_OUTPUT
 105:.\Generated_Source\PSoC5/USBFS_1.c ****     };
 106:.\Generated_Source\PSoC5/USBFS_1.c ****     
 107:.\Generated_Source\PSoC5/USBFS_1.c **** #else
 108:.\Generated_Source\PSoC5/USBFS_1.c ****     #if (USBFS_1_EP_DMA_AUTO_OPT == 0u)
 109:.\Generated_Source\PSoC5/USBFS_1.c ****         static uint8 clearInDataRdyStatus = USBFS_1_ARB_EPX_CFG_DEFAULT;
 110:.\Generated_Source\PSoC5/USBFS_1.c ****         uint8 USBFS_1_DmaNextTd[USBFS_1_MAX_EP];
 111:.\Generated_Source\PSoC5/USBFS_1.c ****         const uint8 USBFS_1_epX_TD_TERMOUT_EN[USBFS_1_MAX_EP] =
 112:.\Generated_Source\PSoC5/USBFS_1.c ****         {
 113:.\Generated_Source\PSoC5/USBFS_1.c ****             0u,
 114:.\Generated_Source\PSoC5/USBFS_1.c ****             0u,
 115:.\Generated_Source\PSoC5/USBFS_1.c ****             USBFS_1_ep2__TD_TERMOUT_EN,
 116:.\Generated_Source\PSoC5/USBFS_1.c ****             0u,
 117:.\Generated_Source\PSoC5/USBFS_1.c ****             0u,
 118:.\Generated_Source\PSoC5/USBFS_1.c ****             0u,
 119:.\Generated_Source\PSoC5/USBFS_1.c ****             0u,
 120:.\Generated_Source\PSoC5/USBFS_1.c ****             0u,
 121:.\Generated_Source\PSoC5/USBFS_1.c ****             0u,
 122:.\Generated_Source\PSoC5/USBFS_1.c ****         };
 123:.\Generated_Source\PSoC5/USBFS_1.c **** 
 124:.\Generated_Source\PSoC5/USBFS_1.c ****         volatile uint16 USBFS_1_inLength[USBFS_1_MAX_EP];
 125:.\Generated_Source\PSoC5/USBFS_1.c ****         const uint8 *USBFS_1_inDataPointer[USBFS_1_MAX_EP];
 126:.\Generated_Source\PSoC5/USBFS_1.c ****         volatile uint8 USBFS_1_inBufFull[USBFS_1_MAX_EP];
 127:.\Generated_Source\PSoC5/USBFS_1.c ****     #endif /* (USBFS_1_EP_DMA_AUTO_OPT == 0u) */
 128:.\Generated_Source\PSoC5/USBFS_1.c **** #endif /* (CY_PSOC4) */
 129:.\Generated_Source\PSoC5/USBFS_1.c **** #endif /* (USBFS_1_EP_MANAGEMENT_DMA_AUTO) */
 130:.\Generated_Source\PSoC5/USBFS_1.c **** 
 131:.\Generated_Source\PSoC5/USBFS_1.c **** 
 132:.\Generated_Source\PSoC5/USBFS_1.c **** /*******************************************************************************
 133:.\Generated_Source\PSoC5/USBFS_1.c **** * Function Name: USBFS_1_Start
 134:.\Generated_Source\PSoC5/USBFS_1.c **** ****************************************************************************//**
 135:.\Generated_Source\PSoC5/USBFS_1.c **** *
 136:.\Generated_Source\PSoC5/USBFS_1.c **** *   This function performs all required initialization for the USBFS component.
 137:.\Generated_Source\PSoC5/USBFS_1.c **** *   After this function call, the USB device initiates communication with the
 138:.\Generated_Source\PSoC5/USBFS_1.c **** *   host by pull-up D+ line. This is the preferred method to begin component
 139:.\Generated_Source\PSoC5/USBFS_1.c **** *   operation.
 140:.\Generated_Source\PSoC5/USBFS_1.c **** *
 141:.\Generated_Source\PSoC5/USBFS_1.c **** *   Note that global interrupts have to be enabled because interrupts are
 142:.\Generated_Source\PSoC5/USBFS_1.c **** *   required for USBFS component operation.
 143:.\Generated_Source\PSoC5/USBFS_1.c **** *
 144:.\Generated_Source\PSoC5/USBFS_1.c **** *   PSoC 4200L devices: when USBFS component configured to DMA with Automatic
 145:.\Generated_Source\PSoC5/USBFS_1.c **** *   Buffer Management, the DMA interrupt priority is changed to the highest
ARM GAS  C:\Users\LUKASC~1\AppData\Local\Temp\ccX4OJiL.s 			page 4


 146:.\Generated_Source\PSoC5/USBFS_1.c **** *   (priority 0) inside this function.
 147:.\Generated_Source\PSoC5/USBFS_1.c **** *
 148:.\Generated_Source\PSoC5/USBFS_1.c **** *   PSoC 3/PSoC 5LP devices: when USBFS component configured to DMA with
 149:.\Generated_Source\PSoC5/USBFS_1.c **** *   Automatic Buffer Management, the Arbiter interrupt priority is changed to
 150:.\Generated_Source\PSoC5/USBFS_1.c **** *   the highest (priority 0) inside this function.
 151:.\Generated_Source\PSoC5/USBFS_1.c **** *
 152:.\Generated_Source\PSoC5/USBFS_1.c **** *  \param device
 153:.\Generated_Source\PSoC5/USBFS_1.c **** *          Contains the device number of the desired device descriptor.
 154:.\Generated_Source\PSoC5/USBFS_1.c **** *          The device number can be found in the Device Descriptor Tab of
 155:.\Generated_Source\PSoC5/USBFS_1.c **** *          "Configure" dialog, under the settings of desired Device Descriptor,
 156:.\Generated_Source\PSoC5/USBFS_1.c **** *          in the "Device Number" field.
 157:.\Generated_Source\PSoC5/USBFS_1.c **** *  \param mode:
 158:.\Generated_Source\PSoC5/USBFS_1.c **** *   The operating voltage. This determines whether the voltage regulator
 159:.\Generated_Source\PSoC5/USBFS_1.c **** *   is enabled for 5V operation or if pass through mode is used for 3.3V
 160:.\Generated_Source\PSoC5/USBFS_1.c **** *   operation. Symbolic names and their associated values are given in the
 161:.\Generated_Source\PSoC5/USBFS_1.c **** *   following list.
 162:.\Generated_Source\PSoC5/USBFS_1.c **** *
 163:.\Generated_Source\PSoC5/USBFS_1.c **** *       *USBFS_1_3V_OPERATION* - Disable voltage regulator and pass-
 164:.\Generated_Source\PSoC5/USBFS_1.c **** *                                      through Vcc for pull-up
 165:.\Generated_Source\PSoC5/USBFS_1.c **** *
 166:.\Generated_Source\PSoC5/USBFS_1.c **** *       *USBFS_1_5V_OPERATION* - Enable voltage regulator and use
 167:.\Generated_Source\PSoC5/USBFS_1.c **** *                                      regulator for pull-up
 168:.\Generated_Source\PSoC5/USBFS_1.c **** *
 169:.\Generated_Source\PSoC5/USBFS_1.c **** *       *USBFS_1_DWR_POWER_OPERATION* - Enable or disable the voltage
 170:.\Generated_Source\PSoC5/USBFS_1.c **** *                                      regulator depending on the power supply
 171:.\Generated_Source\PSoC5/USBFS_1.c **** *                                      voltage configuration in the DWR tab.
 172:.\Generated_Source\PSoC5/USBFS_1.c **** *                                      For PSoC 3/5LP devices, the VDDD supply
 173:.\Generated_Source\PSoC5/USBFS_1.c **** *                                      voltage is considered and for PSoC 4A-L,
 174:.\Generated_Source\PSoC5/USBFS_1.c **** *                                      the VBUS supply voltage is considered.*
 175:.\Generated_Source\PSoC5/USBFS_1.c **** * \globalvars
 176:.\Generated_Source\PSoC5/USBFS_1.c **** *  \ref USBFS_1_initVar
 177:.\Generated_Source\PSoC5/USBFS_1.c **** *
 178:.\Generated_Source\PSoC5/USBFS_1.c **** * \sideeffect
 179:.\Generated_Source\PSoC5/USBFS_1.c **** *   This function will reset all communication states to default.
 180:.\Generated_Source\PSoC5/USBFS_1.c **** *
 181:.\Generated_Source\PSoC5/USBFS_1.c **** * \reentrant
 182:.\Generated_Source\PSoC5/USBFS_1.c **** *  No.
 183:.\Generated_Source\PSoC5/USBFS_1.c **** *
 184:.\Generated_Source\PSoC5/USBFS_1.c **** *******************************************************************************/
 185:.\Generated_Source\PSoC5/USBFS_1.c **** void USBFS_1_Start(uint8 device, uint8 mode) 
 186:.\Generated_Source\PSoC5/USBFS_1.c **** {
 187:.\Generated_Source\PSoC5/USBFS_1.c ****     if (0u == USBFS_1_initVar)
 188:.\Generated_Source\PSoC5/USBFS_1.c ****     {
 189:.\Generated_Source\PSoC5/USBFS_1.c ****         USBFS_1_Init();
 190:.\Generated_Source\PSoC5/USBFS_1.c ****         USBFS_1_initVar = 1u;
 191:.\Generated_Source\PSoC5/USBFS_1.c ****     }
 192:.\Generated_Source\PSoC5/USBFS_1.c **** 
 193:.\Generated_Source\PSoC5/USBFS_1.c ****     USBFS_1_InitComponent(device, mode);
 194:.\Generated_Source\PSoC5/USBFS_1.c **** }
 195:.\Generated_Source\PSoC5/USBFS_1.c **** 
 196:.\Generated_Source\PSoC5/USBFS_1.c **** 
 197:.\Generated_Source\PSoC5/USBFS_1.c **** /*******************************************************************************
 198:.\Generated_Source\PSoC5/USBFS_1.c **** * Function Name: USBFS_1_Init
 199:.\Generated_Source\PSoC5/USBFS_1.c **** ****************************************************************************//**
 200:.\Generated_Source\PSoC5/USBFS_1.c **** *
 201:.\Generated_Source\PSoC5/USBFS_1.c **** * This function initializes or restores the component according to the
 202:.\Generated_Source\PSoC5/USBFS_1.c **** * customizer Configure dialog settings. It is not necessary to call
ARM GAS  C:\Users\LUKASC~1\AppData\Local\Temp\ccX4OJiL.s 			page 5


 203:.\Generated_Source\PSoC5/USBFS_1.c **** * USBFS_1_Init() because the USBFS_1_Start() routine calls
 204:.\Generated_Source\PSoC5/USBFS_1.c **** * this function and is the preferred method to begin component operation.
 205:.\Generated_Source\PSoC5/USBFS_1.c **** *
 206:.\Generated_Source\PSoC5/USBFS_1.c **** * \reentrant
 207:.\Generated_Source\PSoC5/USBFS_1.c **** *  No.
 208:.\Generated_Source\PSoC5/USBFS_1.c **** *
 209:.\Generated_Source\PSoC5/USBFS_1.c **** *******************************************************************************/
 210:.\Generated_Source\PSoC5/USBFS_1.c **** void USBFS_1_Init(void) 
 211:.\Generated_Source\PSoC5/USBFS_1.c **** {
  27              		.loc 1 211 0
  28              		.cfi_startproc
  29              		@ args = 0, pretend = 0, frame = 0
  30              		@ frame_needed = 0, uses_anonymous_args = 0
  31 0000 F8B5     		push	{r3, r4, r5, r6, r7, lr}
  32              		.cfi_def_cfa_offset 24
  33              		.cfi_offset 3, -24
  34              		.cfi_offset 4, -20
  35              		.cfi_offset 5, -16
  36              		.cfi_offset 6, -12
  37              		.cfi_offset 7, -8
  38              		.cfi_offset 14, -4
 212:.\Generated_Source\PSoC5/USBFS_1.c **** #if (CY_PSOC4)
 213:.\Generated_Source\PSoC5/USBFS_1.c ****     /* Enable clock to USB IP. */
 214:.\Generated_Source\PSoC5/USBFS_1.c ****     USBFS_1_USB_CLK_EN_REG = USBFS_1_USB_CLK_CSR_CLK_EN;
 215:.\Generated_Source\PSoC5/USBFS_1.c **** 
 216:.\Generated_Source\PSoC5/USBFS_1.c ****     /* The internal regulator (CR1.REG_ENABLE) is enabled in
 217:.\Generated_Source\PSoC5/USBFS_1.c ****     * USBFS_1_InitComponent() if it is required.
 218:.\Generated_Source\PSoC5/USBFS_1.c ****     */
 219:.\Generated_Source\PSoC5/USBFS_1.c **** 
 220:.\Generated_Source\PSoC5/USBFS_1.c ****     /* Enable USBIO control on drive mode of D+ and D- pins. */
 221:.\Generated_Source\PSoC5/USBFS_1.c ****     USBFS_1_USBIO_CR1_REG &= ~ (uint32) USBFS_1_USBIO_CR1_IOMODE;
 222:.\Generated_Source\PSoC5/USBFS_1.c **** 
 223:.\Generated_Source\PSoC5/USBFS_1.c ****     /* Set number of LF CLK to detect UBS bus reset. */
 224:.\Generated_Source\PSoC5/USBFS_1.c ****     USBFS_1_BUS_RST_CNT_REG = USBFS_1_DEFUALT_BUS_RST_CNT;
 225:.\Generated_Source\PSoC5/USBFS_1.c **** 
 226:.\Generated_Source\PSoC5/USBFS_1.c ****     /* Select VBUS detection source and clear PHY isolate. The application level
 227:.\Generated_Source\PSoC5/USBFS_1.c ****     * must ensure that VBUS is valid. There is no need to wait 2us before VBUS is valid.
 228:.\Generated_Source\PSoC5/USBFS_1.c ****     */
 229:.\Generated_Source\PSoC5/USBFS_1.c ****     USBFS_1_POWER_CTRL_REG = USBFS_1_DEFAULT_POWER_CTRL_VBUS;
 230:.\Generated_Source\PSoC5/USBFS_1.c **** 
 231:.\Generated_Source\PSoC5/USBFS_1.c ****     /* Enable PHY detector and single-ended and differential receivers. */
 232:.\Generated_Source\PSoC5/USBFS_1.c ****     USBFS_1_POWER_CTRL_REG |= USBFS_1_DEFAULT_POWER_CTRL_PHY;
 233:.\Generated_Source\PSoC5/USBFS_1.c **** 
 234:.\Generated_Source\PSoC5/USBFS_1.c ****     /* Suspend clear sequence. */
 235:.\Generated_Source\PSoC5/USBFS_1.c ****     USBFS_1_POWER_CTRL_REG &= (uint32) ~USBFS_1_POWER_CTRL_SUSPEND;
 236:.\Generated_Source\PSoC5/USBFS_1.c ****     CyDelayUs(USBFS_1_WAIT_SUSPEND_DEL_DISABLE);
 237:.\Generated_Source\PSoC5/USBFS_1.c ****     USBFS_1_POWER_CTRL_REG &= (uint32) ~USBFS_1_POWER_CTRL_SUSPEND_DEL;
 238:.\Generated_Source\PSoC5/USBFS_1.c **** 
 239:.\Generated_Source\PSoC5/USBFS_1.c ****     /* Sets IMO lock options and clear all other bits. */
 240:.\Generated_Source\PSoC5/USBFS_1.c ****     USBFS_1_CR1_REG = USBFS_1_DEFUALT_CR1;
 241:.\Generated_Source\PSoC5/USBFS_1.c **** 
 242:.\Generated_Source\PSoC5/USBFS_1.c ****     /* Configure level (hi, lo, med) for each interrupt source. */
 243:.\Generated_Source\PSoC5/USBFS_1.c ****     USBFS_1_INTR_LVL_SEL_REG = USBFS_1_DEFAULT_INTR_LVL_SEL;
 244:.\Generated_Source\PSoC5/USBFS_1.c **** 
 245:.\Generated_Source\PSoC5/USBFS_1.c ****     /* Configure interrupt sources from: SOF, Bus Reset and EP0. */
 246:.\Generated_Source\PSoC5/USBFS_1.c ****     USBFS_1_INTR_SIE_MASK_REG = USBFS_1_DEFAULT_INTR_SIE_MASK;
 247:.\Generated_Source\PSoC5/USBFS_1.c **** 
ARM GAS  C:\Users\LUKASC~1\AppData\Local\Temp\ccX4OJiL.s 			page 6


 248:.\Generated_Source\PSoC5/USBFS_1.c **** #else
 249:.\Generated_Source\PSoC5/USBFS_1.c ****     uint8 enableInterrupts = CyEnterCriticalSection();
  39              		.loc 1 249 0
  40 0002 FFF7FEFF 		bl	CyEnterCriticalSection
  41              	.LVL0:
  42 0006 0546     		mov	r5, r0
  43              	.LVL1:
 250:.\Generated_Source\PSoC5/USBFS_1.c **** 
 251:.\Generated_Source\PSoC5/USBFS_1.c **** #if (USBFS_1_EP_MANAGEMENT_DMA)
 252:.\Generated_Source\PSoC5/USBFS_1.c ****     uint16 i;
 253:.\Generated_Source\PSoC5/USBFS_1.c **** #endif /* (USBFS_1_EP_MANAGEMENT_DMA) */
 254:.\Generated_Source\PSoC5/USBFS_1.c **** 
 255:.\Generated_Source\PSoC5/USBFS_1.c ****     /* Enable USB block. */
 256:.\Generated_Source\PSoC5/USBFS_1.c ****     USBFS_1_PM_ACT_CFG_REG |= USBFS_1_PM_ACT_EN_FSUSB;
  44              		.loc 1 256 0
  45 0008 3D4A     		ldr	r2, .L5
  46 000a 1378     		ldrb	r3, [r2]	@ zero_extendqisi2
  47 000c 43F00103 		orr	r3, r3, #1
  48 0010 1370     		strb	r3, [r2]
 257:.\Generated_Source\PSoC5/USBFS_1.c ****     /* Enable USB block for Standby Power Mode. */
 258:.\Generated_Source\PSoC5/USBFS_1.c ****     USBFS_1_PM_STBY_CFG_REG |= USBFS_1_PM_STBY_EN_FSUSB;
  49              		.loc 1 258 0
  50 0012 1032     		adds	r2, r2, #16
  51 0014 1378     		ldrb	r3, [r2]	@ zero_extendqisi2
  52 0016 43F00103 		orr	r3, r3, #1
  53 001a 1370     		strb	r3, [r2]
 259:.\Generated_Source\PSoC5/USBFS_1.c **** 
 260:.\Generated_Source\PSoC5/USBFS_1.c ****     /* Enable core clock. */
 261:.\Generated_Source\PSoC5/USBFS_1.c ****     USBFS_1_USB_CLK_EN_REG = USBFS_1_USB_CLK_ENABLE;
  54              		.loc 1 261 0
  55 001c 0127     		movs	r7, #1
  56 001e 394B     		ldr	r3, .L5+4
  57 0020 1F70     		strb	r7, [r3]
 262:.\Generated_Source\PSoC5/USBFS_1.c **** 
 263:.\Generated_Source\PSoC5/USBFS_1.c ****     USBFS_1_CR1_REG = USBFS_1_CR1_ENABLE_LOCK;
  58              		.loc 1 263 0
  59 0022 0226     		movs	r6, #2
  60 0024 943B     		subs	r3, r3, #148
  61 0026 1E70     		strb	r6, [r3]
 264:.\Generated_Source\PSoC5/USBFS_1.c **** 
 265:.\Generated_Source\PSoC5/USBFS_1.c ****     /* ENABLING USBIO PADS IN USB MODE FROM I/O MODE. */
 266:.\Generated_Source\PSoC5/USBFS_1.c ****     /* Ensure USB transmit enable is low (USB_USBIO_CR0.ten). - Manual Transmission - Disabled. */
 267:.\Generated_Source\PSoC5/USBFS_1.c ****     USBFS_1_USBIO_CR0_REG &= (uint8) ~USBFS_1_USBIO_CR0_TEN;
  62              		.loc 1 267 0
  63 0028 02F5E252 		add	r2, r2, #7232
  64 002c 1B32     		adds	r2, r2, #27
  65 002e 1378     		ldrb	r3, [r2]	@ zero_extendqisi2
  66 0030 03F07F03 		and	r3, r3, #127
  67 0034 1370     		strb	r3, [r2]
 268:.\Generated_Source\PSoC5/USBFS_1.c ****     CyDelayUs(USBFS_1_WAIT_REG_STABILITY_50NS);  /* ~50ns delay. */
  68              		.loc 1 268 0
  69 0036 0020     		movs	r0, #0
  70 0038 FFF7FEFF 		bl	CyDelayUs
  71              	.LVL2:
 269:.\Generated_Source\PSoC5/USBFS_1.c ****     /* Disable USBIO by asserting PM.USB_CR0.fsusbio_pd_n(Inverted.
 270:.\Generated_Source\PSoC5/USBFS_1.c ****     *  high. These bits will be set low by the power manager out-of-reset.
 271:.\Generated_Source\PSoC5/USBFS_1.c ****     *  Also confirm USBIO pull-up is disabled.
ARM GAS  C:\Users\LUKASC~1\AppData\Local\Temp\ccX4OJiL.s 			page 7


 272:.\Generated_Source\PSoC5/USBFS_1.c ****     */
 273:.\Generated_Source\PSoC5/USBFS_1.c ****     USBFS_1_PM_USB_CR0_REG &= (uint8) ~(USBFS_1_PM_USB_CR0_PD_N |
  72              		.loc 1 273 0
  73 003c 324C     		ldr	r4, .L5+8
  74 003e 2378     		ldrb	r3, [r4]	@ zero_extendqisi2
  75 0040 03F0F903 		and	r3, r3, #249
  76 0044 2370     		strb	r3, [r4]
 274:.\Generated_Source\PSoC5/USBFS_1.c ****                                                  USBFS_1_PM_USB_CR0_PD_PULLUP_N);
 275:.\Generated_Source\PSoC5/USBFS_1.c **** 
 276:.\Generated_Source\PSoC5/USBFS_1.c ****     /* Select IOMODE to USB mode. */
 277:.\Generated_Source\PSoC5/USBFS_1.c ****     USBFS_1_USBIO_CR1_REG &= (uint8) ~USBFS_1_USBIO_CR1_IOMODE;
  77              		.loc 1 277 0
  78 0046 314A     		ldr	r2, .L5+12
  79 0048 1378     		ldrb	r3, [r2]	@ zero_extendqisi2
  80 004a 03F0DF03 		and	r3, r3, #223
  81 004e 1370     		strb	r3, [r2]
 278:.\Generated_Source\PSoC5/USBFS_1.c **** 
 279:.\Generated_Source\PSoC5/USBFS_1.c ****     /* Enable USBIO reference by setting PM.USB_CR0.fsusbio_ref_en. */
 280:.\Generated_Source\PSoC5/USBFS_1.c ****     USBFS_1_PM_USB_CR0_REG |= USBFS_1_PM_USB_CR0_REF_EN;
  82              		.loc 1 280 0
  83 0050 2378     		ldrb	r3, [r4]	@ zero_extendqisi2
  84 0052 3B43     		orrs	r3, r3, r7
  85 0054 2370     		strb	r3, [r4]
 281:.\Generated_Source\PSoC5/USBFS_1.c ****     /* Reference is available for 1us after regulator is enabled. */
 282:.\Generated_Source\PSoC5/USBFS_1.c ****     CyDelayUs(USBFS_1_WAIT_REG_STABILITY_1US);
  86              		.loc 1 282 0
  87 0056 3846     		mov	r0, r7
  88 0058 FFF7FEFF 		bl	CyDelayUs
  89              	.LVL3:
 283:.\Generated_Source\PSoC5/USBFS_1.c ****     /* OR 40us after power is restored. */
 284:.\Generated_Source\PSoC5/USBFS_1.c ****     CyDelayUs(USBFS_1_WAIT_VREF_RESTORE);
  90              		.loc 1 284 0
  91 005c 2820     		movs	r0, #40
  92 005e FFF7FEFF 		bl	CyDelayUs
  93              	.LVL4:
 285:.\Generated_Source\PSoC5/USBFS_1.c ****     /* Ensure single-ended disable bits are low (PRT15.INP_DIS[7:6])(input receiver enabled). */
 286:.\Generated_Source\PSoC5/USBFS_1.c ****     USBFS_1_DM_INP_DIS_REG &= (uint8) ~USBFS_1_DM_MASK;
  94              		.loc 1 286 0
  95 0062 2B4B     		ldr	r3, .L5+16
  96 0064 1A78     		ldrb	r2, [r3]	@ zero_extendqisi2
  97 0066 02F07F02 		and	r2, r2, #127
  98 006a 1A70     		strb	r2, [r3]
 287:.\Generated_Source\PSoC5/USBFS_1.c ****     USBFS_1_DP_INP_DIS_REG &= (uint8) ~USBFS_1_DP_MASK;
  99              		.loc 1 287 0
 100 006c 1A78     		ldrb	r2, [r3]	@ zero_extendqisi2
 101 006e 02F0BF02 		and	r2, r2, #191
 102 0072 1A70     		strb	r2, [r3]
 288:.\Generated_Source\PSoC5/USBFS_1.c **** 
 289:.\Generated_Source\PSoC5/USBFS_1.c ****     /* Enable USBIO. */
 290:.\Generated_Source\PSoC5/USBFS_1.c ****     USBFS_1_PM_USB_CR0_REG |= USBFS_1_PM_USB_CR0_PD_N;
 103              		.loc 1 290 0
 104 0074 2378     		ldrb	r3, [r4]	@ zero_extendqisi2
 105 0076 3343     		orrs	r3, r3, r6
 106 0078 2370     		strb	r3, [r4]
 291:.\Generated_Source\PSoC5/USBFS_1.c ****     CyDelayUs(USBFS_1_WAIT_PD_PULLUP_N_ENABLE);
 107              		.loc 1 291 0
 108 007a 3046     		mov	r0, r6
ARM GAS  C:\Users\LUKASC~1\AppData\Local\Temp\ccX4OJiL.s 			page 8


 109 007c FFF7FEFF 		bl	CyDelayUs
 110              	.LVL5:
 292:.\Generated_Source\PSoC5/USBFS_1.c ****     /* Set USBIO pull-up enable. */
 293:.\Generated_Source\PSoC5/USBFS_1.c ****     USBFS_1_PM_USB_CR0_REG |= USBFS_1_PM_USB_CR0_PD_PULLUP_N;
 111              		.loc 1 293 0
 112 0080 2378     		ldrb	r3, [r4]	@ zero_extendqisi2
 113 0082 43F00403 		orr	r3, r3, #4
 114 0086 2370     		strb	r3, [r4]
 294:.\Generated_Source\PSoC5/USBFS_1.c **** 
 295:.\Generated_Source\PSoC5/USBFS_1.c ****     /* Reset Arbiter Write Address register for endpoint 1. */
 296:.\Generated_Source\PSoC5/USBFS_1.c ****     CY_SET_REG8(USBFS_1_ARB_RW1_WA_PTR,     0u);
 115              		.loc 1 296 0
 116 0088 0023     		movs	r3, #0
 117 008a 224A     		ldr	r2, .L5+20
 118 008c 1370     		strb	r3, [r2]
 297:.\Generated_Source\PSoC5/USBFS_1.c ****     CY_SET_REG8(USBFS_1_ARB_RW1_WA_MSB_PTR, 0u);
 119              		.loc 1 297 0
 120 008e 0132     		adds	r2, r2, #1
 121 0090 1370     		strb	r3, [r2]
 122              	.LVL6:
 298:.\Generated_Source\PSoC5/USBFS_1.c **** 
 299:.\Generated_Source\PSoC5/USBFS_1.c **** #if (USBFS_1_EP_MANAGEMENT_DMA)
 300:.\Generated_Source\PSoC5/USBFS_1.c ****     /* Initialize transfer descriptor. This will be used to detect DMA state - initialized or not. 
 301:.\Generated_Source\PSoC5/USBFS_1.c ****     for (i = 0u; i < USBFS_1_MAX_EP; ++i)
 123              		.loc 1 301 0
 124 0092 06E0     		b	.L2
 125              	.LVL7:
 126              	.L3:
 302:.\Generated_Source\PSoC5/USBFS_1.c ****     {
 303:.\Generated_Source\PSoC5/USBFS_1.c ****         USBFS_1_DmaTd[i] = DMA_INVALID_TD;
 127              		.loc 1 303 0 discriminator 3
 128 0094 FF22     		movs	r2, #255
 129 0096 2049     		ldr	r1, .L5+24
 130 0098 CA54     		strb	r2, [r1, r3]
 304:.\Generated_Source\PSoC5/USBFS_1.c **** 
 305:.\Generated_Source\PSoC5/USBFS_1.c ****     #if (USBFS_1_EP_MANAGEMENT_DMA_AUTO && (USBFS_1_EP_DMA_AUTO_OPT == 0u))
 306:.\Generated_Source\PSoC5/USBFS_1.c ****         USBFS_1_DmaNextTd[i] = DMA_INVALID_TD;
 131              		.loc 1 306 0 discriminator 3
 132 009a 2049     		ldr	r1, .L5+28
 133 009c CA54     		strb	r2, [r1, r3]
 301:.\Generated_Source\PSoC5/USBFS_1.c ****     {
 134              		.loc 1 301 0 discriminator 3
 135 009e 0133     		adds	r3, r3, #1
 136              	.LVL8:
 137 00a0 9BB2     		uxth	r3, r3
 138              	.LVL9:
 139              	.L2:
 301:.\Generated_Source\PSoC5/USBFS_1.c ****     {
 140              		.loc 1 301 0 is_stmt 0 discriminator 1
 141 00a2 082B     		cmp	r3, #8
 142 00a4 F6D9     		bls	.L3
 307:.\Generated_Source\PSoC5/USBFS_1.c ****     #endif /* (USBFS_1_EP_MANAGEMENT_DMA_AUTO && (USBFS_1_EP_DMA_AUTO_OPT == 0u)) */
 308:.\Generated_Source\PSoC5/USBFS_1.c ****     }
 309:.\Generated_Source\PSoC5/USBFS_1.c **** #endif /* (USBFS_1_EP_MANAGEMENT_DMA) */
 310:.\Generated_Source\PSoC5/USBFS_1.c **** 
 311:.\Generated_Source\PSoC5/USBFS_1.c ****     CyExitCriticalSection(enableInterrupts);
 143              		.loc 1 311 0 is_stmt 1
ARM GAS  C:\Users\LUKASC~1\AppData\Local\Temp\ccX4OJiL.s 			page 9


 144 00a6 2846     		mov	r0, r5
 145 00a8 FFF7FEFF 		bl	CyExitCriticalSection
 146              	.LVL10:
 312:.\Generated_Source\PSoC5/USBFS_1.c **** #endif /* (CY_PSOC4) */
 313:.\Generated_Source\PSoC5/USBFS_1.c **** 
 314:.\Generated_Source\PSoC5/USBFS_1.c ****     /* Configure interrupts from USB block. */
 315:.\Generated_Source\PSoC5/USBFS_1.c **** #if (CY_PSOC4)
 316:.\Generated_Source\PSoC5/USBFS_1.c ****     /* Configure hi_int: set handler and priority. */
 317:.\Generated_Source\PSoC5/USBFS_1.c ****     CyIntSetPriority     (USBFS_1_INTR_HI_VECT_NUM,  USBFS_1_INTR_HI_PRIORITY);
 318:.\Generated_Source\PSoC5/USBFS_1.c ****     (void) CyIntSetVector(USBFS_1_INTR_HI_VECT_NUM, &USBFS_1_INTR_HI_ISR);
 319:.\Generated_Source\PSoC5/USBFS_1.c **** 
 320:.\Generated_Source\PSoC5/USBFS_1.c ****     /* Configure lo_int: set handler and priority. */
 321:.\Generated_Source\PSoC5/USBFS_1.c ****     CyIntSetPriority     (USBFS_1_INTR_LO_VECT_NUM,  USBFS_1_INTR_LO_PRIORITY);
 322:.\Generated_Source\PSoC5/USBFS_1.c ****     (void) CyIntSetVector(USBFS_1_INTR_LO_VECT_NUM, &USBFS_1_INTR_LO_ISR);
 323:.\Generated_Source\PSoC5/USBFS_1.c **** 
 324:.\Generated_Source\PSoC5/USBFS_1.c ****     /* Configure med_int: set handler and priority (routed through DSI). */
 325:.\Generated_Source\PSoC5/USBFS_1.c ****     CyIntSetPriority     (USBFS_1_INTR_MED_VECT_NUM,  USBFS_1_INTR_MED_PRIORITY);
 326:.\Generated_Source\PSoC5/USBFS_1.c ****     (void) CyIntSetVector(USBFS_1_INTR_MED_VECT_NUM, &USBFS_1_INTR_MED_ISR);
 327:.\Generated_Source\PSoC5/USBFS_1.c **** 
 328:.\Generated_Source\PSoC5/USBFS_1.c **** #else
 329:.\Generated_Source\PSoC5/USBFS_1.c ****     /* Set bus reset interrupt. */
 330:.\Generated_Source\PSoC5/USBFS_1.c ****     CyIntSetPriority(USBFS_1_BUS_RESET_VECT_NUM, USBFS_1_BUS_RESET_PRIOR);
 147              		.loc 1 330 0
 148 00ac 1720     		movs	r0, #23
 149 00ae 0721     		movs	r1, #7
 150 00b0 FFF7FEFF 		bl	CyIntSetPriority
 151              	.LVL11:
 331:.\Generated_Source\PSoC5/USBFS_1.c ****     (void) CyIntSetVector(USBFS_1_BUS_RESET_VECT_NUM,   &USBFS_1_BUS_RESET_ISR);
 152              		.loc 1 331 0
 153 00b4 1720     		movs	r0, #23
 154 00b6 1A49     		ldr	r1, .L5+32
 155 00b8 FFF7FEFF 		bl	CyIntSetVector
 156              	.LVL12:
 332:.\Generated_Source\PSoC5/USBFS_1.c **** 
 333:.\Generated_Source\PSoC5/USBFS_1.c ****     /* Set Control Endpoint Interrupt. */
 334:.\Generated_Source\PSoC5/USBFS_1.c ****     CyIntSetPriority(USBFS_1_EP_0_VECT_NUM, USBFS_1_EP_0_PRIOR);
 157              		.loc 1 334 0
 158 00bc 1820     		movs	r0, #24
 159 00be 0721     		movs	r1, #7
 160 00c0 FFF7FEFF 		bl	CyIntSetPriority
 161              	.LVL13:
 335:.\Generated_Source\PSoC5/USBFS_1.c ****     (void) CyIntSetVector(USBFS_1_EP_0_VECT_NUM,   &USBFS_1_EP_0_ISR);
 162              		.loc 1 335 0
 163 00c4 1820     		movs	r0, #24
 164 00c6 1749     		ldr	r1, .L5+36
 165 00c8 FFF7FEFF 		bl	CyIntSetVector
 166              	.LVL14:
 336:.\Generated_Source\PSoC5/USBFS_1.c **** 
 337:.\Generated_Source\PSoC5/USBFS_1.c ****     /* Set SOF interrupt. */
 338:.\Generated_Source\PSoC5/USBFS_1.c ****     #if (USBFS_1_SOF_ISR_ACTIVE)
 339:.\Generated_Source\PSoC5/USBFS_1.c ****         CyIntSetPriority     (USBFS_1_SOF_VECT_NUM,  USBFS_1_SOF_PRIOR);
 340:.\Generated_Source\PSoC5/USBFS_1.c ****         (void) CyIntSetVector(USBFS_1_SOF_VECT_NUM, &USBFS_1_SOF_ISR);
 341:.\Generated_Source\PSoC5/USBFS_1.c ****     #endif /* (USBFS_1_SOF_ISR_ACTIVE) */
 342:.\Generated_Source\PSoC5/USBFS_1.c **** 
 343:.\Generated_Source\PSoC5/USBFS_1.c ****     /* Set Data Endpoint 1 Interrupt. */
 344:.\Generated_Source\PSoC5/USBFS_1.c ****     #if (USBFS_1_EP1_ISR_ACTIVE)
 345:.\Generated_Source\PSoC5/USBFS_1.c ****         CyIntSetPriority     (USBFS_1_EP_1_VECT_NUM,  USBFS_1_EP_1_PRIOR);
ARM GAS  C:\Users\LUKASC~1\AppData\Local\Temp\ccX4OJiL.s 			page 10


 346:.\Generated_Source\PSoC5/USBFS_1.c ****         (void) CyIntSetVector(USBFS_1_EP_1_VECT_NUM,  &USBFS_1_EP_1_ISR);
 347:.\Generated_Source\PSoC5/USBFS_1.c ****     #endif /* (USBFS_1_EP1_ISR_ACTIVE) */
 348:.\Generated_Source\PSoC5/USBFS_1.c **** 
 349:.\Generated_Source\PSoC5/USBFS_1.c ****     /* Set Data Endpoint 2 Interrupt. */
 350:.\Generated_Source\PSoC5/USBFS_1.c ****     #if (USBFS_1_EP2_ISR_ACTIVE)
 351:.\Generated_Source\PSoC5/USBFS_1.c ****         CyIntSetPriority     (USBFS_1_EP_2_VECT_NUM,  USBFS_1_EP_2_PRIOR);
 167              		.loc 1 351 0
 168 00cc 0120     		movs	r0, #1
 169 00ce 0721     		movs	r1, #7
 170 00d0 FFF7FEFF 		bl	CyIntSetPriority
 171              	.LVL15:
 352:.\Generated_Source\PSoC5/USBFS_1.c ****         (void) CyIntSetVector(USBFS_1_EP_2_VECT_NUM, &USBFS_1_EP_2_ISR);
 172              		.loc 1 352 0
 173 00d4 0120     		movs	r0, #1
 174 00d6 1449     		ldr	r1, .L5+40
 175 00d8 FFF7FEFF 		bl	CyIntSetVector
 176              	.LVL16:
 353:.\Generated_Source\PSoC5/USBFS_1.c ****     #endif /* (USBFS_1_EP2_ISR_ACTIVE) */
 354:.\Generated_Source\PSoC5/USBFS_1.c **** 
 355:.\Generated_Source\PSoC5/USBFS_1.c ****     /* Set Data Endpoint 3 Interrupt. */
 356:.\Generated_Source\PSoC5/USBFS_1.c ****     #if (USBFS_1_EP3_ISR_ACTIVE)
 357:.\Generated_Source\PSoC5/USBFS_1.c ****         CyIntSetPriority     (USBFS_1_EP_3_VECT_NUM,  USBFS_1_EP_3_PRIOR);
 358:.\Generated_Source\PSoC5/USBFS_1.c ****         (void) CyIntSetVector(USBFS_1_EP_3_VECT_NUM, &USBFS_1_EP_3_ISR);
 359:.\Generated_Source\PSoC5/USBFS_1.c ****     #endif /* (USBFS_1_EP3_ISR_ACTIVE) */
 360:.\Generated_Source\PSoC5/USBFS_1.c **** 
 361:.\Generated_Source\PSoC5/USBFS_1.c ****     /* Set Data Endpoint 4 Interrupt. */
 362:.\Generated_Source\PSoC5/USBFS_1.c ****     #if (USBFS_1_EP4_ISR_ACTIVE)
 363:.\Generated_Source\PSoC5/USBFS_1.c ****         CyIntSetPriority     (USBFS_1_EP_4_VECT_NUM,  USBFS_1_EP_4_PRIOR);
 364:.\Generated_Source\PSoC5/USBFS_1.c ****         (void) CyIntSetVector(USBFS_1_EP_4_VECT_NUM, &USBFS_1_EP_4_ISR);
 365:.\Generated_Source\PSoC5/USBFS_1.c ****     #endif /* (USBFS_1_EP4_ISR_ACTIVE) */
 366:.\Generated_Source\PSoC5/USBFS_1.c **** 
 367:.\Generated_Source\PSoC5/USBFS_1.c ****     /* Set Data Endpoint 5 Interrupt. */
 368:.\Generated_Source\PSoC5/USBFS_1.c ****     #if (USBFS_1_EP5_ISR_ACTIVE)
 369:.\Generated_Source\PSoC5/USBFS_1.c ****         CyIntSetPriority     (USBFS_1_EP_5_VECT_NUM,  USBFS_1_EP_5_PRIOR);
 370:.\Generated_Source\PSoC5/USBFS_1.c ****         (void) CyIntSetVector(USBFS_1_EP_5_VECT_NUM, &USBFS_1_EP_5_ISR);
 371:.\Generated_Source\PSoC5/USBFS_1.c ****     #endif /* (USBFS_1_EP5_ISR_ACTIVE) */
 372:.\Generated_Source\PSoC5/USBFS_1.c **** 
 373:.\Generated_Source\PSoC5/USBFS_1.c ****     /* Set Data Endpoint 6 Interrupt. */
 374:.\Generated_Source\PSoC5/USBFS_1.c ****     #if (USBFS_1_EP6_ISR_ACTIVE)
 375:.\Generated_Source\PSoC5/USBFS_1.c ****         CyIntSetPriority     (USBFS_1_EP_6_VECT_NUM,  USBFS_1_EP_6_PRIOR);
 376:.\Generated_Source\PSoC5/USBFS_1.c ****         (void) CyIntSetVector(USBFS_1_EP_6_VECT_NUM, &USBFS_1_EP_6_ISR);
 377:.\Generated_Source\PSoC5/USBFS_1.c ****     #endif /* (USBFS_1_EP6_ISR_ACTIVE) */
 378:.\Generated_Source\PSoC5/USBFS_1.c **** 
 379:.\Generated_Source\PSoC5/USBFS_1.c ****      /* Set Data Endpoint 7 Interrupt. */
 380:.\Generated_Source\PSoC5/USBFS_1.c ****     #if (USBFS_1_EP7_ISR_ACTIVE)
 381:.\Generated_Source\PSoC5/USBFS_1.c ****         CyIntSetPriority     (USBFS_1_EP_7_VECT_NUM,  USBFS_1_EP_7_PRIOR);
 382:.\Generated_Source\PSoC5/USBFS_1.c ****         (void) CyIntSetVector(USBFS_1_EP_7_VECT_NUM, &USBFS_1_EP_7_ISR);
 383:.\Generated_Source\PSoC5/USBFS_1.c ****     #endif /* (USBFS_1_EP7_ISR_ACTIVE) */
 384:.\Generated_Source\PSoC5/USBFS_1.c **** 
 385:.\Generated_Source\PSoC5/USBFS_1.c ****     /* Set Data Endpoint 8 Interrupt. */
 386:.\Generated_Source\PSoC5/USBFS_1.c ****     #if (USBFS_1_EP8_ISR_ACTIVE)
 387:.\Generated_Source\PSoC5/USBFS_1.c ****         CyIntSetPriority     (USBFS_1_EP_8_VECT_NUM,  USBFS_1_EP_8_PRIOR);
 388:.\Generated_Source\PSoC5/USBFS_1.c ****         (void) CyIntSetVector(USBFS_1_EP_8_VECT_NUM, &USBFS_1_EP_8_ISR);
 389:.\Generated_Source\PSoC5/USBFS_1.c ****     #endif /* (USBFS_1_EP8_ISR_ACTIVE) */
 390:.\Generated_Source\PSoC5/USBFS_1.c **** 
 391:.\Generated_Source\PSoC5/USBFS_1.c ****     /* Set ARB Interrupt. */
 392:.\Generated_Source\PSoC5/USBFS_1.c ****     #if (USBFS_1_EP_MANAGEMENT_DMA && USBFS_1_ARB_ISR_ACTIVE)
ARM GAS  C:\Users\LUKASC~1\AppData\Local\Temp\ccX4OJiL.s 			page 11


 393:.\Generated_Source\PSoC5/USBFS_1.c ****         CyIntSetPriority     (USBFS_1_ARB_VECT_NUM,  USBFS_1_ARB_PRIOR);
 177              		.loc 1 393 0
 178 00dc 1620     		movs	r0, #22
 179 00de 0021     		movs	r1, #0
 180 00e0 FFF7FEFF 		bl	CyIntSetPriority
 181              	.LVL17:
 394:.\Generated_Source\PSoC5/USBFS_1.c ****         (void) CyIntSetVector(USBFS_1_ARB_VECT_NUM, &USBFS_1_ARB_ISR);
 182              		.loc 1 394 0
 183 00e4 1620     		movs	r0, #22
 184 00e6 1149     		ldr	r1, .L5+44
 185 00e8 FFF7FEFF 		bl	CyIntSetVector
 186              	.LVL18:
 395:.\Generated_Source\PSoC5/USBFS_1.c ****     #endif /* (USBFS_1_EP_MANAGEMENT_DMA && USBFS_1_ARB_ISR_ACTIVE) */
 396:.\Generated_Source\PSoC5/USBFS_1.c **** #endif /* (CY_PSOC4) */
 397:.\Generated_Source\PSoC5/USBFS_1.c **** 
 398:.\Generated_Source\PSoC5/USBFS_1.c ****     /* Common: Configure GPIO interrupt for wakeup. */
 399:.\Generated_Source\PSoC5/USBFS_1.c **** #if (USBFS_1_DP_ISR_ACTIVE)
 400:.\Generated_Source\PSoC5/USBFS_1.c ****     CyIntSetPriority     (USBFS_1_DP_INTC_VECT_NUM,  USBFS_1_DP_INTC_PRIORITY);
 187              		.loc 1 400 0
 188 00ec 0C20     		movs	r0, #12
 189 00ee 0721     		movs	r1, #7
 190 00f0 FFF7FEFF 		bl	CyIntSetPriority
 191              	.LVL19:
 401:.\Generated_Source\PSoC5/USBFS_1.c ****     (void) CyIntSetVector(USBFS_1_DP_INTC_VECT_NUM, &USBFS_1_DP_ISR);
 192              		.loc 1 401 0
 193 00f4 0C20     		movs	r0, #12
 194 00f6 0E49     		ldr	r1, .L5+48
 195 00f8 FFF7FEFF 		bl	CyIntSetVector
 196              	.LVL20:
 197 00fc F8BD     		pop	{r3, r4, r5, r6, r7, pc}
 198              	.LVL21:
 199              	.L6:
 200 00fe 00BF     		.align	2
 201              	.L5:
 202 0100 A5430040 		.word	1073759141
 203 0104 9D600040 		.word	1073766557
 204 0108 94430040 		.word	1073759124
 205 010c 12600040 		.word	1073766418
 206 0110 F8510040 		.word	1073762808
 207 0114 84600040 		.word	1073766532
 208 0118 00000000 		.word	USBFS_1_DmaTd
 209 011c 00000000 		.word	USBFS_1_DmaNextTd
 210 0120 00000000 		.word	USBFS_1_BUS_RESET_ISR
 211 0124 00000000 		.word	USBFS_1_EP_0_ISR
 212 0128 00000000 		.word	USBFS_1_EP_2_ISR
 213 012c 00000000 		.word	USBFS_1_ARB_ISR
 214 0130 00000000 		.word	USBFS_1_DP_ISR
 215              		.cfi_endproc
 216              	.LFE1:
 217              		.size	USBFS_1_Init, .-USBFS_1_Init
 218              		.section	.text.USBFS_1_InitComponent,"ax",%progbits
 219              		.align	2
 220              		.global	USBFS_1_InitComponent
 221              		.thumb
 222              		.thumb_func
 223              		.type	USBFS_1_InitComponent, %function
 224              	USBFS_1_InitComponent:
ARM GAS  C:\Users\LUKASC~1\AppData\Local\Temp\ccX4OJiL.s 			page 12


 225              	.LFB2:
 402:.\Generated_Source\PSoC5/USBFS_1.c **** #endif /* (USBFS_1_DP_ISR_ACTIVE) */
 403:.\Generated_Source\PSoC5/USBFS_1.c **** 
 404:.\Generated_Source\PSoC5/USBFS_1.c **** #if (USBFS_1_EP_MANAGEMENT_DMA && CY_PSOC4)
 405:.\Generated_Source\PSoC5/USBFS_1.c ****     /* Initialize DMA channels. */
 406:.\Generated_Source\PSoC5/USBFS_1.c ****     USBFS_1_InitEpDma();
 407:.\Generated_Source\PSoC5/USBFS_1.c **** #endif /* (USBFS_1_EP_MANAGEMENT_DMA && CY_PSOC4) */
 408:.\Generated_Source\PSoC5/USBFS_1.c **** }
 409:.\Generated_Source\PSoC5/USBFS_1.c **** 
 410:.\Generated_Source\PSoC5/USBFS_1.c **** 
 411:.\Generated_Source\PSoC5/USBFS_1.c **** /*******************************************************************************
 412:.\Generated_Source\PSoC5/USBFS_1.c **** * Function Name: USBFS_1_InitComponent
 413:.\Generated_Source\PSoC5/USBFS_1.c **** ****************************************************************************//**
 414:.\Generated_Source\PSoC5/USBFS_1.c **** *
 415:.\Generated_Source\PSoC5/USBFS_1.c **** *   This function initializes the component’s global variables and initiates
 416:.\Generated_Source\PSoC5/USBFS_1.c **** *   communication with the host by pull-up D+ line.
 417:.\Generated_Source\PSoC5/USBFS_1.c **** *
 418:.\Generated_Source\PSoC5/USBFS_1.c **** * \param device:
 419:.\Generated_Source\PSoC5/USBFS_1.c **** *   Contains the device number of the desired device descriptor. The device
 420:.\Generated_Source\PSoC5/USBFS_1.c **** *   number can be found in the Device Descriptor Tab of "Configure" dialog,
 421:.\Generated_Source\PSoC5/USBFS_1.c **** *   under the settings of desired Device Descriptor, in the *Device Number*
 422:.\Generated_Source\PSoC5/USBFS_1.c **** *   field.
 423:.\Generated_Source\PSoC5/USBFS_1.c **** *  \param mode:
 424:.\Generated_Source\PSoC5/USBFS_1.c **** *   The operating voltage. This determines whether the voltage regulator
 425:.\Generated_Source\PSoC5/USBFS_1.c **** *   is enabled for 5V operation or if pass through mode is used for 3.3V
 426:.\Generated_Source\PSoC5/USBFS_1.c **** *   operation. Symbolic names and their associated values are given in the
 427:.\Generated_Source\PSoC5/USBFS_1.c **** *   following list.
 428:.\Generated_Source\PSoC5/USBFS_1.c **** *
 429:.\Generated_Source\PSoC5/USBFS_1.c **** *       *USBFS_1_3V_OPERATION* - Disable voltage regulator and pass-
 430:.\Generated_Source\PSoC5/USBFS_1.c **** *                                      through Vcc for pull-up
 431:.\Generated_Source\PSoC5/USBFS_1.c **** *
 432:.\Generated_Source\PSoC5/USBFS_1.c **** *       *USBFS_1_5V_OPERATION* - Enable voltage regulator and use
 433:.\Generated_Source\PSoC5/USBFS_1.c **** *                                      regulator for pull-up
 434:.\Generated_Source\PSoC5/USBFS_1.c **** *
 435:.\Generated_Source\PSoC5/USBFS_1.c **** *       *USBFS_1_DWR_POWER_OPERATION* - Enable or disable the voltage
 436:.\Generated_Source\PSoC5/USBFS_1.c **** *                                      regulator depending on the power supply
 437:.\Generated_Source\PSoC5/USBFS_1.c **** *                                      voltage configuration in the DWR tab.
 438:.\Generated_Source\PSoC5/USBFS_1.c **** *                                      For PSoC 3/5LP devices, the VDDD supply
 439:.\Generated_Source\PSoC5/USBFS_1.c **** *                                      voltage is considered and for PSoC 4A-L,
 440:.\Generated_Source\PSoC5/USBFS_1.c **** *                                      the VBUS supply voltage is considered.
 441:.\Generated_Source\PSoC5/USBFS_1.c **** *
 442:.\Generated_Source\PSoC5/USBFS_1.c **** * \globalvars
 443:.\Generated_Source\PSoC5/USBFS_1.c **** *   \ref USBFS_1_device
 444:.\Generated_Source\PSoC5/USBFS_1.c **** *   \ref USBFS_1_transferState
 445:.\Generated_Source\PSoC5/USBFS_1.c **** *   \ref USBFS_1_configuration
 446:.\Generated_Source\PSoC5/USBFS_1.c **** *   \ref USBFS_1_deviceStatus
 447:.\Generated_Source\PSoC5/USBFS_1.c **** *
 448:.\Generated_Source\PSoC5/USBFS_1.c **** *   \ref USBFS_1_deviceAddress - Contains the current device address. This
 449:.\Generated_Source\PSoC5/USBFS_1.c **** *       variable is initialized to zero in this API. The Host starts to communicate
 450:.\Generated_Source\PSoC5/USBFS_1.c **** *      to the device with address 0 and then sets it to a whatever value using a
 451:.\Generated_Source\PSoC5/USBFS_1.c **** *      SET_ADDRESS request.
 452:.\Generated_Source\PSoC5/USBFS_1.c **** *
 453:.\Generated_Source\PSoC5/USBFS_1.c **** *   \ref USBFS_1_lastPacketSize - Initialized to 0;
 454:.\Generated_Source\PSoC5/USBFS_1.c **** *
 455:.\Generated_Source\PSoC5/USBFS_1.c **** * \reentrant
 456:.\Generated_Source\PSoC5/USBFS_1.c **** *  No.
 457:.\Generated_Source\PSoC5/USBFS_1.c **** *
ARM GAS  C:\Users\LUKASC~1\AppData\Local\Temp\ccX4OJiL.s 			page 13


 458:.\Generated_Source\PSoC5/USBFS_1.c **** *******************************************************************************/
 459:.\Generated_Source\PSoC5/USBFS_1.c **** void USBFS_1_InitComponent(uint8 device, uint8 mode) 
 460:.\Generated_Source\PSoC5/USBFS_1.c **** {
 226              		.loc 1 460 0
 227              		.cfi_startproc
 228              		@ args = 0, pretend = 0, frame = 0
 229              		@ frame_needed = 0, uses_anonymous_args = 0
 230              	.LVL22:
 231 0000 10B5     		push	{r4, lr}
 232              		.cfi_def_cfa_offset 8
 233              		.cfi_offset 4, -8
 234              		.cfi_offset 14, -4
 235 0002 0C46     		mov	r4, r1
 461:.\Generated_Source\PSoC5/USBFS_1.c ****     /* Initialize _hidProtocol variable to comply with
 462:.\Generated_Source\PSoC5/USBFS_1.c ****     *  HID 7.2.6 Set_Protocol Request:
 463:.\Generated_Source\PSoC5/USBFS_1.c ****     *  "When initialized, all devices default to report protocol."
 464:.\Generated_Source\PSoC5/USBFS_1.c ****     */
 465:.\Generated_Source\PSoC5/USBFS_1.c **** #if defined(USBFS_1_ENABLE_HID_CLASS)
 466:.\Generated_Source\PSoC5/USBFS_1.c ****     uint8 i;
 467:.\Generated_Source\PSoC5/USBFS_1.c **** 
 468:.\Generated_Source\PSoC5/USBFS_1.c ****     for (i = 0u; i < USBFS_1_MAX_INTERFACES_NUMBER; i++)
 469:.\Generated_Source\PSoC5/USBFS_1.c ****     {
 470:.\Generated_Source\PSoC5/USBFS_1.c ****         USBFS_1_hidProtocol[i] = USBFS_1_PROTOCOL_REPORT;
 471:.\Generated_Source\PSoC5/USBFS_1.c ****     }
 472:.\Generated_Source\PSoC5/USBFS_1.c **** #endif /* USBFS_1_ENABLE_HID_CLASS */
 473:.\Generated_Source\PSoC5/USBFS_1.c **** 
 474:.\Generated_Source\PSoC5/USBFS_1.c ****     /* Store device number to access descriptor. */
 475:.\Generated_Source\PSoC5/USBFS_1.c ****     USBFS_1_device = device;
 236              		.loc 1 475 0
 237 0004 254B     		ldr	r3, .L14
 238 0006 1870     		strb	r0, [r3]
 476:.\Generated_Source\PSoC5/USBFS_1.c **** 
 477:.\Generated_Source\PSoC5/USBFS_1.c ****     /* Reset component internal variables. */
 478:.\Generated_Source\PSoC5/USBFS_1.c ****     USBFS_1_transferState   = USBFS_1_TRANS_STATE_IDLE;
 239              		.loc 1 478 0
 240 0008 0023     		movs	r3, #0
 241 000a 254A     		ldr	r2, .L14+4
 242 000c 1370     		strb	r3, [r2]
 479:.\Generated_Source\PSoC5/USBFS_1.c ****     USBFS_1_configurationChanged = 0u;
 243              		.loc 1 479 0
 244 000e 254A     		ldr	r2, .L14+8
 245 0010 1370     		strb	r3, [r2]
 480:.\Generated_Source\PSoC5/USBFS_1.c ****     USBFS_1_configuration   = 0u;
 246              		.loc 1 480 0
 247 0012 254A     		ldr	r2, .L14+12
 248 0014 1370     		strb	r3, [r2]
 481:.\Generated_Source\PSoC5/USBFS_1.c ****     USBFS_1_interfaceNumber = 0u;
 249              		.loc 1 481 0
 250 0016 254A     		ldr	r2, .L14+16
 251 0018 1370     		strb	r3, [r2]
 482:.\Generated_Source\PSoC5/USBFS_1.c ****     USBFS_1_deviceAddress   = 0u;
 252              		.loc 1 482 0
 253 001a 254A     		ldr	r2, .L14+20
 254 001c 1370     		strb	r3, [r2]
 483:.\Generated_Source\PSoC5/USBFS_1.c ****     USBFS_1_deviceStatus    = 0u;
 255              		.loc 1 483 0
 256 001e 254A     		ldr	r2, .L14+24
ARM GAS  C:\Users\LUKASC~1\AppData\Local\Temp\ccX4OJiL.s 			page 14


 257 0020 1370     		strb	r3, [r2]
 484:.\Generated_Source\PSoC5/USBFS_1.c ****     USBFS_1_lastPacketSize  = 0u;
 258              		.loc 1 484 0
 259 0022 254A     		ldr	r2, .L14+28
 260 0024 1370     		strb	r3, [r2]
 485:.\Generated_Source\PSoC5/USBFS_1.c **** 
 486:.\Generated_Source\PSoC5/USBFS_1.c ****     /* Enable component interrupts. */
 487:.\Generated_Source\PSoC5/USBFS_1.c **** #if (CY_PSOC4)
 488:.\Generated_Source\PSoC5/USBFS_1.c ****     CyIntEnable(USBFS_1_INTR_HI_VECT_NUM);
 489:.\Generated_Source\PSoC5/USBFS_1.c ****     CyIntEnable(USBFS_1_INTR_MED_VECT_NUM);
 490:.\Generated_Source\PSoC5/USBFS_1.c ****     CyIntEnable(USBFS_1_INTR_LO_VECT_NUM);
 491:.\Generated_Source\PSoC5/USBFS_1.c **** #else
 492:.\Generated_Source\PSoC5/USBFS_1.c ****     CyIntEnable(USBFS_1_BUS_RESET_VECT_NUM);
 261              		.loc 1 492 0
 262 0026 254B     		ldr	r3, .L14+32
 263 0028 4FF40002 		mov	r2, #8388608
 264 002c 1A60     		str	r2, [r3]
 493:.\Generated_Source\PSoC5/USBFS_1.c ****     CyIntEnable(USBFS_1_EP_0_VECT_NUM);
 265              		.loc 1 493 0
 266 002e 4FF08072 		mov	r2, #16777216
 267 0032 1A60     		str	r2, [r3]
 494:.\Generated_Source\PSoC5/USBFS_1.c **** 
 495:.\Generated_Source\PSoC5/USBFS_1.c ****     #if (USBFS_1_SOF_ISR_ACTIVE)
 496:.\Generated_Source\PSoC5/USBFS_1.c ****         CyIntEnable(USBFS_1_SOF_VECT_NUM);
 497:.\Generated_Source\PSoC5/USBFS_1.c ****     #endif /* (USBFS_1_SOF_ISR_ACTIVE) */
 498:.\Generated_Source\PSoC5/USBFS_1.c **** 
 499:.\Generated_Source\PSoC5/USBFS_1.c ****     #if (USBFS_1_EP1_ISR_ACTIVE)
 500:.\Generated_Source\PSoC5/USBFS_1.c ****         CyIntEnable(USBFS_1_EP_1_VECT_NUM);
 501:.\Generated_Source\PSoC5/USBFS_1.c ****     #endif /* (USBFS_1_EP1_ISR_ACTIVE) */
 502:.\Generated_Source\PSoC5/USBFS_1.c **** 
 503:.\Generated_Source\PSoC5/USBFS_1.c ****     #if (USBFS_1_EP2_ISR_ACTIVE)
 504:.\Generated_Source\PSoC5/USBFS_1.c ****         CyIntEnable(USBFS_1_EP_2_VECT_NUM);
 268              		.loc 1 504 0
 269 0034 0222     		movs	r2, #2
 270 0036 1A60     		str	r2, [r3]
 505:.\Generated_Source\PSoC5/USBFS_1.c ****     #endif /* (USBFS_1_EP5_ISR_ACTIVE) */
 506:.\Generated_Source\PSoC5/USBFS_1.c **** 
 507:.\Generated_Source\PSoC5/USBFS_1.c ****     #if (USBFS_1_EP3_ISR_ACTIVE)
 508:.\Generated_Source\PSoC5/USBFS_1.c ****         CyIntEnable(USBFS_1_EP_3_VECT_NUM);
 509:.\Generated_Source\PSoC5/USBFS_1.c ****     #endif /* (USBFS_1_EP5_ISR_ACTIVE) */
 510:.\Generated_Source\PSoC5/USBFS_1.c **** 
 511:.\Generated_Source\PSoC5/USBFS_1.c ****     #if (USBFS_1_EP4_ISR_ACTIVE)
 512:.\Generated_Source\PSoC5/USBFS_1.c ****         CyIntEnable(USBFS_1_EP_4_VECT_NUM);
 513:.\Generated_Source\PSoC5/USBFS_1.c ****     #endif /* (USBFS_1_EP5_ISR_ACTIVE) */
 514:.\Generated_Source\PSoC5/USBFS_1.c **** 
 515:.\Generated_Source\PSoC5/USBFS_1.c ****     #if (USBFS_1_EP5_ISR_ACTIVE)
 516:.\Generated_Source\PSoC5/USBFS_1.c ****         CyIntEnable(USBFS_1_EP_5_VECT_NUM);
 517:.\Generated_Source\PSoC5/USBFS_1.c ****     #endif /* (USBFS_1_EP5_ISR_ACTIVE) */
 518:.\Generated_Source\PSoC5/USBFS_1.c **** 
 519:.\Generated_Source\PSoC5/USBFS_1.c ****     #if (USBFS_1_EP6_ISR_ACTIVE)
 520:.\Generated_Source\PSoC5/USBFS_1.c ****         CyIntEnable(USBFS_1_EP_6_VECT_NUM);
 521:.\Generated_Source\PSoC5/USBFS_1.c ****     #endif /* USBFS_1_EP6_ISR_REMOVE */
 522:.\Generated_Source\PSoC5/USBFS_1.c **** 
 523:.\Generated_Source\PSoC5/USBFS_1.c ****     #if (USBFS_1_EP7_ISR_ACTIVE)
 524:.\Generated_Source\PSoC5/USBFS_1.c ****         CyIntEnable(USBFS_1_EP_7_VECT_NUM);
 525:.\Generated_Source\PSoC5/USBFS_1.c ****     #endif /* (USBFS_1_EP7_ISR_ACTIVE) */
 526:.\Generated_Source\PSoC5/USBFS_1.c **** 
ARM GAS  C:\Users\LUKASC~1\AppData\Local\Temp\ccX4OJiL.s 			page 15


 527:.\Generated_Source\PSoC5/USBFS_1.c ****     #if (USBFS_1_EP8_ISR_ACTIVE)
 528:.\Generated_Source\PSoC5/USBFS_1.c ****         CyIntEnable(USBFS_1_EP_8_VECT_NUM);
 529:.\Generated_Source\PSoC5/USBFS_1.c ****     #endif /* (USBFS_1_EP8_ISR_ACTIVE) */
 530:.\Generated_Source\PSoC5/USBFS_1.c **** #endif /* (CY_PSOC4) */
 531:.\Generated_Source\PSoC5/USBFS_1.c **** 
 532:.\Generated_Source\PSoC5/USBFS_1.c **** #if (USBFS_1_EP_MANAGEMENT_DMA && USBFS_1_ARB_ISR_ACTIVE)
 533:.\Generated_Source\PSoC5/USBFS_1.c ****     /* Enable ARB EP interrupt sources. */
 534:.\Generated_Source\PSoC5/USBFS_1.c ****     USBFS_1_ARB_INT_EN_REG = USBFS_1_DEFAULT_ARB_INT_EN;
 271              		.loc 1 534 0
 272 0038 2149     		ldr	r1, .L14+36
 273              	.LVL23:
 274 003a 0A70     		strb	r2, [r1]
 535:.\Generated_Source\PSoC5/USBFS_1.c **** 
 536:.\Generated_Source\PSoC5/USBFS_1.c ****     #if (CY_PSOC3 || CY_PSOC5)
 537:.\Generated_Source\PSoC5/USBFS_1.c ****         CyIntEnable(USBFS_1_ARB_VECT_NUM);
 275              		.loc 1 537 0
 276 003c 4FF48002 		mov	r2, #4194304
 277 0040 1A60     		str	r2, [r3]
 538:.\Generated_Source\PSoC5/USBFS_1.c ****     #endif /* (CY_PSOC3 || CY_PSOC5) */
 539:.\Generated_Source\PSoC5/USBFS_1.c **** #endif   /* (USBFS_1_EP_MANAGEMENT_DMA && USBFS_1_ARB_ISR_ACTIVE) */
 540:.\Generated_Source\PSoC5/USBFS_1.c **** 
 541:.\Generated_Source\PSoC5/USBFS_1.c **** /* Arbiter configuration for DMA transfers. */
 542:.\Generated_Source\PSoC5/USBFS_1.c **** #if (USBFS_1_EP_MANAGEMENT_DMA)
 543:.\Generated_Source\PSoC5/USBFS_1.c ****     /* Configure Arbiter for Manual or Auto DMA operation and clear configuration completion. */
 544:.\Generated_Source\PSoC5/USBFS_1.c ****     USBFS_1_ARB_CFG_REG = USBFS_1_DEFAULT_ARB_CFG;
 278              		.loc 1 544 0
 279 0042 5022     		movs	r2, #80
 280 0044 1F4B     		ldr	r3, .L14+40
 281 0046 1A70     		strb	r2, [r3]
 545:.\Generated_Source\PSoC5/USBFS_1.c **** 
 546:.\Generated_Source\PSoC5/USBFS_1.c ****     #if (CY_PSOC4)
 547:.\Generated_Source\PSoC5/USBFS_1.c ****         /* Enable DMA operation. */
 548:.\Generated_Source\PSoC5/USBFS_1.c ****         CyDmaEnable();
 549:.\Generated_Source\PSoC5/USBFS_1.c **** 
 550:.\Generated_Source\PSoC5/USBFS_1.c ****         #if (USBFS_1_EP_MANAGEMENT_DMA_AUTO)
 551:.\Generated_Source\PSoC5/USBFS_1.c ****             /* Change DMA priority to be highest. */
 552:.\Generated_Source\PSoC5/USBFS_1.c ****              CyIntSetPriority(CYDMA_INTR_NUMBER, USBFS_1_DMA_AUTO_INTR_PRIO);
 553:.\Generated_Source\PSoC5/USBFS_1.c ****         #endif /* (USBFS_1_EP_MANAGEMENT_DMA_AUTO) */
 554:.\Generated_Source\PSoC5/USBFS_1.c ****     #endif /* (CY_PSOC4) */
 555:.\Generated_Source\PSoC5/USBFS_1.c **** 
 556:.\Generated_Source\PSoC5/USBFS_1.c ****     #if (USBFS_1_EP_MANAGEMENT_DMA_AUTO)
 557:.\Generated_Source\PSoC5/USBFS_1.c ****         #if (CY_PSOC4)
 558:.\Generated_Source\PSoC5/USBFS_1.c ****             /* Enable DMA interrupt to handle DMA management. */
 559:.\Generated_Source\PSoC5/USBFS_1.c ****             CyIntEnable(CYDMA_INTR_NUMBER);
 560:.\Generated_Source\PSoC5/USBFS_1.c ****         #else
 561:.\Generated_Source\PSoC5/USBFS_1.c ****             #if (USBFS_1_EP_DMA_AUTO_OPT == 0u)
 562:.\Generated_Source\PSoC5/USBFS_1.c ****                 /* Initialize interrupts which handle verification of successful DMA transaction. *
 563:.\Generated_Source\PSoC5/USBFS_1.c ****                 USBFS_1_EP_DMA_Done_isr_StartEx(&USBFS_1_EP_DMA_DONE_ISR);
 282              		.loc 1 563 0
 283 0048 1F48     		ldr	r0, .L14+44
 284              	.LVL24:
 285 004a FFF7FEFF 		bl	USBFS_1_EP_DMA_Done_isr_StartEx
 286              	.LVL25:
 564:.\Generated_Source\PSoC5/USBFS_1.c ****                 USBFS_1_EP17_DMA_Done_SR_InterruptEnable();
 287              		.loc 1 564 0
 288 004e FFF7FEFF 		bl	USBFS_1_EP17_DMA_Done_SR_InterruptEnable
 289              	.LVL26:
ARM GAS  C:\Users\LUKASC~1\AppData\Local\Temp\ccX4OJiL.s 			page 16


 565:.\Generated_Source\PSoC5/USBFS_1.c ****                 USBFS_1_EP8_DMA_Done_SR_InterruptEnable();
 290              		.loc 1 565 0
 291 0052 FFF7FEFF 		bl	USBFS_1_EP8_DMA_Done_SR_InterruptEnable
 292              	.LVL27:
 566:.\Generated_Source\PSoC5/USBFS_1.c ****             #endif /* (USBFS_1_EP_DMA_AUTO_OPT == 0u) */
 567:.\Generated_Source\PSoC5/USBFS_1.c ****         #endif /* (CY_PSOC4) */
 568:.\Generated_Source\PSoC5/USBFS_1.c ****     #endif /* (USBFS_1_EP_MANAGEMENT_DMA_AUTO) */
 569:.\Generated_Source\PSoC5/USBFS_1.c **** #endif /* (USBFS_1_EP_MANAGEMENT_DMA) */
 570:.\Generated_Source\PSoC5/USBFS_1.c **** 
 571:.\Generated_Source\PSoC5/USBFS_1.c ****     /* Enable USB regulator depends on operation voltage. IMO Locking is enabled in Init(). */
 572:.\Generated_Source\PSoC5/USBFS_1.c ****     switch(mode)
 293              		.loc 1 572 0
 294 0056 14B1     		cbz	r4, .L9
 295 0058 012C     		cmp	r4, #1
 296 005a 06D0     		beq	.L10
 297 005c 0BE0     		b	.L12
 298              	.L9:
 573:.\Generated_Source\PSoC5/USBFS_1.c ****     {
 574:.\Generated_Source\PSoC5/USBFS_1.c ****     case USBFS_1_3V_OPERATION:
 575:.\Generated_Source\PSoC5/USBFS_1.c ****         /* Disable regulator for 3V operation. */
 576:.\Generated_Source\PSoC5/USBFS_1.c ****         USBFS_1_CR1_REG &= (uint8) ~USBFS_1_CR1_REG_ENABLE;
 299              		.loc 1 576 0
 300 005e 1B4A     		ldr	r2, .L14+48
 301 0060 1378     		ldrb	r3, [r2]	@ zero_extendqisi2
 302 0062 03F0FE03 		and	r3, r3, #254
 303 0066 1370     		strb	r3, [r2]
 577:.\Generated_Source\PSoC5/USBFS_1.c ****         break;
 304              		.loc 1 577 0
 305 0068 0AE0     		b	.L11
 306              	.L10:
 578:.\Generated_Source\PSoC5/USBFS_1.c **** 
 579:.\Generated_Source\PSoC5/USBFS_1.c ****     case USBFS_1_5V_OPERATION:
 580:.\Generated_Source\PSoC5/USBFS_1.c ****         /* Enable regulator for 5V operation. */
 581:.\Generated_Source\PSoC5/USBFS_1.c ****         USBFS_1_CR1_REG |= (uint8)  USBFS_1_CR1_REG_ENABLE;
 307              		.loc 1 581 0
 308 006a 184A     		ldr	r2, .L14+48
 309 006c 1378     		ldrb	r3, [r2]	@ zero_extendqisi2
 310 006e 43F00103 		orr	r3, r3, #1
 311 0072 1370     		strb	r3, [r2]
 582:.\Generated_Source\PSoC5/USBFS_1.c ****         break;
 312              		.loc 1 582 0
 313 0074 04E0     		b	.L11
 314              	.L12:
 583:.\Generated_Source\PSoC5/USBFS_1.c **** 
 584:.\Generated_Source\PSoC5/USBFS_1.c ****     default: /* Check DWR settings of USB power supply. */
 585:.\Generated_Source\PSoC5/USBFS_1.c ****     #if (USBFS_1_VDDD_MV < USBFS_1_3500MV)
 586:.\Generated_Source\PSoC5/USBFS_1.c ****         /* Disable regulator for 3V operation. */
 587:.\Generated_Source\PSoC5/USBFS_1.c ****         USBFS_1_CR1_REG &= (uint8) ~USBFS_1_CR1_REG_ENABLE;
 588:.\Generated_Source\PSoC5/USBFS_1.c ****     #else
 589:.\Generated_Source\PSoC5/USBFS_1.c ****         /* Enable regulator for 5V operation. */
 590:.\Generated_Source\PSoC5/USBFS_1.c ****         USBFS_1_CR1_REG |= (uint8)  USBFS_1_CR1_REG_ENABLE;
 315              		.loc 1 590 0
 316 0076 154A     		ldr	r2, .L14+48
 317 0078 1378     		ldrb	r3, [r2]	@ zero_extendqisi2
 318 007a 43F00103 		orr	r3, r3, #1
 319 007e 1370     		strb	r3, [r2]
 320              	.L11:
ARM GAS  C:\Users\LUKASC~1\AppData\Local\Temp\ccX4OJiL.s 			page 17


 591:.\Generated_Source\PSoC5/USBFS_1.c ****     #endif /* (USBFS_1_VDDD_MV < USBFS_1_3500MV) */
 592:.\Generated_Source\PSoC5/USBFS_1.c ****         break;
 593:.\Generated_Source\PSoC5/USBFS_1.c ****     }
 594:.\Generated_Source\PSoC5/USBFS_1.c **** 
 595:.\Generated_Source\PSoC5/USBFS_1.c **** #if (CY_PSOC4)
 596:.\Generated_Source\PSoC5/USBFS_1.c ****     /* Clear bus activity. */
 597:.\Generated_Source\PSoC5/USBFS_1.c ****     USBFS_1_CR1_REG &= (uint32) ~USBFS_1_CR1_BUS_ACTIVITY;
 598:.\Generated_Source\PSoC5/USBFS_1.c **** 
 599:.\Generated_Source\PSoC5/USBFS_1.c ****     /* Clear EP0 count register. */
 600:.\Generated_Source\PSoC5/USBFS_1.c ****     USBFS_1_EP0_CNT_REG = USBFS_1_CLEAR_REG;
 601:.\Generated_Source\PSoC5/USBFS_1.c **** 
 602:.\Generated_Source\PSoC5/USBFS_1.c ****     /* Set EP0.CR: ACK Setup, NAK IN/OUT. */
 603:.\Generated_Source\PSoC5/USBFS_1.c ****     USBFS_1_EP0_CR_REG = USBFS_1_MODE_NAK_IN_OUT;
 604:.\Generated_Source\PSoC5/USBFS_1.c **** 
 605:.\Generated_Source\PSoC5/USBFS_1.c ****     #if (USBFS_1_LPM_ACTIVE)
 606:.\Generated_Source\PSoC5/USBFS_1.c ****         if (NULL != USBFS_1_GetBOSPtr())
 607:.\Generated_Source\PSoC5/USBFS_1.c ****         {
 608:.\Generated_Source\PSoC5/USBFS_1.c ****             /* Enable LPM and acknowledge LPM packets for active device.
 609:.\Generated_Source\PSoC5/USBFS_1.c ****             * Reset NYET_EN and SUB_RESP bits in the LPM_CTRL register.
 610:.\Generated_Source\PSoC5/USBFS_1.c ****             */
 611:.\Generated_Source\PSoC5/USBFS_1.c ****             USBFS_1_LPM_CTRL_REG = (USBFS_1_LPM_CTRL_LPM_EN | \
 612:.\Generated_Source\PSoC5/USBFS_1.c ****                                              USBFS_1_LPM_CTRL_LPM_ACK_RESP);
 613:.\Generated_Source\PSoC5/USBFS_1.c ****         }
 614:.\Generated_Source\PSoC5/USBFS_1.c ****         else
 615:.\Generated_Source\PSoC5/USBFS_1.c ****         {
 616:.\Generated_Source\PSoC5/USBFS_1.c ****             /* Disable LPM for active device. */
 617:.\Generated_Source\PSoC5/USBFS_1.c ****             USBFS_1_LPM_CTRL_REG &= (uint32) ~USBFS_1_LPM_CTRL_LPM_EN;
 618:.\Generated_Source\PSoC5/USBFS_1.c ****         }
 619:.\Generated_Source\PSoC5/USBFS_1.c ****     #endif /* (USBFS_1_LPM_ACTIVE) */
 620:.\Generated_Source\PSoC5/USBFS_1.c **** 
 621:.\Generated_Source\PSoC5/USBFS_1.c ****     /* Enable device to responds to USB traffic with address 0. */
 622:.\Generated_Source\PSoC5/USBFS_1.c ****     USBFS_1_CR0_REG = USBFS_1_DEFUALT_CR0;
 623:.\Generated_Source\PSoC5/USBFS_1.c **** 
 624:.\Generated_Source\PSoC5/USBFS_1.c **** #else
 625:.\Generated_Source\PSoC5/USBFS_1.c ****     /* Set EP0.CR: ACK Setup, STALL IN/OUT. */
 626:.\Generated_Source\PSoC5/USBFS_1.c ****     USBFS_1_EP0_CR_REG = USBFS_1_MODE_STALL_IN_OUT;
 321              		.loc 1 626 0
 322 0080 0322     		movs	r2, #3
 323 0082 134B     		ldr	r3, .L14+52
 324 0084 1A70     		strb	r2, [r3]
 627:.\Generated_Source\PSoC5/USBFS_1.c **** 
 628:.\Generated_Source\PSoC5/USBFS_1.c ****     /* Enable device to respond to USB traffic with address 0. */
 629:.\Generated_Source\PSoC5/USBFS_1.c ****     USBFS_1_CR0_REG = USBFS_1_DEFUALT_CR0;
 325              		.loc 1 629 0
 326 0086 8022     		movs	r2, #128
 327 0088 203B     		subs	r3, r3, #32
 328 008a 1A70     		strb	r2, [r3]
 630:.\Generated_Source\PSoC5/USBFS_1.c ****     CyDelayCycles(USBFS_1_WAIT_CR0_REG_STABILITY);
 329              		.loc 1 630 0
 330 008c 0120     		movs	r0, #1
 331 008e FFF7FEFF 		bl	CyDelayCycles
 332              	.LVL28:
 631:.\Generated_Source\PSoC5/USBFS_1.c **** #endif /* (CY_PSOC4) */
 632:.\Generated_Source\PSoC5/USBFS_1.c **** 
 633:.\Generated_Source\PSoC5/USBFS_1.c ****     /* Enable D+ pull-up and keep USB control on IO. */
 634:.\Generated_Source\PSoC5/USBFS_1.c ****     USBFS_1_USBIO_CR1_REG = USBFS_1_USBIO_CR1_USBPUEN;
 333              		.loc 1 634 0
ARM GAS  C:\Users\LUKASC~1\AppData\Local\Temp\ccX4OJiL.s 			page 18


 334 0092 0422     		movs	r2, #4
 335 0094 0F4B     		ldr	r3, .L14+56
 336 0096 1A70     		strb	r2, [r3]
 337 0098 10BD     		pop	{r4, pc}
 338              	.L15:
 339 009a 00BF     		.align	2
 340              	.L14:
 341 009c 00000000 		.word	USBFS_1_device
 342 00a0 00000000 		.word	USBFS_1_transferState
 343 00a4 00000000 		.word	USBFS_1_configurationChanged
 344 00a8 00000000 		.word	USBFS_1_configuration
 345 00ac 00000000 		.word	USBFS_1_interfaceNumber
 346 00b0 00000000 		.word	USBFS_1_deviceAddress
 347 00b4 00000000 		.word	USBFS_1_deviceStatus
 348 00b8 00000000 		.word	USBFS_1_lastPacketSize
 349 00bc 00E100E0 		.word	-536813312
 350 00c0 9E600040 		.word	1073766558
 351 00c4 9C600040 		.word	1073766556
 352 00c8 00000000 		.word	USBFS_1_EP_DMA_DONE_ISR
 353 00cc 09600040 		.word	1073766409
 354 00d0 28600040 		.word	1073766440
 355 00d4 12600040 		.word	1073766418
 356              		.cfi_endproc
 357              	.LFE2:
 358              		.size	USBFS_1_InitComponent, .-USBFS_1_InitComponent
 359              		.section	.text.USBFS_1_Start,"ax",%progbits
 360              		.align	2
 361              		.global	USBFS_1_Start
 362              		.thumb
 363              		.thumb_func
 364              		.type	USBFS_1_Start, %function
 365              	USBFS_1_Start:
 366              	.LFB0:
 186:.\Generated_Source\PSoC5/USBFS_1.c ****     if (0u == USBFS_1_initVar)
 367              		.loc 1 186 0
 368              		.cfi_startproc
 369              		@ args = 0, pretend = 0, frame = 0
 370              		@ frame_needed = 0, uses_anonymous_args = 0
 371              	.LVL29:
 372 0000 38B5     		push	{r3, r4, r5, lr}
 373              		.cfi_def_cfa_offset 16
 374              		.cfi_offset 3, -16
 375              		.cfi_offset 4, -12
 376              		.cfi_offset 5, -8
 377              		.cfi_offset 14, -4
 378 0002 0546     		mov	r5, r0
 379 0004 0C46     		mov	r4, r1
 187:.\Generated_Source\PSoC5/USBFS_1.c ****     {
 380              		.loc 1 187 0
 381 0006 064B     		ldr	r3, .L19
 382 0008 1B78     		ldrb	r3, [r3]	@ zero_extendqisi2
 383 000a 23B9     		cbnz	r3, .L17
 189:.\Generated_Source\PSoC5/USBFS_1.c ****         USBFS_1_initVar = 1u;
 384              		.loc 1 189 0
 385 000c FFF7FEFF 		bl	USBFS_1_Init
 386              	.LVL30:
 190:.\Generated_Source\PSoC5/USBFS_1.c ****     }
ARM GAS  C:\Users\LUKASC~1\AppData\Local\Temp\ccX4OJiL.s 			page 19


 387              		.loc 1 190 0
 388 0010 0122     		movs	r2, #1
 389 0012 034B     		ldr	r3, .L19
 390 0014 1A70     		strb	r2, [r3]
 391              	.L17:
 193:.\Generated_Source\PSoC5/USBFS_1.c **** }
 392              		.loc 1 193 0
 393 0016 2846     		mov	r0, r5
 394 0018 2146     		mov	r1, r4
 395 001a FFF7FEFF 		bl	USBFS_1_InitComponent
 396              	.LVL31:
 397 001e 38BD     		pop	{r3, r4, r5, pc}
 398              	.L20:
 399              		.align	2
 400              	.L19:
 401 0020 00000000 		.word	.LANCHOR0
 402              		.cfi_endproc
 403              	.LFE0:
 404              		.size	USBFS_1_Start, .-USBFS_1_Start
 405              		.section	.text.USBFS_1_ReInitComponent,"ax",%progbits
 406              		.align	2
 407              		.global	USBFS_1_ReInitComponent
 408              		.thumb
 409              		.thumb_func
 410              		.type	USBFS_1_ReInitComponent, %function
 411              	USBFS_1_ReInitComponent:
 412              	.LFB3:
 635:.\Generated_Source\PSoC5/USBFS_1.c **** }
 636:.\Generated_Source\PSoC5/USBFS_1.c **** 
 637:.\Generated_Source\PSoC5/USBFS_1.c **** 
 638:.\Generated_Source\PSoC5/USBFS_1.c **** /*******************************************************************************
 639:.\Generated_Source\PSoC5/USBFS_1.c **** * Function Name: USBFS_1_ReInitComponent
 640:.\Generated_Source\PSoC5/USBFS_1.c **** ****************************************************************************//**
 641:.\Generated_Source\PSoC5/USBFS_1.c **** *
 642:.\Generated_Source\PSoC5/USBFS_1.c **** *  This function reinitialize the component configuration and is
 643:.\Generated_Source\PSoC5/USBFS_1.c **** *  intend to be called from the Reset interrupt.
 644:.\Generated_Source\PSoC5/USBFS_1.c **** *
 645:.\Generated_Source\PSoC5/USBFS_1.c **** * \globalvars
 646:.\Generated_Source\PSoC5/USBFS_1.c **** *   USBFS_1_device - Contains the device number of the desired Device
 647:.\Generated_Source\PSoC5/USBFS_1.c **** *        Descriptor. The device number can be found in the Device Descriptor tab
 648:.\Generated_Source\PSoC5/USBFS_1.c **** *       of the Configure dialog, under the settings of the desired Device Descriptor,
 649:.\Generated_Source\PSoC5/USBFS_1.c **** *       in the Device Number field.
 650:.\Generated_Source\PSoC5/USBFS_1.c **** *   USBFS_1_transferState - This variable is used by the communication
 651:.\Generated_Source\PSoC5/USBFS_1.c **** *       functions to handle the current transfer state. Initialized to
 652:.\Generated_Source\PSoC5/USBFS_1.c **** *       TRANS_STATE_IDLE in this API.
 653:.\Generated_Source\PSoC5/USBFS_1.c **** *   USBFS_1_configuration - Contains the current configuration number
 654:.\Generated_Source\PSoC5/USBFS_1.c **** *       set by the Host using a SET_CONFIGURATION request.
 655:.\Generated_Source\PSoC5/USBFS_1.c **** *       Initialized to zero in this API.
 656:.\Generated_Source\PSoC5/USBFS_1.c **** *   USBFS_1_deviceAddress - Contains the current device address. This
 657:.\Generated_Source\PSoC5/USBFS_1.c **** *       variable is initialized to zero in this API. The Host starts to communicate
 658:.\Generated_Source\PSoC5/USBFS_1.c **** *      to the device with address 0 and then sets it to a whatever value using
 659:.\Generated_Source\PSoC5/USBFS_1.c **** *      a SET_ADDRESS request.
 660:.\Generated_Source\PSoC5/USBFS_1.c **** *   USBFS_1_deviceStatus - Initialized to 0.
 661:.\Generated_Source\PSoC5/USBFS_1.c **** *       This is a two-bit variable which contains the power status in the first bit
 662:.\Generated_Source\PSoC5/USBFS_1.c **** *       (DEVICE_STATUS_BUS_POWERED or DEVICE_STATUS_SELF_POWERED) and the remote
 663:.\Generated_Source\PSoC5/USBFS_1.c **** *       wakeup status (DEVICE_STATUS_REMOTE_WAKEUP) in the second bit.
 664:.\Generated_Source\PSoC5/USBFS_1.c **** *   USBFS_1_lastPacketSize - Initialized to 0;
ARM GAS  C:\Users\LUKASC~1\AppData\Local\Temp\ccX4OJiL.s 			page 20


 665:.\Generated_Source\PSoC5/USBFS_1.c **** *
 666:.\Generated_Source\PSoC5/USBFS_1.c **** * \reentrant
 667:.\Generated_Source\PSoC5/USBFS_1.c **** *  No.
 668:.\Generated_Source\PSoC5/USBFS_1.c **** *
 669:.\Generated_Source\PSoC5/USBFS_1.c **** *******************************************************************************/
 670:.\Generated_Source\PSoC5/USBFS_1.c **** void USBFS_1_ReInitComponent(void) 
 671:.\Generated_Source\PSoC5/USBFS_1.c **** {
 413              		.loc 1 671 0
 414              		.cfi_startproc
 415              		@ args = 0, pretend = 0, frame = 0
 416              		@ frame_needed = 0, uses_anonymous_args = 0
 417              		@ link register save eliminated.
 672:.\Generated_Source\PSoC5/USBFS_1.c ****     /* Initialize _hidProtocol variable to comply with HID 7.2.6 Set_Protocol
 673:.\Generated_Source\PSoC5/USBFS_1.c ****     *  Request: "When initialized, all devices default to report protocol."
 674:.\Generated_Source\PSoC5/USBFS_1.c ****     */
 675:.\Generated_Source\PSoC5/USBFS_1.c **** #if defined(USBFS_1_ENABLE_HID_CLASS)
 676:.\Generated_Source\PSoC5/USBFS_1.c ****     uint8 i;
 677:.\Generated_Source\PSoC5/USBFS_1.c **** 
 678:.\Generated_Source\PSoC5/USBFS_1.c ****     for (i = 0u; i < USBFS_1_MAX_INTERFACES_NUMBER; i++)
 679:.\Generated_Source\PSoC5/USBFS_1.c ****     {
 680:.\Generated_Source\PSoC5/USBFS_1.c ****         USBFS_1_hidProtocol[i] = USBFS_1_PROTOCOL_REPORT;
 681:.\Generated_Source\PSoC5/USBFS_1.c ****     }
 682:.\Generated_Source\PSoC5/USBFS_1.c **** #endif /* USBFS_1_ENABLE_HID_CLASS */
 683:.\Generated_Source\PSoC5/USBFS_1.c **** 
 684:.\Generated_Source\PSoC5/USBFS_1.c ****     /* Reset component internal variables. */
 685:.\Generated_Source\PSoC5/USBFS_1.c ****     USBFS_1_transferState   = USBFS_1_TRANS_STATE_IDLE;
 418              		.loc 1 685 0
 419 0000 0023     		movs	r3, #0
 420 0002 0A4A     		ldr	r2, .L22
 421 0004 1370     		strb	r3, [r2]
 686:.\Generated_Source\PSoC5/USBFS_1.c ****     USBFS_1_configurationChanged = 0u;
 422              		.loc 1 686 0
 423 0006 0A4A     		ldr	r2, .L22+4
 424 0008 1370     		strb	r3, [r2]
 687:.\Generated_Source\PSoC5/USBFS_1.c ****     USBFS_1_configuration   = 0u;
 425              		.loc 1 687 0
 426 000a 0A4A     		ldr	r2, .L22+8
 427 000c 1370     		strb	r3, [r2]
 688:.\Generated_Source\PSoC5/USBFS_1.c ****     USBFS_1_interfaceNumber = 0u;
 428              		.loc 1 688 0
 429 000e 0A4A     		ldr	r2, .L22+12
 430 0010 1370     		strb	r3, [r2]
 689:.\Generated_Source\PSoC5/USBFS_1.c ****     USBFS_1_deviceAddress   = 0u;
 431              		.loc 1 689 0
 432 0012 0A4A     		ldr	r2, .L22+16
 433 0014 1370     		strb	r3, [r2]
 690:.\Generated_Source\PSoC5/USBFS_1.c ****     USBFS_1_deviceStatus    = 0u;
 434              		.loc 1 690 0
 435 0016 0A4A     		ldr	r2, .L22+20
 436 0018 1370     		strb	r3, [r2]
 691:.\Generated_Source\PSoC5/USBFS_1.c ****     USBFS_1_lastPacketSize  = 0u;
 437              		.loc 1 691 0
 438 001a 0A4A     		ldr	r2, .L22+24
 439 001c 1370     		strb	r3, [r2]
 692:.\Generated_Source\PSoC5/USBFS_1.c **** 
 693:.\Generated_Source\PSoC5/USBFS_1.c **** #if (CY_PSOC4)
 694:.\Generated_Source\PSoC5/USBFS_1.c ****     /* Set EP0.CR: ACK Setup, NAK IN/OUT. */
ARM GAS  C:\Users\LUKASC~1\AppData\Local\Temp\ccX4OJiL.s 			page 21


 695:.\Generated_Source\PSoC5/USBFS_1.c ****     USBFS_1_EP0_CR_REG = USBFS_1_MODE_NAK_IN_OUT;
 696:.\Generated_Source\PSoC5/USBFS_1.c **** #else
 697:.\Generated_Source\PSoC5/USBFS_1.c ****     /* Set EP0.CR: ACK Setup, STALL IN/OUT. */
 698:.\Generated_Source\PSoC5/USBFS_1.c ****     USBFS_1_EP0_CR_REG = USBFS_1_MODE_STALL_IN_OUT;
 440              		.loc 1 698 0
 441 001e 0322     		movs	r2, #3
 442 0020 094B     		ldr	r3, .L22+28
 443 0022 1A70     		strb	r2, [r3]
 699:.\Generated_Source\PSoC5/USBFS_1.c **** #endif /* (CY_PSOC4) */
 700:.\Generated_Source\PSoC5/USBFS_1.c **** 
 701:.\Generated_Source\PSoC5/USBFS_1.c ****     /* Enable device to respond to USB traffic with address 0. */
 702:.\Generated_Source\PSoC5/USBFS_1.c ****     USBFS_1_CR0_REG = USBFS_1_DEFUALT_CR0;
 444              		.loc 1 702 0
 445 0024 8022     		movs	r2, #128
 446 0026 203B     		subs	r3, r3, #32
 447 0028 1A70     		strb	r2, [r3]
 448 002a 7047     		bx	lr
 449              	.L23:
 450              		.align	2
 451              	.L22:
 452 002c 00000000 		.word	USBFS_1_transferState
 453 0030 00000000 		.word	USBFS_1_configurationChanged
 454 0034 00000000 		.word	USBFS_1_configuration
 455 0038 00000000 		.word	USBFS_1_interfaceNumber
 456 003c 00000000 		.word	USBFS_1_deviceAddress
 457 0040 00000000 		.word	USBFS_1_deviceStatus
 458 0044 00000000 		.word	USBFS_1_lastPacketSize
 459 0048 28600040 		.word	1073766440
 460              		.cfi_endproc
 461              	.LFE3:
 462              		.size	USBFS_1_ReInitComponent, .-USBFS_1_ReInitComponent
 463              		.section	.text.USBFS_1_CheckActivity,"ax",%progbits
 464              		.align	2
 465              		.global	USBFS_1_CheckActivity
 466              		.thumb
 467              		.thumb_func
 468              		.type	USBFS_1_CheckActivity, %function
 469              	USBFS_1_CheckActivity:
 470              	.LFB5:
 703:.\Generated_Source\PSoC5/USBFS_1.c **** }
 704:.\Generated_Source\PSoC5/USBFS_1.c **** 
 705:.\Generated_Source\PSoC5/USBFS_1.c **** 
 706:.\Generated_Source\PSoC5/USBFS_1.c **** /*******************************************************************************
 707:.\Generated_Source\PSoC5/USBFS_1.c **** * Function Name: USBFS_1_Stop
 708:.\Generated_Source\PSoC5/USBFS_1.c **** ****************************************************************************//**
 709:.\Generated_Source\PSoC5/USBFS_1.c **** *
 710:.\Generated_Source\PSoC5/USBFS_1.c **** *  This function shuts down the USB function including to release
 711:.\Generated_Source\PSoC5/USBFS_1.c **** *  the D+ pull-up and disabling the SIE.
 712:.\Generated_Source\PSoC5/USBFS_1.c **** *
 713:.\Generated_Source\PSoC5/USBFS_1.c **** * \globalvars
 714:.\Generated_Source\PSoC5/USBFS_1.c **** *   \ref USBFS_1_configuration
 715:.\Generated_Source\PSoC5/USBFS_1.c **** *
 716:.\Generated_Source\PSoC5/USBFS_1.c **** *   USBFS_1_deviceAddress - Contains the current device address. This
 717:.\Generated_Source\PSoC5/USBFS_1.c **** *       variable is initialized to zero in this API. The Host starts to communicate
 718:.\Generated_Source\PSoC5/USBFS_1.c **** *      to the device with address 0 and then sets it to a whatever value using
 719:.\Generated_Source\PSoC5/USBFS_1.c **** *      a SET_ADDRESS request.
 720:.\Generated_Source\PSoC5/USBFS_1.c **** *
ARM GAS  C:\Users\LUKASC~1\AppData\Local\Temp\ccX4OJiL.s 			page 22


 721:.\Generated_Source\PSoC5/USBFS_1.c **** *   \ref USBFS_1_deviceStatus
 722:.\Generated_Source\PSoC5/USBFS_1.c **** *
 723:.\Generated_Source\PSoC5/USBFS_1.c **** *   \ref USBFS_1_configurationChanged
 724:.\Generated_Source\PSoC5/USBFS_1.c **** *
 725:.\Generated_Source\PSoC5/USBFS_1.c **** *   USBFS_1_intiVar -  This variable is set to zero
 726:.\Generated_Source\PSoC5/USBFS_1.c **** *
 727:.\Generated_Source\PSoC5/USBFS_1.c **** *******************************************************************************/
 728:.\Generated_Source\PSoC5/USBFS_1.c **** void USBFS_1_Stop(void) 
 729:.\Generated_Source\PSoC5/USBFS_1.c **** {
 730:.\Generated_Source\PSoC5/USBFS_1.c ****     uint8 enableInterrupts;
 731:.\Generated_Source\PSoC5/USBFS_1.c **** 
 732:.\Generated_Source\PSoC5/USBFS_1.c **** #if (USBFS_1_EP_MANAGEMENT_DMA)
 733:.\Generated_Source\PSoC5/USBFS_1.c ****     /* Stop all DMA channels. */
 734:.\Generated_Source\PSoC5/USBFS_1.c ****     USBFS_1_Stop_DMA(USBFS_1_MAX_EP);
 735:.\Generated_Source\PSoC5/USBFS_1.c **** #endif /* (USBFS_1_EP_MANAGEMENT_DMA) */
 736:.\Generated_Source\PSoC5/USBFS_1.c **** 
 737:.\Generated_Source\PSoC5/USBFS_1.c ****     enableInterrupts = CyEnterCriticalSection();
 738:.\Generated_Source\PSoC5/USBFS_1.c **** 
 739:.\Generated_Source\PSoC5/USBFS_1.c ****     /* Disable USB IP to respond to USB traffic. */
 740:.\Generated_Source\PSoC5/USBFS_1.c ****     USBFS_1_CR0_REG &= (uint8) ~USBFS_1_CR0_ENABLE;
 741:.\Generated_Source\PSoC5/USBFS_1.c **** 
 742:.\Generated_Source\PSoC5/USBFS_1.c ****     /* Disable D+ pull-up. */
 743:.\Generated_Source\PSoC5/USBFS_1.c ****     USBFS_1_USBIO_CR1_REG &= (uint8) ~ USBFS_1_USBIO_CR1_USBPUEN;
 744:.\Generated_Source\PSoC5/USBFS_1.c **** 
 745:.\Generated_Source\PSoC5/USBFS_1.c **** #if (CY_PSOC4)
 746:.\Generated_Source\PSoC5/USBFS_1.c ****     /* Disable USBFS block. */
 747:.\Generated_Source\PSoC5/USBFS_1.c ****     USBFS_1_POWER_CTRL_REG &= (uint32) ~USBFS_1_POWER_CTRL_ENABLE;
 748:.\Generated_Source\PSoC5/USBFS_1.c **** #else
 749:.\Generated_Source\PSoC5/USBFS_1.c ****     /* Clear power active and standby mode templates. */
 750:.\Generated_Source\PSoC5/USBFS_1.c ****     USBFS_1_PM_ACT_CFG_REG  &= (uint8) ~USBFS_1_PM_ACT_EN_FSUSB;
 751:.\Generated_Source\PSoC5/USBFS_1.c ****     USBFS_1_PM_STBY_CFG_REG &= (uint8) ~USBFS_1_PM_STBY_EN_FSUSB;
 752:.\Generated_Source\PSoC5/USBFS_1.c **** #endif /* (CY_PSOC4) */
 753:.\Generated_Source\PSoC5/USBFS_1.c **** 
 754:.\Generated_Source\PSoC5/USBFS_1.c ****     CyExitCriticalSection(enableInterrupts);
 755:.\Generated_Source\PSoC5/USBFS_1.c **** 
 756:.\Generated_Source\PSoC5/USBFS_1.c ****     /* Disable component interrupts. */
 757:.\Generated_Source\PSoC5/USBFS_1.c **** #if (CY_PSOC4)
 758:.\Generated_Source\PSoC5/USBFS_1.c ****     CyIntDisable(USBFS_1_INTR_HI_VECT_NUM);
 759:.\Generated_Source\PSoC5/USBFS_1.c ****     CyIntDisable(USBFS_1_INTR_LO_VECT_NUM);
 760:.\Generated_Source\PSoC5/USBFS_1.c ****     CyIntDisable(USBFS_1_INTR_MED_VECT_NUM);
 761:.\Generated_Source\PSoC5/USBFS_1.c **** #else
 762:.\Generated_Source\PSoC5/USBFS_1.c **** 
 763:.\Generated_Source\PSoC5/USBFS_1.c ****     CyIntDisable(USBFS_1_BUS_RESET_VECT_NUM);
 764:.\Generated_Source\PSoC5/USBFS_1.c ****     CyIntDisable(USBFS_1_EP_0_VECT_NUM);
 765:.\Generated_Source\PSoC5/USBFS_1.c **** 
 766:.\Generated_Source\PSoC5/USBFS_1.c ****     #if (USBFS_1_SOF_ISR_ACTIVE)
 767:.\Generated_Source\PSoC5/USBFS_1.c ****         CyIntDisable(USBFS_1_SOF_VECT_NUM);
 768:.\Generated_Source\PSoC5/USBFS_1.c ****     #endif /* (USBFS_1_SOF_ISR_ACTIVE) */
 769:.\Generated_Source\PSoC5/USBFS_1.c **** 
 770:.\Generated_Source\PSoC5/USBFS_1.c ****     #if (USBFS_1_EP1_ISR_ACTIVE)
 771:.\Generated_Source\PSoC5/USBFS_1.c ****         CyIntDisable(USBFS_1_EP_1_VECT_NUM);
 772:.\Generated_Source\PSoC5/USBFS_1.c ****     #endif /* (USBFS_1_EP1_ISR_ACTIVE) */
 773:.\Generated_Source\PSoC5/USBFS_1.c **** 
 774:.\Generated_Source\PSoC5/USBFS_1.c ****     #if (USBFS_1_EP2_ISR_ACTIVE)
 775:.\Generated_Source\PSoC5/USBFS_1.c ****         CyIntDisable(USBFS_1_EP_2_VECT_NUM);
 776:.\Generated_Source\PSoC5/USBFS_1.c ****     #endif /* (USBFS_1_EP2_ISR_ACTIVE) */
 777:.\Generated_Source\PSoC5/USBFS_1.c **** 
ARM GAS  C:\Users\LUKASC~1\AppData\Local\Temp\ccX4OJiL.s 			page 23


 778:.\Generated_Source\PSoC5/USBFS_1.c ****     #if (USBFS_1_EP3_ISR_ACTIVE)
 779:.\Generated_Source\PSoC5/USBFS_1.c ****         CyIntDisable(USBFS_1_EP_3_VECT_NUM);
 780:.\Generated_Source\PSoC5/USBFS_1.c ****     #endif /* (USBFS_1_EP3_ISR_ACTIVE) */
 781:.\Generated_Source\PSoC5/USBFS_1.c **** 
 782:.\Generated_Source\PSoC5/USBFS_1.c ****     #if (USBFS_1_EP4_ISR_ACTIVE)
 783:.\Generated_Source\PSoC5/USBFS_1.c ****         CyIntDisable(USBFS_1_EP_4_VECT_NUM);
 784:.\Generated_Source\PSoC5/USBFS_1.c ****     #endif /* (USBFS_1_EP4_ISR_ACTIVE) */
 785:.\Generated_Source\PSoC5/USBFS_1.c **** 
 786:.\Generated_Source\PSoC5/USBFS_1.c ****     #if (USBFS_1_EP5_ISR_ACTIVE)
 787:.\Generated_Source\PSoC5/USBFS_1.c ****         CyIntDisable(USBFS_1_EP_5_VECT_NUM);
 788:.\Generated_Source\PSoC5/USBFS_1.c ****     #endif /* (USBFS_1_EP5_ISR_ACTIVE) */
 789:.\Generated_Source\PSoC5/USBFS_1.c **** 
 790:.\Generated_Source\PSoC5/USBFS_1.c ****     #if (USBFS_1_EP6_ISR_ACTIVE)
 791:.\Generated_Source\PSoC5/USBFS_1.c ****         CyIntDisable(USBFS_1_EP_6_VECT_NUM);
 792:.\Generated_Source\PSoC5/USBFS_1.c ****     #endif /* USBFS_1_EP6_ISR_REMOVE */
 793:.\Generated_Source\PSoC5/USBFS_1.c **** 
 794:.\Generated_Source\PSoC5/USBFS_1.c ****     #if (USBFS_1_EP7_ISR_ACTIVE)
 795:.\Generated_Source\PSoC5/USBFS_1.c ****         CyIntDisable(USBFS_1_EP_7_VECT_NUM);
 796:.\Generated_Source\PSoC5/USBFS_1.c ****     #endif /* (USBFS_1_EP7_ISR_ACTIVE) */
 797:.\Generated_Source\PSoC5/USBFS_1.c **** 
 798:.\Generated_Source\PSoC5/USBFS_1.c ****     #if (USBFS_1_EP8_ISR_ACTIVE)
 799:.\Generated_Source\PSoC5/USBFS_1.c ****         CyIntDisable(USBFS_1_EP_8_VECT_NUM);
 800:.\Generated_Source\PSoC5/USBFS_1.c ****     #endif /* (USBFS_1_EP8_ISR_ACTIVE) */
 801:.\Generated_Source\PSoC5/USBFS_1.c **** #endif /* (CY_PSOC4) */
 802:.\Generated_Source\PSoC5/USBFS_1.c **** 
 803:.\Generated_Source\PSoC5/USBFS_1.c ****     /* Reset component internal variables. */
 804:.\Generated_Source\PSoC5/USBFS_1.c ****     USBFS_1_configurationChanged = 0u;
 805:.\Generated_Source\PSoC5/USBFS_1.c ****     USBFS_1_configuration   = 0u;
 806:.\Generated_Source\PSoC5/USBFS_1.c ****     USBFS_1_interfaceNumber = 0u;
 807:.\Generated_Source\PSoC5/USBFS_1.c ****     USBFS_1_deviceAddress   = 0u;
 808:.\Generated_Source\PSoC5/USBFS_1.c ****     USBFS_1_deviceStatus    = 0u;
 809:.\Generated_Source\PSoC5/USBFS_1.c **** 
 810:.\Generated_Source\PSoC5/USBFS_1.c ****     /* It is mandatory for correct device startup. */
 811:.\Generated_Source\PSoC5/USBFS_1.c ****     USBFS_1_initVar = 0u;
 812:.\Generated_Source\PSoC5/USBFS_1.c **** }
 813:.\Generated_Source\PSoC5/USBFS_1.c **** 
 814:.\Generated_Source\PSoC5/USBFS_1.c **** 
 815:.\Generated_Source\PSoC5/USBFS_1.c **** /*******************************************************************************
 816:.\Generated_Source\PSoC5/USBFS_1.c **** * Function Name: USBFS_1_CheckActivity
 817:.\Generated_Source\PSoC5/USBFS_1.c **** ****************************************************************************//**
 818:.\Generated_Source\PSoC5/USBFS_1.c **** *
 819:.\Generated_Source\PSoC5/USBFS_1.c **** *  This function returns the activity status of the bus. It clears the hardware
 820:.\Generated_Source\PSoC5/USBFS_1.c **** *  status to provide updated status on the next call of this function. It
 821:.\Generated_Source\PSoC5/USBFS_1.c **** *  provides a way to determine whether any USB bus activity occurred. The
 822:.\Generated_Source\PSoC5/USBFS_1.c **** *  application should use this function to determine if the USB suspend
 823:.\Generated_Source\PSoC5/USBFS_1.c **** *  conditions are met.
 824:.\Generated_Source\PSoC5/USBFS_1.c **** *
 825:.\Generated_Source\PSoC5/USBFS_1.c **** *
 826:.\Generated_Source\PSoC5/USBFS_1.c **** * \return
 827:.\Generated_Source\PSoC5/USBFS_1.c **** *  cystatus: Status of the bus since the last call of the function.
 828:.\Generated_Source\PSoC5/USBFS_1.c **** *  Return Value |   Description
 829:.\Generated_Source\PSoC5/USBFS_1.c **** *  -------------|---------------------------------------------------------------
 830:.\Generated_Source\PSoC5/USBFS_1.c **** *  1            |Bus activity was detected since the last call to this function
 831:.\Generated_Source\PSoC5/USBFS_1.c **** *  0            |Bus activity was not detected since the last call to this function
 832:.\Generated_Source\PSoC5/USBFS_1.c **** *
 833:.\Generated_Source\PSoC5/USBFS_1.c **** *
 834:.\Generated_Source\PSoC5/USBFS_1.c **** *******************************************************************************/
ARM GAS  C:\Users\LUKASC~1\AppData\Local\Temp\ccX4OJiL.s 			page 24


 835:.\Generated_Source\PSoC5/USBFS_1.c **** uint8 USBFS_1_CheckActivity(void) 
 836:.\Generated_Source\PSoC5/USBFS_1.c **** {
 471              		.loc 1 836 0
 472              		.cfi_startproc
 473              		@ args = 0, pretend = 0, frame = 0
 474              		@ frame_needed = 0, uses_anonymous_args = 0
 475              		@ link register save eliminated.
 837:.\Generated_Source\PSoC5/USBFS_1.c ****     uint8 cr1Reg = USBFS_1_CR1_REG;
 476              		.loc 1 837 0
 477 0000 064A     		ldr	r2, .L26
 478 0002 1378     		ldrb	r3, [r2]	@ zero_extendqisi2
 479 0004 DBB2     		uxtb	r3, r3
 480              	.LVL32:
 838:.\Generated_Source\PSoC5/USBFS_1.c **** 
 839:.\Generated_Source\PSoC5/USBFS_1.c ****     /* Clear bus activity. */
 840:.\Generated_Source\PSoC5/USBFS_1.c ****     USBFS_1_CR1_REG = (cr1Reg & (uint8) ~USBFS_1_CR1_BUS_ACTIVITY);
 481              		.loc 1 840 0
 482 0006 03F0FB01 		and	r1, r3, #251
 483 000a 1170     		strb	r1, [r2]
 841:.\Generated_Source\PSoC5/USBFS_1.c **** 
 842:.\Generated_Source\PSoC5/USBFS_1.c ****     /* Get bus activity. */
 843:.\Generated_Source\PSoC5/USBFS_1.c ****     return ((0u != (cr1Reg & USBFS_1_CR1_BUS_ACTIVITY)) ? (1u) : (0u));
 484              		.loc 1 843 0
 485 000c 03F00403 		and	r3, r3, #4
 486              	.LVL33:
 487 0010 03F0FF00 		and	r0, r3, #255
 488 0014 03B1     		cbz	r3, .L25
 489 0016 0120     		movs	r0, #1
 490              	.L25:
 844:.\Generated_Source\PSoC5/USBFS_1.c **** }
 491              		.loc 1 844 0 discriminator 4
 492 0018 7047     		bx	lr
 493              	.L27:
 494 001a 00BF     		.align	2
 495              	.L26:
 496 001c 09600040 		.word	1073766409
 497              		.cfi_endproc
 498              	.LFE5:
 499              		.size	USBFS_1_CheckActivity, .-USBFS_1_CheckActivity
 500              		.section	.text.USBFS_1_GetConfiguration,"ax",%progbits
 501              		.align	2
 502              		.global	USBFS_1_GetConfiguration
 503              		.thumb
 504              		.thumb_func
 505              		.type	USBFS_1_GetConfiguration, %function
 506              	USBFS_1_GetConfiguration:
 507              	.LFB6:
 845:.\Generated_Source\PSoC5/USBFS_1.c **** 
 846:.\Generated_Source\PSoC5/USBFS_1.c **** 
 847:.\Generated_Source\PSoC5/USBFS_1.c **** /*******************************************************************************
 848:.\Generated_Source\PSoC5/USBFS_1.c **** * Function Name: USBFS_1_GetConfiguration
 849:.\Generated_Source\PSoC5/USBFS_1.c **** ****************************************************************************//**
 850:.\Generated_Source\PSoC5/USBFS_1.c **** *
 851:.\Generated_Source\PSoC5/USBFS_1.c **** *  This function gets the current configuration of the USB device.
 852:.\Generated_Source\PSoC5/USBFS_1.c **** *
 853:.\Generated_Source\PSoC5/USBFS_1.c **** * \return
 854:.\Generated_Source\PSoC5/USBFS_1.c **** *  Returns the currently assigned configuration. Returns 0 if the device
ARM GAS  C:\Users\LUKASC~1\AppData\Local\Temp\ccX4OJiL.s 			page 25


 855:.\Generated_Source\PSoC5/USBFS_1.c **** *  is not configured
 856:.\Generated_Source\PSoC5/USBFS_1.c **** *
 857:.\Generated_Source\PSoC5/USBFS_1.c **** *******************************************************************************/
 858:.\Generated_Source\PSoC5/USBFS_1.c **** uint8 USBFS_1_GetConfiguration(void) 
 859:.\Generated_Source\PSoC5/USBFS_1.c **** {
 508              		.loc 1 859 0
 509              		.cfi_startproc
 510              		@ args = 0, pretend = 0, frame = 0
 511              		@ frame_needed = 0, uses_anonymous_args = 0
 512              		@ link register save eliminated.
 860:.\Generated_Source\PSoC5/USBFS_1.c ****     return (USBFS_1_configuration);
 513              		.loc 1 860 0
 514 0000 014B     		ldr	r3, .L29
 515 0002 1878     		ldrb	r0, [r3]	@ zero_extendqisi2
 861:.\Generated_Source\PSoC5/USBFS_1.c **** }
 516              		.loc 1 861 0
 517 0004 7047     		bx	lr
 518              	.L30:
 519 0006 00BF     		.align	2
 520              	.L29:
 521 0008 00000000 		.word	USBFS_1_configuration
 522              		.cfi_endproc
 523              	.LFE6:
 524              		.size	USBFS_1_GetConfiguration, .-USBFS_1_GetConfiguration
 525              		.section	.text.USBFS_1_IsConfigurationChanged,"ax",%progbits
 526              		.align	2
 527              		.global	USBFS_1_IsConfigurationChanged
 528              		.thumb
 529              		.thumb_func
 530              		.type	USBFS_1_IsConfigurationChanged, %function
 531              	USBFS_1_IsConfigurationChanged:
 532              	.LFB7:
 862:.\Generated_Source\PSoC5/USBFS_1.c **** 
 863:.\Generated_Source\PSoC5/USBFS_1.c **** 
 864:.\Generated_Source\PSoC5/USBFS_1.c **** /*******************************************************************************
 865:.\Generated_Source\PSoC5/USBFS_1.c **** * Function Name: USBFS_1_IsConfigurationChanged
 866:.\Generated_Source\PSoC5/USBFS_1.c **** ****************************************************************************//**
 867:.\Generated_Source\PSoC5/USBFS_1.c **** *
 868:.\Generated_Source\PSoC5/USBFS_1.c **** *  This function returns the clear-on-read configuration state.  It is useful
 869:.\Generated_Source\PSoC5/USBFS_1.c **** *  when the host sends double SET_CONFIGURATION request with the same 
 870:.\Generated_Source\PSoC5/USBFS_1.c **** *  configuration number or changes alternate settings of the interface. 
 871:.\Generated_Source\PSoC5/USBFS_1.c **** *  After configuration has been changed the OUT endpoints must be enabled and IN 
 872:.\Generated_Source\PSoC5/USBFS_1.c **** *  endpoint must be loaded with data to start communication with the host.
 873:.\Generated_Source\PSoC5/USBFS_1.c **** *
 874:.\Generated_Source\PSoC5/USBFS_1.c **** * \return
 875:.\Generated_Source\PSoC5/USBFS_1.c **** *  None-zero value when new configuration has been changed, otherwise zero is
 876:.\Generated_Source\PSoC5/USBFS_1.c **** *  returned.
 877:.\Generated_Source\PSoC5/USBFS_1.c **** *
 878:.\Generated_Source\PSoC5/USBFS_1.c **** * \globalvars
 879:.\Generated_Source\PSoC5/USBFS_1.c **** *
 880:.\Generated_Source\PSoC5/USBFS_1.c **** *  \ref USBFS_1_configurationChanged - This variable is set to 1 after
 881:.\Generated_Source\PSoC5/USBFS_1.c **** *   a SET_CONFIGURATION request and cleared in this function.
 882:.\Generated_Source\PSoC5/USBFS_1.c **** *
 883:.\Generated_Source\PSoC5/USBFS_1.c **** *******************************************************************************/
 884:.\Generated_Source\PSoC5/USBFS_1.c **** uint8 USBFS_1_IsConfigurationChanged(void) 
 885:.\Generated_Source\PSoC5/USBFS_1.c **** {
 533              		.loc 1 885 0
ARM GAS  C:\Users\LUKASC~1\AppData\Local\Temp\ccX4OJiL.s 			page 26


 534              		.cfi_startproc
 535              		@ args = 0, pretend = 0, frame = 0
 536              		@ frame_needed = 0, uses_anonymous_args = 0
 537              		@ link register save eliminated.
 538              	.LVL34:
 886:.\Generated_Source\PSoC5/USBFS_1.c ****     uint8 res = 0u;
 887:.\Generated_Source\PSoC5/USBFS_1.c **** 
 888:.\Generated_Source\PSoC5/USBFS_1.c ****     if (USBFS_1_configurationChanged != 0u)
 539              		.loc 1 888 0
 540 0000 064B     		ldr	r3, .L34
 541 0002 1B78     		ldrb	r3, [r3]	@ zero_extendqisi2
 542 0004 13F0FF0F 		tst	r3, #255
 543 0008 05D0     		beq	.L33
 889:.\Generated_Source\PSoC5/USBFS_1.c ****     {
 890:.\Generated_Source\PSoC5/USBFS_1.c ****         res = USBFS_1_configurationChanged;
 544              		.loc 1 890 0
 545 000a 044B     		ldr	r3, .L34
 546 000c 1878     		ldrb	r0, [r3]	@ zero_extendqisi2
 547 000e C0B2     		uxtb	r0, r0
 548              	.LVL35:
 891:.\Generated_Source\PSoC5/USBFS_1.c ****         USBFS_1_configurationChanged = 0u;
 549              		.loc 1 891 0
 550 0010 0022     		movs	r2, #0
 551 0012 1A70     		strb	r2, [r3]
 552 0014 7047     		bx	lr
 553              	.LVL36:
 554              	.L33:
 886:.\Generated_Source\PSoC5/USBFS_1.c ****     uint8 res = 0u;
 555              		.loc 1 886 0
 556 0016 0020     		movs	r0, #0
 557              	.LVL37:
 892:.\Generated_Source\PSoC5/USBFS_1.c ****     }
 893:.\Generated_Source\PSoC5/USBFS_1.c **** 
 894:.\Generated_Source\PSoC5/USBFS_1.c ****     return (res);
 895:.\Generated_Source\PSoC5/USBFS_1.c **** }
 558              		.loc 1 895 0
 559 0018 7047     		bx	lr
 560              	.L35:
 561 001a 00BF     		.align	2
 562              	.L34:
 563 001c 00000000 		.word	USBFS_1_configurationChanged
 564              		.cfi_endproc
 565              	.LFE7:
 566              		.size	USBFS_1_IsConfigurationChanged, .-USBFS_1_IsConfigurationChanged
 567              		.section	.text.USBFS_1_GetInterfaceSetting,"ax",%progbits
 568              		.align	2
 569              		.global	USBFS_1_GetInterfaceSetting
 570              		.thumb
 571              		.thumb_func
 572              		.type	USBFS_1_GetInterfaceSetting, %function
 573              	USBFS_1_GetInterfaceSetting:
 574              	.LFB8:
 896:.\Generated_Source\PSoC5/USBFS_1.c **** 
 897:.\Generated_Source\PSoC5/USBFS_1.c **** 
 898:.\Generated_Source\PSoC5/USBFS_1.c **** /*******************************************************************************
 899:.\Generated_Source\PSoC5/USBFS_1.c **** * Function Name: USBFS_1_GetInterfaceSetting
 900:.\Generated_Source\PSoC5/USBFS_1.c **** ****************************************************************************//**
ARM GAS  C:\Users\LUKASC~1\AppData\Local\Temp\ccX4OJiL.s 			page 27


 901:.\Generated_Source\PSoC5/USBFS_1.c **** *
 902:.\Generated_Source\PSoC5/USBFS_1.c **** *  This function gets the current alternate setting for the specified interface.
 903:.\Generated_Source\PSoC5/USBFS_1.c **** *  It is useful to identify which alternate settings are active in the specified 
 904:.\Generated_Source\PSoC5/USBFS_1.c **** *  interface.
 905:.\Generated_Source\PSoC5/USBFS_1.c **** *
 906:.\Generated_Source\PSoC5/USBFS_1.c **** *  \param
 907:.\Generated_Source\PSoC5/USBFS_1.c **** *  interfaceNumber interface number
 908:.\Generated_Source\PSoC5/USBFS_1.c **** *
 909:.\Generated_Source\PSoC5/USBFS_1.c **** * \return
 910:.\Generated_Source\PSoC5/USBFS_1.c **** *  Returns the current alternate setting for the specified interface.
 911:.\Generated_Source\PSoC5/USBFS_1.c **** *
 912:.\Generated_Source\PSoC5/USBFS_1.c **** *******************************************************************************/
 913:.\Generated_Source\PSoC5/USBFS_1.c **** uint8  USBFS_1_GetInterfaceSetting(uint8 interfaceNumber)
 914:.\Generated_Source\PSoC5/USBFS_1.c ****                                                     
 915:.\Generated_Source\PSoC5/USBFS_1.c **** {
 575              		.loc 1 915 0
 576              		.cfi_startproc
 577              		@ args = 0, pretend = 0, frame = 0
 578              		@ frame_needed = 0, uses_anonymous_args = 0
 579              		@ link register save eliminated.
 580              	.LVL38:
 916:.\Generated_Source\PSoC5/USBFS_1.c ****     return (USBFS_1_interfaceSetting[interfaceNumber]);
 581              		.loc 1 916 0
 582 0000 014B     		ldr	r3, .L37
 583 0002 185C     		ldrb	r0, [r3, r0]	@ zero_extendqisi2
 584              	.LVL39:
 917:.\Generated_Source\PSoC5/USBFS_1.c **** }
 585              		.loc 1 917 0
 586 0004 7047     		bx	lr
 587              	.L38:
 588 0006 00BF     		.align	2
 589              	.L37:
 590 0008 00000000 		.word	USBFS_1_interfaceSetting
 591              		.cfi_endproc
 592              	.LFE8:
 593              		.size	USBFS_1_GetInterfaceSetting, .-USBFS_1_GetInterfaceSetting
 594              		.section	.text.USBFS_1_GetEPState,"ax",%progbits
 595              		.align	2
 596              		.global	USBFS_1_GetEPState
 597              		.thumb
 598              		.thumb_func
 599              		.type	USBFS_1_GetEPState, %function
 600              	USBFS_1_GetEPState:
 601              	.LFB9:
 918:.\Generated_Source\PSoC5/USBFS_1.c **** 
 919:.\Generated_Source\PSoC5/USBFS_1.c **** 
 920:.\Generated_Source\PSoC5/USBFS_1.c **** /*******************************************************************************
 921:.\Generated_Source\PSoC5/USBFS_1.c **** * Function Name: USBFS_1_GetEPState
 922:.\Generated_Source\PSoC5/USBFS_1.c **** ****************************************************************************//**
 923:.\Generated_Source\PSoC5/USBFS_1.c **** *
 924:.\Generated_Source\PSoC5/USBFS_1.c **** *  This function returns the state of the requested endpoint.
 925:.\Generated_Source\PSoC5/USBFS_1.c **** *
 926:.\Generated_Source\PSoC5/USBFS_1.c **** * \param epNumber Data endpoint number
 927:.\Generated_Source\PSoC5/USBFS_1.c **** *
 928:.\Generated_Source\PSoC5/USBFS_1.c **** * \return
 929:.\Generated_Source\PSoC5/USBFS_1.c **** *  Returns the current state of the specified USBFS endpoint. Symbolic names and
 930:.\Generated_Source\PSoC5/USBFS_1.c **** *  their associated values are given in the following table. Use these constants
ARM GAS  C:\Users\LUKASC~1\AppData\Local\Temp\ccX4OJiL.s 			page 28


 931:.\Generated_Source\PSoC5/USBFS_1.c **** *  whenever you write code to change the state of the endpoints, such as ISR
 932:.\Generated_Source\PSoC5/USBFS_1.c **** *  code, to handle data sent or received.
 933:.\Generated_Source\PSoC5/USBFS_1.c **** *
 934:.\Generated_Source\PSoC5/USBFS_1.c **** *  Return Value           | Description
 935:.\Generated_Source\PSoC5/USBFS_1.c **** *  -----------------------|-----------------------------------------------------
 936:.\Generated_Source\PSoC5/USBFS_1.c **** *  USBFS_NO_EVENT_PENDING |The endpoint is awaiting SIE action
 937:.\Generated_Source\PSoC5/USBFS_1.c **** *  USBFS_EVENT_PENDING    |The endpoint is awaiting CPU action
 938:.\Generated_Source\PSoC5/USBFS_1.c **** *  USBFS_NO_EVENT_ALLOWED |The endpoint is locked from access
 939:.\Generated_Source\PSoC5/USBFS_1.c **** *  USBFS_IN_BUFFER_FULL   |The IN endpoint is loaded and the mode is set to ACK IN
 940:.\Generated_Source\PSoC5/USBFS_1.c **** *  USBFS_IN_BUFFER_EMPTY  |An IN transaction occurred and more data can be loaded
 941:.\Generated_Source\PSoC5/USBFS_1.c **** *  USBFS_OUT_BUFFER_EMPTY |The OUT endpoint is set to ACK OUT and is waiting for data
 942:.\Generated_Source\PSoC5/USBFS_1.c **** *  USBFS_OUT_BUFFER_FULL  |An OUT transaction has occurred and data can be read
 943:.\Generated_Source\PSoC5/USBFS_1.c **** *
 944:.\Generated_Source\PSoC5/USBFS_1.c **** *******************************************************************************/
 945:.\Generated_Source\PSoC5/USBFS_1.c **** uint8 USBFS_1_GetEPState(uint8 epNumber) 
 946:.\Generated_Source\PSoC5/USBFS_1.c **** {
 602              		.loc 1 946 0
 603              		.cfi_startproc
 604              		@ args = 0, pretend = 0, frame = 0
 605              		@ frame_needed = 0, uses_anonymous_args = 0
 606              		@ link register save eliminated.
 607              	.LVL40:
 947:.\Generated_Source\PSoC5/USBFS_1.c ****     return (USBFS_1_EP[epNumber].apiEpState);
 608              		.loc 1 947 0
 609 0000 00EB4000 		add	r0, r0, r0, lsl #1
 610              	.LVL41:
 611 0004 8000     		lsls	r0, r0, #2
 612 0006 024B     		ldr	r3, .L40
 613 0008 1844     		add	r0, r0, r3
 614 000a 4078     		ldrb	r0, [r0, #1]	@ zero_extendqisi2
 948:.\Generated_Source\PSoC5/USBFS_1.c **** }
 615              		.loc 1 948 0
 616 000c 7047     		bx	lr
 617              	.L41:
 618 000e 00BF     		.align	2
 619              	.L40:
 620 0010 00000000 		.word	USBFS_1_EP
 621              		.cfi_endproc
 622              	.LFE9:
 623              		.size	USBFS_1_GetEPState, .-USBFS_1_GetEPState
 624              		.section	.text.USBFS_1_GetEPCount,"ax",%progbits
 625              		.align	2
 626              		.global	USBFS_1_GetEPCount
 627              		.thumb
 628              		.thumb_func
 629              		.type	USBFS_1_GetEPCount, %function
 630              	USBFS_1_GetEPCount:
 631              	.LFB10:
 949:.\Generated_Source\PSoC5/USBFS_1.c **** 
 950:.\Generated_Source\PSoC5/USBFS_1.c **** 
 951:.\Generated_Source\PSoC5/USBFS_1.c **** /*******************************************************************************
 952:.\Generated_Source\PSoC5/USBFS_1.c **** * Function Name: USBFS_1_GetEPCount
 953:.\Generated_Source\PSoC5/USBFS_1.c **** ****************************************************************************//**
 954:.\Generated_Source\PSoC5/USBFS_1.c **** *
 955:.\Generated_Source\PSoC5/USBFS_1.c **** *  This function supports Data Endpoints only(EP1-EP8).
 956:.\Generated_Source\PSoC5/USBFS_1.c **** *  Returns the transfer count for the requested endpoint.  The value from
 957:.\Generated_Source\PSoC5/USBFS_1.c **** *  the count registers includes 2 counts for the two byte checksum of the
ARM GAS  C:\Users\LUKASC~1\AppData\Local\Temp\ccX4OJiL.s 			page 29


 958:.\Generated_Source\PSoC5/USBFS_1.c **** *  packet.  This function subtracts the two counts.
 959:.\Generated_Source\PSoC5/USBFS_1.c **** *
 960:.\Generated_Source\PSoC5/USBFS_1.c **** *  \param epNumber Data Endpoint Number.
 961:.\Generated_Source\PSoC5/USBFS_1.c **** *                   Valid values are between 1 and 8.
 962:.\Generated_Source\PSoC5/USBFS_1.c **** *
 963:.\Generated_Source\PSoC5/USBFS_1.c **** * \return
 964:.\Generated_Source\PSoC5/USBFS_1.c **** *  Returns the current byte count from the specified endpoint or 0 for an
 965:.\Generated_Source\PSoC5/USBFS_1.c **** *  invalid endpoint.
 966:.\Generated_Source\PSoC5/USBFS_1.c **** *
 967:.\Generated_Source\PSoC5/USBFS_1.c **** *******************************************************************************/
 968:.\Generated_Source\PSoC5/USBFS_1.c **** uint16 USBFS_1_GetEPCount(uint8 epNumber) 
 969:.\Generated_Source\PSoC5/USBFS_1.c **** {
 632              		.loc 1 969 0
 633              		.cfi_startproc
 634              		@ args = 0, pretend = 0, frame = 0
 635              		@ frame_needed = 0, uses_anonymous_args = 0
 636              		@ link register save eliminated.
 637              	.LVL42:
 970:.\Generated_Source\PSoC5/USBFS_1.c ****     uint16 cntr = 0u;
 971:.\Generated_Source\PSoC5/USBFS_1.c **** 
 972:.\Generated_Source\PSoC5/USBFS_1.c ****     if ((epNumber > USBFS_1_EP0) && (epNumber < USBFS_1_MAX_EP))
 638              		.loc 1 972 0
 639 0000 431E     		subs	r3, r0, #1
 640 0002 DBB2     		uxtb	r3, r3
 641 0004 072B     		cmp	r3, #7
 642 0006 0BD8     		bhi	.L44
 973:.\Generated_Source\PSoC5/USBFS_1.c ****     {
 974:.\Generated_Source\PSoC5/USBFS_1.c ****         /* Get 11-bits EP counter where epCnt0 - 3 bits MSB and epCnt1 - 8 bits LSB. */
 975:.\Generated_Source\PSoC5/USBFS_1.c ****         cntr  = ((uint16) USBFS_1_SIE_EP_BASE.sieEp[epNumber].epCnt0) & USBFS_1_EPX_CNT0_MASK;
 643              		.loc 1 975 0
 644 0008 064B     		ldr	r3, .L45
 645 000a 0001     		lsls	r0, r0, #4
 646              	.LVL43:
 647 000c 1A18     		adds	r2, r3, r0
 648 000e 185C     		ldrb	r0, [r3, r0]	@ zero_extendqisi2
 649 0010 00F00F00 		and	r0, r0, #15
 650              	.LVL44:
 976:.\Generated_Source\PSoC5/USBFS_1.c ****         cntr  = ((uint16) (cntr << 8u)) | ((uint16) USBFS_1_SIE_EP_BASE.sieEp[epNumber].epCnt1);
 651              		.loc 1 976 0
 652 0014 5378     		ldrb	r3, [r2, #1]	@ zero_extendqisi2
 653 0016 43EA0020 		orr	r0, r3, r0, lsl #8
 654              	.LVL45:
 977:.\Generated_Source\PSoC5/USBFS_1.c ****         cntr -= USBFS_1_EPX_CNTX_CRC_COUNT;
 655              		.loc 1 977 0
 656 001a 0238     		subs	r0, r0, #2
 657              	.LVL46:
 658 001c 80B2     		uxth	r0, r0
 659              	.LVL47:
 660 001e 7047     		bx	lr
 661              	.LVL48:
 662              	.L44:
 970:.\Generated_Source\PSoC5/USBFS_1.c **** 
 663              		.loc 1 970 0
 664 0020 0020     		movs	r0, #0
 665              	.LVL49:
 978:.\Generated_Source\PSoC5/USBFS_1.c ****     }
 979:.\Generated_Source\PSoC5/USBFS_1.c **** 
ARM GAS  C:\Users\LUKASC~1\AppData\Local\Temp\ccX4OJiL.s 			page 30


 980:.\Generated_Source\PSoC5/USBFS_1.c ****     return (cntr);
 981:.\Generated_Source\PSoC5/USBFS_1.c **** }
 666              		.loc 1 981 0
 667 0022 7047     		bx	lr
 668              	.L46:
 669              		.align	2
 670              	.L45:
 671 0024 FC5F0040 		.word	1073766396
 672              		.cfi_endproc
 673              	.LFE10:
 674              		.size	USBFS_1_GetEPCount, .-USBFS_1_GetEPCount
 675              		.section	.text.USBFS_1_InitEP_DMA,"ax",%progbits
 676              		.align	2
 677              		.global	USBFS_1_InitEP_DMA
 678              		.thumb
 679              		.thumb_func
 680              		.type	USBFS_1_InitEP_DMA, %function
 681              	USBFS_1_InitEP_DMA:
 682              	.LFB11:
 982:.\Generated_Source\PSoC5/USBFS_1.c **** 
 983:.\Generated_Source\PSoC5/USBFS_1.c **** 
 984:.\Generated_Source\PSoC5/USBFS_1.c **** #if (USBFS_1_EP_MANAGEMENT_DMA)
 985:.\Generated_Source\PSoC5/USBFS_1.c **** #if (CY_PSOC4)
 986:.\Generated_Source\PSoC5/USBFS_1.c ****     /*******************************************************************************
 987:.\Generated_Source\PSoC5/USBFS_1.c ****     * Function Name: USBFS_1_InitEpDma
 988:.\Generated_Source\PSoC5/USBFS_1.c ****     ****************************************************************************//**
 989:.\Generated_Source\PSoC5/USBFS_1.c ****     *
 990:.\Generated_Source\PSoC5/USBFS_1.c ****     *  This function configures priority for all DMA channels utilized by the
 991:.\Generated_Source\PSoC5/USBFS_1.c ****     *  component. Also sets callbacks for DMA auto mode.
 992:.\Generated_Source\PSoC5/USBFS_1.c ****     *
 993:.\Generated_Source\PSoC5/USBFS_1.c ****     *******************************************************************************/
 994:.\Generated_Source\PSoC5/USBFS_1.c ****     static void USBFS_1_InitEpDma(void)
 995:.\Generated_Source\PSoC5/USBFS_1.c ****     {
 996:.\Generated_Source\PSoC5/USBFS_1.c ****     #if (USBFS_1_DMA1_ACTIVE)
 997:.\Generated_Source\PSoC5/USBFS_1.c ****         CYDMA_CH_CTL_BASE.ctl[USBFS_1_ep1_dma_CHANNEL] = USBFS_1_ep1_dma_CHANNEL_CFG;
 998:.\Generated_Source\PSoC5/USBFS_1.c ****     #endif /* (USBFS_1_DMA1_ACTIVE) */
 999:.\Generated_Source\PSoC5/USBFS_1.c **** 
1000:.\Generated_Source\PSoC5/USBFS_1.c ****     #if (USBFS_1_DMA2_ACTIVE)
1001:.\Generated_Source\PSoC5/USBFS_1.c ****         CYDMA_CH_CTL_BASE.ctl[USBFS_1_ep2_dma_CHANNEL] = USBFS_1_ep2_dma_CHANNEL_CFG;
1002:.\Generated_Source\PSoC5/USBFS_1.c ****     #endif /* (USBFS_1_DMA2_ACTIVE) */
1003:.\Generated_Source\PSoC5/USBFS_1.c **** 
1004:.\Generated_Source\PSoC5/USBFS_1.c ****     #if (USBFS_1_DMA3_ACTIVE)
1005:.\Generated_Source\PSoC5/USBFS_1.c ****         CYDMA_CH_CTL_BASE.ctl[USBFS_1_ep3_dma_CHANNEL] = USBFS_1_ep3_dma_CHANNEL_CFG;
1006:.\Generated_Source\PSoC5/USBFS_1.c ****     #endif /* (USBFS_1_DMA3_ACTIVE) */
1007:.\Generated_Source\PSoC5/USBFS_1.c **** 
1008:.\Generated_Source\PSoC5/USBFS_1.c ****     #if (USBFS_1_DMA4_ACTIVE)
1009:.\Generated_Source\PSoC5/USBFS_1.c ****         CYDMA_CH_CTL_BASE.ctl[USBFS_1_ep4_dma_CHANNEL] = USBFS_1_ep4_dma_CHANNEL_CFG;
1010:.\Generated_Source\PSoC5/USBFS_1.c ****     #endif /* (USBFS_1_DMA4_ACTIVE) */
1011:.\Generated_Source\PSoC5/USBFS_1.c **** 
1012:.\Generated_Source\PSoC5/USBFS_1.c ****     #if (USBFS_1_DMA5_ACTIVE)
1013:.\Generated_Source\PSoC5/USBFS_1.c ****         CYDMA_CH_CTL_BASE.ctl[USBFS_1_ep5_dma_CHANNEL] = USBFS_1_ep5_dma_CHANNEL_CFG;
1014:.\Generated_Source\PSoC5/USBFS_1.c ****     #endif /* (USBFS_1_DMA5_ACTIVE) */
1015:.\Generated_Source\PSoC5/USBFS_1.c **** 
1016:.\Generated_Source\PSoC5/USBFS_1.c ****     #if (USBFS_1_DMA6_ACTIVE)
1017:.\Generated_Source\PSoC5/USBFS_1.c ****         CYDMA_CH_CTL_BASE.ctl[USBFS_1_ep6_dma_CHANNEL] = USBFS_1_ep6_dma_CHANNEL_CFG;
1018:.\Generated_Source\PSoC5/USBFS_1.c ****     #endif /* (USBFS_1_DMA6_ACTIVE) */
1019:.\Generated_Source\PSoC5/USBFS_1.c **** 
ARM GAS  C:\Users\LUKASC~1\AppData\Local\Temp\ccX4OJiL.s 			page 31


1020:.\Generated_Source\PSoC5/USBFS_1.c ****     #if (USBFS_1_DMA7_ACTIVE)
1021:.\Generated_Source\PSoC5/USBFS_1.c ****         CYDMA_CH_CTL_BASE.ctl[USBFS_1_ep7_dma_CHANNEL] = USBFS_1_ep7_dma_CHANNEL_CFG;
1022:.\Generated_Source\PSoC5/USBFS_1.c ****     #endif /* (USBFS_1_DMA7_ACTIVE) */
1023:.\Generated_Source\PSoC5/USBFS_1.c **** 
1024:.\Generated_Source\PSoC5/USBFS_1.c ****     #if (USBFS_1_DMA8_ACTIVE)
1025:.\Generated_Source\PSoC5/USBFS_1.c ****         CYDMA_CH_CTL_BASE.ctl[USBFS_1_ep8_dma_CHANNEL] = USBFS_1_ep8_dma_CHANNEL_CFG;
1026:.\Generated_Source\PSoC5/USBFS_1.c ****     #endif /* (USBFS_1_DMA8_ACTIVE) */
1027:.\Generated_Source\PSoC5/USBFS_1.c **** 
1028:.\Generated_Source\PSoC5/USBFS_1.c ****     #if (USBFS_1_EP_MANAGEMENT_DMA_AUTO)
1029:.\Generated_Source\PSoC5/USBFS_1.c ****         /* Initialize DMA channel callbacks. */
1030:.\Generated_Source\PSoC5/USBFS_1.c ****         #if (USBFS_1_DMA1_ACTIVE)
1031:.\Generated_Source\PSoC5/USBFS_1.c ****             (void) USBFS_1_ep1_dma_SetInterruptCallback(&USBFS_1_EP1_DMA_DONE_ISR);
1032:.\Generated_Source\PSoC5/USBFS_1.c ****         #endif /* (USBFS_1_DMA1_ACTIVE) */
1033:.\Generated_Source\PSoC5/USBFS_1.c **** 
1034:.\Generated_Source\PSoC5/USBFS_1.c ****         #if (USBFS_1_DMA2_ACTIVE)
1035:.\Generated_Source\PSoC5/USBFS_1.c ****             (void) USBFS_1_ep2_dma_SetInterruptCallback(&USBFS_1_EP2_DMA_DONE_ISR);
1036:.\Generated_Source\PSoC5/USBFS_1.c ****         #endif /* (USBFS_1_DMA2_ACTIVE) */
1037:.\Generated_Source\PSoC5/USBFS_1.c **** 
1038:.\Generated_Source\PSoC5/USBFS_1.c ****         #if (USBFS_1_DMA3_ACTIVE)
1039:.\Generated_Source\PSoC5/USBFS_1.c ****             (void) USBFS_1_ep3_dma_SetInterruptCallback(&USBFS_1_EP3_DMA_DONE_ISR);
1040:.\Generated_Source\PSoC5/USBFS_1.c ****         #endif /* (USBFS_1_DMA3_ACTIVE) */
1041:.\Generated_Source\PSoC5/USBFS_1.c **** 
1042:.\Generated_Source\PSoC5/USBFS_1.c ****         #if (USBFS_1_DMA4_ACTIVE)
1043:.\Generated_Source\PSoC5/USBFS_1.c ****             (void) USBFS_1_ep4_dma_SetInterruptCallback(&USBFS_1_EP4_DMA_DONE_ISR);
1044:.\Generated_Source\PSoC5/USBFS_1.c ****         #endif /* (USBFS_1_DMA4_ACTIVE) */
1045:.\Generated_Source\PSoC5/USBFS_1.c **** 
1046:.\Generated_Source\PSoC5/USBFS_1.c ****         #if (USBFS_1_DMA5_ACTIVE)
1047:.\Generated_Source\PSoC5/USBFS_1.c ****             (void) USBFS_1_ep5_dma_SetInterruptCallback(&USBFS_1_EP5_DMA_DONE_ISR);
1048:.\Generated_Source\PSoC5/USBFS_1.c ****         #endif /* (USBFS_1_DMA5_ACTIVE) */
1049:.\Generated_Source\PSoC5/USBFS_1.c **** 
1050:.\Generated_Source\PSoC5/USBFS_1.c ****         #if (USBFS_1_DMA6_ACTIVE)
1051:.\Generated_Source\PSoC5/USBFS_1.c ****             (void) USBFS_1_ep6_dma_SetInterruptCallback(&USBFS_1_EP6_DMA_DONE_ISR);
1052:.\Generated_Source\PSoC5/USBFS_1.c ****         #endif /* (USBFS_1_DMA6_ACTIVE) */
1053:.\Generated_Source\PSoC5/USBFS_1.c **** 
1054:.\Generated_Source\PSoC5/USBFS_1.c ****         #if (USBFS_1_DMA7_ACTIVE)
1055:.\Generated_Source\PSoC5/USBFS_1.c ****             (void) USBFS_1_ep7_dma_SetInterruptCallback(&USBFS_1_EP7_DMA_DONE_ISR);
1056:.\Generated_Source\PSoC5/USBFS_1.c ****         #endif /* (USBFS_1_DMA7_ACTIVE) */
1057:.\Generated_Source\PSoC5/USBFS_1.c **** 
1058:.\Generated_Source\PSoC5/USBFS_1.c ****         #if (USBFS_1_DMA8_ACTIVE)
1059:.\Generated_Source\PSoC5/USBFS_1.c ****             (void) USBFS_1_ep8_dma_SetInterruptCallback(&USBFS_1_EP8_DMA_DONE_ISR);
1060:.\Generated_Source\PSoC5/USBFS_1.c ****         #endif /* (USBFS_1_DMA8_ACTIVE) */
1061:.\Generated_Source\PSoC5/USBFS_1.c ****     #endif /* (USBFS_1_EP_MANAGEMENT_DMA_AUTO) */
1062:.\Generated_Source\PSoC5/USBFS_1.c ****     }
1063:.\Generated_Source\PSoC5/USBFS_1.c **** #else
1064:.\Generated_Source\PSoC5/USBFS_1.c **** 
1065:.\Generated_Source\PSoC5/USBFS_1.c **** 
1066:.\Generated_Source\PSoC5/USBFS_1.c ****     /***************************************************************************
1067:.\Generated_Source\PSoC5/USBFS_1.c ****     * Function Name: USBFS_1_InitEP_DMA
1068:.\Generated_Source\PSoC5/USBFS_1.c ****     ************************************************************************//**
1069:.\Generated_Source\PSoC5/USBFS_1.c ****     *
1070:.\Generated_Source\PSoC5/USBFS_1.c ****     *  This function allocates and initializes a DMA channel to be used by the
1071:.\Generated_Source\PSoC5/USBFS_1.c ****     *  USBFS_1_LoadInEP() or USBFS_1_ReadOutEP() APIs for data
1072:.\Generated_Source\PSoC5/USBFS_1.c ****     *  transfer. It is available when the Endpoint Memory Management parameter
1073:.\Generated_Source\PSoC5/USBFS_1.c ****     *  is set to DMA.
1074:.\Generated_Source\PSoC5/USBFS_1.c ****     *
1075:.\Generated_Source\PSoC5/USBFS_1.c ****     *  This function is automatically called from the USBFS_LoadInEP() and USBFS_ReadOutEP() APIs.
1076:.\Generated_Source\PSoC5/USBFS_1.c ****     *
ARM GAS  C:\Users\LUKASC~1\AppData\Local\Temp\ccX4OJiL.s 			page 32


1077:.\Generated_Source\PSoC5/USBFS_1.c ****     *  \param epNumber Contains the data endpoint number.
1078:.\Generated_Source\PSoC5/USBFS_1.c ****     *            Valid values are between 1 and 8.
1079:.\Generated_Source\PSoC5/USBFS_1.c ****     *  \param *pData Pointer to a data array that is related to the EP transfers.
1080:.\Generated_Source\PSoC5/USBFS_1.c ****     *
1081:.\Generated_Source\PSoC5/USBFS_1.c ****     * \reentrant No.
1082:.\Generated_Source\PSoC5/USBFS_1.c ****     *
1083:.\Generated_Source\PSoC5/USBFS_1.c ****     ***************************************************************************/
1084:.\Generated_Source\PSoC5/USBFS_1.c ****     void USBFS_1_InitEP_DMA(uint8 epNumber, const uint8 *pData)
1085:.\Generated_Source\PSoC5/USBFS_1.c ****                                                                     
1086:.\Generated_Source\PSoC5/USBFS_1.c ****     {
 683              		.loc 1 1086 0
 684              		.cfi_startproc
 685              		@ args = 0, pretend = 0, frame = 0
 686              		@ frame_needed = 0, uses_anonymous_args = 0
 687              	.LVL50:
 688 0000 10B5     		push	{r4, lr}
 689              		.cfi_def_cfa_offset 8
 690              		.cfi_offset 4, -8
 691              		.cfi_offset 14, -4
 692 0002 0446     		mov	r4, r0
1087:.\Generated_Source\PSoC5/USBFS_1.c ****         uint16 src;
1088:.\Generated_Source\PSoC5/USBFS_1.c ****         uint16 dst;
1089:.\Generated_Source\PSoC5/USBFS_1.c **** 
1090:.\Generated_Source\PSoC5/USBFS_1.c ****     #if (CY_PSOC3)
1091:.\Generated_Source\PSoC5/USBFS_1.c ****         src = HI16(CYDEV_SRAM_BASE);
1092:.\Generated_Source\PSoC5/USBFS_1.c ****         dst = HI16(CYDEV_PERIPH_BASE);
1093:.\Generated_Source\PSoC5/USBFS_1.c ****         pData = pData;
1094:.\Generated_Source\PSoC5/USBFS_1.c ****     #else
1095:.\Generated_Source\PSoC5/USBFS_1.c ****         if ((USBFS_1_EP[epNumber].addr & USBFS_1_DIR_IN) != 0u)
 693              		.loc 1 1095 0
 694 0004 00EB4000 		add	r0, r0, r0, lsl #1
 695              	.LVL51:
 696 0008 8000     		lsls	r0, r0, #2
 697 000a 114B     		ldr	r3, .L54
 698 000c 1844     		add	r0, r0, r3
 699 000e 0379     		ldrb	r3, [r0, #4]	@ zero_extendqisi2
 700 0010 13F0800F 		tst	r3, #128
 701 0014 03D0     		beq	.L48
1096:.\Generated_Source\PSoC5/USBFS_1.c ****         {
1097:.\Generated_Source\PSoC5/USBFS_1.c ****             /* IN endpoint: source is memory buffer. */
1098:.\Generated_Source\PSoC5/USBFS_1.c ****             src = HI16(pData);
 702              		.loc 1 1098 0
 703 0016 0A0C     		lsrs	r2, r1, #16
 704              	.LVL52:
1099:.\Generated_Source\PSoC5/USBFS_1.c ****             dst = HI16(CYDEV_PERIPH_BASE);
 705              		.loc 1 1099 0
 706 0018 4FF48043 		mov	r3, #16384
 707 001c 02E0     		b	.L49
 708              	.LVL53:
 709              	.L48:
1100:.\Generated_Source\PSoC5/USBFS_1.c ****         }
1101:.\Generated_Source\PSoC5/USBFS_1.c ****         else
1102:.\Generated_Source\PSoC5/USBFS_1.c ****         {
1103:.\Generated_Source\PSoC5/USBFS_1.c ****             /* OUT endpoint: source is USB IP memory buffer. */
1104:.\Generated_Source\PSoC5/USBFS_1.c ****             src = HI16(CYDEV_PERIPH_BASE);
1105:.\Generated_Source\PSoC5/USBFS_1.c ****             dst = HI16(pData);
 710              		.loc 1 1105 0
ARM GAS  C:\Users\LUKASC~1\AppData\Local\Temp\ccX4OJiL.s 			page 33


 711 001e 0B0C     		lsrs	r3, r1, #16
 712              	.LVL54:
1104:.\Generated_Source\PSoC5/USBFS_1.c ****             dst = HI16(pData);
 713              		.loc 1 1104 0
 714 0020 4FF48042 		mov	r2, #16384
 715              	.LVL55:
 716              	.L49:
1106:.\Generated_Source\PSoC5/USBFS_1.c ****         }
1107:.\Generated_Source\PSoC5/USBFS_1.c ****     #endif  /* (CY_PSOC3) */
1108:.\Generated_Source\PSoC5/USBFS_1.c **** 
1109:.\Generated_Source\PSoC5/USBFS_1.c ****         switch(epNumber)
 717              		.loc 1 1109 0
 718 0024 022C     		cmp	r4, #2
 719 0026 05D1     		bne	.L50
1110:.\Generated_Source\PSoC5/USBFS_1.c ****         {
1111:.\Generated_Source\PSoC5/USBFS_1.c ****     #if (USBFS_1_DMA1_ACTIVE)
1112:.\Generated_Source\PSoC5/USBFS_1.c ****         case USBFS_1_EP1:
1113:.\Generated_Source\PSoC5/USBFS_1.c ****             USBFS_1_DmaChan[epNumber] = USBFS_1_ep1_DmaInitialize(USBFS_1_DMA_BYTES_PER_BURST,
1114:.\Generated_Source\PSoC5/USBFS_1.c ****                                                                                     USBFS_1_DMA_REQ
1115:.\Generated_Source\PSoC5/USBFS_1.c ****             break;
1116:.\Generated_Source\PSoC5/USBFS_1.c ****     #endif /* (USBFS_1_DMA1_ACTIVE) */
1117:.\Generated_Source\PSoC5/USBFS_1.c **** 
1118:.\Generated_Source\PSoC5/USBFS_1.c ****     #if (USBFS_1_DMA2_ACTIVE)
1119:.\Generated_Source\PSoC5/USBFS_1.c ****         case USBFS_1_EP2:
1120:.\Generated_Source\PSoC5/USBFS_1.c ****             USBFS_1_DmaChan[epNumber] = USBFS_1_ep2_DmaInitialize(USBFS_1_DMA_BYTES_PER_BURST,
 720              		.loc 1 1120 0
 721 0028 2020     		movs	r0, #32
 722 002a 0121     		movs	r1, #1
 723              	.LVL56:
 724 002c FFF7FEFF 		bl	USBFS_1_ep2_DmaInitialize
 725              	.LVL57:
 726 0030 084B     		ldr	r3, .L54+4
 727 0032 1855     		strb	r0, [r3, r4]
 728              	.L50:
1121:.\Generated_Source\PSoC5/USBFS_1.c ****                                                                                     USBFS_1_DMA_REQ
1122:.\Generated_Source\PSoC5/USBFS_1.c ****             break;
1123:.\Generated_Source\PSoC5/USBFS_1.c ****     #endif /* (USBFS_1_DMA2_ACTIVE) */
1124:.\Generated_Source\PSoC5/USBFS_1.c **** 
1125:.\Generated_Source\PSoC5/USBFS_1.c ****     #if (USBFS_1_DMA3_ACTIVE)
1126:.\Generated_Source\PSoC5/USBFS_1.c ****             case USBFS_1_EP3:
1127:.\Generated_Source\PSoC5/USBFS_1.c ****                 USBFS_1_DmaChan[epNumber] = USBFS_1_ep3_DmaInitialize(USBFS_1_DMA_BYTES_PER_BURST,
1128:.\Generated_Source\PSoC5/USBFS_1.c ****                                                                                         USBFS_1_DMA
1129:.\Generated_Source\PSoC5/USBFS_1.c ****             break;
1130:.\Generated_Source\PSoC5/USBFS_1.c ****     #endif /* (USBFS_1_DMA3_ACTIVE) */
1131:.\Generated_Source\PSoC5/USBFS_1.c **** 
1132:.\Generated_Source\PSoC5/USBFS_1.c ****     #if (USBFS_1_DMA4_ACTIVE)
1133:.\Generated_Source\PSoC5/USBFS_1.c ****             case USBFS_1_EP4:
1134:.\Generated_Source\PSoC5/USBFS_1.c ****                 USBFS_1_DmaChan[epNumber] = USBFS_1_ep4_DmaInitialize(USBFS_1_DMA_BYTES_PER_BURST,
1135:.\Generated_Source\PSoC5/USBFS_1.c ****                                                                                         USBFS_1_DMA
1136:.\Generated_Source\PSoC5/USBFS_1.c ****             break;
1137:.\Generated_Source\PSoC5/USBFS_1.c ****     #endif /* (USBFS_1_DMA4_ACTIVE) */
1138:.\Generated_Source\PSoC5/USBFS_1.c **** 
1139:.\Generated_Source\PSoC5/USBFS_1.c ****     #if (USBFS_1_DMA5_ACTIVE)
1140:.\Generated_Source\PSoC5/USBFS_1.c ****             case USBFS_1_EP5:
1141:.\Generated_Source\PSoC5/USBFS_1.c ****                 USBFS_1_DmaChan[epNumber] = USBFS_1_ep5_DmaInitialize(USBFS_1_DMA_BYTES_PER_BURST,
1142:.\Generated_Source\PSoC5/USBFS_1.c ****                                                                                         USBFS_1_DMA
1143:.\Generated_Source\PSoC5/USBFS_1.c ****             break;
ARM GAS  C:\Users\LUKASC~1\AppData\Local\Temp\ccX4OJiL.s 			page 34


1144:.\Generated_Source\PSoC5/USBFS_1.c ****     #endif /* (USBFS_1_DMA5_ACTIVE) */
1145:.\Generated_Source\PSoC5/USBFS_1.c **** 
1146:.\Generated_Source\PSoC5/USBFS_1.c ****     #if (USBFS_1_DMA6_ACTIVE)
1147:.\Generated_Source\PSoC5/USBFS_1.c ****         case USBFS_1_EP6:
1148:.\Generated_Source\PSoC5/USBFS_1.c ****             USBFS_1_DmaChan[epNumber] = USBFS_1_ep6_DmaInitialize(USBFS_1_DMA_BYTES_PER_BURST,
1149:.\Generated_Source\PSoC5/USBFS_1.c ****                                                                                     USBFS_1_DMA_REQ
1150:.\Generated_Source\PSoC5/USBFS_1.c ****             break;
1151:.\Generated_Source\PSoC5/USBFS_1.c ****     #endif /* (USBFS_1_DMA6_ACTIVE) */
1152:.\Generated_Source\PSoC5/USBFS_1.c **** 
1153:.\Generated_Source\PSoC5/USBFS_1.c ****     #if (USBFS_1_DMA7_ACTIVE)
1154:.\Generated_Source\PSoC5/USBFS_1.c ****         case USBFS_1_EP7:
1155:.\Generated_Source\PSoC5/USBFS_1.c ****                 USBFS_1_DmaChan[epNumber] = USBFS_1_ep7_DmaInitialize(USBFS_1_DMA_BYTES_PER_BURST,
1156:.\Generated_Source\PSoC5/USBFS_1.c ****                                                                                         USBFS_1_DMA
1157:.\Generated_Source\PSoC5/USBFS_1.c ****             break;
1158:.\Generated_Source\PSoC5/USBFS_1.c ****     #endif /* (USBFS_1_DMA7_ACTIVE) */
1159:.\Generated_Source\PSoC5/USBFS_1.c **** 
1160:.\Generated_Source\PSoC5/USBFS_1.c ****     #if (USBFS_1_DMA8_ACTIVE)
1161:.\Generated_Source\PSoC5/USBFS_1.c ****         case USBFS_1_EP8:
1162:.\Generated_Source\PSoC5/USBFS_1.c ****                 USBFS_1_DmaChan[epNumber] = USBFS_1_ep8_DmaInitialize(USBFS_1_DMA_BYTES_PER_BURST,
1163:.\Generated_Source\PSoC5/USBFS_1.c ****                                                                                         USBFS_1_DMA
1164:.\Generated_Source\PSoC5/USBFS_1.c ****             break;
1165:.\Generated_Source\PSoC5/USBFS_1.c ****     #endif /* (USBFS_1_DMA8_ACTIVE) */
1166:.\Generated_Source\PSoC5/USBFS_1.c **** 
1167:.\Generated_Source\PSoC5/USBFS_1.c ****         default:
1168:.\Generated_Source\PSoC5/USBFS_1.c ****             /* Do nothing for endpoints other than 1-8. */
1169:.\Generated_Source\PSoC5/USBFS_1.c ****             break;
1170:.\Generated_Source\PSoC5/USBFS_1.c ****         }
1171:.\Generated_Source\PSoC5/USBFS_1.c **** 
1172:.\Generated_Source\PSoC5/USBFS_1.c ****         if ((epNumber > USBFS_1_EP0) && (epNumber < USBFS_1_MAX_EP))
 729              		.loc 1 1172 0
 730 0034 631E     		subs	r3, r4, #1
 731 0036 DBB2     		uxtb	r3, r3
 732 0038 072B     		cmp	r3, #7
 733 003a 07D8     		bhi	.L47
1173:.\Generated_Source\PSoC5/USBFS_1.c ****         {
1174:.\Generated_Source\PSoC5/USBFS_1.c ****             USBFS_1_DmaTd[epNumber] = CyDmaTdAllocate();
 734              		.loc 1 1174 0
 735 003c FFF7FEFF 		bl	CyDmaTdAllocate
 736              	.LVL58:
 737 0040 054B     		ldr	r3, .L54+8
 738 0042 1855     		strb	r0, [r3, r4]
1175:.\Generated_Source\PSoC5/USBFS_1.c **** 
1176:.\Generated_Source\PSoC5/USBFS_1.c ****         #if (USBFS_1_EP_MANAGEMENT_DMA_AUTO && (USBFS_1_EP_DMA_AUTO_OPT == 0u))
1177:.\Generated_Source\PSoC5/USBFS_1.c ****             USBFS_1_DmaNextTd[epNumber] = CyDmaTdAllocate();
 739              		.loc 1 1177 0
 740 0044 FFF7FEFF 		bl	CyDmaTdAllocate
 741              	.LVL59:
 742 0048 044B     		ldr	r3, .L54+12
 743 004a 1855     		strb	r0, [r3, r4]
 744              	.L47:
 745 004c 10BD     		pop	{r4, pc}
 746              	.L55:
 747 004e 00BF     		.align	2
 748              	.L54:
 749 0050 00000000 		.word	USBFS_1_EP
 750 0054 00000000 		.word	USBFS_1_DmaChan
 751 0058 00000000 		.word	USBFS_1_DmaTd
ARM GAS  C:\Users\LUKASC~1\AppData\Local\Temp\ccX4OJiL.s 			page 35


 752 005c 00000000 		.word	USBFS_1_DmaNextTd
 753              		.cfi_endproc
 754              	.LFE11:
 755              		.size	USBFS_1_InitEP_DMA, .-USBFS_1_InitEP_DMA
 756              		.section	.text.USBFS_1_Stop_DMA,"ax",%progbits
 757              		.align	2
 758              		.global	USBFS_1_Stop_DMA
 759              		.thumb
 760              		.thumb_func
 761              		.type	USBFS_1_Stop_DMA, %function
 762              	USBFS_1_Stop_DMA:
 763              	.LFB12:
1178:.\Generated_Source\PSoC5/USBFS_1.c ****         #endif /* (USBFS_1_EP_MANAGEMENT_DMA_AUTO && (USBFS_1_EP_DMA_AUTO_OPT == 0u)) */
1179:.\Generated_Source\PSoC5/USBFS_1.c ****         }
1180:.\Generated_Source\PSoC5/USBFS_1.c ****     }
1181:.\Generated_Source\PSoC5/USBFS_1.c **** #endif /* (CY_PSOC4) */
1182:.\Generated_Source\PSoC5/USBFS_1.c **** 
1183:.\Generated_Source\PSoC5/USBFS_1.c ****     /***************************************************************************
1184:.\Generated_Source\PSoC5/USBFS_1.c ****     * Function Name: USBFS_1_Stop_DMA
1185:.\Generated_Source\PSoC5/USBFS_1.c ****     ************************************************************************//**
1186:.\Generated_Source\PSoC5/USBFS_1.c ****     *  
1187:.\Generated_Source\PSoC5/USBFS_1.c ****     *  This function stops DMA channel associated with endpoint. It is available 
1188:.\Generated_Source\PSoC5/USBFS_1.c ****     *  when the Endpoint Buffer Management parameter is set to DMA. Call this 
1189:.\Generated_Source\PSoC5/USBFS_1.c ****     *  function when endpoint direction is changed from IN to OUT or vice versa 
1190:.\Generated_Source\PSoC5/USBFS_1.c ****     *  to trigger DMA re-configuration when USBFS_1_LoadInEP() or 
1191:.\Generated_Source\PSoC5/USBFS_1.c ****     *  USBFS_1_ReadOutEP() functions are called the first time. 
1192:.\Generated_Source\PSoC5/USBFS_1.c ****     *  
1193:.\Generated_Source\PSoC5/USBFS_1.c ****     *  \param epNumber: The data endpoint number for which associated DMA 
1194:.\Generated_Source\PSoC5/USBFS_1.c ****     *  channel is stopped. The range of valid values is between 1 and 8. To stop 
1195:.\Generated_Source\PSoC5/USBFS_1.c ****     *  all DMAs associated with endpoints call this function with 
1196:.\Generated_Source\PSoC5/USBFS_1.c ****     *  USBFS_1_MAX_EP argument.
1197:.\Generated_Source\PSoC5/USBFS_1.c ****     *
1198:.\Generated_Source\PSoC5/USBFS_1.c ****     * \reentrant
1199:.\Generated_Source\PSoC5/USBFS_1.c ****     *  No.
1200:.\Generated_Source\PSoC5/USBFS_1.c ****     *
1201:.\Generated_Source\PSoC5/USBFS_1.c ****     ***************************************************************************/
1202:.\Generated_Source\PSoC5/USBFS_1.c ****     void USBFS_1_Stop_DMA(uint8 epNumber) 
1203:.\Generated_Source\PSoC5/USBFS_1.c ****     {
 764              		.loc 1 1203 0
 765              		.cfi_startproc
 766              		@ args = 0, pretend = 0, frame = 0
 767              		@ frame_needed = 0, uses_anonymous_args = 0
 768              	.LVL60:
 769 0000 F8B5     		push	{r3, r4, r5, r6, r7, lr}
 770              		.cfi_def_cfa_offset 24
 771              		.cfi_offset 3, -24
 772              		.cfi_offset 4, -20
 773              		.cfi_offset 5, -16
 774              		.cfi_offset 6, -12
 775              		.cfi_offset 7, -8
 776              		.cfi_offset 14, -4
 777 0002 0646     		mov	r6, r0
1204:.\Generated_Source\PSoC5/USBFS_1.c ****         uint8 i;
1205:.\Generated_Source\PSoC5/USBFS_1.c **** 
1206:.\Generated_Source\PSoC5/USBFS_1.c ****         i = (epNumber < USBFS_1_MAX_EP) ? epNumber : USBFS_1_EP1;
 778              		.loc 1 1206 0
 779 0004 0828     		cmp	r0, #8
ARM GAS  C:\Users\LUKASC~1\AppData\Local\Temp\ccX4OJiL.s 			page 36


 780 0006 01D9     		bls	.L62
 781 0008 0124     		movs	r4, #1
 782 000a 00E0     		b	.L61
 783              	.L62:
 784 000c 0446     		mov	r4, r0
 785              	.LVL61:
 786              	.L61:
1207:.\Generated_Source\PSoC5/USBFS_1.c **** 
1208:.\Generated_Source\PSoC5/USBFS_1.c ****         do
1209:.\Generated_Source\PSoC5/USBFS_1.c ****         {
1210:.\Generated_Source\PSoC5/USBFS_1.c ****         #if (CY_PSOC4)
1211:.\Generated_Source\PSoC5/USBFS_1.c ****             if (0u != USBFS_1_DmaChan[i])
1212:.\Generated_Source\PSoC5/USBFS_1.c ****             {
1213:.\Generated_Source\PSoC5/USBFS_1.c ****                 USBFS_1_CyDmaChDisable(USBFS_1_DmaChan[i]);
1214:.\Generated_Source\PSoC5/USBFS_1.c ****             }
1215:.\Generated_Source\PSoC5/USBFS_1.c ****         #else
1216:.\Generated_Source\PSoC5/USBFS_1.c ****             if(USBFS_1_DmaTd[i] != DMA_INVALID_TD)
 787              		.loc 1 1216 0
 788 000e 2546     		mov	r5, r4
 789 0010 0E4B     		ldr	r3, .L64
 790 0012 1B5D     		ldrb	r3, [r3, r4]	@ zero_extendqisi2
 791 0014 FF2B     		cmp	r3, #255
 792 0016 09D0     		beq	.L58
1217:.\Generated_Source\PSoC5/USBFS_1.c ****             {
1218:.\Generated_Source\PSoC5/USBFS_1.c ****                 (void) CyDmaChDisable(USBFS_1_DmaChan[i]);
 793              		.loc 1 1218 0
 794 0018 0D4B     		ldr	r3, .L64+4
 795 001a 185D     		ldrb	r0, [r3, r4]	@ zero_extendqisi2
 796 001c FFF7FEFF 		bl	CyDmaChDisable
 797              	.LVL62:
1219:.\Generated_Source\PSoC5/USBFS_1.c ****                 CyDmaTdFree(USBFS_1_DmaTd[i]);
 798              		.loc 1 1219 0
 799 0020 0A4F     		ldr	r7, .L64
 800 0022 385D     		ldrb	r0, [r7, r4]	@ zero_extendqisi2
 801 0024 FFF7FEFF 		bl	CyDmaTdFree
 802              	.LVL63:
1220:.\Generated_Source\PSoC5/USBFS_1.c ****                 USBFS_1_DmaTd[i] = DMA_INVALID_TD;
 803              		.loc 1 1220 0
 804 0028 FF23     		movs	r3, #255
 805 002a 3B55     		strb	r3, [r7, r4]
 806              	.L58:
1221:.\Generated_Source\PSoC5/USBFS_1.c ****             }
1222:.\Generated_Source\PSoC5/USBFS_1.c **** 
1223:.\Generated_Source\PSoC5/USBFS_1.c ****             #if (USBFS_1_EP_MANAGEMENT_DMA_AUTO && (USBFS_1_EP_DMA_AUTO_OPT == 0u))
1224:.\Generated_Source\PSoC5/USBFS_1.c ****                 if(USBFS_1_DmaNextTd[i] != DMA_INVALID_TD)
 807              		.loc 1 1224 0
 808 002c 094B     		ldr	r3, .L64+8
 809 002e 585D     		ldrb	r0, [r3, r5]	@ zero_extendqisi2
 810 0030 FF28     		cmp	r0, #255
 811 0032 04D0     		beq	.L59
1225:.\Generated_Source\PSoC5/USBFS_1.c ****                 {
1226:.\Generated_Source\PSoC5/USBFS_1.c ****                     CyDmaTdFree(USBFS_1_DmaNextTd[i]);
 812              		.loc 1 1226 0
 813 0034 FFF7FEFF 		bl	CyDmaTdFree
 814              	.LVL64:
1227:.\Generated_Source\PSoC5/USBFS_1.c ****                     USBFS_1_DmaNextTd[i] = DMA_INVALID_TD;
 815              		.loc 1 1227 0
ARM GAS  C:\Users\LUKASC~1\AppData\Local\Temp\ccX4OJiL.s 			page 37


 816 0038 FF22     		movs	r2, #255
 817 003a 064B     		ldr	r3, .L64+8
 818 003c 5A55     		strb	r2, [r3, r5]
 819              	.L59:
1228:.\Generated_Source\PSoC5/USBFS_1.c ****                 }
1229:.\Generated_Source\PSoC5/USBFS_1.c ****             #endif /* (USBFS_1_EP_MANAGEMENT_DMA_AUTO && (USBFS_1_EP_DMA_AUTO_OPT == 0u)) */
1230:.\Generated_Source\PSoC5/USBFS_1.c **** 
1231:.\Generated_Source\PSoC5/USBFS_1.c ****         #endif /* (CY_PSOC4) */
1232:.\Generated_Source\PSoC5/USBFS_1.c ****             i++;
 820              		.loc 1 1232 0
 821 003e 0134     		adds	r4, r4, #1
 822              	.LVL65:
 823 0040 E4B2     		uxtb	r4, r4
 824              	.LVL66:
1233:.\Generated_Source\PSoC5/USBFS_1.c ****         }
1234:.\Generated_Source\PSoC5/USBFS_1.c ****         while ((i < USBFS_1_MAX_EP) && (epNumber == USBFS_1_MAX_EP));
 825              		.loc 1 1234 0
 826 0042 082C     		cmp	r4, #8
 827 0044 01D8     		bhi	.L56
 828              		.loc 1 1234 0 is_stmt 0 discriminator 1
 829 0046 092E     		cmp	r6, #9
 830 0048 E1D0     		beq	.L61
 831              	.L56:
 832 004a F8BD     		pop	{r3, r4, r5, r6, r7, pc}
 833              	.LVL67:
 834              	.L65:
 835              		.align	2
 836              	.L64:
 837 004c 00000000 		.word	USBFS_1_DmaTd
 838 0050 00000000 		.word	USBFS_1_DmaChan
 839 0054 00000000 		.word	USBFS_1_DmaNextTd
 840              		.cfi_endproc
 841              	.LFE12:
 842              		.size	USBFS_1_Stop_DMA, .-USBFS_1_Stop_DMA
 843              		.section	.text.USBFS_1_Stop,"ax",%progbits
 844              		.align	2
 845              		.global	USBFS_1_Stop
 846              		.thumb
 847              		.thumb_func
 848              		.type	USBFS_1_Stop, %function
 849              	USBFS_1_Stop:
 850              	.LFB4:
 729:.\Generated_Source\PSoC5/USBFS_1.c ****     uint8 enableInterrupts;
 851              		.loc 1 729 0 is_stmt 1
 852              		.cfi_startproc
 853              		@ args = 0, pretend = 0, frame = 0
 854              		@ frame_needed = 0, uses_anonymous_args = 0
 855 0000 08B5     		push	{r3, lr}
 856              		.cfi_def_cfa_offset 8
 857              		.cfi_offset 3, -8
 858              		.cfi_offset 14, -4
 734:.\Generated_Source\PSoC5/USBFS_1.c **** #endif /* (USBFS_1_EP_MANAGEMENT_DMA) */
 859              		.loc 1 734 0
 860 0002 0920     		movs	r0, #9
 861 0004 FFF7FEFF 		bl	USBFS_1_Stop_DMA
 862              	.LVL68:
 737:.\Generated_Source\PSoC5/USBFS_1.c **** 
ARM GAS  C:\Users\LUKASC~1\AppData\Local\Temp\ccX4OJiL.s 			page 38


 863              		.loc 1 737 0
 864 0008 FFF7FEFF 		bl	CyEnterCriticalSection
 865              	.LVL69:
 740:.\Generated_Source\PSoC5/USBFS_1.c **** 
 866              		.loc 1 740 0
 867 000c 174A     		ldr	r2, .L68
 868 000e 1378     		ldrb	r3, [r2]	@ zero_extendqisi2
 869 0010 03F07F03 		and	r3, r3, #127
 870 0014 1370     		strb	r3, [r2]
 743:.\Generated_Source\PSoC5/USBFS_1.c **** 
 871              		.loc 1 743 0
 872 0016 0A32     		adds	r2, r2, #10
 873 0018 1378     		ldrb	r3, [r2]	@ zero_extendqisi2
 874 001a 03F0FB03 		and	r3, r3, #251
 875 001e 1370     		strb	r3, [r2]
 750:.\Generated_Source\PSoC5/USBFS_1.c ****     USBFS_1_PM_STBY_CFG_REG &= (uint8) ~USBFS_1_PM_STBY_EN_FSUSB;
 876              		.loc 1 750 0
 877 0020 A2F5E352 		sub	r2, r2, #7264
 878 0024 0D3A     		subs	r2, r2, #13
 879 0026 1378     		ldrb	r3, [r2]	@ zero_extendqisi2
 880 0028 03F0FE03 		and	r3, r3, #254
 881 002c 1370     		strb	r3, [r2]
 751:.\Generated_Source\PSoC5/USBFS_1.c **** #endif /* (CY_PSOC4) */
 882              		.loc 1 751 0
 883 002e 1032     		adds	r2, r2, #16
 884 0030 1378     		ldrb	r3, [r2]	@ zero_extendqisi2
 885 0032 03F0FE03 		and	r3, r3, #254
 886 0036 1370     		strb	r3, [r2]
 754:.\Generated_Source\PSoC5/USBFS_1.c **** 
 887              		.loc 1 754 0
 888 0038 FFF7FEFF 		bl	CyExitCriticalSection
 889              	.LVL70:
 763:.\Generated_Source\PSoC5/USBFS_1.c ****     CyIntDisable(USBFS_1_EP_0_VECT_NUM);
 890              		.loc 1 763 0
 891 003c 0C4B     		ldr	r3, .L68+4
 892 003e 4FF40002 		mov	r2, #8388608
 893 0042 1A60     		str	r2, [r3]
 764:.\Generated_Source\PSoC5/USBFS_1.c **** 
 894              		.loc 1 764 0
 895 0044 4FF08072 		mov	r2, #16777216
 896 0048 1A60     		str	r2, [r3]
 775:.\Generated_Source\PSoC5/USBFS_1.c ****     #endif /* (USBFS_1_EP2_ISR_ACTIVE) */
 897              		.loc 1 775 0
 898 004a 0222     		movs	r2, #2
 899 004c 1A60     		str	r2, [r3]
 804:.\Generated_Source\PSoC5/USBFS_1.c ****     USBFS_1_configuration   = 0u;
 900              		.loc 1 804 0
 901 004e 0023     		movs	r3, #0
 902 0050 084A     		ldr	r2, .L68+8
 903 0052 1370     		strb	r3, [r2]
 805:.\Generated_Source\PSoC5/USBFS_1.c ****     USBFS_1_interfaceNumber = 0u;
 904              		.loc 1 805 0
 905 0054 084A     		ldr	r2, .L68+12
 906 0056 1370     		strb	r3, [r2]
 806:.\Generated_Source\PSoC5/USBFS_1.c ****     USBFS_1_deviceAddress   = 0u;
 907              		.loc 1 806 0
 908 0058 084A     		ldr	r2, .L68+16
ARM GAS  C:\Users\LUKASC~1\AppData\Local\Temp\ccX4OJiL.s 			page 39


 909 005a 1370     		strb	r3, [r2]
 807:.\Generated_Source\PSoC5/USBFS_1.c ****     USBFS_1_deviceStatus    = 0u;
 910              		.loc 1 807 0
 911 005c 084A     		ldr	r2, .L68+20
 912 005e 1370     		strb	r3, [r2]
 808:.\Generated_Source\PSoC5/USBFS_1.c **** 
 913              		.loc 1 808 0
 914 0060 084A     		ldr	r2, .L68+24
 915 0062 1370     		strb	r3, [r2]
 811:.\Generated_Source\PSoC5/USBFS_1.c **** }
 916              		.loc 1 811 0
 917 0064 084A     		ldr	r2, .L68+28
 918 0066 1370     		strb	r3, [r2]
 919 0068 08BD     		pop	{r3, pc}
 920              	.L69:
 921 006a 00BF     		.align	2
 922              	.L68:
 923 006c 08600040 		.word	1073766408
 924 0070 80E100E0 		.word	-536813184
 925 0074 00000000 		.word	USBFS_1_configurationChanged
 926 0078 00000000 		.word	USBFS_1_configuration
 927 007c 00000000 		.word	USBFS_1_interfaceNumber
 928 0080 00000000 		.word	USBFS_1_deviceAddress
 929 0084 00000000 		.word	USBFS_1_deviceStatus
 930 0088 00000000 		.word	.LANCHOR0
 931              		.cfi_endproc
 932              	.LFE4:
 933              		.size	USBFS_1_Stop, .-USBFS_1_Stop
 934              		.section	.text.USBFS_1_LoadNextInEP,"ax",%progbits
 935              		.align	2
 936              		.global	USBFS_1_LoadNextInEP
 937              		.thumb
 938              		.thumb_func
 939              		.type	USBFS_1_LoadNextInEP, %function
 940              	USBFS_1_LoadNextInEP:
 941              	.LFB13:
1235:.\Generated_Source\PSoC5/USBFS_1.c ****     }
1236:.\Generated_Source\PSoC5/USBFS_1.c **** #endif /* (USBFS_1_EP_MANAGEMENT_DMA) */
1237:.\Generated_Source\PSoC5/USBFS_1.c **** 
1238:.\Generated_Source\PSoC5/USBFS_1.c **** 
1239:.\Generated_Source\PSoC5/USBFS_1.c **** #if (CY_PSOC3 || CY_PSOC5)
1240:.\Generated_Source\PSoC5/USBFS_1.c **** #if (USBFS_1_EP_MANAGEMENT_DMA_AUTO && (USBFS_1_EP_DMA_AUTO_OPT == 0u))
1241:.\Generated_Source\PSoC5/USBFS_1.c ****     /***************************************************************************
1242:.\Generated_Source\PSoC5/USBFS_1.c ****     * Function Name: USBFS_1_LoadNextInEP
1243:.\Generated_Source\PSoC5/USBFS_1.c ****     ************************************************************************//**
1244:.\Generated_Source\PSoC5/USBFS_1.c ****     *
1245:.\Generated_Source\PSoC5/USBFS_1.c ****     * Summary:
1246:.\Generated_Source\PSoC5/USBFS_1.c ****     *  This internal function is used for IN endpoint DMA reconfiguration in
1247:.\Generated_Source\PSoC5/USBFS_1.c ****     *  Auto DMA mode.
1248:.\Generated_Source\PSoC5/USBFS_1.c ****     *
1249:.\Generated_Source\PSoC5/USBFS_1.c ****     * Parameters:
1250:.\Generated_Source\PSoC5/USBFS_1.c ****     *  epNumber: Contains the data endpoint number.
1251:.\Generated_Source\PSoC5/USBFS_1.c ****     *  mode:   0 - Configure DMA to send the the rest of data.
1252:.\Generated_Source\PSoC5/USBFS_1.c ****     *          1 - Configure DMA to repeat 2 last bytes of the first burst.
1253:.\Generated_Source\PSoC5/USBFS_1.c ****     *
1254:.\Generated_Source\PSoC5/USBFS_1.c ****     ***************************************************************************/
1255:.\Generated_Source\PSoC5/USBFS_1.c ****     void USBFS_1_LoadNextInEP(uint8 epNumber, uint8 mode) 
ARM GAS  C:\Users\LUKASC~1\AppData\Local\Temp\ccX4OJiL.s 			page 40


1256:.\Generated_Source\PSoC5/USBFS_1.c ****     {
 942              		.loc 1 1256 0
 943              		.cfi_startproc
 944              		@ args = 0, pretend = 0, frame = 0
 945              		@ frame_needed = 0, uses_anonymous_args = 0
 946              		@ link register save eliminated.
 947              	.LVL71:
1257:.\Generated_Source\PSoC5/USBFS_1.c ****         reg16 *convert;
1258:.\Generated_Source\PSoC5/USBFS_1.c **** 
1259:.\Generated_Source\PSoC5/USBFS_1.c ****         if (mode == 0u)
 948              		.loc 1 1259 0
 949 0000 E1B9     		cbnz	r1, .L71
1260:.\Generated_Source\PSoC5/USBFS_1.c ****         {
1261:.\Generated_Source\PSoC5/USBFS_1.c ****             /* Configure DMA to send rest of data. */
1262:.\Generated_Source\PSoC5/USBFS_1.c ****             /* CyDmaTdSetConfiguration API is optimized to change transfer length only and configur
1263:.\Generated_Source\PSoC5/USBFS_1.c ****             convert = (reg16 *) &CY_DMA_TDMEM_STRUCT_PTR[USBFS_1_DmaTd[epNumber]].TD0[0u];
 950              		.loc 1 1263 0
 951 0002 1D49     		ldr	r1, .L73
 952              	.LVL72:
 953 0004 0B5C     		ldrb	r3, [r1, r0]	@ zero_extendqisi2
 954 0006 DB00     		lsls	r3, r3, #3
 955 0008 03F18043 		add	r3, r3, #1073741824
 956 000c 03F5F043 		add	r3, r3, #30720
 957              	.LVL73:
1264:.\Generated_Source\PSoC5/USBFS_1.c ****             /* Set transfer length. */
1265:.\Generated_Source\PSoC5/USBFS_1.c ****             CY_SET_REG16(convert, USBFS_1_inLength[epNumber] - USBFS_1_DMA_BYTES_PER_BURST);
 958              		.loc 1 1265 0
 959 0010 1A4A     		ldr	r2, .L73+4
 960 0012 32F81020 		ldrh	r2, [r2, r0, lsl #1]
 961 0016 203A     		subs	r2, r2, #32
 962 0018 92B2     		uxth	r2, r2
 963 001a 1A80     		strh	r2, [r3]	@ movhi
1266:.\Generated_Source\PSoC5/USBFS_1.c ****             /* CyDmaTdSetAddress API is optimized to change source address only. */
1267:.\Generated_Source\PSoC5/USBFS_1.c ****             convert = (reg16 *) &CY_DMA_TDMEM_STRUCT_PTR[USBFS_1_DmaTd[epNumber]].TD1[0u];
 964              		.loc 1 1267 0
 965 001c 0B5C     		ldrb	r3, [r1, r0]	@ zero_extendqisi2
 966              	.LVL74:
 967 001e DB00     		lsls	r3, r3, #3
 968 0020 03F18043 		add	r3, r3, #1073741824
 969 0024 03F5F043 		add	r3, r3, #30720
 970              	.LVL75:
1268:.\Generated_Source\PSoC5/USBFS_1.c ****             CY_SET_REG16(convert, LO16((uint32)USBFS_1_inDataPointer[epNumber] +
 971              		.loc 1 1268 0
 972 0028 154A     		ldr	r2, .L73+8
 973 002a 52F82020 		ldr	r2, [r2, r0, lsl #2]
 974 002e 2032     		adds	r2, r2, #32
 975 0030 92B2     		uxth	r2, r2
 976 0032 9A80     		strh	r2, [r3, #4]	@ movhi
1269:.\Generated_Source\PSoC5/USBFS_1.c ****                                             USBFS_1_DMA_BYTES_PER_BURST));
1270:.\Generated_Source\PSoC5/USBFS_1.c ****             USBFS_1_inBufFull[epNumber] = 1u;
 977              		.loc 1 1270 0
 978 0034 0122     		movs	r2, #1
 979 0036 134B     		ldr	r3, .L73+12
 980              	.LVL76:
 981 0038 1A54     		strb	r2, [r3, r0]
 982 003a 14E0     		b	.L72
 983              	.LVL77:
ARM GAS  C:\Users\LUKASC~1\AppData\Local\Temp\ccX4OJiL.s 			page 41


 984              	.L71:
1271:.\Generated_Source\PSoC5/USBFS_1.c ****         }
1272:.\Generated_Source\PSoC5/USBFS_1.c ****         else
1273:.\Generated_Source\PSoC5/USBFS_1.c ****         {
1274:.\Generated_Source\PSoC5/USBFS_1.c ****             /* Configure DMA to repeat 2 last bytes of the first burst. */
1275:.\Generated_Source\PSoC5/USBFS_1.c ****             /* CyDmaTdSetConfiguration API is optimized to change transfer length only and configur
1276:.\Generated_Source\PSoC5/USBFS_1.c ****             convert = (reg16 *) &CY_DMA_TDMEM_STRUCT_PTR[USBFS_1_DmaTd[epNumber]].TD0[0u];
 985              		.loc 1 1276 0
 986 003c 0E4A     		ldr	r2, .L73
 987 003e 135C     		ldrb	r3, [r2, r0]	@ zero_extendqisi2
 988 0040 DB00     		lsls	r3, r3, #3
 989 0042 03F18043 		add	r3, r3, #1073741824
 990 0046 03F5F043 		add	r3, r3, #30720
 991              	.LVL78:
1277:.\Generated_Source\PSoC5/USBFS_1.c ****             /* Set transfer length. */
1278:.\Generated_Source\PSoC5/USBFS_1.c ****             CY_SET_REG16(convert, USBFS_1_DMA_BYTES_REPEAT);
 992              		.loc 1 1278 0
 993 004a 0221     		movs	r1, #2
 994              	.LVL79:
 995 004c 1980     		strh	r1, [r3]	@ movhi
1279:.\Generated_Source\PSoC5/USBFS_1.c ****             /* CyDmaTdSetAddress API is optimized to change source address only. */
1280:.\Generated_Source\PSoC5/USBFS_1.c ****             convert = (reg16 *) &CY_DMA_TDMEM_STRUCT_PTR[USBFS_1_DmaTd[epNumber]].TD1[0u];
 996              		.loc 1 1280 0
 997 004e 135C     		ldrb	r3, [r2, r0]	@ zero_extendqisi2
 998              	.LVL80:
 999 0050 DB00     		lsls	r3, r3, #3
 1000 0052 03F18043 		add	r3, r3, #1073741824
 1001 0056 03F5F043 		add	r3, r3, #30720
 1002              	.LVL81:
1281:.\Generated_Source\PSoC5/USBFS_1.c ****             CY_SET_REG16(convert,  LO16((uint32)USBFS_1_inDataPointer[epNumber] +
 1003              		.loc 1 1281 0
 1004 005a 094A     		ldr	r2, .L73+8
 1005 005c 52F82020 		ldr	r2, [r2, r0, lsl #2]
 1006 0060 1E32     		adds	r2, r2, #30
 1007 0062 92B2     		uxth	r2, r2
 1008 0064 9A80     		strh	r2, [r3, #4]	@ movhi
 1009              	.LVL82:
 1010              	.L72:
1282:.\Generated_Source\PSoC5/USBFS_1.c ****                                    (USBFS_1_DMA_BYTES_PER_BURST - USBFS_1_DMA_BYTES_REPEAT)));
1283:.\Generated_Source\PSoC5/USBFS_1.c ****         }
1284:.\Generated_Source\PSoC5/USBFS_1.c **** 
1285:.\Generated_Source\PSoC5/USBFS_1.c ****         /* CyDmaChSetInitialTd API is optimized to initialize TD. */
1286:.\Generated_Source\PSoC5/USBFS_1.c ****         CY_DMA_CH_STRUCT_PTR[USBFS_1_DmaChan[epNumber]].basic_status[1u] = USBFS_1_DmaTd[epNumber];
 1011              		.loc 1 1286 0
 1012 0066 084B     		ldr	r3, .L73+16
 1013 0068 1A5C     		ldrb	r2, [r3, r0]	@ zero_extendqisi2
 1014 006a 084B     		ldr	r3, .L73+20
 1015 006c 03EB0213 		add	r3, r3, r2, lsl #4
 1016 0070 014A     		ldr	r2, .L73
 1017 0072 125C     		ldrb	r2, [r2, r0]	@ zero_extendqisi2
 1018 0074 5A72     		strb	r2, [r3, #9]
 1019 0076 7047     		bx	lr
 1020              	.L74:
 1021              		.align	2
 1022              	.L73:
 1023 0078 00000000 		.word	USBFS_1_DmaTd
 1024 007c 00000000 		.word	USBFS_1_inLength
ARM GAS  C:\Users\LUKASC~1\AppData\Local\Temp\ccX4OJiL.s 			page 42


 1025 0080 00000000 		.word	USBFS_1_inDataPointer
 1026 0084 00000000 		.word	USBFS_1_inBufFull
 1027 0088 00000000 		.word	USBFS_1_DmaChan
 1028 008c 10700040 		.word	1073770512
 1029              		.cfi_endproc
 1030              	.LFE13:
 1031              		.size	USBFS_1_LoadNextInEP, .-USBFS_1_LoadNextInEP
 1032              		.section	.text.USBFS_1_LoadInEP,"ax",%progbits
 1033              		.align	2
 1034              		.global	USBFS_1_LoadInEP
 1035              		.thumb
 1036              		.thumb_func
 1037              		.type	USBFS_1_LoadInEP, %function
 1038              	USBFS_1_LoadInEP:
 1039              	.LFB14:
1287:.\Generated_Source\PSoC5/USBFS_1.c ****     }
1288:.\Generated_Source\PSoC5/USBFS_1.c **** #endif /* (USBFS_1_EP_MANAGEMENT_DMA_AUTO && (USBFS_1_EP_DMA_AUTO_OPT == 0u)) */
1289:.\Generated_Source\PSoC5/USBFS_1.c **** #endif /* (CY_PSOC3 || CY_PSOC5) */
1290:.\Generated_Source\PSoC5/USBFS_1.c **** 
1291:.\Generated_Source\PSoC5/USBFS_1.c **** 
1292:.\Generated_Source\PSoC5/USBFS_1.c **** /*******************************************************************************
1293:.\Generated_Source\PSoC5/USBFS_1.c **** * Function Name: USBFS_1_LoadInEP
1294:.\Generated_Source\PSoC5/USBFS_1.c **** ****************************************************************************//**
1295:.\Generated_Source\PSoC5/USBFS_1.c **** *
1296:.\Generated_Source\PSoC5/USBFS_1.c **** *  This function performs different functionality depending on the Component’s
1297:.\Generated_Source\PSoC5/USBFS_1.c **** *  configured Endpoint Buffer Management. This parameter is defined in
1298:.\Generated_Source\PSoC5/USBFS_1.c **** *  the Descriptor Root in Component Configure window.
1299:.\Generated_Source\PSoC5/USBFS_1.c **** *
1300:.\Generated_Source\PSoC5/USBFS_1.c **** *  *Manual (Static/Dynamic Allocation):*
1301:.\Generated_Source\PSoC5/USBFS_1.c **** *  This function loads and enables the specified USB data endpoint for an IN
1302:.\Generated_Source\PSoC5/USBFS_1.c **** *  data transfer.
1303:.\Generated_Source\PSoC5/USBFS_1.c **** *
1304:.\Generated_Source\PSoC5/USBFS_1.c **** *  *DMA with Manual Buffer Management:*
1305:.\Generated_Source\PSoC5/USBFS_1.c **** *  Configures DMA for a data transfer from system RAM to endpoint buffer.
1306:.\Generated_Source\PSoC5/USBFS_1.c **** *  Generates request for a transfer.
1307:.\Generated_Source\PSoC5/USBFS_1.c **** *
1308:.\Generated_Source\PSoC5/USBFS_1.c **** *  *DMA with Automatic Buffer Management:*
1309:.\Generated_Source\PSoC5/USBFS_1.c **** *  Configures DMA. This is required only once, so it is done only when parameter
1310:.\Generated_Source\PSoC5/USBFS_1.c **** *  pData is not NULL. When the pData pointer is NULL, the function skips this
1311:.\Generated_Source\PSoC5/USBFS_1.c **** *  task. Sets Data ready status: This generates the first DMA transfer and
1312:.\Generated_Source\PSoC5/USBFS_1.c **** *  prepares data in endpoint buffer.
1313:.\Generated_Source\PSoC5/USBFS_1.c **** *
1314:.\Generated_Source\PSoC5/USBFS_1.c **** *  \param epNumber Contains the data endpoint number.
1315:.\Generated_Source\PSoC5/USBFS_1.c **** *            Valid values are between 1 and 8.
1316:.\Generated_Source\PSoC5/USBFS_1.c **** *  \param *pData A pointer to a data array from which the data for the endpoint space
1317:.\Generated_Source\PSoC5/USBFS_1.c **** *          is loaded.
1318:.\Generated_Source\PSoC5/USBFS_1.c **** *  \param length The number of bytes to transfer from the array and then send as
1319:.\Generated_Source\PSoC5/USBFS_1.c **** *          a result of an IN request. Valid values are between 0 and 512
1320:.\Generated_Source\PSoC5/USBFS_1.c **** *          (1023 for DMA with Automatic Buffer Management mode). The value 512
1321:.\Generated_Source\PSoC5/USBFS_1.c **** *          is applicable if only one endpoint is used.
1322:.\Generated_Source\PSoC5/USBFS_1.c **** *
1323:.\Generated_Source\PSoC5/USBFS_1.c **** *
1324:.\Generated_Source\PSoC5/USBFS_1.c **** * \reentrant
1325:.\Generated_Source\PSoC5/USBFS_1.c **** *  No.
1326:.\Generated_Source\PSoC5/USBFS_1.c **** *
1327:.\Generated_Source\PSoC5/USBFS_1.c **** *******************************************************************************/
1328:.\Generated_Source\PSoC5/USBFS_1.c **** void USBFS_1_LoadInEP(uint8 epNumber, const uint8 pData[], uint16 length)
ARM GAS  C:\Users\LUKASC~1\AppData\Local\Temp\ccX4OJiL.s 			page 43


1329:.\Generated_Source\PSoC5/USBFS_1.c ****                                                                         
1330:.\Generated_Source\PSoC5/USBFS_1.c **** {
 1040              		.loc 1 1330 0
 1041              		.cfi_startproc
 1042              		@ args = 0, pretend = 0, frame = 0
 1043              		@ frame_needed = 0, uses_anonymous_args = 0
 1044              	.LVL83:
 1045 0000 2DE9F047 		push	{r4, r5, r6, r7, r8, r9, r10, lr}
 1046              		.cfi_def_cfa_offset 32
 1047              		.cfi_offset 4, -32
 1048              		.cfi_offset 5, -28
 1049              		.cfi_offset 6, -24
 1050              		.cfi_offset 7, -20
 1051              		.cfi_offset 8, -16
 1052              		.cfi_offset 9, -12
 1053              		.cfi_offset 10, -8
 1054              		.cfi_offset 14, -4
 1055 0004 0446     		mov	r4, r0
1331:.\Generated_Source\PSoC5/USBFS_1.c ****     if ((epNumber > USBFS_1_EP0) && (epNumber < USBFS_1_MAX_EP))
 1056              		.loc 1 1331 0
 1057 0006 431E     		subs	r3, r0, #1
 1058 0008 DBB2     		uxtb	r3, r3
 1059 000a 072B     		cmp	r3, #7
 1060 000c 00F2A280 		bhi	.L75
 1061 0010 0E46     		mov	r6, r1
 1062 0012 1546     		mov	r5, r2
1332:.\Generated_Source\PSoC5/USBFS_1.c ****     {
1333:.\Generated_Source\PSoC5/USBFS_1.c ****     #if (!USBFS_1_EP_MANAGEMENT_DMA_AUTO)
1334:.\Generated_Source\PSoC5/USBFS_1.c ****         /* Limit length to available buffer USB IP buffer size.*/
1335:.\Generated_Source\PSoC5/USBFS_1.c ****         if (length > (USBFS_1_EPX_DATA_BUF_MAX - USBFS_1_EP[epNumber].buffOffset))
1336:.\Generated_Source\PSoC5/USBFS_1.c ****         {
1337:.\Generated_Source\PSoC5/USBFS_1.c ****             length = USBFS_1_EPX_DATA_BUF_MAX - USBFS_1_EP[epNumber].buffOffset;
1338:.\Generated_Source\PSoC5/USBFS_1.c ****         }
1339:.\Generated_Source\PSoC5/USBFS_1.c ****     #endif /* (!USBFS_1_EP_MANAGEMENT_DMA_AUTO) */
1340:.\Generated_Source\PSoC5/USBFS_1.c **** 
1341:.\Generated_Source\PSoC5/USBFS_1.c ****         /* Set count and data toggle. */
1342:.\Generated_Source\PSoC5/USBFS_1.c ****         USBFS_1_SIE_EP_BASE.sieEp[epNumber].epCnt0 = (uint8) HI8(length) | USBFS_1_EP[epNumber].epT
 1063              		.loc 1 1342 0
 1064 0014 00EB4003 		add	r3, r0, r0, lsl #1
 1065 0018 9B00     		lsls	r3, r3, #2
 1066 001a 4F4A     		ldr	r2, .L81
 1067              	.LVL84:
 1068 001c 1344     		add	r3, r3, r2
 1069 001e DB78     		ldrb	r3, [r3, #3]	@ zero_extendqisi2
 1070 0020 43EA1523 		orr	r3, r3, r5, lsr #8
 1071 0024 4D49     		ldr	r1, .L81+4
 1072              	.LVL85:
 1073 0026 0201     		lsls	r2, r0, #4
 1074 0028 8818     		adds	r0, r1, r2
 1075              	.LVL86:
 1076 002a 8B54     		strb	r3, [r1, r2]
1343:.\Generated_Source\PSoC5/USBFS_1.c ****         USBFS_1_SIE_EP_BASE.sieEp[epNumber].epCnt1 = (uint8) LO8(length);
 1077              		.loc 1 1343 0
 1078 002c EBB2     		uxtb	r3, r5
 1079 002e 4370     		strb	r3, [r0, #1]
1344:.\Generated_Source\PSoC5/USBFS_1.c **** 
1345:.\Generated_Source\PSoC5/USBFS_1.c ****     #if (USBFS_1_EP_MANAGEMENT_MANUAL)
ARM GAS  C:\Users\LUKASC~1\AppData\Local\Temp\ccX4OJiL.s 			page 44


1346:.\Generated_Source\PSoC5/USBFS_1.c ****         if (NULL != pData)
1347:.\Generated_Source\PSoC5/USBFS_1.c ****         {
1348:.\Generated_Source\PSoC5/USBFS_1.c **** 			/* Copy data using arbiter data register. */
1349:.\Generated_Source\PSoC5/USBFS_1.c ****             uint16 i;
1350:.\Generated_Source\PSoC5/USBFS_1.c ****             for (i = 0u; i < length; ++i)
1351:.\Generated_Source\PSoC5/USBFS_1.c ****             {
1352:.\Generated_Source\PSoC5/USBFS_1.c ****                 USBFS_1_ARB_EP_BASE.arbEp[epNumber].rwDr = pData[i];
1353:.\Generated_Source\PSoC5/USBFS_1.c ****             }
1354:.\Generated_Source\PSoC5/USBFS_1.c ****         }
1355:.\Generated_Source\PSoC5/USBFS_1.c **** 
1356:.\Generated_Source\PSoC5/USBFS_1.c ****         /* IN endpoint buffer is full - read to be read. */
1357:.\Generated_Source\PSoC5/USBFS_1.c ****         USBFS_1_EP[epNumber].apiEpState = USBFS_1_NO_EVENT_PENDING;
1358:.\Generated_Source\PSoC5/USBFS_1.c **** 
1359:.\Generated_Source\PSoC5/USBFS_1.c ****         /* Arm IN endpoint. */
1360:.\Generated_Source\PSoC5/USBFS_1.c ****         USBFS_1_SIE_EP_BASE.sieEp[epNumber].epCr0 = USBFS_1_EP[epNumber].epMode;
1361:.\Generated_Source\PSoC5/USBFS_1.c **** 
1362:.\Generated_Source\PSoC5/USBFS_1.c ****     #else
1363:.\Generated_Source\PSoC5/USBFS_1.c **** 
1364:.\Generated_Source\PSoC5/USBFS_1.c ****         #if (CY_PSOC3 || CY_PSOC5LP)
1365:.\Generated_Source\PSoC5/USBFS_1.c ****             /* Initialize DMA if it was not initialized. */
1366:.\Generated_Source\PSoC5/USBFS_1.c ****             if (DMA_INVALID_TD == USBFS_1_DmaTd[epNumber])
 1080              		.loc 1 1366 0
 1081 0030 4B4B     		ldr	r3, .L81+8
 1082 0032 1B5D     		ldrb	r3, [r3, r4]	@ zero_extendqisi2
 1083 0034 FF2B     		cmp	r3, #255
 1084 0036 03D1     		bne	.L77
1367:.\Generated_Source\PSoC5/USBFS_1.c ****             {
1368:.\Generated_Source\PSoC5/USBFS_1.c ****                 USBFS_1_InitEP_DMA(epNumber, pData);
 1085              		.loc 1 1368 0
 1086 0038 2046     		mov	r0, r4
 1087 003a 3146     		mov	r1, r6
 1088 003c FFF7FEFF 		bl	USBFS_1_InitEP_DMA
 1089              	.LVL87:
 1090              	.L77:
1369:.\Generated_Source\PSoC5/USBFS_1.c ****             }
1370:.\Generated_Source\PSoC5/USBFS_1.c ****         #endif /* (CY_PSOC3 || CY_PSOC5LP) */
1371:.\Generated_Source\PSoC5/USBFS_1.c **** 
1372:.\Generated_Source\PSoC5/USBFS_1.c ****         #if (USBFS_1_EP_MANAGEMENT_DMA_MANUAL)
1373:.\Generated_Source\PSoC5/USBFS_1.c ****             /* IN endpoint buffer will be fully loaded by DMA shortly. */
1374:.\Generated_Source\PSoC5/USBFS_1.c ****             USBFS_1_EP[epNumber].apiEpState = USBFS_1_NO_EVENT_PENDING;
1375:.\Generated_Source\PSoC5/USBFS_1.c **** 
1376:.\Generated_Source\PSoC5/USBFS_1.c ****             if ((pData != NULL) && (length > 0u))
1377:.\Generated_Source\PSoC5/USBFS_1.c ****             {
1378:.\Generated_Source\PSoC5/USBFS_1.c ****             #if (CY_PSOC4)
1379:.\Generated_Source\PSoC5/USBFS_1.c ****                 uint32 channelNum = (uint32) USBFS_1_DmaChan[epNumber];
1380:.\Generated_Source\PSoC5/USBFS_1.c **** 
1381:.\Generated_Source\PSoC5/USBFS_1.c ****                 /* Disable DMA channel: start configuration. */
1382:.\Generated_Source\PSoC5/USBFS_1.c ****                 USBFS_1_CyDmaChDisable(channelNum);
1383:.\Generated_Source\PSoC5/USBFS_1.c **** 
1384:.\Generated_Source\PSoC5/USBFS_1.c ****                 /* Configure source and destination. */
1385:.\Generated_Source\PSoC5/USBFS_1.c ****                 USBFS_1_CyDmaSetSrcAddress(channelNum, USBFS_1_DMA_DESCR0, (void*) pData);
1386:.\Generated_Source\PSoC5/USBFS_1.c ****                 USBFS_1_CyDmaSetDstAddress(channelNum, USBFS_1_DMA_DESCR0, (void*) &USBFS_1_ARB_EP_
1387:.\Generated_Source\PSoC5/USBFS_1.c **** 
1388:.\Generated_Source\PSoC5/USBFS_1.c ****                 /* Configure DMA descriptor. */
1389:.\Generated_Source\PSoC5/USBFS_1.c ****                 --length;
1390:.\Generated_Source\PSoC5/USBFS_1.c ****                 USBFS_1_CyDmaSetConfiguration(channelNum, USBFS_1_DMA_DESCR0, USBFS_1_DMA_COMMON_CF
1391:.\Generated_Source\PSoC5/USBFS_1.c ****                                                         CYDMA_BYTE | CYDMA_ELEMENT_WORD | CYDMA_INC
ARM GAS  C:\Users\LUKASC~1\AppData\Local\Temp\ccX4OJiL.s 			page 45


1392:.\Generated_Source\PSoC5/USBFS_1.c **** 
1393:.\Generated_Source\PSoC5/USBFS_1.c ****                 /* Validate descriptor to execute on following DMA request. */
1394:.\Generated_Source\PSoC5/USBFS_1.c ****                 USBFS_1_CyDmaValidateDescriptor(channelNum, USBFS_1_DMA_DESCR0);
1395:.\Generated_Source\PSoC5/USBFS_1.c **** 
1396:.\Generated_Source\PSoC5/USBFS_1.c ****                 /* Enable DMA channel: configuration complete. */
1397:.\Generated_Source\PSoC5/USBFS_1.c ****                 USBFS_1_CyDmaChEnable(channelNum);
1398:.\Generated_Source\PSoC5/USBFS_1.c ****             #else
1399:.\Generated_Source\PSoC5/USBFS_1.c ****                 /* Configure DMA to transfer data. */
1400:.\Generated_Source\PSoC5/USBFS_1.c ****                 (void) CyDmaChDisable(USBFS_1_DmaChan[epNumber]);
1401:.\Generated_Source\PSoC5/USBFS_1.c ****                 (void) CyDmaTdSetConfiguration(USBFS_1_DmaTd[epNumber], length, CY_DMA_DISABLE_TD, 
1402:.\Generated_Source\PSoC5/USBFS_1.c ****                 (void) CyDmaTdSetAddress(USBFS_1_DmaTd[epNumber], LO16((uint32) pData), LO16((uint3
1403:.\Generated_Source\PSoC5/USBFS_1.c **** 
1404:.\Generated_Source\PSoC5/USBFS_1.c ****                 /* Enable DMA channel. */
1405:.\Generated_Source\PSoC5/USBFS_1.c ****                 (void) CyDmaChSetInitialTd(USBFS_1_DmaChan[epNumber], USBFS_1_DmaTd[epNumber]);
1406:.\Generated_Source\PSoC5/USBFS_1.c ****                 (void) CyDmaChEnable(USBFS_1_DmaChan[epNumber], 1u);
1407:.\Generated_Source\PSoC5/USBFS_1.c ****             #endif /* (CY_PSOC4) */
1408:.\Generated_Source\PSoC5/USBFS_1.c **** 
1409:.\Generated_Source\PSoC5/USBFS_1.c ****                 /* Generate DMA request. */
1410:.\Generated_Source\PSoC5/USBFS_1.c ****                 USBFS_1_ARB_EP_BASE.arbEp[epNumber].epCfg |=  (uint8)  USBFS_1_ARB_EPX_CFG_DMA_REQ;
1411:.\Generated_Source\PSoC5/USBFS_1.c ****                 USBFS_1_ARB_EP_BASE.arbEp[epNumber].epCfg &=  (uint8) ~USBFS_1_ARB_EPX_CFG_DMA_REQ;
1412:.\Generated_Source\PSoC5/USBFS_1.c **** 
1413:.\Generated_Source\PSoC5/USBFS_1.c ****                 /* IN endpoint will be armed in ARB_ISR(source: IN_BUF_FULL) after first DMA transf
1414:.\Generated_Source\PSoC5/USBFS_1.c ****             }
1415:.\Generated_Source\PSoC5/USBFS_1.c ****             else
1416:.\Generated_Source\PSoC5/USBFS_1.c ****             {
1417:.\Generated_Source\PSoC5/USBFS_1.c ****                 /* When zero-length packet: arm IN endpoint directly. */
1418:.\Generated_Source\PSoC5/USBFS_1.c ****                 USBFS_1_SIE_EP_BASE.sieEp[epNumber].epCr0 = USBFS_1_EP[epNumber].epMode;
1419:.\Generated_Source\PSoC5/USBFS_1.c ****             }
1420:.\Generated_Source\PSoC5/USBFS_1.c ****         #endif /* (USBFS_1_EP_MANAGEMENT_DMA_MANUAL) */
1421:.\Generated_Source\PSoC5/USBFS_1.c **** 
1422:.\Generated_Source\PSoC5/USBFS_1.c ****         #if (USBFS_1_EP_MANAGEMENT_DMA_AUTO)
1423:.\Generated_Source\PSoC5/USBFS_1.c ****             if (pData != NULL)
 1091              		.loc 1 1423 0
 1092 0040 002E     		cmp	r6, #0
 1093 0042 43D0     		beq	.L78
1424:.\Generated_Source\PSoC5/USBFS_1.c ****             {
1425:.\Generated_Source\PSoC5/USBFS_1.c ****             #if (CY_PSOC4)
1426:.\Generated_Source\PSoC5/USBFS_1.c ****                 uint32 channelNum = (uint32) USBFS_1_DmaChan[epNumber];
1427:.\Generated_Source\PSoC5/USBFS_1.c **** 
1428:.\Generated_Source\PSoC5/USBFS_1.c ****                 /* Store address of buffer. */
1429:.\Generated_Source\PSoC5/USBFS_1.c ****                 USBFS_1_DmaEpBufferAddrBackup[epNumber] = (uint32) pData;
1430:.\Generated_Source\PSoC5/USBFS_1.c **** 
1431:.\Generated_Source\PSoC5/USBFS_1.c ****                 /* Disable DMA channel: start configuration. */
1432:.\Generated_Source\PSoC5/USBFS_1.c ****                 USBFS_1_CyDmaChDisable(channelNum);
1433:.\Generated_Source\PSoC5/USBFS_1.c **** 
1434:.\Generated_Source\PSoC5/USBFS_1.c ****                 /* Set destination address. */
1435:.\Generated_Source\PSoC5/USBFS_1.c ****                 USBFS_1_CyDmaSetDstAddress(channelNum, USBFS_1_DMA_DESCR0, (void*) &USBFS_1_ARB_EP_
1436:.\Generated_Source\PSoC5/USBFS_1.c ****                 USBFS_1_CyDmaSetDstAddress(channelNum, USBFS_1_DMA_DESCR1, (void*) &USBFS_1_ARB_EP_
1437:.\Generated_Source\PSoC5/USBFS_1.c **** 
1438:.\Generated_Source\PSoC5/USBFS_1.c ****                 /* Configure DMA descriptor. */
1439:.\Generated_Source\PSoC5/USBFS_1.c ****                 USBFS_1_CyDmaSetConfiguration(channelNum, USBFS_1_DMA_DESCR0, USBFS_1_DMA_COMMON_CF
1440:.\Generated_Source\PSoC5/USBFS_1.c ****                                                         CYDMA_BYTE | CYDMA_ELEMENT_WORD | CYDMA_INC
1441:.\Generated_Source\PSoC5/USBFS_1.c **** 
1442:.\Generated_Source\PSoC5/USBFS_1.c ****                 /* Configure DMA descriptor. */
1443:.\Generated_Source\PSoC5/USBFS_1.c ****                 USBFS_1_CyDmaSetConfiguration(channelNum, USBFS_1_DMA_DESCR1, USBFS_1_DMA_COMMON_CF
1444:.\Generated_Source\PSoC5/USBFS_1.c ****                                                         CYDMA_BYTE | CYDMA_ELEMENT_WORD | CYDMA_INC
1445:.\Generated_Source\PSoC5/USBFS_1.c **** 
ARM GAS  C:\Users\LUKASC~1\AppData\Local\Temp\ccX4OJiL.s 			page 46


1446:.\Generated_Source\PSoC5/USBFS_1.c ****                 /* Enable interrupt from DMA channel. */
1447:.\Generated_Source\PSoC5/USBFS_1.c ****                 USBFS_1_CyDmaSetInterruptMask(channelNum);
1448:.\Generated_Source\PSoC5/USBFS_1.c **** 
1449:.\Generated_Source\PSoC5/USBFS_1.c ****                 /* Validate descriptor 1. It will not be invalided during operation. */
1450:.\Generated_Source\PSoC5/USBFS_1.c ****                 USBFS_1_CyDmaValidateDescriptor(channelNum, USBFS_1_DMA_DESCR1);
1451:.\Generated_Source\PSoC5/USBFS_1.c **** 
1452:.\Generated_Source\PSoC5/USBFS_1.c ****                 /* Enable DMA channel: configuration complete. */
1453:.\Generated_Source\PSoC5/USBFS_1.c ****                 USBFS_1_CyDmaChEnable(channelNum);
1454:.\Generated_Source\PSoC5/USBFS_1.c **** 
1455:.\Generated_Source\PSoC5/USBFS_1.c ****             #else
1456:.\Generated_Source\PSoC5/USBFS_1.c ****                 (void) CyDmaChDisable(USBFS_1_DmaChan[epNumber]);
 1094              		.loc 1 1456 0
 1095 0044 474F     		ldr	r7, .L81+12
 1096 0046 385D     		ldrb	r0, [r7, r4]	@ zero_extendqisi2
 1097 0048 FFF7FEFF 		bl	CyDmaChDisable
 1098              	.LVL88:
1457:.\Generated_Source\PSoC5/USBFS_1.c **** 
1458:.\Generated_Source\PSoC5/USBFS_1.c ****                 #if (USBFS_1_EP_DMA_AUTO_OPT == 0u)
1459:.\Generated_Source\PSoC5/USBFS_1.c ****                     USBFS_1_inLength[epNumber] = length;
 1099              		.loc 1 1459 0
 1100 004c 464B     		ldr	r3, .L81+16
 1101 004e 23F81450 		strh	r5, [r3, r4, lsl #1]	@ movhi
1460:.\Generated_Source\PSoC5/USBFS_1.c ****                     USBFS_1_inDataPointer[epNumber] = pData;
 1102              		.loc 1 1460 0
 1103 0052 464B     		ldr	r3, .L81+20
 1104 0054 43F82460 		str	r6, [r3, r4, lsl #2]
1461:.\Generated_Source\PSoC5/USBFS_1.c **** 
1462:.\Generated_Source\PSoC5/USBFS_1.c ****                     /* Configure DMA to send data only for first burst */
1463:.\Generated_Source\PSoC5/USBFS_1.c ****                     (void) CyDmaTdSetConfiguration(USBFS_1_DmaTd[epNumber],
 1105              		.loc 1 1463 0
 1106 0058 DFF80481 		ldr	r8, .L81+8
 1107 005c DFF82091 		ldr	r9, .L81+40
 1108 0060 18F80400 		ldrb	r0, [r8, r4]	@ zero_extendqisi2
 1109 0064 2946     		mov	r1, r5
 1110 0066 202D     		cmp	r5, #32
 1111 0068 28BF     		it	cs
 1112 006a 2021     		movcs	r1, #32
 1113 006c 19F80420 		ldrb	r2, [r9, r4]	@ zero_extendqisi2
 1114 0070 1123     		movs	r3, #17
 1115 0072 FFF7FEFF 		bl	CyDmaTdSetConfiguration
 1116              	.LVL89:
1464:.\Generated_Source\PSoC5/USBFS_1.c ****                         (length > USBFS_1_DMA_BYTES_PER_BURST) ? USBFS_1_DMA_BYTES_PER_BURST : leng
1465:.\Generated_Source\PSoC5/USBFS_1.c ****                         USBFS_1_DmaNextTd[epNumber], TD_TERMIN_EN | TD_INC_SRC_ADR);
1466:.\Generated_Source\PSoC5/USBFS_1.c ****                     (void) CyDmaTdSetAddress(USBFS_1_DmaTd[epNumber], LO16((uint32) pData),
 1117              		.loc 1 1466 0
 1118 0076 4FEA041A 		lsl	r10, r4, #4
 1119 007a 0AF10802 		add	r2, r10, #8
 1120 007e 3C4D     		ldr	r5, .L81+24
 1121 0080 2A44     		add	r2, r2, r5
 1122 0082 92B2     		uxth	r2, r2
 1123 0084 18F80400 		ldrb	r0, [r8, r4]	@ zero_extendqisi2
 1124 0088 B1B2     		uxth	r1, r6
 1125 008a FFF7FEFF 		bl	CyDmaTdSetAddress
 1126              	.LVL90:
1467:.\Generated_Source\PSoC5/USBFS_1.c ****                                                                                LO16((uint32) &USBFS
1468:.\Generated_Source\PSoC5/USBFS_1.c **** 
1469:.\Generated_Source\PSoC5/USBFS_1.c ****                     /* The second TD will be executed only when the first one fails.
ARM GAS  C:\Users\LUKASC~1\AppData\Local\Temp\ccX4OJiL.s 			page 47


1470:.\Generated_Source\PSoC5/USBFS_1.c ****                     *  The intention of this TD is to generate NRQ interrupt
1471:.\Generated_Source\PSoC5/USBFS_1.c ****                     *  and repeat 2 last bytes of the first burst.
1472:.\Generated_Source\PSoC5/USBFS_1.c ****                     */
1473:.\Generated_Source\PSoC5/USBFS_1.c ****                     (void) CyDmaTdSetConfiguration(USBFS_1_DmaNextTd[epNumber], 1u,
 1127              		.loc 1 1473 0
 1128 008e 19F80420 		ldrb	r2, [r9, r4]	@ zero_extendqisi2
 1129 0092 1046     		mov	r0, r2
 1130 0094 0121     		movs	r1, #1
 1131 0096 374B     		ldr	r3, .L81+28
 1132 0098 1B5D     		ldrb	r3, [r3, r4]	@ zero_extendqisi2
 1133 009a FFF7FEFF 		bl	CyDmaTdSetConfiguration
 1134              	.LVL91:
1474:.\Generated_Source\PSoC5/USBFS_1.c ****                                                    USBFS_1_DmaNextTd[epNumber],
1475:.\Generated_Source\PSoC5/USBFS_1.c ****                                                    USBFS_1_epX_TD_TERMOUT_EN[epNumber]);
1476:.\Generated_Source\PSoC5/USBFS_1.c **** 
1477:.\Generated_Source\PSoC5/USBFS_1.c ****                     /* Configure DmaNextTd to clear Data Ready status. */
1478:.\Generated_Source\PSoC5/USBFS_1.c ****                     (void) CyDmaTdSetAddress(USBFS_1_DmaNextTd[epNumber], LO16((uint32) &clearInDat
 1135              		.loc 1 1478 0
 1136 009e 0AEB0502 		add	r2, r10, r5
 1137 00a2 92B2     		uxth	r2, r2
 1138 00a4 19F80400 		ldrb	r0, [r9, r4]	@ zero_extendqisi2
 1139 00a8 3349     		ldr	r1, .L81+32
 1140 00aa 89B2     		uxth	r1, r1
 1141 00ac FFF7FEFF 		bl	CyDmaTdSetAddress
 1142              	.LVL92:
1479:.\Generated_Source\PSoC5/USBFS_1.c ****                                                                                    LO16((uint32) &U
1480:.\Generated_Source\PSoC5/USBFS_1.c ****                 #else
1481:.\Generated_Source\PSoC5/USBFS_1.c ****                     /* Configure DMA to send all data. */
1482:.\Generated_Source\PSoC5/USBFS_1.c ****                     (void) CyDmaTdSetConfiguration(USBFS_1_DmaTd[epNumber], length,
1483:.\Generated_Source\PSoC5/USBFS_1.c ****                                                    USBFS_1_DmaTd[epNumber], TD_TERMIN_EN | TD_INC_S
1484:.\Generated_Source\PSoC5/USBFS_1.c ****                     (void) CyDmaTdSetAddress(USBFS_1_DmaTd[epNumber], LO16((uint32) pData),
1485:.\Generated_Source\PSoC5/USBFS_1.c ****                                                                                LO16((uint32) &USBFS
1486:.\Generated_Source\PSoC5/USBFS_1.c ****                 #endif /* (USBFS_1_EP_DMA_AUTO_OPT == 0u) */
1487:.\Generated_Source\PSoC5/USBFS_1.c **** 
1488:.\Generated_Source\PSoC5/USBFS_1.c ****                 /* Clear any potential pending DMA requests before starting DMA channel to transfer
1489:.\Generated_Source\PSoC5/USBFS_1.c ****                 (void) CyDmaClearPendingDrq(USBFS_1_DmaChan[epNumber]);
 1143              		.loc 1 1489 0
 1144 00b0 385D     		ldrb	r0, [r7, r4]	@ zero_extendqisi2
 1145 00b2 FFF7FEFF 		bl	CyDmaClearPendingDrq
 1146              	.LVL93:
1490:.\Generated_Source\PSoC5/USBFS_1.c ****                 /* Enable DMA. */
1491:.\Generated_Source\PSoC5/USBFS_1.c ****                 (void) CyDmaChSetInitialTd(USBFS_1_DmaChan[epNumber], USBFS_1_DmaTd[epNumber]);
 1147              		.loc 1 1491 0
 1148 00b6 385D     		ldrb	r0, [r7, r4]	@ zero_extendqisi2
 1149 00b8 18F80410 		ldrb	r1, [r8, r4]	@ zero_extendqisi2
 1150 00bc FFF7FEFF 		bl	CyDmaChSetInitialTd
 1151              	.LVL94:
1492:.\Generated_Source\PSoC5/USBFS_1.c ****                 (void) CyDmaChEnable(USBFS_1_DmaChan[epNumber], 1u);
 1152              		.loc 1 1492 0
 1153 00c0 385D     		ldrb	r0, [r7, r4]	@ zero_extendqisi2
 1154 00c2 0121     		movs	r1, #1
 1155 00c4 FFF7FEFF 		bl	CyDmaChEnable
 1156              	.LVL95:
 1157 00c8 BDE8F087 		pop	{r4, r5, r6, r7, r8, r9, r10, pc}
 1158              	.LVL96:
 1159              	.L78:
1493:.\Generated_Source\PSoC5/USBFS_1.c ****             #endif /* (CY_PSOC4) */
ARM GAS  C:\Users\LUKASC~1\AppData\Local\Temp\ccX4OJiL.s 			page 48


1494:.\Generated_Source\PSoC5/USBFS_1.c ****             }
1495:.\Generated_Source\PSoC5/USBFS_1.c ****             else
1496:.\Generated_Source\PSoC5/USBFS_1.c ****             {
1497:.\Generated_Source\PSoC5/USBFS_1.c ****                 /* IN endpoint buffer (32 bytes) will shortly be preloaded by DMA. */
1498:.\Generated_Source\PSoC5/USBFS_1.c ****                 USBFS_1_EP[epNumber].apiEpState = USBFS_1_NO_EVENT_PENDING;
 1160              		.loc 1 1498 0
 1161 00cc 04EB4403 		add	r3, r4, r4, lsl #1
 1162 00d0 9B00     		lsls	r3, r3, #2
 1163 00d2 214A     		ldr	r2, .L81
 1164 00d4 1344     		add	r3, r3, r2
 1165 00d6 0022     		movs	r2, #0
 1166 00d8 5A70     		strb	r2, [r3, #1]
1499:.\Generated_Source\PSoC5/USBFS_1.c **** 
1500:.\Generated_Source\PSoC5/USBFS_1.c ****                 if (length > 0u)
 1167              		.loc 1 1500 0
 1168 00da 002D     		cmp	r5, #0
 1169 00dc 30D0     		beq	.L79
1501:.\Generated_Source\PSoC5/USBFS_1.c ****                 {
1502:.\Generated_Source\PSoC5/USBFS_1.c ****                 #if (CY_PSOC4)
1503:.\Generated_Source\PSoC5/USBFS_1.c ****                     uint32 lengthDescr0, lengthDescr1;
1504:.\Generated_Source\PSoC5/USBFS_1.c ****                     uint32 channelNum = (uint32) USBFS_1_DmaChan[epNumber];
1505:.\Generated_Source\PSoC5/USBFS_1.c **** 
1506:.\Generated_Source\PSoC5/USBFS_1.c ****                     /* Get number of full bursts. */
1507:.\Generated_Source\PSoC5/USBFS_1.c ****                     USBFS_1_DmaEpBurstCnt[epNumber] = (uint8) (length / USBFS_1_DMA_BYTES_PER_BURST
1508:.\Generated_Source\PSoC5/USBFS_1.c **** 
1509:.\Generated_Source\PSoC5/USBFS_1.c ****                     /* Get number of elements in the last burst. */
1510:.\Generated_Source\PSoC5/USBFS_1.c ****                     USBFS_1_DmaEpLastBurstEl[epNumber] = (uint8) (length % USBFS_1_DMA_BYTES_PER_BU
1511:.\Generated_Source\PSoC5/USBFS_1.c **** 
1512:.\Generated_Source\PSoC5/USBFS_1.c ****                     /* Get total number of bursts. */
1513:.\Generated_Source\PSoC5/USBFS_1.c ****                     USBFS_1_DmaEpBurstCnt[epNumber] += (0u != USBFS_1_DmaEpLastBurstEl[epNumber]) ?
1514:.\Generated_Source\PSoC5/USBFS_1.c **** 
1515:.\Generated_Source\PSoC5/USBFS_1.c ****                     /* Adjust number of data elements transferred in last burst. */
1516:.\Generated_Source\PSoC5/USBFS_1.c ****                     USBFS_1_DmaEpLastBurstEl[epNumber] = (0u != USBFS_1_DmaEpLastBurstEl[epNumber])
1517:.\Generated_Source\PSoC5/USBFS_1.c ****                                                                           (USBFS_1_DmaEpLastBurstEl
1518:.\Generated_Source\PSoC5/USBFS_1.c ****                                                                           (USBFS_1_DMA_BYTES_PER_BU
1519:.\Generated_Source\PSoC5/USBFS_1.c **** 
1520:.\Generated_Source\PSoC5/USBFS_1.c ****                     /* Get number of data elements to transfer for descriptor 0 and 1. */
1521:.\Generated_Source\PSoC5/USBFS_1.c ****                     lengthDescr0 = (1u == USBFS_1_DmaEpBurstCnt[epNumber]) ? USBFS_1_DmaEpLastBurst
1522:.\Generated_Source\PSoC5/USBFS_1.c ****                     lengthDescr1 = (2u == USBFS_1_DmaEpBurstCnt[epNumber]) ? USBFS_1_DmaEpLastBurst
1523:.\Generated_Source\PSoC5/USBFS_1.c **** 
1524:.\Generated_Source\PSoC5/USBFS_1.c **** 
1525:.\Generated_Source\PSoC5/USBFS_1.c ****                     /* Mark which descriptor is last one to execute. */
1526:.\Generated_Source\PSoC5/USBFS_1.c ****                     USBFS_1_DmaEpLastBurstEl[epNumber] |= (0u != (USBFS_1_DmaEpBurstCnt[epNumber] &
1527:.\Generated_Source\PSoC5/USBFS_1.c ****                                                                             USBFS_1_DMA_DESCR0_MASK
1528:.\Generated_Source\PSoC5/USBFS_1.c **** 
1529:.\Generated_Source\PSoC5/USBFS_1.c ****                     /* Adjust burst counter taking to account: 2 valid descriptors and interrupt tr
1530:.\Generated_Source\PSoC5/USBFS_1.c ****                     USBFS_1_DmaEpBurstCnt[epNumber] = USBFS_1_DMA_GET_BURST_CNT(USBFS_1_DmaEpBurstC
1531:.\Generated_Source\PSoC5/USBFS_1.c **** 
1532:.\Generated_Source\PSoC5/USBFS_1.c ****                     /* Restore DMA settings for current transfer. */
1533:.\Generated_Source\PSoC5/USBFS_1.c ****                     USBFS_1_CyDmaChDisable(channelNum);
1534:.\Generated_Source\PSoC5/USBFS_1.c **** 
1535:.\Generated_Source\PSoC5/USBFS_1.c ****                     /* Restore destination address for input endpoint. */
1536:.\Generated_Source\PSoC5/USBFS_1.c ****                     USBFS_1_CyDmaSetSrcAddress(channelNum, USBFS_1_DMA_DESCR0, (void*) ((uint32) US
1537:.\Generated_Source\PSoC5/USBFS_1.c ****                     USBFS_1_CyDmaSetSrcAddress(channelNum, USBFS_1_DMA_DESCR1, (void*) ((uint32) US
1538:.\Generated_Source\PSoC5/USBFS_1.c ****                                                                                                    
1539:.\Generated_Source\PSoC5/USBFS_1.c **** 
1540:.\Generated_Source\PSoC5/USBFS_1.c ****                     /* Set number of elements to transfer. */
ARM GAS  C:\Users\LUKASC~1\AppData\Local\Temp\ccX4OJiL.s 			page 49


1541:.\Generated_Source\PSoC5/USBFS_1.c ****                     USBFS_1_CyDmaSetNumDataElements(channelNum, USBFS_1_DMA_DESCR0, lengthDescr0);
1542:.\Generated_Source\PSoC5/USBFS_1.c ****                     USBFS_1_CyDmaSetNumDataElements(channelNum, USBFS_1_DMA_DESCR1, lengthDescr1);
1543:.\Generated_Source\PSoC5/USBFS_1.c **** 
1544:.\Generated_Source\PSoC5/USBFS_1.c ****                     /* Validate descriptor 0 and command to start with it. */
1545:.\Generated_Source\PSoC5/USBFS_1.c ****                     USBFS_1_CyDmaValidateDescriptor(channelNum, USBFS_1_DMA_DESCR0);
1546:.\Generated_Source\PSoC5/USBFS_1.c ****                     USBFS_1_CyDmaSetDescriptor0Next(channelNum);
1547:.\Generated_Source\PSoC5/USBFS_1.c **** 
1548:.\Generated_Source\PSoC5/USBFS_1.c ****                     /* Enable DMA channel: configuration complete. */
1549:.\Generated_Source\PSoC5/USBFS_1.c ****                     USBFS_1_CyDmaChEnable(channelNum);
1550:.\Generated_Source\PSoC5/USBFS_1.c **** 
1551:.\Generated_Source\PSoC5/USBFS_1.c ****                 #elif (USBFS_1_EP_DMA_AUTO_OPT == 0u)
1552:.\Generated_Source\PSoC5/USBFS_1.c ****                     USBFS_1_inLength[epNumber]  = length;
 1170              		.loc 1 1552 0
 1171 00de 224B     		ldr	r3, .L81+16
 1172 00e0 23F81450 		strh	r5, [r3, r4, lsl #1]	@ movhi
1553:.\Generated_Source\PSoC5/USBFS_1.c ****                     USBFS_1_inBufFull[epNumber] = 0u;
 1173              		.loc 1 1553 0
 1174 00e4 254B     		ldr	r3, .L81+36
 1175 00e6 1A55     		strb	r2, [r3, r4]
1554:.\Generated_Source\PSoC5/USBFS_1.c **** 
1555:.\Generated_Source\PSoC5/USBFS_1.c ****                     (void) CyDmaChDisable(USBFS_1_DmaChan[epNumber]);
 1176              		.loc 1 1555 0
 1177 00e8 1E4E     		ldr	r6, .L81+12
 1178              	.LVL97:
 1179 00ea 305D     		ldrb	r0, [r6, r4]	@ zero_extendqisi2
 1180 00ec FFF7FEFF 		bl	CyDmaChDisable
 1181              	.LVL98:
1556:.\Generated_Source\PSoC5/USBFS_1.c ****                     /* Configure DMA to send data only for first burst. */
1557:.\Generated_Source\PSoC5/USBFS_1.c ****                     (void) CyDmaTdSetConfiguration(
 1182              		.loc 1 1557 0
 1183 00f0 1B4F     		ldr	r7, .L81+8
 1184 00f2 385D     		ldrb	r0, [r7, r4]	@ zero_extendqisi2
 1185 00f4 2946     		mov	r1, r5
 1186 00f6 202D     		cmp	r5, #32
 1187 00f8 28BF     		it	cs
 1188 00fa 2021     		movcs	r1, #32
 1189 00fc 204B     		ldr	r3, .L81+40
 1190 00fe 1A5D     		ldrb	r2, [r3, r4]	@ zero_extendqisi2
 1191 0100 1123     		movs	r3, #17
 1192 0102 FFF7FEFF 		bl	CyDmaTdSetConfiguration
 1193              	.LVL99:
1558:.\Generated_Source\PSoC5/USBFS_1.c ****                         USBFS_1_DmaTd[epNumber], (length > USBFS_1_DMA_BYTES_PER_BURST) ?
1559:.\Generated_Source\PSoC5/USBFS_1.c ****                         USBFS_1_DMA_BYTES_PER_BURST : length,
1560:.\Generated_Source\PSoC5/USBFS_1.c ****                         USBFS_1_DmaNextTd[epNumber], TD_TERMIN_EN | TD_INC_SRC_ADR );
1561:.\Generated_Source\PSoC5/USBFS_1.c ****                     (void) CyDmaTdSetAddress(USBFS_1_DmaTd[epNumber], LO16((uint32)  USBFS_1_inData
 1194              		.loc 1 1561 0
 1195 0106 2201     		lsls	r2, r4, #4
 1196 0108 0832     		adds	r2, r2, #8
 1197 010a 194D     		ldr	r5, .L81+24
 1198 010c 2A44     		add	r2, r2, r5
 1199 010e 92B2     		uxth	r2, r2
 1200 0110 385D     		ldrb	r0, [r7, r4]	@ zero_extendqisi2
 1201 0112 164B     		ldr	r3, .L81+20
 1202 0114 33F82410 		ldrh	r1, [r3, r4, lsl #2]
 1203 0118 FFF7FEFF 		bl	CyDmaTdSetAddress
 1204              	.LVL100:
1562:.\Generated_Source\PSoC5/USBFS_1.c ****                                                                                LO16((uint32) &USBFS
ARM GAS  C:\Users\LUKASC~1\AppData\Local\Temp\ccX4OJiL.s 			page 50


1563:.\Generated_Source\PSoC5/USBFS_1.c ****                     /* Clear Any potential pending DMA requests before starting DMA channel to tran
1564:.\Generated_Source\PSoC5/USBFS_1.c ****                     (void) CyDmaClearPendingDrq(USBFS_1_DmaChan[epNumber]);
 1205              		.loc 1 1564 0
 1206 011c 305D     		ldrb	r0, [r6, r4]	@ zero_extendqisi2
 1207 011e FFF7FEFF 		bl	CyDmaClearPendingDrq
 1208              	.LVL101:
1565:.\Generated_Source\PSoC5/USBFS_1.c ****                     /* Enable DMA. */
1566:.\Generated_Source\PSoC5/USBFS_1.c ****                     (void) CyDmaChSetInitialTd(USBFS_1_DmaChan[epNumber], USBFS_1_DmaTd[epNumber]);
 1209              		.loc 1 1566 0
 1210 0122 305D     		ldrb	r0, [r6, r4]	@ zero_extendqisi2
 1211 0124 395D     		ldrb	r1, [r7, r4]	@ zero_extendqisi2
 1212 0126 FFF7FEFF 		bl	CyDmaChSetInitialTd
 1213              	.LVL102:
1567:.\Generated_Source\PSoC5/USBFS_1.c ****                     (void) CyDmaChEnable(USBFS_1_DmaChan[epNumber], 1u);
 1214              		.loc 1 1567 0
 1215 012a 305D     		ldrb	r0, [r6, r4]	@ zero_extendqisi2
 1216 012c 0121     		movs	r1, #1
 1217 012e FFF7FEFF 		bl	CyDmaChEnable
 1218              	.LVL103:
1568:.\Generated_Source\PSoC5/USBFS_1.c ****                 #endif /* (CY_PSOC4) */
1569:.\Generated_Source\PSoC5/USBFS_1.c **** 
1570:.\Generated_Source\PSoC5/USBFS_1.c ****                 #if !defined (USBFS_1_MANUAL_IN_EP_ARM)
1571:.\Generated_Source\PSoC5/USBFS_1.c ****                     /* Set IN data ready to generate DMA request to load data into endpoint buffer.
1572:.\Generated_Source\PSoC5/USBFS_1.c ****                     USBFS_1_ARB_EP_BASE.arbEp[epNumber].epCfg |= USBFS_1_ARB_EPX_CFG_IN_DATA_RDY;
 1219              		.loc 1 1572 0
 1220 0132 2401     		lsls	r4, r4, #4
 1221 0134 2B5D     		ldrb	r3, [r5, r4]	@ zero_extendqisi2
 1222 0136 43F00103 		orr	r3, r3, #1
 1223 013a 2B55     		strb	r3, [r5, r4]
 1224 013c BDE8F087 		pop	{r4, r5, r6, r7, r8, r9, r10, pc}
 1225              	.LVL104:
 1226              	.L79:
1573:.\Generated_Source\PSoC5/USBFS_1.c ****                 #endif  /* (USBFS_1_MANUAL_IN_EP_ARM) */
1574:.\Generated_Source\PSoC5/USBFS_1.c **** 
1575:.\Generated_Source\PSoC5/USBFS_1.c ****                     /* IN endpoint will be armed in ARB_ISR(source: IN_BUF_FULL) after first DMA tr
1576:.\Generated_Source\PSoC5/USBFS_1.c ****                 }
1577:.\Generated_Source\PSoC5/USBFS_1.c ****                 else
1578:.\Generated_Source\PSoC5/USBFS_1.c ****                 {
1579:.\Generated_Source\PSoC5/USBFS_1.c ****                     /* When zero-length packet: arm IN endpoint directly. */
1580:.\Generated_Source\PSoC5/USBFS_1.c ****                     USBFS_1_SIE_EP_BASE.sieEp[epNumber].epCr0 = USBFS_1_EP[epNumber].epMode;
 1227              		.loc 1 1580 0
 1228 0140 04EB4403 		add	r3, r4, r4, lsl #1
 1229 0144 9B00     		lsls	r3, r3, #2
 1230 0146 044A     		ldr	r2, .L81
 1231 0148 1344     		add	r3, r3, r2
 1232 014a 5A79     		ldrb	r2, [r3, #5]	@ zero_extendqisi2
 1233 014c D2B2     		uxtb	r2, r2
 1234 014e 2401     		lsls	r4, r4, #4
 1235 0150 0C4B     		ldr	r3, .L81+44
 1236 0152 1A55     		strb	r2, [r3, r4]
 1237              	.LVL105:
 1238              	.L75:
 1239 0154 BDE8F087 		pop	{r4, r5, r6, r7, r8, r9, r10, pc}
 1240              	.L82:
 1241              		.align	2
 1242              	.L81:
 1243 0158 00000000 		.word	USBFS_1_EP
ARM GAS  C:\Users\LUKASC~1\AppData\Local\Temp\ccX4OJiL.s 			page 51


 1244 015c FC5F0040 		.word	1073766396
 1245 0160 00000000 		.word	USBFS_1_DmaTd
 1246 0164 00000000 		.word	USBFS_1_DmaChan
 1247 0168 00000000 		.word	USBFS_1_inLength
 1248 016c 00000000 		.word	USBFS_1_inDataPointer
 1249 0170 70600040 		.word	1073766512
 1250 0174 00000000 		.word	.LANCHOR1
 1251 0178 00000000 		.word	.LANCHOR2
 1252 017c 00000000 		.word	USBFS_1_inBufFull
 1253 0180 00000000 		.word	USBFS_1_DmaNextTd
 1254 0184 FE5F0040 		.word	1073766398
 1255              		.cfi_endproc
 1256              	.LFE14:
 1257              		.size	USBFS_1_LoadInEP, .-USBFS_1_LoadInEP
 1258              		.section	.text.USBFS_1_ReadOutEP,"ax",%progbits
 1259              		.align	2
 1260              		.global	USBFS_1_ReadOutEP
 1261              		.thumb
 1262              		.thumb_func
 1263              		.type	USBFS_1_ReadOutEP, %function
 1264              	USBFS_1_ReadOutEP:
 1265              	.LFB15:
1581:.\Generated_Source\PSoC5/USBFS_1.c ****                 }
1582:.\Generated_Source\PSoC5/USBFS_1.c ****             }
1583:.\Generated_Source\PSoC5/USBFS_1.c ****         #endif /* (USBFS_1_EP_MANAGEMENT_DMA_AUTO) */
1584:.\Generated_Source\PSoC5/USBFS_1.c ****     #endif /* (USBFS_1_EP_MANAGEMENT_MANUAL) */
1585:.\Generated_Source\PSoC5/USBFS_1.c ****     }
1586:.\Generated_Source\PSoC5/USBFS_1.c **** }
1587:.\Generated_Source\PSoC5/USBFS_1.c **** 
1588:.\Generated_Source\PSoC5/USBFS_1.c **** 
1589:.\Generated_Source\PSoC5/USBFS_1.c **** /*******************************************************************************
1590:.\Generated_Source\PSoC5/USBFS_1.c **** * Function Name: USBFS_1_ReadOutEP
1591:.\Generated_Source\PSoC5/USBFS_1.c **** ****************************************************************************//**
1592:.\Generated_Source\PSoC5/USBFS_1.c **** *
1593:.\Generated_Source\PSoC5/USBFS_1.c **** *   This function performs different functionality depending on the Component’s
1594:.\Generated_Source\PSoC5/USBFS_1.c **** *   configured Endpoint Buffer Management. This parameter is defined in the
1595:.\Generated_Source\PSoC5/USBFS_1.c **** *   Descriptor Root in Component Configure window.
1596:.\Generated_Source\PSoC5/USBFS_1.c **** *
1597:.\Generated_Source\PSoC5/USBFS_1.c **** *   *Manual (Static/Dynamic Allocation):*
1598:.\Generated_Source\PSoC5/USBFS_1.c **** *   This function moves the specified number of bytes from endpoint buffer to
1599:.\Generated_Source\PSoC5/USBFS_1.c **** *   system RAM. The number of bytes actually transferred from endpoint buffer to
1600:.\Generated_Source\PSoC5/USBFS_1.c **** *   system RAM is the lesser of the actual number of bytes sent by the host or
1601:.\Generated_Source\PSoC5/USBFS_1.c **** *   the number of bytes requested by the length parameter.
1602:.\Generated_Source\PSoC5/USBFS_1.c **** *
1603:.\Generated_Source\PSoC5/USBFS_1.c **** *   *DMA with Manual Buffer Management:*
1604:.\Generated_Source\PSoC5/USBFS_1.c **** *   Configure DMA to transfer data from endpoint buffer to system RAM. Generate
1605:.\Generated_Source\PSoC5/USBFS_1.c **** *   a DMA request. The firmware must wait until the DMA completes the data
1606:.\Generated_Source\PSoC5/USBFS_1.c **** *   transfer after calling the USBFS_1_ReadOutEP() API. For example,
1607:.\Generated_Source\PSoC5/USBFS_1.c **** *   by checking EPstate:
1608:.\Generated_Source\PSoC5/USBFS_1.c **** *
1609:.\Generated_Source\PSoC5/USBFS_1.c **** *   \snippet /USBFS_sut_02.cydsn/main.c checking EPstatey
1610:.\Generated_Source\PSoC5/USBFS_1.c **** *
1611:.\Generated_Source\PSoC5/USBFS_1.c **** *   The USBFS_EnableOutEP() has to be called to allow host to write data into
1612:.\Generated_Source\PSoC5/USBFS_1.c **** *   the endpoint buffer after DMA has completed transfer data from OUT endpoint
1613:.\Generated_Source\PSoC5/USBFS_1.c **** *   buffer to SRAM.
1614:.\Generated_Source\PSoC5/USBFS_1.c **** *
1615:.\Generated_Source\PSoC5/USBFS_1.c **** *   *DMA with Automatic Buffer Management:*
ARM GAS  C:\Users\LUKASC~1\AppData\Local\Temp\ccX4OJiL.s 			page 52


1616:.\Generated_Source\PSoC5/USBFS_1.c **** *   Configure DMA. This is required only once and automatically generates DMA
1617:.\Generated_Source\PSoC5/USBFS_1.c **** *   requests as data arrives
1618:.\Generated_Source\PSoC5/USBFS_1.c **** *
1619:.\Generated_Source\PSoC5/USBFS_1.c **** *  \param epNumber: Contains the data endpoint number.
1620:.\Generated_Source\PSoC5/USBFS_1.c **** *            Valid values are between 1 and 8.
1621:.\Generated_Source\PSoC5/USBFS_1.c **** *  \param pData: A pointer to a data array from which the data for the endpoint
1622:.\Generated_Source\PSoC5/USBFS_1.c **** *         space is loaded.
1623:.\Generated_Source\PSoC5/USBFS_1.c **** *  \param length: The number of bytes to transfer from the USB Out endpoint and
1624:.\Generated_Source\PSoC5/USBFS_1.c **** *          loads it into data array. Valid values are between 0 and 1023. The
1625:.\Generated_Source\PSoC5/USBFS_1.c **** *          function moves fewer than the requested number of bytes if the host
1626:.\Generated_Source\PSoC5/USBFS_1.c **** *          sends fewer bytes than requested.
1627:.\Generated_Source\PSoC5/USBFS_1.c **** *
1628:.\Generated_Source\PSoC5/USBFS_1.c **** * \return
1629:.\Generated_Source\PSoC5/USBFS_1.c **** *  Number of bytes received, 0 for an invalid endpoint.
1630:.\Generated_Source\PSoC5/USBFS_1.c **** *
1631:.\Generated_Source\PSoC5/USBFS_1.c **** * \reentrant
1632:.\Generated_Source\PSoC5/USBFS_1.c **** *  No.
1633:.\Generated_Source\PSoC5/USBFS_1.c **** *
1634:.\Generated_Source\PSoC5/USBFS_1.c **** *******************************************************************************/
1635:.\Generated_Source\PSoC5/USBFS_1.c **** uint16 USBFS_1_ReadOutEP(uint8 epNumber, uint8 pData[], uint16 length)
1636:.\Generated_Source\PSoC5/USBFS_1.c ****                                                                         
1637:.\Generated_Source\PSoC5/USBFS_1.c **** {
 1266              		.loc 1 1637 0
 1267              		.cfi_startproc
 1268              		@ args = 0, pretend = 0, frame = 0
 1269              		@ frame_needed = 0, uses_anonymous_args = 0
 1270              	.LVL106:
 1271 0000 2DE9F041 		push	{r4, r5, r6, r7, r8, lr}
 1272              		.cfi_def_cfa_offset 24
 1273              		.cfi_offset 4, -24
 1274              		.cfi_offset 5, -20
 1275              		.cfi_offset 6, -16
 1276              		.cfi_offset 7, -12
 1277              		.cfi_offset 8, -8
 1278              		.cfi_offset 14, -4
1638:.\Generated_Source\PSoC5/USBFS_1.c ****     if ((pData != NULL) && (epNumber > USBFS_1_EP0) && (epNumber < USBFS_1_MAX_EP))
 1279              		.loc 1 1638 0
 1280 0004 71B3     		cbz	r1, .L86
 1281 0006 0446     		mov	r4, r0
 1282 0008 1546     		mov	r5, r2
 1283 000a 0F46     		mov	r7, r1
 1284              		.loc 1 1638 0 is_stmt 0 discriminator 1
 1285 000c 60B3     		cbz	r0, .L87
 1286              		.loc 1 1638 0 discriminator 2
 1287 000e 0828     		cmp	r0, #8
 1288 0010 2CD8     		bhi	.L88
1639:.\Generated_Source\PSoC5/USBFS_1.c ****     {
1640:.\Generated_Source\PSoC5/USBFS_1.c ****     #if (!USBFS_1_EP_MANAGEMENT_DMA_AUTO)
1641:.\Generated_Source\PSoC5/USBFS_1.c ****         /* Adjust requested length to available data. */
1642:.\Generated_Source\PSoC5/USBFS_1.c ****         length = (length > USBFS_1_GetEPCount(epNumber)) ? USBFS_1_GetEPCount(epNumber) : length;
1643:.\Generated_Source\PSoC5/USBFS_1.c ****     #endif /* (!USBFS_1_EP_MANAGEMENT_DMA_AUTO) */
1644:.\Generated_Source\PSoC5/USBFS_1.c **** 
1645:.\Generated_Source\PSoC5/USBFS_1.c ****     #if (USBFS_1_EP_MANAGEMENT_MANUAL)
1646:.\Generated_Source\PSoC5/USBFS_1.c ****         {
1647:.\Generated_Source\PSoC5/USBFS_1.c ****             /* Copy data using arbiter data register. */
1648:.\Generated_Source\PSoC5/USBFS_1.c ****             uint16 i;
1649:.\Generated_Source\PSoC5/USBFS_1.c ****             for (i = 0u; i < length; ++i)
ARM GAS  C:\Users\LUKASC~1\AppData\Local\Temp\ccX4OJiL.s 			page 53


1650:.\Generated_Source\PSoC5/USBFS_1.c ****             {
1651:.\Generated_Source\PSoC5/USBFS_1.c ****                 pData[i] = (uint8) USBFS_1_ARB_EP_BASE.arbEp[epNumber].rwDr;
1652:.\Generated_Source\PSoC5/USBFS_1.c ****             }
1653:.\Generated_Source\PSoC5/USBFS_1.c ****         }
1654:.\Generated_Source\PSoC5/USBFS_1.c **** 
1655:.\Generated_Source\PSoC5/USBFS_1.c ****         /* Arm OUT endpoint after data has been copied from endpoint buffer. */
1656:.\Generated_Source\PSoC5/USBFS_1.c ****         USBFS_1_EnableOutEP(epNumber);
1657:.\Generated_Source\PSoC5/USBFS_1.c ****     #else
1658:.\Generated_Source\PSoC5/USBFS_1.c **** 
1659:.\Generated_Source\PSoC5/USBFS_1.c ****         #if (CY_PSOC3 || CY_PSOC5LP)
1660:.\Generated_Source\PSoC5/USBFS_1.c ****             /* Initialize DMA if it was not initialized. */
1661:.\Generated_Source\PSoC5/USBFS_1.c ****             if (DMA_INVALID_TD == USBFS_1_DmaTd[epNumber])
 1289              		.loc 1 1661 0 is_stmt 1
 1290 0012 184B     		ldr	r3, .L90
 1291 0014 1B5C     		ldrb	r3, [r3, r0]	@ zero_extendqisi2
 1292 0016 FF2B     		cmp	r3, #255
 1293 0018 01D1     		bne	.L85
1662:.\Generated_Source\PSoC5/USBFS_1.c ****             {
1663:.\Generated_Source\PSoC5/USBFS_1.c ****                 USBFS_1_InitEP_DMA(epNumber, pData);
 1294              		.loc 1 1663 0
 1295 001a FFF7FEFF 		bl	USBFS_1_InitEP_DMA
 1296              	.LVL107:
 1297              	.L85:
1664:.\Generated_Source\PSoC5/USBFS_1.c ****             }
1665:.\Generated_Source\PSoC5/USBFS_1.c ****         #endif /* (CY_PSOC3 || CY_PSOC5LP) */
1666:.\Generated_Source\PSoC5/USBFS_1.c **** 
1667:.\Generated_Source\PSoC5/USBFS_1.c ****         #if (USBFS_1_EP_MANAGEMENT_DMA_MANUAL)
1668:.\Generated_Source\PSoC5/USBFS_1.c ****         #if (CY_PSOC4)
1669:.\Generated_Source\PSoC5/USBFS_1.c ****         {
1670:.\Generated_Source\PSoC5/USBFS_1.c ****             uint32 channelNum = (uint32) USBFS_1_DmaChan[epNumber];
1671:.\Generated_Source\PSoC5/USBFS_1.c **** 
1672:.\Generated_Source\PSoC5/USBFS_1.c ****             /* Disable DMA channel: start configuration. */
1673:.\Generated_Source\PSoC5/USBFS_1.c ****             USBFS_1_CyDmaChDisable(channelNum);
1674:.\Generated_Source\PSoC5/USBFS_1.c **** 
1675:.\Generated_Source\PSoC5/USBFS_1.c ****             /* Configure source and destination. */
1676:.\Generated_Source\PSoC5/USBFS_1.c ****             USBFS_1_CyDmaSetSrcAddress(channelNum, USBFS_1_DMA_DESCR0, (void*) &USBFS_1_ARB_EP_BASE
1677:.\Generated_Source\PSoC5/USBFS_1.c ****             USBFS_1_CyDmaSetDstAddress(channelNum, USBFS_1_DMA_DESCR0, (void*) pData);
1678:.\Generated_Source\PSoC5/USBFS_1.c **** 
1679:.\Generated_Source\PSoC5/USBFS_1.c ****             /* Configure DMA descriptor. */
1680:.\Generated_Source\PSoC5/USBFS_1.c ****             USBFS_1_CyDmaSetConfiguration(channelNum, USBFS_1_DMA_DESCR0, USBFS_1_DMA_COMMON_CFG | 
1681:.\Generated_Source\PSoC5/USBFS_1.c ****                                                     CYDMA_BYTE | CYDMA_WORD_ELEMENT | CYDMA_INC_DST
1682:.\Generated_Source\PSoC5/USBFS_1.c **** 
1683:.\Generated_Source\PSoC5/USBFS_1.c ****             /* Validate descriptor to execute on following DMA request. */
1684:.\Generated_Source\PSoC5/USBFS_1.c ****             USBFS_1_CyDmaValidateDescriptor(channelNum, USBFS_1_DMA_DESCR0);
1685:.\Generated_Source\PSoC5/USBFS_1.c **** 
1686:.\Generated_Source\PSoC5/USBFS_1.c ****             /* Enable DMA channel: configuration complete. */
1687:.\Generated_Source\PSoC5/USBFS_1.c ****             USBFS_1_CyDmaChEnable(channelNum);
1688:.\Generated_Source\PSoC5/USBFS_1.c ****         }
1689:.\Generated_Source\PSoC5/USBFS_1.c ****         #else
1690:.\Generated_Source\PSoC5/USBFS_1.c ****             /* Configure DMA to transfer data. */
1691:.\Generated_Source\PSoC5/USBFS_1.c ****             (void) CyDmaChDisable(USBFS_1_DmaChan[epNumber]);
1692:.\Generated_Source\PSoC5/USBFS_1.c ****             (void) CyDmaTdSetConfiguration(USBFS_1_DmaTd[epNumber], length, CY_DMA_DISABLE_TD, TD_T
1693:.\Generated_Source\PSoC5/USBFS_1.c ****             (void) CyDmaTdSetAddress(USBFS_1_DmaTd[epNumber], LO16((uint32) &USBFS_1_ARB_EP_BASE.ar
1694:.\Generated_Source\PSoC5/USBFS_1.c **** 
1695:.\Generated_Source\PSoC5/USBFS_1.c ****             /* Enable DMA channel. */
1696:.\Generated_Source\PSoC5/USBFS_1.c ****             (void) CyDmaChSetInitialTd(USBFS_1_DmaChan[epNumber], USBFS_1_DmaTd[epNumber]);
1697:.\Generated_Source\PSoC5/USBFS_1.c ****             (void) CyDmaChEnable(USBFS_1_DmaChan[epNumber], 1u);
ARM GAS  C:\Users\LUKASC~1\AppData\Local\Temp\ccX4OJiL.s 			page 54


1698:.\Generated_Source\PSoC5/USBFS_1.c ****         #endif /* (CY_PSOC4) */
1699:.\Generated_Source\PSoC5/USBFS_1.c **** 
1700:.\Generated_Source\PSoC5/USBFS_1.c ****             /* Generate DMA request. */
1701:.\Generated_Source\PSoC5/USBFS_1.c ****             USBFS_1_ARB_EP_BASE.arbEp[epNumber].epCfg |=  (uint8)  USBFS_1_ARB_EPX_CFG_DMA_REQ;
1702:.\Generated_Source\PSoC5/USBFS_1.c ****             USBFS_1_ARB_EP_BASE.arbEp[epNumber].epCfg &=  (uint8) ~USBFS_1_ARB_EPX_CFG_DMA_REQ;
1703:.\Generated_Source\PSoC5/USBFS_1.c **** 
1704:.\Generated_Source\PSoC5/USBFS_1.c ****             /* OUT endpoint has to be armed again by user when DMA transfers have been completed.
1705:.\Generated_Source\PSoC5/USBFS_1.c ****             * NO_EVENT_PENDING: notifies that data has been copied from endpoint buffer.
1706:.\Generated_Source\PSoC5/USBFS_1.c ****             */
1707:.\Generated_Source\PSoC5/USBFS_1.c **** 
1708:.\Generated_Source\PSoC5/USBFS_1.c ****         #endif /* (USBFS_1_EP_MANAGEMENT_DMA_MANUAL) */
1709:.\Generated_Source\PSoC5/USBFS_1.c **** 
1710:.\Generated_Source\PSoC5/USBFS_1.c ****         #if (USBFS_1_EP_MANAGEMENT_DMA_AUTO)
1711:.\Generated_Source\PSoC5/USBFS_1.c ****         #if (CY_PSOC4)
1712:.\Generated_Source\PSoC5/USBFS_1.c ****         {
1713:.\Generated_Source\PSoC5/USBFS_1.c ****             uint32 channelNum = (uint32) USBFS_1_DmaChan[epNumber];
1714:.\Generated_Source\PSoC5/USBFS_1.c ****             uint32 lengthDescr0, lengthDescr1;
1715:.\Generated_Source\PSoC5/USBFS_1.c **** 
1716:.\Generated_Source\PSoC5/USBFS_1.c ****             /* Get number of full bursts. */
1717:.\Generated_Source\PSoC5/USBFS_1.c ****             USBFS_1_DmaEpBurstCnt[epNumber] = (uint8) (length / USBFS_1_DMA_BYTES_PER_BURST);
1718:.\Generated_Source\PSoC5/USBFS_1.c **** 
1719:.\Generated_Source\PSoC5/USBFS_1.c ****             /* Get number of elements in the last burst. */
1720:.\Generated_Source\PSoC5/USBFS_1.c ****             USBFS_1_DmaEpLastBurstEl[epNumber] = (uint8) (length % USBFS_1_DMA_BYTES_PER_BURST);
1721:.\Generated_Source\PSoC5/USBFS_1.c **** 
1722:.\Generated_Source\PSoC5/USBFS_1.c ****             /* Get total number of bursts. */
1723:.\Generated_Source\PSoC5/USBFS_1.c ****             USBFS_1_DmaEpBurstCnt[epNumber] += (0u != USBFS_1_DmaEpLastBurstEl[epNumber]) ? 1u : 0u
1724:.\Generated_Source\PSoC5/USBFS_1.c **** 
1725:.\Generated_Source\PSoC5/USBFS_1.c ****             /* Adjust number of the data elements transfered in last burst. */
1726:.\Generated_Source\PSoC5/USBFS_1.c ****             USBFS_1_DmaEpLastBurstEl[epNumber] = (0u != USBFS_1_DmaEpLastBurstEl[epNumber]) ?
1727:.\Generated_Source\PSoC5/USBFS_1.c ****                                                                   (USBFS_1_DmaEpLastBurstEl[epNumbe
1728:.\Generated_Source\PSoC5/USBFS_1.c ****                                                                   (USBFS_1_DMA_BYTES_PER_BURST - 1u
1729:.\Generated_Source\PSoC5/USBFS_1.c **** 
1730:.\Generated_Source\PSoC5/USBFS_1.c ****             /* Get number of data elements to transfer for descriptor 0 and 1. */
1731:.\Generated_Source\PSoC5/USBFS_1.c ****             lengthDescr0 = (1u == USBFS_1_DmaEpBurstCnt[epNumber]) ? USBFS_1_DmaEpLastBurstEl[epNum
1732:.\Generated_Source\PSoC5/USBFS_1.c ****             lengthDescr1 = (2u == USBFS_1_DmaEpBurstCnt[epNumber]) ? USBFS_1_DmaEpLastBurstEl[epNum
1733:.\Generated_Source\PSoC5/USBFS_1.c **** 
1734:.\Generated_Source\PSoC5/USBFS_1.c ****             /* Mark if revert number of data elements in descriptor after transfer completion. */
1735:.\Generated_Source\PSoC5/USBFS_1.c ****             USBFS_1_DmaEpLastBurstEl[epNumber] |= (USBFS_1_DmaEpBurstCnt[epNumber] > 2u) ? USBFS_1_
1736:.\Generated_Source\PSoC5/USBFS_1.c **** 
1737:.\Generated_Source\PSoC5/USBFS_1.c ****             /* Mark last descriptor to be executed. */
1738:.\Generated_Source\PSoC5/USBFS_1.c ****             USBFS_1_DmaEpLastBurstEl[epNumber] |= (0u != (USBFS_1_DmaEpBurstCnt[epNumber] & 0x1u)) 
1739:.\Generated_Source\PSoC5/USBFS_1.c ****                                                                     USBFS_1_DMA_DESCR0_MASK : USBFS
1740:.\Generated_Source\PSoC5/USBFS_1.c **** 
1741:.\Generated_Source\PSoC5/USBFS_1.c ****             /* Adjust burst counter taking to account: 2 valid descriptors and interrupt trigger af
1742:.\Generated_Source\PSoC5/USBFS_1.c ****             USBFS_1_DmaEpBurstCnt[epNumber] = USBFS_1_DMA_GET_BURST_CNT(USBFS_1_DmaEpBurstCnt[epNum
1743:.\Generated_Source\PSoC5/USBFS_1.c **** 
1744:.\Generated_Source\PSoC5/USBFS_1.c ****             /* Store address of buffer and burst counter for endpoint. */
1745:.\Generated_Source\PSoC5/USBFS_1.c ****             USBFS_1_DmaEpBufferAddrBackup[epNumber] = (uint32) pData;
1746:.\Generated_Source\PSoC5/USBFS_1.c ****             USBFS_1_DmaEpBurstCntBackup[epNumber]   = USBFS_1_DmaEpBurstCnt[epNumber];
1747:.\Generated_Source\PSoC5/USBFS_1.c **** 
1748:.\Generated_Source\PSoC5/USBFS_1.c ****             /* Disable DMA channel: start configuration. */
1749:.\Generated_Source\PSoC5/USBFS_1.c ****             USBFS_1_CyDmaChDisable(channelNum);
1750:.\Generated_Source\PSoC5/USBFS_1.c **** 
1751:.\Generated_Source\PSoC5/USBFS_1.c ****             /* Set destination address. */
1752:.\Generated_Source\PSoC5/USBFS_1.c ****             USBFS_1_CyDmaSetSrcAddress(channelNum, USBFS_1_DMA_DESCR0, (void*) &USBFS_1_ARB_EP_BASE
1753:.\Generated_Source\PSoC5/USBFS_1.c ****             USBFS_1_CyDmaSetSrcAddress(channelNum, USBFS_1_DMA_DESCR1, (void*) &USBFS_1_ARB_EP_BASE
1754:.\Generated_Source\PSoC5/USBFS_1.c **** 
ARM GAS  C:\Users\LUKASC~1\AppData\Local\Temp\ccX4OJiL.s 			page 55


1755:.\Generated_Source\PSoC5/USBFS_1.c ****             USBFS_1_CyDmaSetDstAddress(channelNum, USBFS_1_DMA_DESCR0, (void*) ((uint32) pData));
1756:.\Generated_Source\PSoC5/USBFS_1.c ****             USBFS_1_CyDmaSetDstAddress(channelNum, USBFS_1_DMA_DESCR1, (void*) ((uint32) pData + US
1757:.\Generated_Source\PSoC5/USBFS_1.c **** 
1758:.\Generated_Source\PSoC5/USBFS_1.c ****             /* Configure DMA descriptor. */
1759:.\Generated_Source\PSoC5/USBFS_1.c ****             USBFS_1_CyDmaSetConfiguration(channelNum, USBFS_1_DMA_DESCR0, USBFS_1_DMA_COMMON_CFG  |
1760:.\Generated_Source\PSoC5/USBFS_1.c ****                                                     CYDMA_BYTE | CYDMA_WORD_ELEMENT | CYDMA_INC_DST
1761:.\Generated_Source\PSoC5/USBFS_1.c **** 
1762:.\Generated_Source\PSoC5/USBFS_1.c ****             /* Configure DMA descriptor. */
1763:.\Generated_Source\PSoC5/USBFS_1.c ****             USBFS_1_CyDmaSetConfiguration(channelNum, USBFS_1_DMA_DESCR1, USBFS_1_DMA_COMMON_CFG  |
1764:.\Generated_Source\PSoC5/USBFS_1.c ****                                                     CYDMA_BYTE | CYDMA_WORD_ELEMENT | CYDMA_INC_DST
1765:.\Generated_Source\PSoC5/USBFS_1.c **** 
1766:.\Generated_Source\PSoC5/USBFS_1.c ****             /* Enable interrupt from DMA channel. */
1767:.\Generated_Source\PSoC5/USBFS_1.c ****             USBFS_1_CyDmaSetInterruptMask(channelNum);
1768:.\Generated_Source\PSoC5/USBFS_1.c **** 
1769:.\Generated_Source\PSoC5/USBFS_1.c ****             /* Validate DMA descriptor 0 and 1. */
1770:.\Generated_Source\PSoC5/USBFS_1.c ****             USBFS_1_CyDmaValidateDescriptor(channelNum, USBFS_1_DMA_DESCR0);
1771:.\Generated_Source\PSoC5/USBFS_1.c ****             USBFS_1_CyDmaValidateDescriptor(channelNum, USBFS_1_DMA_DESCR1);
1772:.\Generated_Source\PSoC5/USBFS_1.c **** 
1773:.\Generated_Source\PSoC5/USBFS_1.c ****             /* Enable DMA channel: configuration complete. */
1774:.\Generated_Source\PSoC5/USBFS_1.c ****             USBFS_1_CyDmaChEnable(channelNum);
1775:.\Generated_Source\PSoC5/USBFS_1.c ****         }
1776:.\Generated_Source\PSoC5/USBFS_1.c ****         #else
1777:.\Generated_Source\PSoC5/USBFS_1.c ****             (void) CyDmaChDisable(USBFS_1_DmaChan[epNumber]);
 1298              		.loc 1 1777 0
 1299 001e 164E     		ldr	r6, .L90+4
 1300 0020 305D     		ldrb	r0, [r6, r4]	@ zero_extendqisi2
 1301 0022 FFF7FEFF 		bl	CyDmaChDisable
 1302              	.LVL108:
1778:.\Generated_Source\PSoC5/USBFS_1.c ****             (void) CyDmaTdSetConfiguration(USBFS_1_DmaTd[epNumber], length,  USBFS_1_DmaTd[epNumber
 1303              		.loc 1 1778 0
 1304 0026 DFF84C80 		ldr	r8, .L90
 1305 002a 18F80420 		ldrb	r2, [r8, r4]	@ zero_extendqisi2
 1306 002e 1046     		mov	r0, r2
 1307 0030 2946     		mov	r1, r5
 1308 0032 1223     		movs	r3, #18
 1309 0034 FFF7FEFF 		bl	CyDmaTdSetConfiguration
 1310              	.LVL109:
1779:.\Generated_Source\PSoC5/USBFS_1.c ****             (void) CyDmaTdSetAddress(USBFS_1_DmaTd[epNumber], LO16((uint32) &USBFS_1_ARB_EP_BASE.ar
 1311              		.loc 1 1779 0
 1312 0038 2101     		lsls	r1, r4, #4
 1313 003a 18F80400 		ldrb	r0, [r8, r4]	@ zero_extendqisi2
 1314 003e 01F5C041 		add	r1, r1, #24576
 1315 0042 7831     		adds	r1, r1, #120
 1316 0044 BAB2     		uxth	r2, r7
 1317 0046 FFF7FEFF 		bl	CyDmaTdSetAddress
 1318              	.LVL110:
1780:.\Generated_Source\PSoC5/USBFS_1.c **** 
1781:.\Generated_Source\PSoC5/USBFS_1.c ****             /* Clear Any potential pending DMA requests before starting DMA channel to transfer dat
1782:.\Generated_Source\PSoC5/USBFS_1.c ****             (void) CyDmaClearPendingDrq(USBFS_1_DmaChan[epNumber]);
 1319              		.loc 1 1782 0
 1320 004a 305D     		ldrb	r0, [r6, r4]	@ zero_extendqisi2
 1321 004c FFF7FEFF 		bl	CyDmaClearPendingDrq
 1322              	.LVL111:
1783:.\Generated_Source\PSoC5/USBFS_1.c **** 
1784:.\Generated_Source\PSoC5/USBFS_1.c ****             /* Enable DMA channel. */
1785:.\Generated_Source\PSoC5/USBFS_1.c ****             (void) CyDmaChSetInitialTd(USBFS_1_DmaChan[epNumber], USBFS_1_DmaTd[epNumber]);
 1323              		.loc 1 1785 0
ARM GAS  C:\Users\LUKASC~1\AppData\Local\Temp\ccX4OJiL.s 			page 56


 1324 0050 305D     		ldrb	r0, [r6, r4]	@ zero_extendqisi2
 1325 0052 18F80410 		ldrb	r1, [r8, r4]	@ zero_extendqisi2
 1326 0056 FFF7FEFF 		bl	CyDmaChSetInitialTd
 1327              	.LVL112:
1786:.\Generated_Source\PSoC5/USBFS_1.c ****             (void) CyDmaChEnable(USBFS_1_DmaChan[epNumber], 1u);
 1328              		.loc 1 1786 0
 1329 005a 305D     		ldrb	r0, [r6, r4]	@ zero_extendqisi2
 1330 005c 0121     		movs	r1, #1
 1331 005e FFF7FEFF 		bl	CyDmaChEnable
 1332              	.LVL113:
 1333 0062 04E0     		b	.L84
 1334              	.LVL114:
 1335              	.L86:
1787:.\Generated_Source\PSoC5/USBFS_1.c ****         #endif /* (CY_PSOC4) */
1788:.\Generated_Source\PSoC5/USBFS_1.c **** 
1789:.\Generated_Source\PSoC5/USBFS_1.c ****             /* OUT endpoint has to be armed again by user when DMA transfers have been completed.
1790:.\Generated_Source\PSoC5/USBFS_1.c ****             * NO_EVENT_PENDING: notifies that data has been copied from endpoint buffer.
1791:.\Generated_Source\PSoC5/USBFS_1.c ****             */
1792:.\Generated_Source\PSoC5/USBFS_1.c **** 
1793:.\Generated_Source\PSoC5/USBFS_1.c ****         #endif /* (USBFS_1_EP_MANAGEMENT_DMA_AUTO) */
1794:.\Generated_Source\PSoC5/USBFS_1.c ****     #endif /* (USBFS_1_EP_MANAGEMENT_MANUAL) */
1795:.\Generated_Source\PSoC5/USBFS_1.c ****     }
1796:.\Generated_Source\PSoC5/USBFS_1.c ****     else
1797:.\Generated_Source\PSoC5/USBFS_1.c ****     {
1798:.\Generated_Source\PSoC5/USBFS_1.c ****         length = 0u;
 1336              		.loc 1 1798 0
 1337 0064 0025     		movs	r5, #0
 1338 0066 02E0     		b	.L84
 1339              	.L87:
 1340 0068 0025     		movs	r5, #0
 1341 006a 00E0     		b	.L84
 1342              	.L88:
 1343 006c 0025     		movs	r5, #0
 1344              	.LVL115:
 1345              	.L84:
1799:.\Generated_Source\PSoC5/USBFS_1.c ****     }
1800:.\Generated_Source\PSoC5/USBFS_1.c **** 
1801:.\Generated_Source\PSoC5/USBFS_1.c ****     return (length);
1802:.\Generated_Source\PSoC5/USBFS_1.c **** }
 1346              		.loc 1 1802 0
 1347 006e 2846     		mov	r0, r5
 1348 0070 BDE8F081 		pop	{r4, r5, r6, r7, r8, pc}
 1349              	.LVL116:
 1350              	.L91:
 1351              		.align	2
 1352              	.L90:
 1353 0074 00000000 		.word	USBFS_1_DmaTd
 1354 0078 00000000 		.word	USBFS_1_DmaChan
 1355              		.cfi_endproc
 1356              	.LFE15:
 1357              		.size	USBFS_1_ReadOutEP, .-USBFS_1_ReadOutEP
 1358              		.section	.text.USBFS_1_EnableOutEP,"ax",%progbits
 1359              		.align	2
 1360              		.global	USBFS_1_EnableOutEP
 1361              		.thumb
 1362              		.thumb_func
 1363              		.type	USBFS_1_EnableOutEP, %function
ARM GAS  C:\Users\LUKASC~1\AppData\Local\Temp\ccX4OJiL.s 			page 57


 1364              	USBFS_1_EnableOutEP:
 1365              	.LFB16:
1803:.\Generated_Source\PSoC5/USBFS_1.c **** 
1804:.\Generated_Source\PSoC5/USBFS_1.c **** 
1805:.\Generated_Source\PSoC5/USBFS_1.c **** #if (USBFS_1_16BITS_EP_ACCESS_ENABLE)
1806:.\Generated_Source\PSoC5/USBFS_1.c **** /*******************************************************************************
1807:.\Generated_Source\PSoC5/USBFS_1.c **** * Function Name: USBFS_1_LoadInEP16
1808:.\Generated_Source\PSoC5/USBFS_1.c **** ****************************************************************************//**
1809:.\Generated_Source\PSoC5/USBFS_1.c **** *
1810:.\Generated_Source\PSoC5/USBFS_1.c **** *  This function performs different functionality depending on the Component’s
1811:.\Generated_Source\PSoC5/USBFS_1.c **** *  configured Endpoint Buffer Management. This parameter is defined in
1812:.\Generated_Source\PSoC5/USBFS_1.c **** *  the Descriptor Root in Component Configure window.
1813:.\Generated_Source\PSoC5/USBFS_1.c **** *
1814:.\Generated_Source\PSoC5/USBFS_1.c **** *  *Manual (Static/Dynamic Allocation):*
1815:.\Generated_Source\PSoC5/USBFS_1.c **** *  This function loads and enables the specified USB data endpoint for an IN
1816:.\Generated_Source\PSoC5/USBFS_1.c **** *  data transfer.
1817:.\Generated_Source\PSoC5/USBFS_1.c **** *
1818:.\Generated_Source\PSoC5/USBFS_1.c **** *  *DMA with Manual Buffer Management:*
1819:.\Generated_Source\PSoC5/USBFS_1.c **** *  Configures DMA for a data transfer from system RAM to endpoint buffer.
1820:.\Generated_Source\PSoC5/USBFS_1.c **** *  Generates request for a transfer.
1821:.\Generated_Source\PSoC5/USBFS_1.c **** *
1822:.\Generated_Source\PSoC5/USBFS_1.c **** *  *DMA with Automatic Buffer Management:*
1823:.\Generated_Source\PSoC5/USBFS_1.c **** *  Configures DMA. This is required only once, so it is done only when parameter
1824:.\Generated_Source\PSoC5/USBFS_1.c **** *  pData is not NULL. When the pData pointer is NULL, the function skips this
1825:.\Generated_Source\PSoC5/USBFS_1.c **** *  task. Sets Data ready status: This generates the first DMA transfer and
1826:.\Generated_Source\PSoC5/USBFS_1.c **** *  prepares data in endpoint buffer.
1827:.\Generated_Source\PSoC5/USBFS_1.c **** *
1828:.\Generated_Source\PSoC5/USBFS_1.c **** *  \param epNumber Contains the data endpoint number.
1829:.\Generated_Source\PSoC5/USBFS_1.c **** *        Valid values are between 1 and 8.
1830:.\Generated_Source\PSoC5/USBFS_1.c **** *  \param *pData A pointer to a data array from which the data for the endpoint
1831:.\Generated_Source\PSoC5/USBFS_1.c **** *        space is loaded. It shall be ensured that this pointer address is even
1832:.\Generated_Source\PSoC5/USBFS_1.c **** *        to ensure the 16-bit transfer is aligned to even address. Else, a hard
1833:.\Generated_Source\PSoC5/USBFS_1.c **** *        fault condition can occur.
1834:.\Generated_Source\PSoC5/USBFS_1.c **** *  \param length The number of bytes to transfer from the array and then send as
1835:.\Generated_Source\PSoC5/USBFS_1.c **** *        a result of an IN request. Valid values are between 0 and 512 (1023 for
1836:.\Generated_Source\PSoC5/USBFS_1.c **** *        DMA with Automatic Buffer Management mode). The value 512 is applicable
1837:.\Generated_Source\PSoC5/USBFS_1.c **** *        if only one endpoint is used.
1838:.\Generated_Source\PSoC5/USBFS_1.c **** *
1839:.\Generated_Source\PSoC5/USBFS_1.c **** * \reentrant
1840:.\Generated_Source\PSoC5/USBFS_1.c **** *  No.
1841:.\Generated_Source\PSoC5/USBFS_1.c **** *
1842:.\Generated_Source\PSoC5/USBFS_1.c **** *******************************************************************************/
1843:.\Generated_Source\PSoC5/USBFS_1.c **** void USBFS_1_LoadInEP16(uint8 epNumber, const uint8 pData[], uint16 length)
1844:.\Generated_Source\PSoC5/USBFS_1.c **** {
1845:.\Generated_Source\PSoC5/USBFS_1.c ****     /* Check array alignment on half-word boundary. */
1846:.\Generated_Source\PSoC5/USBFS_1.c ****     CYASSERT(0u == (((uint32) pData) & 0x01u));
1847:.\Generated_Source\PSoC5/USBFS_1.c **** 
1848:.\Generated_Source\PSoC5/USBFS_1.c ****     if ((epNumber > USBFS_1_EP0) && (epNumber < USBFS_1_MAX_EP))
1849:.\Generated_Source\PSoC5/USBFS_1.c ****     {
1850:.\Generated_Source\PSoC5/USBFS_1.c ****     #if (!USBFS_1_EP_MANAGEMENT_DMA_AUTO)
1851:.\Generated_Source\PSoC5/USBFS_1.c ****         /* Limit length to available buffer USB IP buffer size. */
1852:.\Generated_Source\PSoC5/USBFS_1.c ****         if (length > (USBFS_1_EPX_DATA_BUF_MAX - USBFS_1_EP[epNumber].buffOffset))
1853:.\Generated_Source\PSoC5/USBFS_1.c ****         {
1854:.\Generated_Source\PSoC5/USBFS_1.c ****             length = USBFS_1_EPX_DATA_BUF_MAX - USBFS_1_EP[epNumber].buffOffset;
1855:.\Generated_Source\PSoC5/USBFS_1.c ****         }
1856:.\Generated_Source\PSoC5/USBFS_1.c ****     #endif /* (!USBFS_1_EP_MANAGEMENT_DMA_AUTO) */
1857:.\Generated_Source\PSoC5/USBFS_1.c **** 
ARM GAS  C:\Users\LUKASC~1\AppData\Local\Temp\ccX4OJiL.s 			page 58


1858:.\Generated_Source\PSoC5/USBFS_1.c ****         /* Set count and data toggle. */
1859:.\Generated_Source\PSoC5/USBFS_1.c ****         USBFS_1_SIE_EP_BASE.sieEp[epNumber].epCnt0 = (uint32) HI8(length) | USBFS_1_EP[epNumber].ep
1860:.\Generated_Source\PSoC5/USBFS_1.c ****         USBFS_1_SIE_EP_BASE.sieEp[epNumber].epCnt1 = (uint32) LO8(length);
1861:.\Generated_Source\PSoC5/USBFS_1.c **** 
1862:.\Generated_Source\PSoC5/USBFS_1.c ****         /* Adjust requested length: 2 bytes are handled at one data register access. */
1863:.\Generated_Source\PSoC5/USBFS_1.c ****         length += (length & 0x01u);
1864:.\Generated_Source\PSoC5/USBFS_1.c **** 
1865:.\Generated_Source\PSoC5/USBFS_1.c ****     #if (USBFS_1_EP_MANAGEMENT_MANUAL)
1866:.\Generated_Source\PSoC5/USBFS_1.c ****         if (NULL != pData)
1867:.\Generated_Source\PSoC5/USBFS_1.c ****         {
1868:.\Generated_Source\PSoC5/USBFS_1.c ****             /* Convert uint8 array to uint16. */
1869:.\Generated_Source\PSoC5/USBFS_1.c ****             const uint16 *dataBuf = (uint16 *) pData;
1870:.\Generated_Source\PSoC5/USBFS_1.c **** 
1871:.\Generated_Source\PSoC5/USBFS_1.c ****             /* Copy data using 16-bits arbiter data register. */
1872:.\Generated_Source\PSoC5/USBFS_1.c ****             uint16 i;
1873:.\Generated_Source\PSoC5/USBFS_1.c ****             for (i = 0u; i < (length >> 1u); ++i)
1874:.\Generated_Source\PSoC5/USBFS_1.c ****             {
1875:.\Generated_Source\PSoC5/USBFS_1.c ****                 USBFS_1_ARB_EP16_BASE.arbEp[epNumber].rwDr16 = dataBuf[i];
1876:.\Generated_Source\PSoC5/USBFS_1.c ****             }
1877:.\Generated_Source\PSoC5/USBFS_1.c ****         }
1878:.\Generated_Source\PSoC5/USBFS_1.c **** 
1879:.\Generated_Source\PSoC5/USBFS_1.c ****         /* IN endpoint buffer is full - read to be read. */
1880:.\Generated_Source\PSoC5/USBFS_1.c ****         USBFS_1_EP[epNumber].apiEpState = USBFS_1_NO_EVENT_PENDING;
1881:.\Generated_Source\PSoC5/USBFS_1.c **** 
1882:.\Generated_Source\PSoC5/USBFS_1.c ****         /* Arm IN endpoint. */
1883:.\Generated_Source\PSoC5/USBFS_1.c ****         USBFS_1_SIE_EP_BASE.sieEp[epNumber].epCr0 = USBFS_1_EP[epNumber].epMode;
1884:.\Generated_Source\PSoC5/USBFS_1.c **** 
1885:.\Generated_Source\PSoC5/USBFS_1.c ****     #else
1886:.\Generated_Source\PSoC5/USBFS_1.c **** 
1887:.\Generated_Source\PSoC5/USBFS_1.c ****         #if (USBFS_1_EP_MANAGEMENT_DMA_MANUAL)
1888:.\Generated_Source\PSoC5/USBFS_1.c ****             /* IN endpoint buffer will be fully loaded by DMA shortly. */
1889:.\Generated_Source\PSoC5/USBFS_1.c ****             USBFS_1_EP[epNumber].apiEpState = USBFS_1_NO_EVENT_PENDING;
1890:.\Generated_Source\PSoC5/USBFS_1.c **** 
1891:.\Generated_Source\PSoC5/USBFS_1.c ****             if ((pData != NULL) && (length > 0u))
1892:.\Generated_Source\PSoC5/USBFS_1.c ****             {
1893:.\Generated_Source\PSoC5/USBFS_1.c ****                 uint32 channelNum = (uint32) USBFS_1_DmaChan[epNumber];
1894:.\Generated_Source\PSoC5/USBFS_1.c **** 
1895:.\Generated_Source\PSoC5/USBFS_1.c ****                 /* Disable DMA channel: start configuration. */
1896:.\Generated_Source\PSoC5/USBFS_1.c ****                 USBFS_1_CyDmaChDisable(channelNum);
1897:.\Generated_Source\PSoC5/USBFS_1.c **** 
1898:.\Generated_Source\PSoC5/USBFS_1.c ****                 /* Configure source and destination. */
1899:.\Generated_Source\PSoC5/USBFS_1.c ****                 USBFS_1_CyDmaSetSrcAddress(channelNum, USBFS_1_DMA_DESCR0, (void*) pData);
1900:.\Generated_Source\PSoC5/USBFS_1.c ****                 USBFS_1_CyDmaSetDstAddress(channelNum, USBFS_1_DMA_DESCR0, (void*) &USBFS_1_ARB_EP1
1901:.\Generated_Source\PSoC5/USBFS_1.c **** 
1902:.\Generated_Source\PSoC5/USBFS_1.c ****                 /* Configure DMA descriptor. */
1903:.\Generated_Source\PSoC5/USBFS_1.c ****                 length = (length >> 1u) - 1u;
1904:.\Generated_Source\PSoC5/USBFS_1.c ****                 USBFS_1_CyDmaSetConfiguration(channelNum, USBFS_1_DMA_DESCR0, USBFS_1_DMA_COMMON_CF
1905:.\Generated_Source\PSoC5/USBFS_1.c ****                                                         CYDMA_HALFWORD | CYDMA_ELEMENT_WORD | CYDMA
1906:.\Generated_Source\PSoC5/USBFS_1.c **** 
1907:.\Generated_Source\PSoC5/USBFS_1.c ****                 /* Validate descriptor to execute on following DMA request. */
1908:.\Generated_Source\PSoC5/USBFS_1.c ****                 USBFS_1_CyDmaValidateDescriptor(channelNum, USBFS_1_DMA_DESCR0);
1909:.\Generated_Source\PSoC5/USBFS_1.c **** 
1910:.\Generated_Source\PSoC5/USBFS_1.c ****                 /* Enable DMA channel: configuration complete. */
1911:.\Generated_Source\PSoC5/USBFS_1.c ****                 USBFS_1_CyDmaChEnable(channelNum);
1912:.\Generated_Source\PSoC5/USBFS_1.c **** 
1913:.\Generated_Source\PSoC5/USBFS_1.c ****                 /* Generate DMA request. */
1914:.\Generated_Source\PSoC5/USBFS_1.c ****                 USBFS_1_ARB_EP_BASE.arbEp[epNumber].epCfg |=  (uint32)  USBFS_1_ARB_EPX_CFG_DMA_REQ
ARM GAS  C:\Users\LUKASC~1\AppData\Local\Temp\ccX4OJiL.s 			page 59


1915:.\Generated_Source\PSoC5/USBFS_1.c ****                 USBFS_1_ARB_EP_BASE.arbEp[epNumber].epCfg &=  (uint32) ~USBFS_1_ARB_EPX_CFG_DMA_REQ
1916:.\Generated_Source\PSoC5/USBFS_1.c **** 
1917:.\Generated_Source\PSoC5/USBFS_1.c ****                 /* IN endpoint will be armed in ARB_ISR(source: IN_BUF_FULL) after first DMA transf
1918:.\Generated_Source\PSoC5/USBFS_1.c ****             }
1919:.\Generated_Source\PSoC5/USBFS_1.c ****             else
1920:.\Generated_Source\PSoC5/USBFS_1.c ****             {
1921:.\Generated_Source\PSoC5/USBFS_1.c ****                 /* When zero-length packet: arm IN endpoint directly. */
1922:.\Generated_Source\PSoC5/USBFS_1.c ****                 USBFS_1_SIE_EP_BASE.sieEp[epNumber].epCr0 = USBFS_1_EP[epNumber].epMode;
1923:.\Generated_Source\PSoC5/USBFS_1.c ****             }
1924:.\Generated_Source\PSoC5/USBFS_1.c ****         #endif /* (USBFS_1_EP_MANAGEMENT_DMA_MANUAL) */
1925:.\Generated_Source\PSoC5/USBFS_1.c **** 
1926:.\Generated_Source\PSoC5/USBFS_1.c ****         #if (USBFS_1_EP_MANAGEMENT_DMA_AUTO)
1927:.\Generated_Source\PSoC5/USBFS_1.c ****             if (pData != NULL)
1928:.\Generated_Source\PSoC5/USBFS_1.c ****             {
1929:.\Generated_Source\PSoC5/USBFS_1.c ****                 uint32 channelNum = (uint32) USBFS_1_DmaChan[epNumber];
1930:.\Generated_Source\PSoC5/USBFS_1.c **** 
1931:.\Generated_Source\PSoC5/USBFS_1.c ****                 /* Store address of buffer. */
1932:.\Generated_Source\PSoC5/USBFS_1.c ****                 USBFS_1_DmaEpBufferAddrBackup[epNumber] = (uint32) pData;
1933:.\Generated_Source\PSoC5/USBFS_1.c **** 
1934:.\Generated_Source\PSoC5/USBFS_1.c ****                 /* Disable DMA channel: start configuration. */
1935:.\Generated_Source\PSoC5/USBFS_1.c ****                 USBFS_1_CyDmaChDisable(channelNum);
1936:.\Generated_Source\PSoC5/USBFS_1.c **** 
1937:.\Generated_Source\PSoC5/USBFS_1.c ****                 /* Set destination address. */
1938:.\Generated_Source\PSoC5/USBFS_1.c ****                 USBFS_1_CyDmaSetDstAddress(channelNum, USBFS_1_DMA_DESCR0, (void*) &USBFS_1_ARB_EP1
1939:.\Generated_Source\PSoC5/USBFS_1.c ****                 USBFS_1_CyDmaSetDstAddress(channelNum, USBFS_1_DMA_DESCR1, (void*) &USBFS_1_ARB_EP1
1940:.\Generated_Source\PSoC5/USBFS_1.c **** 
1941:.\Generated_Source\PSoC5/USBFS_1.c ****                 /* Configure DMA descriptor. */
1942:.\Generated_Source\PSoC5/USBFS_1.c ****                 USBFS_1_CyDmaSetConfiguration(channelNum, USBFS_1_DMA_DESCR0, USBFS_1_DMA_COMMON_CF
1943:.\Generated_Source\PSoC5/USBFS_1.c ****                                                         CYDMA_HALFWORD | CYDMA_ELEMENT_WORD | CYDMA
1944:.\Generated_Source\PSoC5/USBFS_1.c **** 
1945:.\Generated_Source\PSoC5/USBFS_1.c ****                 /* Configure DMA descriptor. */
1946:.\Generated_Source\PSoC5/USBFS_1.c ****                 USBFS_1_CyDmaSetConfiguration(channelNum, USBFS_1_DMA_DESCR1, USBFS_1_DMA_COMMON_CF
1947:.\Generated_Source\PSoC5/USBFS_1.c ****                                                         CYDMA_HALFWORD | CYDMA_ELEMENT_WORD | CYDMA
1948:.\Generated_Source\PSoC5/USBFS_1.c **** 
1949:.\Generated_Source\PSoC5/USBFS_1.c ****                 /* Enable interrupt from DMA channel. */
1950:.\Generated_Source\PSoC5/USBFS_1.c ****                 USBFS_1_CyDmaSetInterruptMask(channelNum);
1951:.\Generated_Source\PSoC5/USBFS_1.c **** 
1952:.\Generated_Source\PSoC5/USBFS_1.c ****                 /* Validate descriptor 1. It will not be invalided during operation. */
1953:.\Generated_Source\PSoC5/USBFS_1.c ****                 USBFS_1_CyDmaValidateDescriptor(channelNum, USBFS_1_DMA_DESCR1);
1954:.\Generated_Source\PSoC5/USBFS_1.c **** 
1955:.\Generated_Source\PSoC5/USBFS_1.c ****                 /* Enable DMA channel: configuration complete. */
1956:.\Generated_Source\PSoC5/USBFS_1.c ****                 USBFS_1_CyDmaChEnable(channelNum);
1957:.\Generated_Source\PSoC5/USBFS_1.c ****             }
1958:.\Generated_Source\PSoC5/USBFS_1.c ****             else
1959:.\Generated_Source\PSoC5/USBFS_1.c ****             {
1960:.\Generated_Source\PSoC5/USBFS_1.c ****                 /* IN endpoint buffer (32 bytes) will shortly be preloaded by DMA. */
1961:.\Generated_Source\PSoC5/USBFS_1.c ****                 USBFS_1_EP[epNumber].apiEpState = USBFS_1_NO_EVENT_PENDING;
1962:.\Generated_Source\PSoC5/USBFS_1.c **** 
1963:.\Generated_Source\PSoC5/USBFS_1.c ****                 if (length > 0u)
1964:.\Generated_Source\PSoC5/USBFS_1.c ****                 {
1965:.\Generated_Source\PSoC5/USBFS_1.c ****                     uint32 lengthDescr0, lengthDescr1;
1966:.\Generated_Source\PSoC5/USBFS_1.c ****                     uint32 channelNum = (uint32) USBFS_1_DmaChan[epNumber];
1967:.\Generated_Source\PSoC5/USBFS_1.c **** 
1968:.\Generated_Source\PSoC5/USBFS_1.c ****                     /* Get number of full bursts. */
1969:.\Generated_Source\PSoC5/USBFS_1.c ****                     USBFS_1_DmaEpBurstCnt[epNumber] = (uint8) (length / USBFS_1_DMA_BYTES_PER_BURST
1970:.\Generated_Source\PSoC5/USBFS_1.c **** 
1971:.\Generated_Source\PSoC5/USBFS_1.c ****                     /* Get number of elements in the last burst. */
ARM GAS  C:\Users\LUKASC~1\AppData\Local\Temp\ccX4OJiL.s 			page 60


1972:.\Generated_Source\PSoC5/USBFS_1.c ****                     USBFS_1_DmaEpLastBurstEl[epNumber] = (uint8) (length % USBFS_1_DMA_BYTES_PER_BU
1973:.\Generated_Source\PSoC5/USBFS_1.c **** 
1974:.\Generated_Source\PSoC5/USBFS_1.c ****                     /* Get total number of bursts. */
1975:.\Generated_Source\PSoC5/USBFS_1.c ****                     USBFS_1_DmaEpBurstCnt[epNumber] += (0u != USBFS_1_DmaEpLastBurstEl[epNumber]) ?
1976:.\Generated_Source\PSoC5/USBFS_1.c **** 
1977:.\Generated_Source\PSoC5/USBFS_1.c ****                     /* Adjust number of data elements transferred in last burst. */
1978:.\Generated_Source\PSoC5/USBFS_1.c ****                     USBFS_1_DmaEpLastBurstEl[epNumber] = (0u != USBFS_1_DmaEpLastBurstEl[epNumber])
1979:.\Generated_Source\PSoC5/USBFS_1.c ****                                                                           ((USBFS_1_DmaEpLastBurstE
1980:.\Generated_Source\PSoC5/USBFS_1.c ****                                                                            (USBFS_1_DMA_HALFWORDS_P
1981:.\Generated_Source\PSoC5/USBFS_1.c **** 
1982:.\Generated_Source\PSoC5/USBFS_1.c ****                     /* Get number of data elements to transfer for descriptor 0 and 1. */
1983:.\Generated_Source\PSoC5/USBFS_1.c ****                     lengthDescr0 = (1u == USBFS_1_DmaEpBurstCnt[epNumber]) ? USBFS_1_DmaEpLastBurst
1984:.\Generated_Source\PSoC5/USBFS_1.c ****                     lengthDescr1 = (2u == USBFS_1_DmaEpBurstCnt[epNumber]) ? USBFS_1_DmaEpLastBurst
1985:.\Generated_Source\PSoC5/USBFS_1.c **** 
1986:.\Generated_Source\PSoC5/USBFS_1.c ****                     /* Mark which descriptor is last one to execute. */
1987:.\Generated_Source\PSoC5/USBFS_1.c ****                     USBFS_1_DmaEpLastBurstEl[epNumber] |= (0u != (USBFS_1_DmaEpBurstCnt[epNumber] &
1988:.\Generated_Source\PSoC5/USBFS_1.c ****                                                                             USBFS_1_DMA_DESCR0_MASK
1989:.\Generated_Source\PSoC5/USBFS_1.c **** 
1990:.\Generated_Source\PSoC5/USBFS_1.c ****                     /* Adjust burst counter taking to account: 2 valid descriptors and interrupt tr
1991:.\Generated_Source\PSoC5/USBFS_1.c ****                     USBFS_1_DmaEpBurstCnt[epNumber] = USBFS_1_DMA_GET_BURST_CNT(USBFS_1_DmaEpBurstC
1992:.\Generated_Source\PSoC5/USBFS_1.c **** 
1993:.\Generated_Source\PSoC5/USBFS_1.c ****                     /* Restore DMA settings for current transfer. */
1994:.\Generated_Source\PSoC5/USBFS_1.c ****                     USBFS_1_CyDmaChDisable(channelNum);
1995:.\Generated_Source\PSoC5/USBFS_1.c **** 
1996:.\Generated_Source\PSoC5/USBFS_1.c ****                     /* Restore destination address for input endpoint. */
1997:.\Generated_Source\PSoC5/USBFS_1.c ****                     USBFS_1_CyDmaSetSrcAddress(channelNum, USBFS_1_DMA_DESCR0, (void*) ((uint32) US
1998:.\Generated_Source\PSoC5/USBFS_1.c ****                     USBFS_1_CyDmaSetSrcAddress(channelNum, USBFS_1_DMA_DESCR1, (void*) ((uint32) US
1999:.\Generated_Source\PSoC5/USBFS_1.c ****                                                                                                    
2000:.\Generated_Source\PSoC5/USBFS_1.c **** 
2001:.\Generated_Source\PSoC5/USBFS_1.c ****                     /* Set number of elements to transfer. */
2002:.\Generated_Source\PSoC5/USBFS_1.c ****                     USBFS_1_CyDmaSetNumDataElements(channelNum, USBFS_1_DMA_DESCR0, lengthDescr0);
2003:.\Generated_Source\PSoC5/USBFS_1.c ****                     USBFS_1_CyDmaSetNumDataElements(channelNum, USBFS_1_DMA_DESCR1, lengthDescr1);
2004:.\Generated_Source\PSoC5/USBFS_1.c **** 
2005:.\Generated_Source\PSoC5/USBFS_1.c ****                     /* Validate descriptor 0 and command to start with it. */
2006:.\Generated_Source\PSoC5/USBFS_1.c ****                     USBFS_1_CyDmaValidateDescriptor(channelNum, USBFS_1_DMA_DESCR0);
2007:.\Generated_Source\PSoC5/USBFS_1.c ****                     USBFS_1_CyDmaSetDescriptor0Next(channelNum);
2008:.\Generated_Source\PSoC5/USBFS_1.c **** 
2009:.\Generated_Source\PSoC5/USBFS_1.c ****                     /* Enable DMA channel: configuration complete. */
2010:.\Generated_Source\PSoC5/USBFS_1.c ****                     USBFS_1_CyDmaChEnable(channelNum);
2011:.\Generated_Source\PSoC5/USBFS_1.c **** 
2012:.\Generated_Source\PSoC5/USBFS_1.c ****                 #if !defined (USBFS_1_MANUAL_IN_EP_ARM)
2013:.\Generated_Source\PSoC5/USBFS_1.c ****                     /* Set IN data ready to generate DMA request to load data into endpoint buffer.
2014:.\Generated_Source\PSoC5/USBFS_1.c ****                     USBFS_1_ARB_EP_BASE.arbEp[epNumber].epCfg |= USBFS_1_ARB_EPX_CFG_IN_DATA_RDY;
2015:.\Generated_Source\PSoC5/USBFS_1.c ****                 #endif  /* (USBFS_1_MANUAL_IN_EP_ARM) */
2016:.\Generated_Source\PSoC5/USBFS_1.c **** 
2017:.\Generated_Source\PSoC5/USBFS_1.c ****                     /* IN endpoint will be armed in ARB_ISR(source: IN_BUF_FULL) after first DMA tr
2018:.\Generated_Source\PSoC5/USBFS_1.c ****                 }
2019:.\Generated_Source\PSoC5/USBFS_1.c ****                 else
2020:.\Generated_Source\PSoC5/USBFS_1.c ****                 {
2021:.\Generated_Source\PSoC5/USBFS_1.c ****                     /* When zero-length packet: arm IN endpoint directly. */
2022:.\Generated_Source\PSoC5/USBFS_1.c ****                     USBFS_1_SIE_EP_BASE.sieEp[epNumber].epCr0 = USBFS_1_EP[epNumber].epMode;
2023:.\Generated_Source\PSoC5/USBFS_1.c ****                 }
2024:.\Generated_Source\PSoC5/USBFS_1.c ****             }
2025:.\Generated_Source\PSoC5/USBFS_1.c ****         #endif /* (USBFS_1_EP_MANAGEMENT_DMA_AUTO) */
2026:.\Generated_Source\PSoC5/USBFS_1.c ****     #endif /* (USBFS_1_EP_MANAGEMENT_MANUAL) */
2027:.\Generated_Source\PSoC5/USBFS_1.c ****     }
2028:.\Generated_Source\PSoC5/USBFS_1.c **** }
ARM GAS  C:\Users\LUKASC~1\AppData\Local\Temp\ccX4OJiL.s 			page 61


2029:.\Generated_Source\PSoC5/USBFS_1.c **** 
2030:.\Generated_Source\PSoC5/USBFS_1.c **** 
2031:.\Generated_Source\PSoC5/USBFS_1.c **** /*******************************************************************************
2032:.\Generated_Source\PSoC5/USBFS_1.c **** * Function Name: USBFS_1_ReadOutEP16
2033:.\Generated_Source\PSoC5/USBFS_1.c **** ****************************************************************************//**
2034:.\Generated_Source\PSoC5/USBFS_1.c **** *
2035:.\Generated_Source\PSoC5/USBFS_1.c **** *   This function performs different functionality depending on the Component’s
2036:.\Generated_Source\PSoC5/USBFS_1.c **** *   configured Endpoint Buffer Management. This parameter is defined in the
2037:.\Generated_Source\PSoC5/USBFS_1.c **** *   Descriptor Root in Component Configure window.
2038:.\Generated_Source\PSoC5/USBFS_1.c **** *
2039:.\Generated_Source\PSoC5/USBFS_1.c **** *   *Manual (Static/Dynamic Allocation):*
2040:.\Generated_Source\PSoC5/USBFS_1.c **** *   This function moves the specified number of bytes from endpoint buffer to
2041:.\Generated_Source\PSoC5/USBFS_1.c **** *   system RAM. The number of bytes actually transferred from endpoint buffer to
2042:.\Generated_Source\PSoC5/USBFS_1.c **** *   system RAM is the lesser of the actual number of bytes sent by the host or
2043:.\Generated_Source\PSoC5/USBFS_1.c **** *   the number of bytes requested by the length parameter.
2044:.\Generated_Source\PSoC5/USBFS_1.c **** *
2045:.\Generated_Source\PSoC5/USBFS_1.c **** *   *DMA with Manual Buffer Management:*
2046:.\Generated_Source\PSoC5/USBFS_1.c **** *   Configure DMA to transfer data from endpoint buffer to system RAM. Generate
2047:.\Generated_Source\PSoC5/USBFS_1.c **** *   a DMA request. The firmware must wait until the DMA completes the data
2048:.\Generated_Source\PSoC5/USBFS_1.c **** *   transfer after calling the USBFS_1_ReadOutEP() API. For example,
2049:.\Generated_Source\PSoC5/USBFS_1.c **** *   by checking EPstate:
2050:.\Generated_Source\PSoC5/USBFS_1.c **** *
2051:.\Generated_Source\PSoC5/USBFS_1.c **** *   \snippet /USBFS_sut_02.cydsn/main.c checking EPstatey
2052:.\Generated_Source\PSoC5/USBFS_1.c **** *
2053:.\Generated_Source\PSoC5/USBFS_1.c **** *   The USBFS_EnableOutEP() has to be called to allow host to write data into
2054:.\Generated_Source\PSoC5/USBFS_1.c **** *   the endpoint buffer after DMA has completed transfer data from OUT endpoint
2055:.\Generated_Source\PSoC5/USBFS_1.c **** *   buffer to SRAM.
2056:.\Generated_Source\PSoC5/USBFS_1.c **** *
2057:.\Generated_Source\PSoC5/USBFS_1.c **** *   *DMA with Automatic Buffer Management:*
2058:.\Generated_Source\PSoC5/USBFS_1.c **** *   Configure DMA. This is required only once and automatically generates DMA
2059:.\Generated_Source\PSoC5/USBFS_1.c **** *   requests as data arrives
2060:.\Generated_Source\PSoC5/USBFS_1.c **** *
2061:.\Generated_Source\PSoC5/USBFS_1.c **** *  \param epNumber: Contains the data endpoint number.
2062:.\Generated_Source\PSoC5/USBFS_1.c **** *         Valid values are between 1 and 8.
2063:.\Generated_Source\PSoC5/USBFS_1.c **** *  \param pData: A pointer to a data array into which the data for the endpoint
2064:.\Generated_Source\PSoC5/USBFS_1.c **** *         space is copied. It shall be ensured that this pointer address is
2065:.\Generated_Source\PSoC5/USBFS_1.c **** *         even to ensure the 16-bit transfer is aligned to even address. Else,
2066:.\Generated_Source\PSoC5/USBFS_1.c **** *         a hard fault condition can occur.
2067:.\Generated_Source\PSoC5/USBFS_1.c **** *  \param length: The number of bytes to transfer from the USB Out endpoint and
2068:.\Generated_Source\PSoC5/USBFS_1.c **** *         loads it into data array. Valid values are between 0 and 1023. The
2069:.\Generated_Source\PSoC5/USBFS_1.c **** *         function moves fewer than the requested number of bytes if the host
2070:.\Generated_Source\PSoC5/USBFS_1.c **** *         sends fewer bytes than requested.
2071:.\Generated_Source\PSoC5/USBFS_1.c **** *
2072:.\Generated_Source\PSoC5/USBFS_1.c **** * \return
2073:.\Generated_Source\PSoC5/USBFS_1.c **** *  Number of bytes received, 0 for an invalid endpoint.
2074:.\Generated_Source\PSoC5/USBFS_1.c **** *
2075:.\Generated_Source\PSoC5/USBFS_1.c **** * \reentrant
2076:.\Generated_Source\PSoC5/USBFS_1.c **** *  No.
2077:.\Generated_Source\PSoC5/USBFS_1.c **** *
2078:.\Generated_Source\PSoC5/USBFS_1.c **** *******************************************************************************/
2079:.\Generated_Source\PSoC5/USBFS_1.c **** uint16 USBFS_1_ReadOutEP16(uint8 epNumber, uint8 pData[], uint16 length)
2080:.\Generated_Source\PSoC5/USBFS_1.c **** {
2081:.\Generated_Source\PSoC5/USBFS_1.c ****     uint32 adjLength;
2082:.\Generated_Source\PSoC5/USBFS_1.c **** 
2083:.\Generated_Source\PSoC5/USBFS_1.c ****     /* Check array alignment on half-word boundary */
2084:.\Generated_Source\PSoC5/USBFS_1.c ****     CYASSERT(0u == (((uint32) pData) & 0x01u));
2085:.\Generated_Source\PSoC5/USBFS_1.c **** 
ARM GAS  C:\Users\LUKASC~1\AppData\Local\Temp\ccX4OJiL.s 			page 62


2086:.\Generated_Source\PSoC5/USBFS_1.c ****     if ((pData != NULL) && (epNumber > USBFS_1_EP0) && (epNumber < USBFS_1_MAX_EP))
2087:.\Generated_Source\PSoC5/USBFS_1.c ****     {
2088:.\Generated_Source\PSoC5/USBFS_1.c ****     #if (!USBFS_1_EP_MANAGEMENT_DMA_AUTO)
2089:.\Generated_Source\PSoC5/USBFS_1.c ****         /* Adjust requested length to available data. */
2090:.\Generated_Source\PSoC5/USBFS_1.c ****         length = (length > USBFS_1_GetEPCount(epNumber)) ? USBFS_1_GetEPCount(epNumber) : length;
2091:.\Generated_Source\PSoC5/USBFS_1.c ****     #endif /* (!USBFS_1_EP_MANAGEMENT_DMA_AUTO) */
2092:.\Generated_Source\PSoC5/USBFS_1.c **** 
2093:.\Generated_Source\PSoC5/USBFS_1.c ****     /* Adjust requested length: 2 bytes are handled at one data register access. */
2094:.\Generated_Source\PSoC5/USBFS_1.c ****     adjLength =  length + ((uint32)length & 1u);
2095:.\Generated_Source\PSoC5/USBFS_1.c **** 
2096:.\Generated_Source\PSoC5/USBFS_1.c ****     #if (USBFS_1_EP_MANAGEMENT_MANUAL)
2097:.\Generated_Source\PSoC5/USBFS_1.c ****         {
2098:.\Generated_Source\PSoC5/USBFS_1.c ****             /* Convert uint8 array to uint16. */
2099:.\Generated_Source\PSoC5/USBFS_1.c ****             uint16 *dataBuf = (uint16 *) pData;
2100:.\Generated_Source\PSoC5/USBFS_1.c **** 
2101:.\Generated_Source\PSoC5/USBFS_1.c ****             /* Copy data using 16-bits arbiter data register. */
2102:.\Generated_Source\PSoC5/USBFS_1.c ****             uint16 i;
2103:.\Generated_Source\PSoC5/USBFS_1.c ****             for (i = 0u; i < (adjLength >> 1u); ++i)
2104:.\Generated_Source\PSoC5/USBFS_1.c ****             {
2105:.\Generated_Source\PSoC5/USBFS_1.c ****                 dataBuf[i] = (uint16) USBFS_1_ARB_EP16_BASE.arbEp[epNumber].rwDr16;
2106:.\Generated_Source\PSoC5/USBFS_1.c ****             }
2107:.\Generated_Source\PSoC5/USBFS_1.c ****         }
2108:.\Generated_Source\PSoC5/USBFS_1.c **** 
2109:.\Generated_Source\PSoC5/USBFS_1.c ****         /* Arm OUT endpoint after data has been read from endpoint buffer. */
2110:.\Generated_Source\PSoC5/USBFS_1.c ****         USBFS_1_EnableOutEP(epNumber);
2111:.\Generated_Source\PSoC5/USBFS_1.c ****     #else
2112:.\Generated_Source\PSoC5/USBFS_1.c **** 
2113:.\Generated_Source\PSoC5/USBFS_1.c ****         #if (USBFS_1_EP_MANAGEMENT_DMA_MANUAL)
2114:.\Generated_Source\PSoC5/USBFS_1.c ****         {
2115:.\Generated_Source\PSoC5/USBFS_1.c ****             uint32 channelNum = (uint32) USBFS_1_DmaChan[epNumber];
2116:.\Generated_Source\PSoC5/USBFS_1.c **** 
2117:.\Generated_Source\PSoC5/USBFS_1.c ****             /* Disable DMA channel: start configuration. */
2118:.\Generated_Source\PSoC5/USBFS_1.c ****             USBFS_1_CyDmaChDisable(channelNum);
2119:.\Generated_Source\PSoC5/USBFS_1.c **** 
2120:.\Generated_Source\PSoC5/USBFS_1.c ****             /* Configure source and destination. */
2121:.\Generated_Source\PSoC5/USBFS_1.c ****             USBFS_1_CyDmaSetSrcAddress(channelNum, USBFS_1_DMA_DESCR0, (void*) &USBFS_1_ARB_EP16_BA
2122:.\Generated_Source\PSoC5/USBFS_1.c ****             USBFS_1_CyDmaSetDstAddress(channelNum, USBFS_1_DMA_DESCR0, (void*) pData);
2123:.\Generated_Source\PSoC5/USBFS_1.c **** 
2124:.\Generated_Source\PSoC5/USBFS_1.c ****             /* Configure DMA descriptor. */
2125:.\Generated_Source\PSoC5/USBFS_1.c ****             USBFS_1_CyDmaSetConfiguration(channelNum, USBFS_1_DMA_DESCR0, USBFS_1_DMA_COMMON_CFG | 
2126:.\Generated_Source\PSoC5/USBFS_1.c ****                                                     CYDMA_HALFWORD | CYDMA_WORD_ELEMENT | CYDMA_INC
2127:.\Generated_Source\PSoC5/USBFS_1.c **** 
2128:.\Generated_Source\PSoC5/USBFS_1.c ****             /* Validate descriptor to execute on following DMA request. */
2129:.\Generated_Source\PSoC5/USBFS_1.c ****             USBFS_1_CyDmaValidateDescriptor(channelNum, USBFS_1_DMA_DESCR0);
2130:.\Generated_Source\PSoC5/USBFS_1.c **** 
2131:.\Generated_Source\PSoC5/USBFS_1.c ****             /* Enable DMA channel: configuration complete. */
2132:.\Generated_Source\PSoC5/USBFS_1.c ****             USBFS_1_CyDmaChEnable(channelNum);
2133:.\Generated_Source\PSoC5/USBFS_1.c **** 
2134:.\Generated_Source\PSoC5/USBFS_1.c ****             /* Generate DMA request. */
2135:.\Generated_Source\PSoC5/USBFS_1.c ****             USBFS_1_ARB_EP_BASE.arbEp[epNumber].epCfg |=  (uint32)  USBFS_1_ARB_EPX_CFG_DMA_REQ;
2136:.\Generated_Source\PSoC5/USBFS_1.c ****             USBFS_1_ARB_EP_BASE.arbEp[epNumber].epCfg &=  (uint32) ~USBFS_1_ARB_EPX_CFG_DMA_REQ;
2137:.\Generated_Source\PSoC5/USBFS_1.c **** 
2138:.\Generated_Source\PSoC5/USBFS_1.c ****             /* OUT endpoint has to be armed again by user when DMA transfers have been completed.
2139:.\Generated_Source\PSoC5/USBFS_1.c ****             * NO_EVENT_PENDING: notifies that data has been copied from endpoint buffer.
2140:.\Generated_Source\PSoC5/USBFS_1.c ****             */
2141:.\Generated_Source\PSoC5/USBFS_1.c ****         }
2142:.\Generated_Source\PSoC5/USBFS_1.c ****         #endif /* (USBFS_1_EP_MANAGEMENT_DMA_MANUAL) */
ARM GAS  C:\Users\LUKASC~1\AppData\Local\Temp\ccX4OJiL.s 			page 63


2143:.\Generated_Source\PSoC5/USBFS_1.c **** 
2144:.\Generated_Source\PSoC5/USBFS_1.c ****         #if (USBFS_1_EP_MANAGEMENT_DMA_AUTO)
2145:.\Generated_Source\PSoC5/USBFS_1.c ****         {
2146:.\Generated_Source\PSoC5/USBFS_1.c ****             uint32 lengthDescr0, lengthDescr1;
2147:.\Generated_Source\PSoC5/USBFS_1.c ****             uint32 channelNum = (uint32) USBFS_1_DmaChan[epNumber];
2148:.\Generated_Source\PSoC5/USBFS_1.c **** 
2149:.\Generated_Source\PSoC5/USBFS_1.c ****             /* Get number of full bursts. */
2150:.\Generated_Source\PSoC5/USBFS_1.c ****             USBFS_1_DmaEpBurstCnt[epNumber] = (uint8) (adjLength / USBFS_1_DMA_BYTES_PER_BURST);
2151:.\Generated_Source\PSoC5/USBFS_1.c **** 
2152:.\Generated_Source\PSoC5/USBFS_1.c ****             /* Get number of elements in last burst. */
2153:.\Generated_Source\PSoC5/USBFS_1.c ****             USBFS_1_DmaEpLastBurstEl[epNumber] = (uint8) (adjLength % USBFS_1_DMA_BYTES_PER_BURST);
2154:.\Generated_Source\PSoC5/USBFS_1.c **** 
2155:.\Generated_Source\PSoC5/USBFS_1.c ****             /* Get total number of bursts. */
2156:.\Generated_Source\PSoC5/USBFS_1.c ****             USBFS_1_DmaEpBurstCnt[epNumber] += (0u != USBFS_1_DmaEpLastBurstEl[epNumber]) ? 1u : 0u
2157:.\Generated_Source\PSoC5/USBFS_1.c **** 
2158:.\Generated_Source\PSoC5/USBFS_1.c ****             /* Adjust number of data elements transferred in last burst. */
2159:.\Generated_Source\PSoC5/USBFS_1.c ****             USBFS_1_DmaEpLastBurstEl[epNumber] = (0u != USBFS_1_DmaEpLastBurstEl[epNumber]) ?
2160:.\Generated_Source\PSoC5/USBFS_1.c ****                                                                   ((USBFS_1_DmaEpLastBurstEl[epNumb
2161:.\Generated_Source\PSoC5/USBFS_1.c ****                                                                    (USBFS_1_DMA_HALFWORDS_PER_BURST
2162:.\Generated_Source\PSoC5/USBFS_1.c **** 
2163:.\Generated_Source\PSoC5/USBFS_1.c ****             /* Get number of data elements to transfer for descriptor 0 and 1. */
2164:.\Generated_Source\PSoC5/USBFS_1.c ****             lengthDescr0 = (1u == USBFS_1_DmaEpBurstCnt[epNumber]) ? USBFS_1_DmaEpLastBurstEl[epNum
2165:.\Generated_Source\PSoC5/USBFS_1.c ****             lengthDescr1 = (2u == USBFS_1_DmaEpBurstCnt[epNumber]) ? USBFS_1_DmaEpLastBurstEl[epNum
2166:.\Generated_Source\PSoC5/USBFS_1.c **** 
2167:.\Generated_Source\PSoC5/USBFS_1.c ****             /* Mark last descriptor to be executed. */
2168:.\Generated_Source\PSoC5/USBFS_1.c ****             USBFS_1_DmaEpLastBurstEl[epNumber] |= (0u != (USBFS_1_DmaEpBurstCnt[epNumber] & 0x1u)) 
2169:.\Generated_Source\PSoC5/USBFS_1.c ****                                                                     USBFS_1_DMA_DESCR0_MASK : USBFS
2170:.\Generated_Source\PSoC5/USBFS_1.c **** 
2171:.\Generated_Source\PSoC5/USBFS_1.c ****             /* Mark if revert number of data elements in descriptor after transfer completion. */
2172:.\Generated_Source\PSoC5/USBFS_1.c ****             USBFS_1_DmaEpLastBurstEl[epNumber] |= (USBFS_1_DmaEpBurstCnt[epNumber] > 2u) ? USBFS_1_
2173:.\Generated_Source\PSoC5/USBFS_1.c **** 
2174:.\Generated_Source\PSoC5/USBFS_1.c ****             /* Mark that 16-bits access to data register is performed. */
2175:.\Generated_Source\PSoC5/USBFS_1.c ****             USBFS_1_DmaEpLastBurstEl[epNumber] |= USBFS_1_DMA_DESCR_16BITS;
2176:.\Generated_Source\PSoC5/USBFS_1.c **** 
2177:.\Generated_Source\PSoC5/USBFS_1.c ****             /* Adjust burst counter taking to account: 2 valid descriptors and interrupt trigger af
2178:.\Generated_Source\PSoC5/USBFS_1.c ****             USBFS_1_DmaEpBurstCnt[epNumber] = USBFS_1_DMA_GET_BURST_CNT(USBFS_1_DmaEpBurstCnt[epNum
2179:.\Generated_Source\PSoC5/USBFS_1.c **** 
2180:.\Generated_Source\PSoC5/USBFS_1.c ****             /* Store address of buffer and burst counter for endpoint. */
2181:.\Generated_Source\PSoC5/USBFS_1.c ****             USBFS_1_DmaEpBufferAddrBackup[epNumber] = (uint32) pData;
2182:.\Generated_Source\PSoC5/USBFS_1.c ****             USBFS_1_DmaEpBurstCntBackup[epNumber]   = USBFS_1_DmaEpBurstCnt[epNumber];
2183:.\Generated_Source\PSoC5/USBFS_1.c **** 
2184:.\Generated_Source\PSoC5/USBFS_1.c ****             /* Disable DMA channel: start configuration. */
2185:.\Generated_Source\PSoC5/USBFS_1.c ****             USBFS_1_CyDmaChDisable(channelNum);
2186:.\Generated_Source\PSoC5/USBFS_1.c **** 
2187:.\Generated_Source\PSoC5/USBFS_1.c ****             /* Set destination address. */
2188:.\Generated_Source\PSoC5/USBFS_1.c ****             USBFS_1_CyDmaSetSrcAddress(channelNum, USBFS_1_DMA_DESCR0, (void*) &USBFS_1_ARB_EP16_BA
2189:.\Generated_Source\PSoC5/USBFS_1.c ****             USBFS_1_CyDmaSetSrcAddress(channelNum, USBFS_1_DMA_DESCR1, (void*) &USBFS_1_ARB_EP16_BA
2190:.\Generated_Source\PSoC5/USBFS_1.c **** 
2191:.\Generated_Source\PSoC5/USBFS_1.c ****             USBFS_1_CyDmaSetDstAddress(channelNum, USBFS_1_DMA_DESCR0, (void*) ((uint32) pData));
2192:.\Generated_Source\PSoC5/USBFS_1.c ****             USBFS_1_CyDmaSetDstAddress(channelNum, USBFS_1_DMA_DESCR1, (void*) ((uint32) pData + US
2193:.\Generated_Source\PSoC5/USBFS_1.c **** 
2194:.\Generated_Source\PSoC5/USBFS_1.c ****             /* Configure DMA descriptor 0. */
2195:.\Generated_Source\PSoC5/USBFS_1.c ****             USBFS_1_CyDmaSetConfiguration(channelNum, USBFS_1_DMA_DESCR0, USBFS_1_DMA_COMMON_CFG  |
2196:.\Generated_Source\PSoC5/USBFS_1.c ****                                                     CYDMA_HALFWORD | CYDMA_WORD_ELEMENT | CYDMA_INC
2197:.\Generated_Source\PSoC5/USBFS_1.c **** 
2198:.\Generated_Source\PSoC5/USBFS_1.c ****             /* Configure DMA descriptor 1. */
2199:.\Generated_Source\PSoC5/USBFS_1.c ****             USBFS_1_CyDmaSetConfiguration(channelNum, USBFS_1_DMA_DESCR1, USBFS_1_DMA_COMMON_CFG  |
ARM GAS  C:\Users\LUKASC~1\AppData\Local\Temp\ccX4OJiL.s 			page 64


2200:.\Generated_Source\PSoC5/USBFS_1.c ****                                                     CYDMA_HALFWORD | CYDMA_WORD_ELEMENT | CYDMA_INC
2201:.\Generated_Source\PSoC5/USBFS_1.c **** 
2202:.\Generated_Source\PSoC5/USBFS_1.c ****             /* Enable interrupt from DMA channel. */
2203:.\Generated_Source\PSoC5/USBFS_1.c ****             USBFS_1_CyDmaSetInterruptMask(channelNum);
2204:.\Generated_Source\PSoC5/USBFS_1.c **** 
2205:.\Generated_Source\PSoC5/USBFS_1.c ****             /* Validate DMA descriptor 0 and 1. */
2206:.\Generated_Source\PSoC5/USBFS_1.c ****             USBFS_1_CyDmaValidateDescriptor(channelNum, USBFS_1_DMA_DESCR0);
2207:.\Generated_Source\PSoC5/USBFS_1.c ****             USBFS_1_CyDmaValidateDescriptor(channelNum, USBFS_1_DMA_DESCR1);
2208:.\Generated_Source\PSoC5/USBFS_1.c **** 
2209:.\Generated_Source\PSoC5/USBFS_1.c ****             /* Enable DMA channel: configuration complete. */
2210:.\Generated_Source\PSoC5/USBFS_1.c ****             USBFS_1_CyDmaChEnable(channelNum);
2211:.\Generated_Source\PSoC5/USBFS_1.c **** 
2212:.\Generated_Source\PSoC5/USBFS_1.c ****             /* OUT endpoint has to be armed again by user when DMA transfers have been completed.
2213:.\Generated_Source\PSoC5/USBFS_1.c ****             * NO_EVENT_PENDING: notifies that data has been copied from endpoint buffer.
2214:.\Generated_Source\PSoC5/USBFS_1.c ****             */
2215:.\Generated_Source\PSoC5/USBFS_1.c ****         }
2216:.\Generated_Source\PSoC5/USBFS_1.c ****         #endif /* (USBFS_1_EP_MANAGEMENT_DMA_AUTO) */
2217:.\Generated_Source\PSoC5/USBFS_1.c ****     #endif /* (USBFS_1_EP_MANAGEMENT_MANUAL) */
2218:.\Generated_Source\PSoC5/USBFS_1.c ****     }
2219:.\Generated_Source\PSoC5/USBFS_1.c ****     else
2220:.\Generated_Source\PSoC5/USBFS_1.c ****     {
2221:.\Generated_Source\PSoC5/USBFS_1.c ****         length = 0u;
2222:.\Generated_Source\PSoC5/USBFS_1.c ****     }
2223:.\Generated_Source\PSoC5/USBFS_1.c **** 
2224:.\Generated_Source\PSoC5/USBFS_1.c ****     return (length);
2225:.\Generated_Source\PSoC5/USBFS_1.c **** }
2226:.\Generated_Source\PSoC5/USBFS_1.c **** #endif /* (USBFS_1_16BITS_EP_ACCESS_ENABLE) */
2227:.\Generated_Source\PSoC5/USBFS_1.c **** 
2228:.\Generated_Source\PSoC5/USBFS_1.c **** 
2229:.\Generated_Source\PSoC5/USBFS_1.c **** /*******************************************************************************
2230:.\Generated_Source\PSoC5/USBFS_1.c **** * Function Name: USBFS_1_EnableOutEP
2231:.\Generated_Source\PSoC5/USBFS_1.c **** ****************************************************************************//**
2232:.\Generated_Source\PSoC5/USBFS_1.c **** *
2233:.\Generated_Source\PSoC5/USBFS_1.c **** *  This function enables the specified endpoint for OUT transfers. Do not call
2234:.\Generated_Source\PSoC5/USBFS_1.c **** *  this function for IN endpoints.
2235:.\Generated_Source\PSoC5/USBFS_1.c **** *
2236:.\Generated_Source\PSoC5/USBFS_1.c **** *  \param epNumber: Contains the data endpoint number. Valid values are between
2237:.\Generated_Source\PSoC5/USBFS_1.c **** *  1 and 8.
2238:.\Generated_Source\PSoC5/USBFS_1.c **** *
2239:.\Generated_Source\PSoC5/USBFS_1.c **** * \globalvars
2240:.\Generated_Source\PSoC5/USBFS_1.c **** *
2241:.\Generated_Source\PSoC5/USBFS_1.c **** *  \ref USBFS_1_EP[epNumber].apiEpState - set to NO_EVENT_PENDING
2242:.\Generated_Source\PSoC5/USBFS_1.c **** *
2243:.\Generated_Source\PSoC5/USBFS_1.c **** * \reentrant
2244:.\Generated_Source\PSoC5/USBFS_1.c **** *  No.
2245:.\Generated_Source\PSoC5/USBFS_1.c **** *
2246:.\Generated_Source\PSoC5/USBFS_1.c **** *******************************************************************************/
2247:.\Generated_Source\PSoC5/USBFS_1.c **** void USBFS_1_EnableOutEP(uint8 epNumber) 
2248:.\Generated_Source\PSoC5/USBFS_1.c **** {
 1366              		.loc 1 2248 0
 1367              		.cfi_startproc
 1368              		@ args = 0, pretend = 0, frame = 0
 1369              		@ frame_needed = 0, uses_anonymous_args = 0
 1370              		@ link register save eliminated.
 1371              	.LVL117:
2249:.\Generated_Source\PSoC5/USBFS_1.c ****     if ((epNumber > USBFS_1_EP0) && (epNumber < USBFS_1_MAX_EP))
 1372              		.loc 1 2249 0
ARM GAS  C:\Users\LUKASC~1\AppData\Local\Temp\ccX4OJiL.s 			page 65


 1373 0000 431E     		subs	r3, r0, #1
 1374 0002 DBB2     		uxtb	r3, r3
 1375 0004 072B     		cmp	r3, #7
 1376 0006 0BD8     		bhi	.L92
2250:.\Generated_Source\PSoC5/USBFS_1.c ****     {
2251:.\Generated_Source\PSoC5/USBFS_1.c ****         USBFS_1_EP[epNumber].apiEpState = USBFS_1_NO_EVENT_PENDING;
 1377              		.loc 1 2251 0
 1378 0008 4300     		lsls	r3, r0, #1
 1379 000a 0344     		add	r3, r3, r0
 1380 000c 9B00     		lsls	r3, r3, #2
 1381 000e 054A     		ldr	r2, .L94
 1382 0010 1344     		add	r3, r3, r2
 1383 0012 0022     		movs	r2, #0
 1384 0014 5A70     		strb	r2, [r3, #1]
2252:.\Generated_Source\PSoC5/USBFS_1.c **** 
2253:.\Generated_Source\PSoC5/USBFS_1.c ****         /* Enable OUT endpoint to be written by Host. */
2254:.\Generated_Source\PSoC5/USBFS_1.c ****         USBFS_1_SIE_EP_BASE.sieEp[epNumber].epCr0 = USBFS_1_EP[epNumber].epMode;
 1385              		.loc 1 2254 0
 1386 0016 5A79     		ldrb	r2, [r3, #5]	@ zero_extendqisi2
 1387 0018 D2B2     		uxtb	r2, r2
 1388 001a 0001     		lsls	r0, r0, #4
 1389              	.LVL118:
 1390 001c 024B     		ldr	r3, .L94+4
 1391 001e 1A54     		strb	r2, [r3, r0]
 1392              	.L92:
 1393 0020 7047     		bx	lr
 1394              	.L95:
 1395 0022 00BF     		.align	2
 1396              	.L94:
 1397 0024 00000000 		.word	USBFS_1_EP
 1398 0028 FE5F0040 		.word	1073766398
 1399              		.cfi_endproc
 1400              	.LFE16:
 1401              		.size	USBFS_1_EnableOutEP, .-USBFS_1_EnableOutEP
 1402              		.section	.text.USBFS_1_DisableOutEP,"ax",%progbits
 1403              		.align	2
 1404              		.global	USBFS_1_DisableOutEP
 1405              		.thumb
 1406              		.thumb_func
 1407              		.type	USBFS_1_DisableOutEP, %function
 1408              	USBFS_1_DisableOutEP:
 1409              	.LFB17:
2255:.\Generated_Source\PSoC5/USBFS_1.c ****         
2256:.\Generated_Source\PSoC5/USBFS_1.c ****     }
2257:.\Generated_Source\PSoC5/USBFS_1.c **** }
2258:.\Generated_Source\PSoC5/USBFS_1.c **** 
2259:.\Generated_Source\PSoC5/USBFS_1.c **** 
2260:.\Generated_Source\PSoC5/USBFS_1.c **** /*******************************************************************************
2261:.\Generated_Source\PSoC5/USBFS_1.c **** * Function Name: USBFS_1_DisableOutEP
2262:.\Generated_Source\PSoC5/USBFS_1.c **** ****************************************************************************//**
2263:.\Generated_Source\PSoC5/USBFS_1.c **** *
2264:.\Generated_Source\PSoC5/USBFS_1.c **** *  This function disables the specified USBFS OUT endpoint. Do not call this
2265:.\Generated_Source\PSoC5/USBFS_1.c **** *  function for IN endpoints.
2266:.\Generated_Source\PSoC5/USBFS_1.c **** *
2267:.\Generated_Source\PSoC5/USBFS_1.c **** *  \param epNumber: Contains the data endpoint number.
2268:.\Generated_Source\PSoC5/USBFS_1.c **** *            Valid values are between 1 and 8.
2269:.\Generated_Source\PSoC5/USBFS_1.c **** *
ARM GAS  C:\Users\LUKASC~1\AppData\Local\Temp\ccX4OJiL.s 			page 66


2270:.\Generated_Source\PSoC5/USBFS_1.c **** *******************************************************************************/
2271:.\Generated_Source\PSoC5/USBFS_1.c **** void USBFS_1_DisableOutEP(uint8 epNumber) 
2272:.\Generated_Source\PSoC5/USBFS_1.c **** {
 1410              		.loc 1 2272 0
 1411              		.cfi_startproc
 1412              		@ args = 0, pretend = 0, frame = 0
 1413              		@ frame_needed = 0, uses_anonymous_args = 0
 1414              		@ link register save eliminated.
 1415              	.LVL119:
2273:.\Generated_Source\PSoC5/USBFS_1.c ****     if ((epNumber > USBFS_1_EP0) && (epNumber < USBFS_1_MAX_EP))
 1416              		.loc 1 2273 0
 1417 0000 431E     		subs	r3, r0, #1
 1418 0002 DBB2     		uxtb	r3, r3
 1419 0004 072B     		cmp	r3, #7
 1420 0006 03D8     		bhi	.L96
2274:.\Generated_Source\PSoC5/USBFS_1.c ****     {
2275:.\Generated_Source\PSoC5/USBFS_1.c ****         /* Set NAK response for OUT endpoint. */
2276:.\Generated_Source\PSoC5/USBFS_1.c ****         USBFS_1_SIE_EP_BASE.sieEp[epNumber].epCr0 = USBFS_1_MODE_NAK_OUT;
 1421              		.loc 1 2276 0
 1422 0008 0001     		lsls	r0, r0, #4
 1423              	.LVL120:
 1424 000a 024B     		ldr	r3, .L98
 1425 000c 0822     		movs	r2, #8
 1426 000e 1A54     		strb	r2, [r3, r0]
 1427              	.L96:
 1428 0010 7047     		bx	lr
 1429              	.L99:
 1430 0012 00BF     		.align	2
 1431              	.L98:
 1432 0014 FE5F0040 		.word	1073766398
 1433              		.cfi_endproc
 1434              	.LFE17:
 1435              		.size	USBFS_1_DisableOutEP, .-USBFS_1_DisableOutEP
 1436              		.section	.text.USBFS_1_Force,"ax",%progbits
 1437              		.align	2
 1438              		.global	USBFS_1_Force
 1439              		.thumb
 1440              		.thumb_func
 1441              		.type	USBFS_1_Force, %function
 1442              	USBFS_1_Force:
 1443              	.LFB18:
2277:.\Generated_Source\PSoC5/USBFS_1.c ****     }
2278:.\Generated_Source\PSoC5/USBFS_1.c **** }
2279:.\Generated_Source\PSoC5/USBFS_1.c **** 
2280:.\Generated_Source\PSoC5/USBFS_1.c **** 
2281:.\Generated_Source\PSoC5/USBFS_1.c **** /*******************************************************************************
2282:.\Generated_Source\PSoC5/USBFS_1.c **** * Function Name: USBFS_1_Force
2283:.\Generated_Source\PSoC5/USBFS_1.c **** ****************************************************************************//**
2284:.\Generated_Source\PSoC5/USBFS_1.c **** *
2285:.\Generated_Source\PSoC5/USBFS_1.c **** *  This function forces a USB J, K, or SE0 state on the D+/D– lines. It provides
2286:.\Generated_Source\PSoC5/USBFS_1.c **** *  the necessary mechanism for a USB device application to perform a USB Remote
2287:.\Generated_Source\PSoC5/USBFS_1.c **** *  Wakeup. For more information, see the USB 2.0 Specification for details on
2288:.\Generated_Source\PSoC5/USBFS_1.c **** *  Suspend and Resume.
2289:.\Generated_Source\PSoC5/USBFS_1.c **** *
2290:.\Generated_Source\PSoC5/USBFS_1.c **** *  \param state A byte indicating which of the four bus states to enable.
2291:.\Generated_Source\PSoC5/USBFS_1.c **** *        Symbolic names  and their associated values are listed here:
2292:.\Generated_Source\PSoC5/USBFS_1.c **** *    State                      |Description
ARM GAS  C:\Users\LUKASC~1\AppData\Local\Temp\ccX4OJiL.s 			page 67


2293:.\Generated_Source\PSoC5/USBFS_1.c **** *    ---------------------------|----------------------------------------------
2294:.\Generated_Source\PSoC5/USBFS_1.c **** *    USBFS_1_FORCE_J   | Force a J State onto the D+/D– lines
2295:.\Generated_Source\PSoC5/USBFS_1.c **** *    USBFS_1_FORCE_K   | Force a K State onto the D+/D– lines
2296:.\Generated_Source\PSoC5/USBFS_1.c **** *    USBFS_1_FORCE_SE0 | Force a Single Ended 0 onto the D+/D– lines
2297:.\Generated_Source\PSoC5/USBFS_1.c **** *    USBFS_1_FORCE_NONE| Return bus to SIE control
2298:.\Generated_Source\PSoC5/USBFS_1.c **** *
2299:.\Generated_Source\PSoC5/USBFS_1.c **** *
2300:.\Generated_Source\PSoC5/USBFS_1.c **** *******************************************************************************/
2301:.\Generated_Source\PSoC5/USBFS_1.c **** void USBFS_1_Force(uint8 bState) 
2302:.\Generated_Source\PSoC5/USBFS_1.c **** {
 1444              		.loc 1 2302 0
 1445              		.cfi_startproc
 1446              		@ args = 0, pretend = 0, frame = 0
 1447              		@ frame_needed = 0, uses_anonymous_args = 0
 1448              		@ link register save eliminated.
 1449              	.LVL121:
2303:.\Generated_Source\PSoC5/USBFS_1.c ****     /* This registers is used only for manual control of SIE (no masking is
2304:.\Generated_Source\PSoC5/USBFS_1.c ****     * needed before write into it).
2305:.\Generated_Source\PSoC5/USBFS_1.c ****     */
2306:.\Generated_Source\PSoC5/USBFS_1.c ****     USBFS_1_USBIO_CR0_REG = bState;
 1450              		.loc 1 2306 0
 1451 0000 014B     		ldr	r3, .L101
 1452 0002 1870     		strb	r0, [r3]
 1453 0004 7047     		bx	lr
 1454              	.L102:
 1455 0006 00BF     		.align	2
 1456              	.L101:
 1457 0008 10600040 		.word	1073766416
 1458              		.cfi_endproc
 1459              	.LFE18:
 1460              		.size	USBFS_1_Force, .-USBFS_1_Force
 1461              		.section	.text.USBFS_1_GetEPAckState,"ax",%progbits
 1462              		.align	2
 1463              		.global	USBFS_1_GetEPAckState
 1464              		.thumb
 1465              		.thumb_func
 1466              		.type	USBFS_1_GetEPAckState, %function
 1467              	USBFS_1_GetEPAckState:
 1468              	.LFB19:
2307:.\Generated_Source\PSoC5/USBFS_1.c **** }
2308:.\Generated_Source\PSoC5/USBFS_1.c **** 
2309:.\Generated_Source\PSoC5/USBFS_1.c **** 
2310:.\Generated_Source\PSoC5/USBFS_1.c **** /*******************************************************************************
2311:.\Generated_Source\PSoC5/USBFS_1.c **** * Function Name: USBFS_1_GetEPAckState
2312:.\Generated_Source\PSoC5/USBFS_1.c **** ****************************************************************************//**
2313:.\Generated_Source\PSoC5/USBFS_1.c **** *
2314:.\Generated_Source\PSoC5/USBFS_1.c **** *  This function determines whether an ACK transaction occurred on this endpoint
2315:.\Generated_Source\PSoC5/USBFS_1.c **** *  by reading the ACK bit in the control register of the endpoint. It does not
2316:.\Generated_Source\PSoC5/USBFS_1.c **** *  clear the ACK bit.
2317:.\Generated_Source\PSoC5/USBFS_1.c **** *
2318:.\Generated_Source\PSoC5/USBFS_1.c **** *  \param epNumber Contains the data endpoint number.
2319:.\Generated_Source\PSoC5/USBFS_1.c **** *            Valid values are between 1 and 8.
2320:.\Generated_Source\PSoC5/USBFS_1.c **** *
2321:.\Generated_Source\PSoC5/USBFS_1.c **** *  \return
2322:.\Generated_Source\PSoC5/USBFS_1.c **** *  If an ACKed transaction occurred, this function returns a non-zero value.
2323:.\Generated_Source\PSoC5/USBFS_1.c **** *  Otherwise, it returns zero.
2324:.\Generated_Source\PSoC5/USBFS_1.c **** *
ARM GAS  C:\Users\LUKASC~1\AppData\Local\Temp\ccX4OJiL.s 			page 68


2325:.\Generated_Source\PSoC5/USBFS_1.c **** *******************************************************************************/
2326:.\Generated_Source\PSoC5/USBFS_1.c **** uint8 USBFS_1_GetEPAckState(uint8 epNumber) 
2327:.\Generated_Source\PSoC5/USBFS_1.c **** {
 1469              		.loc 1 2327 0
 1470              		.cfi_startproc
 1471              		@ args = 0, pretend = 0, frame = 0
 1472              		@ frame_needed = 0, uses_anonymous_args = 0
 1473              		@ link register save eliminated.
 1474              	.LVL122:
2328:.\Generated_Source\PSoC5/USBFS_1.c ****     uint8 cr = 0u;
2329:.\Generated_Source\PSoC5/USBFS_1.c **** 
2330:.\Generated_Source\PSoC5/USBFS_1.c ****     if ((epNumber > USBFS_1_EP0) && (epNumber < USBFS_1_MAX_EP))
 1475              		.loc 1 2330 0
 1476 0000 431E     		subs	r3, r0, #1
 1477 0002 DBB2     		uxtb	r3, r3
 1478 0004 072B     		cmp	r3, #7
 1479 0006 06D8     		bhi	.L105
2331:.\Generated_Source\PSoC5/USBFS_1.c ****     {
2332:.\Generated_Source\PSoC5/USBFS_1.c ****         cr = USBFS_1_SIE_EP_BASE.sieEp[epNumber].epCr0 & USBFS_1_MODE_ACKD;
 1480              		.loc 1 2332 0
 1481 0008 0001     		lsls	r0, r0, #4
 1482              	.LVL123:
 1483 000a 044B     		ldr	r3, .L106
 1484 000c 185C     		ldrb	r0, [r3, r0]	@ zero_extendqisi2
 1485 000e 00F01000 		and	r0, r0, #16
 1486 0012 C0B2     		uxtb	r0, r0
 1487              	.LVL124:
 1488 0014 7047     		bx	lr
 1489              	.LVL125:
 1490              	.L105:
2328:.\Generated_Source\PSoC5/USBFS_1.c ****     uint8 cr = 0u;
 1491              		.loc 1 2328 0
 1492 0016 0020     		movs	r0, #0
 1493              	.LVL126:
2333:.\Generated_Source\PSoC5/USBFS_1.c ****     }
2334:.\Generated_Source\PSoC5/USBFS_1.c **** 
2335:.\Generated_Source\PSoC5/USBFS_1.c ****     return ((uint8) cr);
2336:.\Generated_Source\PSoC5/USBFS_1.c **** }
 1494              		.loc 1 2336 0
 1495 0018 7047     		bx	lr
 1496              	.L107:
 1497 001a 00BF     		.align	2
 1498              	.L106:
 1499 001c FE5F0040 		.word	1073766398
 1500              		.cfi_endproc
 1501              	.LFE19:
 1502              		.size	USBFS_1_GetEPAckState, .-USBFS_1_GetEPAckState
 1503              		.section	.text.USBFS_1_SetPowerStatus,"ax",%progbits
 1504              		.align	2
 1505              		.global	USBFS_1_SetPowerStatus
 1506              		.thumb
 1507              		.thumb_func
 1508              		.type	USBFS_1_SetPowerStatus, %function
 1509              	USBFS_1_SetPowerStatus:
 1510              	.LFB20:
2337:.\Generated_Source\PSoC5/USBFS_1.c **** 
2338:.\Generated_Source\PSoC5/USBFS_1.c **** 
ARM GAS  C:\Users\LUKASC~1\AppData\Local\Temp\ccX4OJiL.s 			page 69


2339:.\Generated_Source\PSoC5/USBFS_1.c **** /*******************************************************************************
2340:.\Generated_Source\PSoC5/USBFS_1.c **** * Function Name: USBFS_1_SetPowerStatus
2341:.\Generated_Source\PSoC5/USBFS_1.c **** ****************************************************************************//**
2342:.\Generated_Source\PSoC5/USBFS_1.c **** *
2343:.\Generated_Source\PSoC5/USBFS_1.c **** *  This function sets the current power status. The device replies to USB
2344:.\Generated_Source\PSoC5/USBFS_1.c **** *  GET_STATUS requests based on this value. This allows the device to properly
2345:.\Generated_Source\PSoC5/USBFS_1.c **** *  report its status for USB Chapter 9 compliance. Devices can change their
2346:.\Generated_Source\PSoC5/USBFS_1.c **** *  power source from self powered to bus powered at any time and report their
2347:.\Generated_Source\PSoC5/USBFS_1.c **** *  current power source as part of the device status. You should call this
2348:.\Generated_Source\PSoC5/USBFS_1.c **** *  function any time your device changes from self powered to bus powered or
2349:.\Generated_Source\PSoC5/USBFS_1.c **** *  vice versa, and set the status appropriately.
2350:.\Generated_Source\PSoC5/USBFS_1.c **** *
2351:.\Generated_Source\PSoC5/USBFS_1.c **** *  \param powerStatus: Contains the desired power status, one for self powered
2352:.\Generated_Source\PSoC5/USBFS_1.c **** *        or zero for bus powered. Symbolic names and their associated values are
2353:.\Generated_Source\PSoC5/USBFS_1.c **** *        given here:
2354:.\Generated_Source\PSoC5/USBFS_1.c **** *  Power Status                                |Description
2355:.\Generated_Source\PSoC5/USBFS_1.c **** *  --------------------------------------------|---------------------------
2356:.\Generated_Source\PSoC5/USBFS_1.c **** *  USBFS_1_DEVICE_STATUS_BUS_POWERED  | Set the device to bus powered
2357:.\Generated_Source\PSoC5/USBFS_1.c **** *  USBFS_1_DEVICE_STATUS_SELF_POWERED | Set the device to self powered
2358:.\Generated_Source\PSoC5/USBFS_1.c **** *
2359:.\Generated_Source\PSoC5/USBFS_1.c **** * \globalvars
2360:.\Generated_Source\PSoC5/USBFS_1.c **** *
2361:.\Generated_Source\PSoC5/USBFS_1.c **** *  \ref USBFS_1_deviceStatus - set power status
2362:.\Generated_Source\PSoC5/USBFS_1.c **** *
2363:.\Generated_Source\PSoC5/USBFS_1.c **** * \reentrant
2364:.\Generated_Source\PSoC5/USBFS_1.c **** *  No.
2365:.\Generated_Source\PSoC5/USBFS_1.c **** *
2366:.\Generated_Source\PSoC5/USBFS_1.c **** *******************************************************************************/
2367:.\Generated_Source\PSoC5/USBFS_1.c **** void USBFS_1_SetPowerStatus(uint8 powerStatus) 
2368:.\Generated_Source\PSoC5/USBFS_1.c **** {
 1511              		.loc 1 2368 0
 1512              		.cfi_startproc
 1513              		@ args = 0, pretend = 0, frame = 0
 1514              		@ frame_needed = 0, uses_anonymous_args = 0
 1515              		@ link register save eliminated.
 1516              	.LVL127:
2369:.\Generated_Source\PSoC5/USBFS_1.c ****     if (powerStatus != USBFS_1_DEVICE_STATUS_BUS_POWERED)
 1517              		.loc 1 2369 0
 1518 0000 28B1     		cbz	r0, .L109
2370:.\Generated_Source\PSoC5/USBFS_1.c ****     {
2371:.\Generated_Source\PSoC5/USBFS_1.c ****         USBFS_1_deviceStatus |= (uint8)  USBFS_1_DEVICE_STATUS_SELF_POWERED;
 1519              		.loc 1 2371 0
 1520 0002 064A     		ldr	r2, .L111
 1521 0004 1378     		ldrb	r3, [r2]	@ zero_extendqisi2
 1522 0006 43F00103 		orr	r3, r3, #1
 1523 000a 1370     		strb	r3, [r2]
 1524 000c 7047     		bx	lr
 1525              	.L109:
2372:.\Generated_Source\PSoC5/USBFS_1.c ****     }
2373:.\Generated_Source\PSoC5/USBFS_1.c ****     else
2374:.\Generated_Source\PSoC5/USBFS_1.c ****     {
2375:.\Generated_Source\PSoC5/USBFS_1.c ****         USBFS_1_deviceStatus &= (uint8) ~USBFS_1_DEVICE_STATUS_SELF_POWERED;
 1526              		.loc 1 2375 0
 1527 000e 034A     		ldr	r2, .L111
 1528 0010 1378     		ldrb	r3, [r2]	@ zero_extendqisi2
 1529 0012 03F0FE03 		and	r3, r3, #254
 1530 0016 1370     		strb	r3, [r2]
ARM GAS  C:\Users\LUKASC~1\AppData\Local\Temp\ccX4OJiL.s 			page 70


 1531 0018 7047     		bx	lr
 1532              	.L112:
 1533 001a 00BF     		.align	2
 1534              	.L111:
 1535 001c 00000000 		.word	USBFS_1_deviceStatus
 1536              		.cfi_endproc
 1537              	.LFE20:
 1538              		.size	USBFS_1_SetPowerStatus, .-USBFS_1_SetPowerStatus
 1539              		.section	.text.USBFS_1_RWUEnabled,"ax",%progbits
 1540              		.align	2
 1541              		.global	USBFS_1_RWUEnabled
 1542              		.thumb
 1543              		.thumb_func
 1544              		.type	USBFS_1_RWUEnabled, %function
 1545              	USBFS_1_RWUEnabled:
 1546              	.LFB21:
2376:.\Generated_Source\PSoC5/USBFS_1.c ****     }
2377:.\Generated_Source\PSoC5/USBFS_1.c **** }
2378:.\Generated_Source\PSoC5/USBFS_1.c **** 
2379:.\Generated_Source\PSoC5/USBFS_1.c **** 
2380:.\Generated_Source\PSoC5/USBFS_1.c **** #if (USBFS_1_VBUS_MONITORING_ENABLE)
2381:.\Generated_Source\PSoC5/USBFS_1.c ****     /***************************************************************************
2382:.\Generated_Source\PSoC5/USBFS_1.c ****     * Function Name: USBFS_1_VBusPresent
2383:.\Generated_Source\PSoC5/USBFS_1.c ****     ************************************************************************//**
2384:.\Generated_Source\PSoC5/USBFS_1.c ****     *
2385:.\Generated_Source\PSoC5/USBFS_1.c ****     *  Determines VBUS presence for self-powered devices. This function is
2386:.\Generated_Source\PSoC5/USBFS_1.c ****     *  available when the VBUS Monitoring option is enabled in the Advanced tab.
2387:.\Generated_Source\PSoC5/USBFS_1.c ****     *
2388:.\Generated_Source\PSoC5/USBFS_1.c ****     * \return
2389:.\Generated_Source\PSoC5/USBFS_1.c ****     *  The return value can be the following:
2390:.\Generated_Source\PSoC5/USBFS_1.c ****     *  Return Value | Description
2391:.\Generated_Source\PSoC5/USBFS_1.c ****     *  -------------|-----------------
2392:.\Generated_Source\PSoC5/USBFS_1.c ****     *  1            | VBUS is present
2393:.\Generated_Source\PSoC5/USBFS_1.c ****     *  0            | VBUS is absent
2394:.\Generated_Source\PSoC5/USBFS_1.c ****     *
2395:.\Generated_Source\PSoC5/USBFS_1.c ****     *
2396:.\Generated_Source\PSoC5/USBFS_1.c ****     ***************************************************************************/
2397:.\Generated_Source\PSoC5/USBFS_1.c ****     uint8 USBFS_1_VBusPresent(void) 
2398:.\Generated_Source\PSoC5/USBFS_1.c ****     {
2399:.\Generated_Source\PSoC5/USBFS_1.c ****         return ((0u != (USBFS_1_VBUS_STATUS_REG & USBFS_1_VBUS_VALID)) ? (uint8) 1u : (uint8) 0u);
2400:.\Generated_Source\PSoC5/USBFS_1.c ****     }
2401:.\Generated_Source\PSoC5/USBFS_1.c **** #endif /* (USBFS_1_VBUS_MONITORING_ENABLE) */
2402:.\Generated_Source\PSoC5/USBFS_1.c **** 
2403:.\Generated_Source\PSoC5/USBFS_1.c **** 
2404:.\Generated_Source\PSoC5/USBFS_1.c **** /*******************************************************************************
2405:.\Generated_Source\PSoC5/USBFS_1.c **** * Function Name: USBFS_1_RWUEnabled
2406:.\Generated_Source\PSoC5/USBFS_1.c **** ****************************************************************************//**
2407:.\Generated_Source\PSoC5/USBFS_1.c **** *
2408:.\Generated_Source\PSoC5/USBFS_1.c **** *  This function returns the current remote wakeup status.
2409:.\Generated_Source\PSoC5/USBFS_1.c **** *  If the device supports remote wakeup, the application should use this
2410:.\Generated_Source\PSoC5/USBFS_1.c **** *  function to determine if remote wakeup was enabled by the host. When the
2411:.\Generated_Source\PSoC5/USBFS_1.c **** *  device is suspended and it determines the conditions to initiate a remote
2412:.\Generated_Source\PSoC5/USBFS_1.c **** *  wakeup are met, the application should use the USBFS_Force() function to
2413:.\Generated_Source\PSoC5/USBFS_1.c **** *  force the appropriate J and K states onto the USB bus, signaling a remote
2414:.\Generated_Source\PSoC5/USBFS_1.c **** *  wakeup.
2415:.\Generated_Source\PSoC5/USBFS_1.c **** *
2416:.\Generated_Source\PSoC5/USBFS_1.c **** *
ARM GAS  C:\Users\LUKASC~1\AppData\Local\Temp\ccX4OJiL.s 			page 71


2417:.\Generated_Source\PSoC5/USBFS_1.c **** * \return
2418:.\Generated_Source\PSoC5/USBFS_1.c **** *  Returns non-zero value if remote wakeup is enabled and zero otherwise.
2419:.\Generated_Source\PSoC5/USBFS_1.c **** *
2420:.\Generated_Source\PSoC5/USBFS_1.c **** * \globalvars
2421:.\Generated_Source\PSoC5/USBFS_1.c **** *  USBFS_1_deviceStatus - checked to determine remote status
2422:.\Generated_Source\PSoC5/USBFS_1.c **** *
2423:.\Generated_Source\PSoC5/USBFS_1.c **** *******************************************************************************/
2424:.\Generated_Source\PSoC5/USBFS_1.c **** uint8 USBFS_1_RWUEnabled(void) 
2425:.\Generated_Source\PSoC5/USBFS_1.c **** {
 1547              		.loc 1 2425 0
 1548              		.cfi_startproc
 1549              		@ args = 0, pretend = 0, frame = 0
 1550              		@ frame_needed = 0, uses_anonymous_args = 0
 1551              		@ link register save eliminated.
 1552              	.LVL128:
2426:.\Generated_Source\PSoC5/USBFS_1.c ****     uint8 result = USBFS_1_FALSE;
2427:.\Generated_Source\PSoC5/USBFS_1.c **** 
2428:.\Generated_Source\PSoC5/USBFS_1.c ****     if (0u != (USBFS_1_deviceStatus & USBFS_1_DEVICE_STATUS_REMOTE_WAKEUP))
 1553              		.loc 1 2428 0
 1554 0000 044B     		ldr	r3, .L116
 1555 0002 1B78     		ldrb	r3, [r3]	@ zero_extendqisi2
 1556 0004 13F0020F 		tst	r3, #2
 1557 0008 01D1     		bne	.L115
2426:.\Generated_Source\PSoC5/USBFS_1.c ****     uint8 result = USBFS_1_FALSE;
 1558              		.loc 1 2426 0
 1559 000a 0020     		movs	r0, #0
 1560 000c 7047     		bx	lr
 1561              	.L115:
2429:.\Generated_Source\PSoC5/USBFS_1.c ****     {
2430:.\Generated_Source\PSoC5/USBFS_1.c ****         result = USBFS_1_TRUE;
 1562              		.loc 1 2430 0
 1563 000e 0120     		movs	r0, #1
 1564              	.LVL129:
2431:.\Generated_Source\PSoC5/USBFS_1.c ****     }
2432:.\Generated_Source\PSoC5/USBFS_1.c **** 
2433:.\Generated_Source\PSoC5/USBFS_1.c ****     return (result);
2434:.\Generated_Source\PSoC5/USBFS_1.c **** }
 1565              		.loc 1 2434 0
 1566 0010 7047     		bx	lr
 1567              	.L117:
 1568 0012 00BF     		.align	2
 1569              	.L116:
 1570 0014 00000000 		.word	USBFS_1_deviceStatus
 1571              		.cfi_endproc
 1572              	.LFE21:
 1573              		.size	USBFS_1_RWUEnabled, .-USBFS_1_RWUEnabled
 1574              		.section	.text.USBFS_1_GetDeviceAddress,"ax",%progbits
 1575              		.align	2
 1576              		.global	USBFS_1_GetDeviceAddress
 1577              		.thumb
 1578              		.thumb_func
 1579              		.type	USBFS_1_GetDeviceAddress, %function
 1580              	USBFS_1_GetDeviceAddress:
 1581              	.LFB22:
2435:.\Generated_Source\PSoC5/USBFS_1.c **** 
2436:.\Generated_Source\PSoC5/USBFS_1.c **** 
2437:.\Generated_Source\PSoC5/USBFS_1.c **** /*******************************************************************************
ARM GAS  C:\Users\LUKASC~1\AppData\Local\Temp\ccX4OJiL.s 			page 72


2438:.\Generated_Source\PSoC5/USBFS_1.c **** * Function Name: USBFS_1_GetDeviceAddress
2439:.\Generated_Source\PSoC5/USBFS_1.c **** ****************************************************************************//**
2440:.\Generated_Source\PSoC5/USBFS_1.c **** *
2441:.\Generated_Source\PSoC5/USBFS_1.c **** *  This function returns the currently assigned address for the USB device.
2442:.\Generated_Source\PSoC5/USBFS_1.c **** *
2443:.\Generated_Source\PSoC5/USBFS_1.c **** * \return
2444:.\Generated_Source\PSoC5/USBFS_1.c **** *  Returns the currently assigned address.
2445:.\Generated_Source\PSoC5/USBFS_1.c **** *  Returns 0 if the device has not yet been assigned an address.
2446:.\Generated_Source\PSoC5/USBFS_1.c **** *
2447:.\Generated_Source\PSoC5/USBFS_1.c **** *******************************************************************************/
2448:.\Generated_Source\PSoC5/USBFS_1.c **** uint8 USBFS_1_GetDeviceAddress(void) 
2449:.\Generated_Source\PSoC5/USBFS_1.c **** {
 1582              		.loc 1 2449 0
 1583              		.cfi_startproc
 1584              		@ args = 0, pretend = 0, frame = 0
 1585              		@ frame_needed = 0, uses_anonymous_args = 0
 1586              		@ link register save eliminated.
2450:.\Generated_Source\PSoC5/USBFS_1.c ****     return (uint8)(USBFS_1_CR0_REG & USBFS_1_CR0_DEVICE_ADDRESS_MASK);
 1587              		.loc 1 2450 0
 1588 0000 024B     		ldr	r3, .L119
 1589 0002 1878     		ldrb	r0, [r3]	@ zero_extendqisi2
2451:.\Generated_Source\PSoC5/USBFS_1.c **** }
 1590              		.loc 1 2451 0
 1591 0004 00F07F00 		and	r0, r0, #127
 1592 0008 7047     		bx	lr
 1593              	.L120:
 1594 000a 00BF     		.align	2
 1595              	.L119:
 1596 000c 08600040 		.word	1073766408
 1597              		.cfi_endproc
 1598              	.LFE22:
 1599              		.size	USBFS_1_GetDeviceAddress, .-USBFS_1_GetDeviceAddress
 1600              		.section	.text.USBFS_1_EnableSofInt,"ax",%progbits
 1601              		.align	2
 1602              		.global	USBFS_1_EnableSofInt
 1603              		.thumb
 1604              		.thumb_func
 1605              		.type	USBFS_1_EnableSofInt, %function
 1606              	USBFS_1_EnableSofInt:
 1607              	.LFB23:
2452:.\Generated_Source\PSoC5/USBFS_1.c **** 
2453:.\Generated_Source\PSoC5/USBFS_1.c **** 
2454:.\Generated_Source\PSoC5/USBFS_1.c **** /*******************************************************************************
2455:.\Generated_Source\PSoC5/USBFS_1.c **** * Function Name: USBFS_1_EnableSofInt
2456:.\Generated_Source\PSoC5/USBFS_1.c **** ****************************************************************************//**
2457:.\Generated_Source\PSoC5/USBFS_1.c **** *
2458:.\Generated_Source\PSoC5/USBFS_1.c **** *  This function enables interrupt generation when a Start-of-Frame (SOF)
2459:.\Generated_Source\PSoC5/USBFS_1.c **** *  packet is received from the host.
2460:.\Generated_Source\PSoC5/USBFS_1.c **** *
2461:.\Generated_Source\PSoC5/USBFS_1.c **** *******************************************************************************/
2462:.\Generated_Source\PSoC5/USBFS_1.c **** void USBFS_1_EnableSofInt(void) 
2463:.\Generated_Source\PSoC5/USBFS_1.c **** {
 1608              		.loc 1 2463 0
 1609              		.cfi_startproc
 1610              		@ args = 0, pretend = 0, frame = 0
 1611              		@ frame_needed = 0, uses_anonymous_args = 0
 1612              		@ link register save eliminated.
ARM GAS  C:\Users\LUKASC~1\AppData\Local\Temp\ccX4OJiL.s 			page 73


 1613 0000 7047     		bx	lr
 1614              		.cfi_endproc
 1615              	.LFE23:
 1616              		.size	USBFS_1_EnableSofInt, .-USBFS_1_EnableSofInt
 1617 0002 00BF     		.section	.text.USBFS_1_DisableSofInt,"ax",%progbits
 1618              		.align	2
 1619              		.global	USBFS_1_DisableSofInt
 1620              		.thumb
 1621              		.thumb_func
 1622              		.type	USBFS_1_DisableSofInt, %function
 1623              	USBFS_1_DisableSofInt:
 1624              	.LFB24:
2464:.\Generated_Source\PSoC5/USBFS_1.c **** #if (CY_PSOC4)
2465:.\Generated_Source\PSoC5/USBFS_1.c ****     /* Enable SOF interrupt interrupt source. */
2466:.\Generated_Source\PSoC5/USBFS_1.c ****     USBFS_1_INTR_SIE_MASK_REG |= (uint32) USBFS_1_INTR_SIE_SOF_INTR;
2467:.\Generated_Source\PSoC5/USBFS_1.c **** #else
2468:.\Generated_Source\PSoC5/USBFS_1.c ****     /* Enable SOF interrupt if it is present. */
2469:.\Generated_Source\PSoC5/USBFS_1.c ****     #if (USBFS_1_SOF_ISR_ACTIVE)
2470:.\Generated_Source\PSoC5/USBFS_1.c ****         CyIntEnable(USBFS_1_SOF_VECT_NUM);
2471:.\Generated_Source\PSoC5/USBFS_1.c ****     #endif /* (USBFS_1_SOF_ISR_ACTIVE) */
2472:.\Generated_Source\PSoC5/USBFS_1.c **** #endif /* (CY_PSOC4) */
2473:.\Generated_Source\PSoC5/USBFS_1.c **** }
2474:.\Generated_Source\PSoC5/USBFS_1.c **** 
2475:.\Generated_Source\PSoC5/USBFS_1.c **** 
2476:.\Generated_Source\PSoC5/USBFS_1.c **** /*******************************************************************************
2477:.\Generated_Source\PSoC5/USBFS_1.c **** * Function Name: USBFS_1_DisableSofInt
2478:.\Generated_Source\PSoC5/USBFS_1.c **** ****************************************************************************//**
2479:.\Generated_Source\PSoC5/USBFS_1.c **** *
2480:.\Generated_Source\PSoC5/USBFS_1.c **** *  This function disables interrupt generation when a Start-of-Frame (SOF)
2481:.\Generated_Source\PSoC5/USBFS_1.c **** *  packet is received from the host.
2482:.\Generated_Source\PSoC5/USBFS_1.c **** *
2483:.\Generated_Source\PSoC5/USBFS_1.c **** *******************************************************************************/
2484:.\Generated_Source\PSoC5/USBFS_1.c **** void USBFS_1_DisableSofInt(void) 
2485:.\Generated_Source\PSoC5/USBFS_1.c **** {
 1625              		.loc 1 2485 0
 1626              		.cfi_startproc
 1627              		@ args = 0, pretend = 0, frame = 0
 1628              		@ frame_needed = 0, uses_anonymous_args = 0
 1629              		@ link register save eliminated.
 1630 0000 7047     		bx	lr
 1631              		.cfi_endproc
 1632              	.LFE24:
 1633              		.size	USBFS_1_DisableSofInt, .-USBFS_1_DisableSofInt
 1634              		.comm	USBFS_1_inBufFull,9,4
 1635              		.comm	USBFS_1_inDataPointer,36,4
 1636              		.comm	USBFS_1_inLength,18,4
 1637              		.global	USBFS_1_epX_TD_TERMOUT_EN
 1638              		.comm	USBFS_1_DmaNextTd,9,4
 1639              		.comm	USBFS_1_DmaTd,9,4
 1640              		.comm	USBFS_1_DmaChan,9,4
 1641              		.global	USBFS_1_initVar
 1642 0002 00BF     		.section	.rodata
 1643              		.align	2
 1644              		.set	.LANCHOR1,. + 0
 1645              		.type	USBFS_1_epX_TD_TERMOUT_EN, %object
 1646              		.size	USBFS_1_epX_TD_TERMOUT_EN, 9
 1647              	USBFS_1_epX_TD_TERMOUT_EN:
ARM GAS  C:\Users\LUKASC~1\AppData\Local\Temp\ccX4OJiL.s 			page 74


 1648 0000 00       		.byte	0
 1649 0001 00       		.byte	0
 1650 0002 04       		.byte	4
 1651 0003 00       		.byte	0
 1652 0004 00       		.byte	0
 1653 0005 00       		.byte	0
 1654 0006 00       		.byte	0
 1655 0007 00       		.byte	0
 1656 0008 00       		.byte	0
 1657 0009 000000   		.data
 1658              		.set	.LANCHOR2,. + 0
 1659              		.type	clearInDataRdyStatus, %object
 1660              		.size	clearInDataRdyStatus, 1
 1661              	clearInDataRdyStatus:
 1662 0000 0C       		.byte	12
 1663              		.bss
 1664              		.set	.LANCHOR0,. + 0
 1665              		.type	USBFS_1_initVar, %object
 1666              		.size	USBFS_1_initVar, 1
 1667              	USBFS_1_initVar:
 1668 0000 00       		.space	1
 1669              		.text
 1670              	.Letext0:
 1671              		.file 2 ".\\Generated_Source\\PSoC5\\cytypes.h"
 1672              		.file 3 ".\\Generated_Source\\PSoC5\\USBFS_1.h"
 1673              		.file 4 "Generated_Source\\PSoC5/CyDmac.h"
 1674              		.file 5 ".\\Generated_Source\\PSoC5\\USBFS_1_pvt.h"
 1675              		.file 6 ".\\Generated_Source\\PSoC5\\CyLib.h"
 1676              		.file 7 ".\\Generated_Source\\PSoC5\\USBFS_1_EP_DMA_Done_isr.h"
 1677              		.file 8 ".\\Generated_Source\\PSoC5\\USBFS_1_EP17_DMA_Done_SR.h"
 1678              		.file 9 ".\\Generated_Source\\PSoC5\\USBFS_1_EP8_DMA_Done_SR.h"
 1679              		.file 10 ".\\Generated_Source\\PSoC5\\USBFS_1_ep2_dma.h"
 1680              		.section	.debug_info,"",%progbits
 1681              	.Ldebug_info0:
 1682 0000 900E0000 		.4byte	0xe90
 1683 0004 0400     		.2byte	0x4
 1684 0006 00000000 		.4byte	.Ldebug_abbrev0
 1685 000a 04       		.byte	0x4
 1686 000b 01       		.uleb128 0x1
 1687 000c 82060000 		.4byte	.LASF131
 1688 0010 01       		.byte	0x1
 1689 0011 EC030000 		.4byte	.LASF132
 1690 0015 D9050000 		.4byte	.LASF133
 1691 0019 00000000 		.4byte	.Ldebug_ranges0+0
 1692 001d 00000000 		.4byte	0
 1693 0021 00000000 		.4byte	.Ldebug_line0
 1694 0025 02       		.uleb128 0x2
 1695 0026 01       		.byte	0x1
 1696 0027 06       		.byte	0x6
 1697 0028 91070000 		.4byte	.LASF0
 1698 002c 02       		.uleb128 0x2
 1699 002d 01       		.byte	0x1
 1700 002e 08       		.byte	0x8
 1701 002f 58060000 		.4byte	.LASF1
 1702 0033 02       		.uleb128 0x2
 1703 0034 02       		.byte	0x2
 1704 0035 05       		.byte	0x5
ARM GAS  C:\Users\LUKASC~1\AppData\Local\Temp\ccX4OJiL.s 			page 75


 1705 0036 9C040000 		.4byte	.LASF2
 1706 003a 02       		.uleb128 0x2
 1707 003b 02       		.byte	0x2
 1708 003c 07       		.byte	0x7
 1709 003d C0070000 		.4byte	.LASF3
 1710 0041 02       		.uleb128 0x2
 1711 0042 04       		.byte	0x4
 1712 0043 05       		.byte	0x5
 1713 0044 C2040000 		.4byte	.LASF4
 1714 0048 02       		.uleb128 0x2
 1715 0049 04       		.byte	0x4
 1716 004a 07       		.byte	0x7
 1717 004b AE050000 		.4byte	.LASF5
 1718 004f 02       		.uleb128 0x2
 1719 0050 08       		.byte	0x8
 1720 0051 05       		.byte	0x5
 1721 0052 74030000 		.4byte	.LASF6
 1722 0056 02       		.uleb128 0x2
 1723 0057 08       		.byte	0x8
 1724 0058 07       		.byte	0x7
 1725 0059 A5010000 		.4byte	.LASF7
 1726 005d 03       		.uleb128 0x3
 1727 005e 04       		.byte	0x4
 1728 005f 05       		.byte	0x5
 1729 0060 696E7400 		.ascii	"int\000"
 1730 0064 02       		.uleb128 0x2
 1731 0065 04       		.byte	0x4
 1732 0066 07       		.byte	0x7
 1733 0067 82000000 		.4byte	.LASF8
 1734 006b 04       		.uleb128 0x4
 1735 006c 1B080000 		.4byte	.LASF9
 1736 0070 02       		.byte	0x2
 1737 0071 3801     		.2byte	0x138
 1738 0073 2C000000 		.4byte	0x2c
 1739 0077 04       		.uleb128 0x4
 1740 0078 FE020000 		.4byte	.LASF10
 1741 007c 02       		.byte	0x2
 1742 007d 3901     		.2byte	0x139
 1743 007f 3A000000 		.4byte	0x3a
 1744 0083 04       		.uleb128 0x4
 1745 0084 19040000 		.4byte	.LASF11
 1746 0088 02       		.byte	0x2
 1747 0089 3A01     		.2byte	0x13a
 1748 008b 48000000 		.4byte	0x48
 1749 008f 02       		.uleb128 0x2
 1750 0090 04       		.byte	0x4
 1751 0091 04       		.byte	0x4
 1752 0092 53010000 		.4byte	.LASF12
 1753 0096 02       		.uleb128 0x2
 1754 0097 08       		.byte	0x8
 1755 0098 04       		.byte	0x4
 1756 0099 21080000 		.4byte	.LASF13
 1757 009d 02       		.uleb128 0x2
 1758 009e 01       		.byte	0x1
 1759 009f 08       		.byte	0x8
 1760 00a0 93020000 		.4byte	.LASF14
 1761 00a4 04       		.uleb128 0x4
ARM GAS  C:\Users\LUKASC~1\AppData\Local\Temp\ccX4OJiL.s 			page 76


 1762 00a5 47060000 		.4byte	.LASF15
 1763 00a9 02       		.byte	0x2
 1764 00aa DA01     		.2byte	0x1da
 1765 00ac 48000000 		.4byte	0x48
 1766 00b0 04       		.uleb128 0x4
 1767 00b1 DE000000 		.4byte	.LASF16
 1768 00b5 02       		.byte	0x2
 1769 00b6 E201     		.2byte	0x1e2
 1770 00b8 BC000000 		.4byte	0xbc
 1771 00bc 05       		.uleb128 0x5
 1772 00bd 6B000000 		.4byte	0x6b
 1773 00c1 04       		.uleb128 0x4
 1774 00c2 97030000 		.4byte	.LASF17
 1775 00c6 02       		.byte	0x2
 1776 00c7 E301     		.2byte	0x1e3
 1777 00c9 CD000000 		.4byte	0xcd
 1778 00cd 05       		.uleb128 0x5
 1779 00ce 77000000 		.4byte	0x77
 1780 00d2 04       		.uleb128 0x4
 1781 00d3 49040000 		.4byte	.LASF18
 1782 00d7 02       		.byte	0x2
 1783 00d8 E401     		.2byte	0x1e4
 1784 00da DE000000 		.4byte	0xde
 1785 00de 05       		.uleb128 0x5
 1786 00df 83000000 		.4byte	0x83
 1787 00e3 04       		.uleb128 0x4
 1788 00e4 DF030000 		.4byte	.LASF19
 1789 00e8 02       		.byte	0x2
 1790 00e9 F401     		.2byte	0x1f4
 1791 00eb EF000000 		.4byte	0xef
 1792 00ef 06       		.uleb128 0x6
 1793 00f0 04       		.byte	0x4
 1794 00f1 F5000000 		.4byte	0xf5
 1795 00f5 07       		.uleb128 0x7
 1796 00f6 02       		.uleb128 0x2
 1797 00f7 04       		.byte	0x4
 1798 00f8 07       		.byte	0x7
 1799 00f9 A5050000 		.4byte	.LASF20
 1800 00fd 08       		.uleb128 0x8
 1801 00fe 0C       		.byte	0xc
 1802 00ff 03       		.byte	0x3
 1803 0100 8C       		.byte	0x8c
 1804 0101 72010000 		.4byte	0x172
 1805 0105 09       		.uleb128 0x9
 1806 0106 48080000 		.4byte	.LASF21
 1807 010a 03       		.byte	0x3
 1808 010b 8E       		.byte	0x8e
 1809 010c 6B000000 		.4byte	0x6b
 1810 0110 00       		.byte	0
 1811 0111 09       		.uleb128 0x9
 1812 0112 4F080000 		.4byte	.LASF22
 1813 0116 03       		.byte	0x3
 1814 0117 8F       		.byte	0x8f
 1815 0118 6B000000 		.4byte	0x6b
 1816 011c 01       		.byte	0x1
 1817 011d 09       		.uleb128 0x9
 1818 011e 0F040000 		.4byte	.LASF23
ARM GAS  C:\Users\LUKASC~1\AppData\Local\Temp\ccX4OJiL.s 			page 77


 1819 0122 03       		.byte	0x3
 1820 0123 90       		.byte	0x90
 1821 0124 6B000000 		.4byte	0x6b
 1822 0128 02       		.byte	0x2
 1823 0129 09       		.uleb128 0x9
 1824 012a 36010000 		.4byte	.LASF24
 1825 012e 03       		.byte	0x3
 1826 012f 91       		.byte	0x91
 1827 0130 6B000000 		.4byte	0x6b
 1828 0134 03       		.byte	0x3
 1829 0135 09       		.uleb128 0x9
 1830 0136 38070000 		.4byte	.LASF25
 1831 013a 03       		.byte	0x3
 1832 013b 92       		.byte	0x92
 1833 013c 6B000000 		.4byte	0x6b
 1834 0140 04       		.byte	0x4
 1835 0141 09       		.uleb128 0x9
 1836 0142 BB040000 		.4byte	.LASF26
 1837 0146 03       		.byte	0x3
 1838 0147 93       		.byte	0x93
 1839 0148 6B000000 		.4byte	0x6b
 1840 014c 05       		.byte	0x5
 1841 014d 09       		.uleb128 0x9
 1842 014e 34030000 		.4byte	.LASF27
 1843 0152 03       		.byte	0x3
 1844 0153 94       		.byte	0x94
 1845 0154 77000000 		.4byte	0x77
 1846 0158 06       		.byte	0x6
 1847 0159 09       		.uleb128 0x9
 1848 015a 16000000 		.4byte	.LASF28
 1849 015e 03       		.byte	0x3
 1850 015f 95       		.byte	0x95
 1851 0160 77000000 		.4byte	0x77
 1852 0164 08       		.byte	0x8
 1853 0165 09       		.uleb128 0x9
 1854 0166 78000000 		.4byte	.LASF29
 1855 016a 03       		.byte	0x3
 1856 016b 96       		.byte	0x96
 1857 016c 6B000000 		.4byte	0x6b
 1858 0170 0A       		.byte	0xa
 1859 0171 00       		.byte	0
 1860 0172 0A       		.uleb128 0xa
 1861 0173 BC010000 		.4byte	.LASF30
 1862 0177 03       		.byte	0x3
 1863 0178 97       		.byte	0x97
 1864 0179 FD000000 		.4byte	0xfd
 1865 017d 08       		.uleb128 0x8
 1866 017e 10       		.byte	0x10
 1867 017f 03       		.byte	0x3
 1868 0180 D3       		.byte	0xd3
 1869 0181 B6010000 		.4byte	0x1b6
 1870 0185 09       		.uleb128 0x9
 1871 0186 9D030000 		.4byte	.LASF31
 1872 018a 03       		.byte	0x3
 1873 018b D5       		.byte	0xd5
 1874 018c 6B000000 		.4byte	0x6b
 1875 0190 00       		.byte	0
ARM GAS  C:\Users\LUKASC~1\AppData\Local\Temp\ccX4OJiL.s 			page 78


 1876 0191 09       		.uleb128 0x9
 1877 0192 A4030000 		.4byte	.LASF32
 1878 0196 03       		.byte	0x3
 1879 0197 D6       		.byte	0xd6
 1880 0198 6B000000 		.4byte	0x6b
 1881 019c 01       		.byte	0x1
 1882 019d 09       		.uleb128 0x9
 1883 019e 3F030000 		.4byte	.LASF33
 1884 01a2 03       		.byte	0x3
 1885 01a3 D7       		.byte	0xd7
 1886 01a4 6B000000 		.4byte	0x6b
 1887 01a8 02       		.byte	0x2
 1888 01a9 0B       		.uleb128 0xb
 1889 01aa 67617000 		.ascii	"gap\000"
 1890 01ae 03       		.byte	0x3
 1891 01af D8       		.byte	0xd8
 1892 01b0 B6010000 		.4byte	0x1b6
 1893 01b4 03       		.byte	0x3
 1894 01b5 00       		.byte	0
 1895 01b6 0C       		.uleb128 0xc
 1896 01b7 6B000000 		.4byte	0x6b
 1897 01bb C6010000 		.4byte	0x1c6
 1898 01bf 0D       		.uleb128 0xd
 1899 01c0 F6000000 		.4byte	0xf6
 1900 01c4 0C       		.byte	0xc
 1901 01c5 00       		.byte	0
 1902 01c6 0A       		.uleb128 0xa
 1903 01c7 9F000000 		.4byte	.LASF34
 1904 01cb 03       		.byte	0x3
 1905 01cc D9       		.byte	0xd9
 1906 01cd 7D010000 		.4byte	0x17d
 1907 01d1 08       		.uleb128 0x8
 1908 01d2 10       		.byte	0x10
 1909 01d3 03       		.byte	0x3
 1910 01d4 E5       		.byte	0xe5
 1911 01d5 52020000 		.4byte	0x252
 1912 01d9 09       		.uleb128 0x9
 1913 01da 2E050000 		.4byte	.LASF35
 1914 01de 03       		.byte	0x3
 1915 01df E7       		.byte	0xe7
 1916 01e0 6B000000 		.4byte	0x6b
 1917 01e4 00       		.byte	0
 1918 01e5 09       		.uleb128 0x9
 1919 01e6 21020000 		.4byte	.LASF36
 1920 01ea 03       		.byte	0x3
 1921 01eb E8       		.byte	0xe8
 1922 01ec 6B000000 		.4byte	0x6b
 1923 01f0 01       		.byte	0x1
 1924 01f1 09       		.uleb128 0x9
 1925 01f2 42060000 		.4byte	.LASF37
 1926 01f6 03       		.byte	0x3
 1927 01f7 E9       		.byte	0xe9
 1928 01f8 6B000000 		.4byte	0x6b
 1929 01fc 02       		.byte	0x2
 1930 01fd 09       		.uleb128 0x9
 1931 01fe 12080000 		.4byte	.LASF38
 1932 0202 03       		.byte	0x3
ARM GAS  C:\Users\LUKASC~1\AppData\Local\Temp\ccX4OJiL.s 			page 79


 1933 0203 EA       		.byte	0xea
 1934 0204 6B000000 		.4byte	0x6b
 1935 0208 03       		.byte	0x3
 1936 0209 09       		.uleb128 0x9
 1937 020a 8F010000 		.4byte	.LASF39
 1938 020e 03       		.byte	0x3
 1939 020f EB       		.byte	0xeb
 1940 0210 6B000000 		.4byte	0x6b
 1941 0214 04       		.byte	0x4
 1942 0215 09       		.uleb128 0x9
 1943 0216 50060000 		.4byte	.LASF40
 1944 021a 03       		.byte	0x3
 1945 021b EC       		.byte	0xec
 1946 021c 6B000000 		.4byte	0x6b
 1947 0220 05       		.byte	0x5
 1948 0221 09       		.uleb128 0x9
 1949 0222 8C070000 		.4byte	.LASF41
 1950 0226 03       		.byte	0x3
 1951 0227 ED       		.byte	0xed
 1952 0228 6B000000 		.4byte	0x6b
 1953 022c 06       		.byte	0x6
 1954 022d 09       		.uleb128 0x9
 1955 022e 1F050000 		.4byte	.LASF42
 1956 0232 03       		.byte	0x3
 1957 0233 EE       		.byte	0xee
 1958 0234 6B000000 		.4byte	0x6b
 1959 0238 07       		.byte	0x7
 1960 0239 09       		.uleb128 0x9
 1961 023a 00000000 		.4byte	.LASF43
 1962 023e 03       		.byte	0x3
 1963 023f EF       		.byte	0xef
 1964 0240 6B000000 		.4byte	0x6b
 1965 0244 08       		.byte	0x8
 1966 0245 0B       		.uleb128 0xb
 1967 0246 67617000 		.ascii	"gap\000"
 1968 024a 03       		.byte	0x3
 1969 024b F0       		.byte	0xf0
 1970 024c 52020000 		.4byte	0x252
 1971 0250 09       		.byte	0x9
 1972 0251 00       		.byte	0
 1973 0252 0C       		.uleb128 0xc
 1974 0253 6B000000 		.4byte	0x6b
 1975 0257 62020000 		.4byte	0x262
 1976 025b 0D       		.uleb128 0xd
 1977 025c F6000000 		.4byte	0xf6
 1978 0260 06       		.byte	0x6
 1979 0261 00       		.byte	0
 1980 0262 0A       		.uleb128 0xa
 1981 0263 4D070000 		.4byte	.LASF44
 1982 0267 03       		.byte	0x3
 1983 0268 F1       		.byte	0xf1
 1984 0269 D1010000 		.4byte	0x1d1
 1985 026d 0E       		.uleb128 0xe
 1986 026e 90       		.byte	0x90
 1987 026f 03       		.byte	0x3
 1988 0270 0D01     		.2byte	0x10d
 1989 0272 84020000 		.4byte	0x284
ARM GAS  C:\Users\LUKASC~1\AppData\Local\Temp\ccX4OJiL.s 			page 80


 1990 0276 0F       		.uleb128 0xf
 1991 0277 3C000000 		.4byte	.LASF45
 1992 027b 03       		.byte	0x3
 1993 027c 0F01     		.2byte	0x10f
 1994 027e 84020000 		.4byte	0x284
 1995 0282 00       		.byte	0
 1996 0283 00       		.byte	0
 1997 0284 0C       		.uleb128 0xc
 1998 0285 C6010000 		.4byte	0x1c6
 1999 0289 94020000 		.4byte	0x294
 2000 028d 0D       		.uleb128 0xd
 2001 028e F6000000 		.4byte	0xf6
 2002 0292 08       		.byte	0x8
 2003 0293 00       		.byte	0
 2004 0294 04       		.uleb128 0x4
 2005 0295 59010000 		.4byte	.LASF46
 2006 0299 03       		.byte	0x3
 2007 029a 1001     		.2byte	0x110
 2008 029c 6D020000 		.4byte	0x26d
 2009 02a0 0E       		.uleb128 0xe
 2010 02a1 90       		.byte	0x90
 2011 02a2 03       		.byte	0x3
 2012 02a3 1301     		.2byte	0x113
 2013 02a5 B7020000 		.4byte	0x2b7
 2014 02a9 0F       		.uleb128 0xf
 2015 02aa ED020000 		.4byte	.LASF47
 2016 02ae 03       		.byte	0x3
 2017 02af 1501     		.2byte	0x115
 2018 02b1 B7020000 		.4byte	0x2b7
 2019 02b5 00       		.byte	0
 2020 02b6 00       		.byte	0
 2021 02b7 0C       		.uleb128 0xc
 2022 02b8 62020000 		.4byte	0x262
 2023 02bc C7020000 		.4byte	0x2c7
 2024 02c0 0D       		.uleb128 0xd
 2025 02c1 F6000000 		.4byte	0xf6
 2026 02c5 08       		.byte	0x8
 2027 02c6 00       		.byte	0
 2028 02c7 04       		.uleb128 0x4
 2029 02c8 E9070000 		.4byte	.LASF48
 2030 02cc 03       		.byte	0x3
 2031 02cd 1601     		.2byte	0x116
 2032 02cf A0020000 		.4byte	0x2a0
 2033 02d3 10       		.uleb128 0x10
 2034 02d4 9D070000 		.4byte	.LASF53
 2035 02d8 10       		.byte	0x10
 2036 02d9 04       		.byte	0x4
 2037 02da 48       		.byte	0x48
 2038 02db 10030000 		.4byte	0x310
 2039 02df 09       		.uleb128 0x9
 2040 02e0 2A030000 		.4byte	.LASF49
 2041 02e4 04       		.byte	0x4
 2042 02e5 4A       		.byte	0x4a
 2043 02e6 20030000 		.4byte	0x320
 2044 02ea 00       		.byte	0
 2045 02eb 09       		.uleb128 0x9
 2046 02ec 27050000 		.4byte	.LASF50
ARM GAS  C:\Users\LUKASC~1\AppData\Local\Temp\ccX4OJiL.s 			page 81


 2047 02f0 04       		.byte	0x4
 2048 02f1 4B       		.byte	0x4b
 2049 02f2 25030000 		.4byte	0x325
 2050 02f6 04       		.byte	0x4
 2051 02f7 09       		.uleb128 0x9
 2052 02f8 6B000000 		.4byte	.LASF51
 2053 02fc 04       		.byte	0x4
 2054 02fd 4C       		.byte	0x4c
 2055 02fe 2A030000 		.4byte	0x32a
 2056 0302 08       		.byte	0x8
 2057 0303 09       		.uleb128 0x9
 2058 0304 12080000 		.4byte	.LASF38
 2059 0308 04       		.byte	0x4
 2060 0309 4D       		.byte	0x4d
 2061 030a 2F030000 		.4byte	0x32f
 2062 030e 0C       		.byte	0xc
 2063 030f 00       		.byte	0
 2064 0310 0C       		.uleb128 0xc
 2065 0311 6B000000 		.4byte	0x6b
 2066 0315 20030000 		.4byte	0x320
 2067 0319 0D       		.uleb128 0xd
 2068 031a F6000000 		.4byte	0xf6
 2069 031e 03       		.byte	0x3
 2070 031f 00       		.byte	0
 2071 0320 05       		.uleb128 0x5
 2072 0321 10030000 		.4byte	0x310
 2073 0325 05       		.uleb128 0x5
 2074 0326 10030000 		.4byte	0x310
 2075 032a 05       		.uleb128 0x5
 2076 032b 10030000 		.4byte	0x310
 2077 032f 05       		.uleb128 0x5
 2078 0330 10030000 		.4byte	0x310
 2079 0334 0A       		.uleb128 0xa
 2080 0335 30070000 		.4byte	.LASF52
 2081 0339 04       		.byte	0x4
 2082 033a 4F       		.byte	0x4f
 2083 033b D3020000 		.4byte	0x2d3
 2084 033f 10       		.uleb128 0x10
 2085 0340 28080000 		.4byte	.LASF54
 2086 0344 08       		.byte	0x8
 2087 0345 04       		.byte	0x4
 2088 0346 5A       		.byte	0x5a
 2089 0347 64030000 		.4byte	0x364
 2090 034b 0B       		.uleb128 0xb
 2091 034c 54443000 		.ascii	"TD0\000"
 2092 0350 04       		.byte	0x4
 2093 0351 5C       		.byte	0x5c
 2094 0352 64030000 		.4byte	0x364
 2095 0356 00       		.byte	0
 2096 0357 0B       		.uleb128 0xb
 2097 0358 54443100 		.ascii	"TD1\000"
 2098 035c 04       		.byte	0x4
 2099 035d 5D       		.byte	0x5d
 2100 035e 69030000 		.4byte	0x369
 2101 0362 04       		.byte	0x4
 2102 0363 00       		.byte	0
 2103 0364 05       		.uleb128 0x5
ARM GAS  C:\Users\LUKASC~1\AppData\Local\Temp\ccX4OJiL.s 			page 82


 2104 0365 10030000 		.4byte	0x310
 2105 0369 05       		.uleb128 0x5
 2106 036a 10030000 		.4byte	0x310
 2107 036e 0A       		.uleb128 0xa
 2108 036f F3020000 		.4byte	.LASF55
 2109 0373 04       		.byte	0x4
 2110 0374 5F       		.byte	0x5f
 2111 0375 3F030000 		.4byte	0x33f
 2112 0379 11       		.uleb128 0x11
 2113 037a 23070000 		.4byte	.LASF57
 2114 037e 01       		.byte	0x1
 2115 037f D2       		.byte	0xd2
 2116 0380 00000000 		.4byte	.LFB1
 2117 0384 34010000 		.4byte	.LFE1-.LFB1
 2118 0388 01       		.uleb128 0x1
 2119 0389 9C       		.byte	0x9c
 2120 038a EC040000 		.4byte	0x4ec
 2121 038e 12       		.uleb128 0x12
 2122 038f BA080000 		.4byte	.LASF56
 2123 0393 01       		.byte	0x1
 2124 0394 F9       		.byte	0xf9
 2125 0395 6B000000 		.4byte	0x6b
 2126 0399 00000000 		.4byte	.LLST0
 2127 039d 13       		.uleb128 0x13
 2128 039e 6900     		.ascii	"i\000"
 2129 03a0 01       		.byte	0x1
 2130 03a1 FC       		.byte	0xfc
 2131 03a2 77000000 		.4byte	0x77
 2132 03a6 13000000 		.4byte	.LLST1
 2133 03aa 14       		.uleb128 0x14
 2134 03ab 06000000 		.4byte	.LVL0
 2135 03af 290D0000 		.4byte	0xd29
 2136 03b3 15       		.uleb128 0x15
 2137 03b4 3C000000 		.4byte	.LVL2
 2138 03b8 340D0000 		.4byte	0xd34
 2139 03bc C6030000 		.4byte	0x3c6
 2140 03c0 16       		.uleb128 0x16
 2141 03c1 01       		.uleb128 0x1
 2142 03c2 50       		.byte	0x50
 2143 03c3 01       		.uleb128 0x1
 2144 03c4 30       		.byte	0x30
 2145 03c5 00       		.byte	0
 2146 03c6 15       		.uleb128 0x15
 2147 03c7 5C000000 		.4byte	.LVL3
 2148 03cb 340D0000 		.4byte	0xd34
 2149 03cf DA030000 		.4byte	0x3da
 2150 03d3 16       		.uleb128 0x16
 2151 03d4 01       		.uleb128 0x1
 2152 03d5 50       		.byte	0x50
 2153 03d6 02       		.uleb128 0x2
 2154 03d7 77       		.byte	0x77
 2155 03d8 00       		.sleb128 0
 2156 03d9 00       		.byte	0
 2157 03da 15       		.uleb128 0x15
 2158 03db 62000000 		.4byte	.LVL4
 2159 03df 340D0000 		.4byte	0xd34
 2160 03e3 EE030000 		.4byte	0x3ee
ARM GAS  C:\Users\LUKASC~1\AppData\Local\Temp\ccX4OJiL.s 			page 83


 2161 03e7 16       		.uleb128 0x16
 2162 03e8 01       		.uleb128 0x1
 2163 03e9 50       		.byte	0x50
 2164 03ea 02       		.uleb128 0x2
 2165 03eb 08       		.byte	0x8
 2166 03ec 28       		.byte	0x28
 2167 03ed 00       		.byte	0
 2168 03ee 15       		.uleb128 0x15
 2169 03ef 80000000 		.4byte	.LVL5
 2170 03f3 340D0000 		.4byte	0xd34
 2171 03f7 02040000 		.4byte	0x402
 2172 03fb 16       		.uleb128 0x16
 2173 03fc 01       		.uleb128 0x1
 2174 03fd 50       		.byte	0x50
 2175 03fe 02       		.uleb128 0x2
 2176 03ff 76       		.byte	0x76
 2177 0400 00       		.sleb128 0
 2178 0401 00       		.byte	0
 2179 0402 15       		.uleb128 0x15
 2180 0403 AC000000 		.4byte	.LVL10
 2181 0407 450D0000 		.4byte	0xd45
 2182 040b 16040000 		.4byte	0x416
 2183 040f 16       		.uleb128 0x16
 2184 0410 01       		.uleb128 0x1
 2185 0411 50       		.byte	0x50
 2186 0412 02       		.uleb128 0x2
 2187 0413 75       		.byte	0x75
 2188 0414 00       		.sleb128 0
 2189 0415 00       		.byte	0
 2190 0416 15       		.uleb128 0x15
 2191 0417 B4000000 		.4byte	.LVL11
 2192 041b 560D0000 		.4byte	0xd56
 2193 041f 2E040000 		.4byte	0x42e
 2194 0423 16       		.uleb128 0x16
 2195 0424 01       		.uleb128 0x1
 2196 0425 51       		.byte	0x51
 2197 0426 01       		.uleb128 0x1
 2198 0427 37       		.byte	0x37
 2199 0428 16       		.uleb128 0x16
 2200 0429 01       		.uleb128 0x1
 2201 042a 50       		.byte	0x50
 2202 042b 01       		.uleb128 0x1
 2203 042c 47       		.byte	0x47
 2204 042d 00       		.byte	0
 2205 042e 15       		.uleb128 0x15
 2206 042f BC000000 		.4byte	.LVL12
 2207 0433 6C0D0000 		.4byte	0xd6c
 2208 0437 41040000 		.4byte	0x441
 2209 043b 16       		.uleb128 0x16
 2210 043c 01       		.uleb128 0x1
 2211 043d 50       		.byte	0x50
 2212 043e 01       		.uleb128 0x1
 2213 043f 47       		.byte	0x47
 2214 0440 00       		.byte	0
 2215 0441 15       		.uleb128 0x15
 2216 0442 C4000000 		.4byte	.LVL13
 2217 0446 560D0000 		.4byte	0xd56
ARM GAS  C:\Users\LUKASC~1\AppData\Local\Temp\ccX4OJiL.s 			page 84


 2218 044a 59040000 		.4byte	0x459
 2219 044e 16       		.uleb128 0x16
 2220 044f 01       		.uleb128 0x1
 2221 0450 51       		.byte	0x51
 2222 0451 01       		.uleb128 0x1
 2223 0452 37       		.byte	0x37
 2224 0453 16       		.uleb128 0x16
 2225 0454 01       		.uleb128 0x1
 2226 0455 50       		.byte	0x50
 2227 0456 01       		.uleb128 0x1
 2228 0457 48       		.byte	0x48
 2229 0458 00       		.byte	0
 2230 0459 15       		.uleb128 0x15
 2231 045a CC000000 		.4byte	.LVL14
 2232 045e 6C0D0000 		.4byte	0xd6c
 2233 0462 6C040000 		.4byte	0x46c
 2234 0466 16       		.uleb128 0x16
 2235 0467 01       		.uleb128 0x1
 2236 0468 50       		.byte	0x50
 2237 0469 01       		.uleb128 0x1
 2238 046a 48       		.byte	0x48
 2239 046b 00       		.byte	0
 2240 046c 15       		.uleb128 0x15
 2241 046d D4000000 		.4byte	.LVL15
 2242 0471 560D0000 		.4byte	0xd56
 2243 0475 85040000 		.4byte	0x485
 2244 0479 16       		.uleb128 0x16
 2245 047a 01       		.uleb128 0x1
 2246 047b 51       		.byte	0x51
 2247 047c 01       		.uleb128 0x1
 2248 047d 37       		.byte	0x37
 2249 047e 16       		.uleb128 0x16
 2250 047f 01       		.uleb128 0x1
 2251 0480 50       		.byte	0x50
 2252 0481 02       		.uleb128 0x2
 2253 0482 77       		.byte	0x77
 2254 0483 00       		.sleb128 0
 2255 0484 00       		.byte	0
 2256 0485 15       		.uleb128 0x15
 2257 0486 DC000000 		.4byte	.LVL16
 2258 048a 6C0D0000 		.4byte	0xd6c
 2259 048e 99040000 		.4byte	0x499
 2260 0492 16       		.uleb128 0x16
 2261 0493 01       		.uleb128 0x1
 2262 0494 50       		.byte	0x50
 2263 0495 02       		.uleb128 0x2
 2264 0496 77       		.byte	0x77
 2265 0497 00       		.sleb128 0
 2266 0498 00       		.byte	0
 2267 0499 15       		.uleb128 0x15
 2268 049a E4000000 		.4byte	.LVL17
 2269 049e 560D0000 		.4byte	0xd56
 2270 04a2 B1040000 		.4byte	0x4b1
 2271 04a6 16       		.uleb128 0x16
 2272 04a7 01       		.uleb128 0x1
 2273 04a8 51       		.byte	0x51
 2274 04a9 01       		.uleb128 0x1
ARM GAS  C:\Users\LUKASC~1\AppData\Local\Temp\ccX4OJiL.s 			page 85


 2275 04aa 30       		.byte	0x30
 2276 04ab 16       		.uleb128 0x16
 2277 04ac 01       		.uleb128 0x1
 2278 04ad 50       		.byte	0x50
 2279 04ae 01       		.uleb128 0x1
 2280 04af 46       		.byte	0x46
 2281 04b0 00       		.byte	0
 2282 04b1 15       		.uleb128 0x15
 2283 04b2 EC000000 		.4byte	.LVL18
 2284 04b6 6C0D0000 		.4byte	0xd6c
 2285 04ba C4040000 		.4byte	0x4c4
 2286 04be 16       		.uleb128 0x16
 2287 04bf 01       		.uleb128 0x1
 2288 04c0 50       		.byte	0x50
 2289 04c1 01       		.uleb128 0x1
 2290 04c2 46       		.byte	0x46
 2291 04c3 00       		.byte	0
 2292 04c4 15       		.uleb128 0x15
 2293 04c5 F4000000 		.4byte	.LVL19
 2294 04c9 560D0000 		.4byte	0xd56
 2295 04cd DC040000 		.4byte	0x4dc
 2296 04d1 16       		.uleb128 0x16
 2297 04d2 01       		.uleb128 0x1
 2298 04d3 51       		.byte	0x51
 2299 04d4 01       		.uleb128 0x1
 2300 04d5 37       		.byte	0x37
 2301 04d6 16       		.uleb128 0x16
 2302 04d7 01       		.uleb128 0x1
 2303 04d8 50       		.byte	0x50
 2304 04d9 01       		.uleb128 0x1
 2305 04da 3C       		.byte	0x3c
 2306 04db 00       		.byte	0
 2307 04dc 17       		.uleb128 0x17
 2308 04dd FC000000 		.4byte	.LVL20
 2309 04e1 6C0D0000 		.4byte	0xd6c
 2310 04e5 16       		.uleb128 0x16
 2311 04e6 01       		.uleb128 0x1
 2312 04e7 50       		.byte	0x50
 2313 04e8 01       		.uleb128 0x1
 2314 04e9 3C       		.byte	0x3c
 2315 04ea 00       		.byte	0
 2316 04eb 00       		.byte	0
 2317 04ec 18       		.uleb128 0x18
 2318 04ed 21000000 		.4byte	.LASF58
 2319 04f1 01       		.byte	0x1
 2320 04f2 CB01     		.2byte	0x1cb
 2321 04f4 00000000 		.4byte	.LFB2
 2322 04f8 D8000000 		.4byte	.LFE2-.LFB2
 2323 04fc 01       		.uleb128 0x1
 2324 04fd 9C       		.byte	0x9c
 2325 04fe 4D050000 		.4byte	0x54d
 2326 0502 19       		.uleb128 0x19
 2327 0503 20010000 		.4byte	.LASF59
 2328 0507 01       		.byte	0x1
 2329 0508 CB01     		.2byte	0x1cb
 2330 050a 6B000000 		.4byte	0x6b
 2331 050e 3D000000 		.4byte	.LLST2
ARM GAS  C:\Users\LUKASC~1\AppData\Local\Temp\ccX4OJiL.s 			page 86


 2332 0512 19       		.uleb128 0x19
 2333 0513 FA000000 		.4byte	.LASF60
 2334 0517 01       		.byte	0x1
 2335 0518 CB01     		.2byte	0x1cb
 2336 051a 6B000000 		.4byte	0x6b
 2337 051e 5E000000 		.4byte	.LLST3
 2338 0522 14       		.uleb128 0x14
 2339 0523 4E000000 		.4byte	.LVL25
 2340 0527 860D0000 		.4byte	0xd86
 2341 052b 14       		.uleb128 0x14
 2342 052c 52000000 		.4byte	.LVL26
 2343 0530 970D0000 		.4byte	0xd97
 2344 0534 14       		.uleb128 0x14
 2345 0535 56000000 		.4byte	.LVL27
 2346 0539 9E0D0000 		.4byte	0xd9e
 2347 053d 17       		.uleb128 0x17
 2348 053e 92000000 		.4byte	.LVL28
 2349 0542 A50D0000 		.4byte	0xda5
 2350 0546 16       		.uleb128 0x16
 2351 0547 01       		.uleb128 0x1
 2352 0548 50       		.byte	0x50
 2353 0549 01       		.uleb128 0x1
 2354 054a 31       		.byte	0x31
 2355 054b 00       		.byte	0
 2356 054c 00       		.byte	0
 2357 054d 11       		.uleb128 0x11
 2358 054e 3A080000 		.4byte	.LASF61
 2359 0552 01       		.byte	0x1
 2360 0553 B9       		.byte	0xb9
 2361 0554 00000000 		.4byte	.LFB0
 2362 0558 24000000 		.4byte	.LFE0-.LFB0
 2363 055c 01       		.uleb128 0x1
 2364 055d 9C       		.byte	0x9c
 2365 055e A0050000 		.4byte	0x5a0
 2366 0562 1A       		.uleb128 0x1a
 2367 0563 20010000 		.4byte	.LASF59
 2368 0567 01       		.byte	0x1
 2369 0568 B9       		.byte	0xb9
 2370 0569 6B000000 		.4byte	0x6b
 2371 056d 7F000000 		.4byte	.LLST4
 2372 0571 1A       		.uleb128 0x1a
 2373 0572 FA000000 		.4byte	.LASF60
 2374 0576 01       		.byte	0x1
 2375 0577 B9       		.byte	0xb9
 2376 0578 6B000000 		.4byte	0x6b
 2377 057c A0000000 		.4byte	.LLST5
 2378 0580 14       		.uleb128 0x14
 2379 0581 10000000 		.4byte	.LVL30
 2380 0585 79030000 		.4byte	0x379
 2381 0589 17       		.uleb128 0x17
 2382 058a 1E000000 		.4byte	.LVL31
 2383 058e EC040000 		.4byte	0x4ec
 2384 0592 16       		.uleb128 0x16
 2385 0593 01       		.uleb128 0x1
 2386 0594 51       		.byte	0x51
 2387 0595 02       		.uleb128 0x2
 2388 0596 74       		.byte	0x74
ARM GAS  C:\Users\LUKASC~1\AppData\Local\Temp\ccX4OJiL.s 			page 87


 2389 0597 00       		.sleb128 0
 2390 0598 16       		.uleb128 0x16
 2391 0599 01       		.uleb128 0x1
 2392 059a 50       		.byte	0x50
 2393 059b 02       		.uleb128 0x2
 2394 059c 75       		.byte	0x75
 2395 059d 00       		.sleb128 0
 2396 059e 00       		.byte	0
 2397 059f 00       		.byte	0
 2398 05a0 1B       		.uleb128 0x1b
 2399 05a1 5D050000 		.4byte	.LASF91
 2400 05a5 01       		.byte	0x1
 2401 05a6 9E02     		.2byte	0x29e
 2402 05a8 00000000 		.4byte	.LFB3
 2403 05ac 4C000000 		.4byte	.LFE3-.LFB3
 2404 05b0 01       		.uleb128 0x1
 2405 05b1 9C       		.byte	0x9c
 2406 05b2 1C       		.uleb128 0x1c
 2407 05b3 55000000 		.4byte	.LASF63
 2408 05b7 01       		.byte	0x1
 2409 05b8 4303     		.2byte	0x343
 2410 05ba 6B000000 		.4byte	0x6b
 2411 05be 00000000 		.4byte	.LFB5
 2412 05c2 20000000 		.4byte	.LFE5-.LFB5
 2413 05c6 01       		.uleb128 0x1
 2414 05c7 9C       		.byte	0x9c
 2415 05c8 DD050000 		.4byte	0x5dd
 2416 05cc 1D       		.uleb128 0x1d
 2417 05cd 70010000 		.4byte	.LASF62
 2418 05d1 01       		.byte	0x1
 2419 05d2 4503     		.2byte	0x345
 2420 05d4 6B000000 		.4byte	0x6b
 2421 05d8 C1000000 		.4byte	.LLST6
 2422 05dc 00       		.byte	0
 2423 05dd 1E       		.uleb128 0x1e
 2424 05de C0050000 		.4byte	.LASF89
 2425 05e2 01       		.byte	0x1
 2426 05e3 5A03     		.2byte	0x35a
 2427 05e5 6B000000 		.4byte	0x6b
 2428 05e9 00000000 		.4byte	.LFB6
 2429 05ed 0C000000 		.4byte	.LFE6-.LFB6
 2430 05f1 01       		.uleb128 0x1
 2431 05f2 9C       		.byte	0x9c
 2432 05f3 1C       		.uleb128 0x1c
 2433 05f4 ED010000 		.4byte	.LASF64
 2434 05f8 01       		.byte	0x1
 2435 05f9 7403     		.2byte	0x374
 2436 05fb 6B000000 		.4byte	0x6b
 2437 05ff 00000000 		.4byte	.LFB7
 2438 0603 20000000 		.4byte	.LFE7-.LFB7
 2439 0607 01       		.uleb128 0x1
 2440 0608 9C       		.byte	0x9c
 2441 0609 1E060000 		.4byte	0x61e
 2442 060d 1F       		.uleb128 0x1f
 2443 060e 72657300 		.ascii	"res\000"
 2444 0612 01       		.byte	0x1
 2445 0613 7603     		.2byte	0x376
ARM GAS  C:\Users\LUKASC~1\AppData\Local\Temp\ccX4OJiL.s 			page 88


 2446 0615 6B000000 		.4byte	0x6b
 2447 0619 D4000000 		.4byte	.LLST7
 2448 061d 00       		.byte	0
 2449 061e 1C       		.uleb128 0x1c
 2450 061f 66060000 		.4byte	.LASF65
 2451 0623 01       		.byte	0x1
 2452 0624 9103     		.2byte	0x391
 2453 0626 6B000000 		.4byte	0x6b
 2454 062a 00000000 		.4byte	.LFB8
 2455 062e 0C000000 		.4byte	.LFE8-.LFB8
 2456 0632 01       		.uleb128 0x1
 2457 0633 9C       		.byte	0x9c
 2458 0634 49060000 		.4byte	0x649
 2459 0638 19       		.uleb128 0x19
 2460 0639 8F000000 		.4byte	.LASF66
 2461 063d 01       		.byte	0x1
 2462 063e 9103     		.2byte	0x391
 2463 0640 6B000000 		.4byte	0x6b
 2464 0644 0A010000 		.4byte	.LLST8
 2465 0648 00       		.byte	0
 2466 0649 1C       		.uleb128 0x1c
 2467 064a 20040000 		.4byte	.LASF67
 2468 064e 01       		.byte	0x1
 2469 064f B103     		.2byte	0x3b1
 2470 0651 6B000000 		.4byte	0x6b
 2471 0655 00000000 		.4byte	.LFB9
 2472 0659 14000000 		.4byte	.LFE9-.LFB9
 2473 065d 01       		.uleb128 0x1
 2474 065e 9C       		.byte	0x9c
 2475 065f 74060000 		.4byte	0x674
 2476 0663 19       		.uleb128 0x19
 2477 0664 C5030000 		.4byte	.LASF68
 2478 0668 01       		.byte	0x1
 2479 0669 B103     		.2byte	0x3b1
 2480 066b 6B000000 		.4byte	0x6b
 2481 066f 2B010000 		.4byte	.LLST9
 2482 0673 00       		.byte	0
 2483 0674 1C       		.uleb128 0x1c
 2484 0675 10070000 		.4byte	.LASF69
 2485 0679 01       		.byte	0x1
 2486 067a C803     		.2byte	0x3c8
 2487 067c 77000000 		.4byte	0x77
 2488 0680 00000000 		.4byte	.LFB10
 2489 0684 28000000 		.4byte	.LFE10-.LFB10
 2490 0688 01       		.uleb128 0x1
 2491 0689 9C       		.byte	0x9c
 2492 068a AF060000 		.4byte	0x6af
 2493 068e 19       		.uleb128 0x19
 2494 068f C5030000 		.4byte	.LASF68
 2495 0693 01       		.byte	0x1
 2496 0694 C803     		.2byte	0x3c8
 2497 0696 6B000000 		.4byte	0x6b
 2498 069a 4C010000 		.4byte	.LLST10
 2499 069e 1D       		.uleb128 0x1d
 2500 069f 37000000 		.4byte	.LASF70
 2501 06a3 01       		.byte	0x1
 2502 06a4 CA03     		.2byte	0x3ca
ARM GAS  C:\Users\LUKASC~1\AppData\Local\Temp\ccX4OJiL.s 			page 89


 2503 06a6 77000000 		.4byte	0x77
 2504 06aa 86010000 		.4byte	.LLST11
 2505 06ae 00       		.byte	0
 2506 06af 18       		.uleb128 0x18
 2507 06b0 42000000 		.4byte	.LASF71
 2508 06b4 01       		.byte	0x1
 2509 06b5 3C04     		.2byte	0x43c
 2510 06b7 00000000 		.4byte	.LFB11
 2511 06bb 60000000 		.4byte	.LFE11-.LFB11
 2512 06bf 01       		.uleb128 0x1
 2513 06c0 9C       		.byte	0x9c
 2514 06c1 31070000 		.4byte	0x731
 2515 06c5 19       		.uleb128 0x19
 2516 06c6 C5030000 		.4byte	.LASF68
 2517 06ca 01       		.byte	0x1
 2518 06cb 3C04     		.2byte	0x43c
 2519 06cd 6B000000 		.4byte	0x6b
 2520 06d1 D4010000 		.4byte	.LLST12
 2521 06d5 19       		.uleb128 0x19
 2522 06d6 29020000 		.4byte	.LASF72
 2523 06da 01       		.byte	0x1
 2524 06db 3C04     		.2byte	0x43c
 2525 06dd 31070000 		.4byte	0x731
 2526 06e1 F5010000 		.4byte	.LLST13
 2527 06e5 1F       		.uleb128 0x1f
 2528 06e6 73726300 		.ascii	"src\000"
 2529 06ea 01       		.byte	0x1
 2530 06eb 3F04     		.2byte	0x43f
 2531 06ed 77000000 		.4byte	0x77
 2532 06f1 16020000 		.4byte	.LLST14
 2533 06f5 1F       		.uleb128 0x1f
 2534 06f6 64737400 		.ascii	"dst\000"
 2535 06fa 01       		.byte	0x1
 2536 06fb 4004     		.2byte	0x440
 2537 06fd 77000000 		.4byte	0x77
 2538 0701 42020000 		.4byte	.LLST15
 2539 0705 15       		.uleb128 0x15
 2540 0706 30000000 		.4byte	.LVL57
 2541 070a B60D0000 		.4byte	0xdb6
 2542 070e 1E070000 		.4byte	0x71e
 2543 0712 16       		.uleb128 0x16
 2544 0713 01       		.uleb128 0x1
 2545 0714 51       		.byte	0x51
 2546 0715 01       		.uleb128 0x1
 2547 0716 31       		.byte	0x31
 2548 0717 16       		.uleb128 0x16
 2549 0718 01       		.uleb128 0x1
 2550 0719 50       		.byte	0x50
 2551 071a 02       		.uleb128 0x2
 2552 071b 08       		.byte	0x8
 2553 071c 20       		.byte	0x20
 2554 071d 00       		.byte	0
 2555 071e 14       		.uleb128 0x14
 2556 071f 40000000 		.4byte	.LVL58
 2557 0723 DA0D0000 		.4byte	0xdda
 2558 0727 14       		.uleb128 0x14
 2559 0728 48000000 		.4byte	.LVL59
ARM GAS  C:\Users\LUKASC~1\AppData\Local\Temp\ccX4OJiL.s 			page 90


 2560 072c DA0D0000 		.4byte	0xdda
 2561 0730 00       		.byte	0
 2562 0731 06       		.uleb128 0x6
 2563 0732 04       		.byte	0x4
 2564 0733 37070000 		.4byte	0x737
 2565 0737 20       		.uleb128 0x20
 2566 0738 6B000000 		.4byte	0x6b
 2567 073c 18       		.uleb128 0x18
 2568 073d CD000000 		.4byte	.LASF73
 2569 0741 01       		.byte	0x1
 2570 0742 B204     		.2byte	0x4b2
 2571 0744 00000000 		.4byte	.LFB12
 2572 0748 58000000 		.4byte	.LFE12-.LFB12
 2573 074c 01       		.uleb128 0x1
 2574 074d 9C       		.byte	0x9c
 2575 074e 8C070000 		.4byte	0x78c
 2576 0752 19       		.uleb128 0x19
 2577 0753 C5030000 		.4byte	.LASF68
 2578 0757 01       		.byte	0x1
 2579 0758 B204     		.2byte	0x4b2
 2580 075a 6B000000 		.4byte	0x6b
 2581 075e 63020000 		.4byte	.LLST16
 2582 0762 1F       		.uleb128 0x1f
 2583 0763 6900     		.ascii	"i\000"
 2584 0765 01       		.byte	0x1
 2585 0766 B404     		.2byte	0x4b4
 2586 0768 6B000000 		.4byte	0x6b
 2587 076c 84020000 		.4byte	.LLST17
 2588 0770 14       		.uleb128 0x14
 2589 0771 20000000 		.4byte	.LVL62
 2590 0775 E50D0000 		.4byte	0xde5
 2591 0779 14       		.uleb128 0x14
 2592 077a 28000000 		.4byte	.LVL63
 2593 077e FA0D0000 		.4byte	0xdfa
 2594 0782 14       		.uleb128 0x14
 2595 0783 38000000 		.4byte	.LVL64
 2596 0787 FA0D0000 		.4byte	0xdfa
 2597 078b 00       		.byte	0
 2598 078c 18       		.uleb128 0x18
 2599 078d 86020000 		.4byte	.LASF74
 2600 0791 01       		.byte	0x1
 2601 0792 D802     		.2byte	0x2d8
 2602 0794 00000000 		.4byte	.LFB4
 2603 0798 8C000000 		.4byte	.LFE4-.LFB4
 2604 079c 01       		.uleb128 0x1
 2605 079d 9C       		.byte	0x9c
 2606 079e D8070000 		.4byte	0x7d8
 2607 07a2 1D       		.uleb128 0x1d
 2608 07a3 BA080000 		.4byte	.LASF56
 2609 07a7 01       		.byte	0x1
 2610 07a8 DA02     		.2byte	0x2da
 2611 07aa 6B000000 		.4byte	0x6b
 2612 07ae A2020000 		.4byte	.LLST18
 2613 07b2 15       		.uleb128 0x15
 2614 07b3 08000000 		.4byte	.LVL68
 2615 07b7 3C070000 		.4byte	0x73c
 2616 07bb C5070000 		.4byte	0x7c5
ARM GAS  C:\Users\LUKASC~1\AppData\Local\Temp\ccX4OJiL.s 			page 91


 2617 07bf 16       		.uleb128 0x16
 2618 07c0 01       		.uleb128 0x1
 2619 07c1 50       		.byte	0x50
 2620 07c2 01       		.uleb128 0x1
 2621 07c3 39       		.byte	0x39
 2622 07c4 00       		.byte	0
 2623 07c5 14       		.uleb128 0x14
 2624 07c6 0C000000 		.4byte	.LVL69
 2625 07ca 290D0000 		.4byte	0xd29
 2626 07ce 14       		.uleb128 0x14
 2627 07cf 3C000000 		.4byte	.LVL70
 2628 07d3 450D0000 		.4byte	0xd45
 2629 07d7 00       		.byte	0
 2630 07d8 18       		.uleb128 0x18
 2631 07d9 2F020000 		.4byte	.LASF75
 2632 07dd 01       		.byte	0x1
 2633 07de E704     		.2byte	0x4e7
 2634 07e0 00000000 		.4byte	.LFB13
 2635 07e4 90000000 		.4byte	.LFE13-.LFB13
 2636 07e8 01       		.uleb128 0x1
 2637 07e9 9C       		.byte	0x9c
 2638 07ea 1D080000 		.4byte	0x81d
 2639 07ee 21       		.uleb128 0x21
 2640 07ef C5030000 		.4byte	.LASF68
 2641 07f3 01       		.byte	0x1
 2642 07f4 E704     		.2byte	0x4e7
 2643 07f6 6B000000 		.4byte	0x6b
 2644 07fa 01       		.uleb128 0x1
 2645 07fb 50       		.byte	0x50
 2646 07fc 19       		.uleb128 0x19
 2647 07fd FA000000 		.4byte	.LASF60
 2648 0801 01       		.byte	0x1
 2649 0802 E704     		.2byte	0x4e7
 2650 0804 6B000000 		.4byte	0x6b
 2651 0808 B5020000 		.4byte	.LLST19
 2652 080c 1D       		.uleb128 0x1d
 2653 080d E5010000 		.4byte	.LASF76
 2654 0811 01       		.byte	0x1
 2655 0812 E904     		.2byte	0x4e9
 2656 0814 1D080000 		.4byte	0x81d
 2657 0818 EF020000 		.4byte	.LLST20
 2658 081c 00       		.byte	0
 2659 081d 06       		.uleb128 0x6
 2660 081e 04       		.byte	0x4
 2661 081f C1000000 		.4byte	0xc1
 2662 0823 18       		.uleb128 0x18
 2663 0824 6C080000 		.4byte	.LASF77
 2664 0828 01       		.byte	0x1
 2665 0829 3005     		.2byte	0x530
 2666 082b 00000000 		.4byte	.LFB14
 2667 082f 88010000 		.4byte	.LFE14-.LFB14
 2668 0833 01       		.uleb128 0x1
 2669 0834 9C       		.byte	0x9c
 2670 0835 AF090000 		.4byte	0x9af
 2671 0839 19       		.uleb128 0x19
 2672 083a C5030000 		.4byte	.LASF68
 2673 083e 01       		.byte	0x1
ARM GAS  C:\Users\LUKASC~1\AppData\Local\Temp\ccX4OJiL.s 			page 92


 2674 083f 3005     		.2byte	0x530
 2675 0841 6B000000 		.4byte	0x6b
 2676 0845 27030000 		.4byte	.LLST21
 2677 0849 19       		.uleb128 0x19
 2678 084a 29020000 		.4byte	.LASF72
 2679 084e 01       		.byte	0x1
 2680 084f 3005     		.2byte	0x530
 2681 0851 31070000 		.4byte	0x731
 2682 0855 48030000 		.4byte	.LLST22
 2683 0859 19       		.uleb128 0x19
 2684 085a F3040000 		.4byte	.LASF78
 2685 085e 01       		.byte	0x1
 2686 085f 3005     		.2byte	0x530
 2687 0861 77000000 		.4byte	0x77
 2688 0865 8D030000 		.4byte	.LLST23
 2689 0869 15       		.uleb128 0x15
 2690 086a 40000000 		.4byte	.LVL87
 2691 086e AF060000 		.4byte	0x6af
 2692 0872 83080000 		.4byte	0x883
 2693 0876 16       		.uleb128 0x16
 2694 0877 01       		.uleb128 0x1
 2695 0878 51       		.byte	0x51
 2696 0879 02       		.uleb128 0x2
 2697 087a 76       		.byte	0x76
 2698 087b 00       		.sleb128 0
 2699 087c 16       		.uleb128 0x16
 2700 087d 01       		.uleb128 0x1
 2701 087e 50       		.byte	0x50
 2702 087f 02       		.uleb128 0x2
 2703 0880 74       		.byte	0x74
 2704 0881 00       		.sleb128 0
 2705 0882 00       		.byte	0
 2706 0883 14       		.uleb128 0x14
 2707 0884 4C000000 		.4byte	.LVL88
 2708 0888 E50D0000 		.4byte	0xde5
 2709 088c 15       		.uleb128 0x15
 2710 088d 76000000 		.4byte	.LVL89
 2711 0891 0B0E0000 		.4byte	0xe0b
 2712 0895 B8080000 		.4byte	0x8b8
 2713 0899 16       		.uleb128 0x16
 2714 089a 01       		.uleb128 0x1
 2715 089b 53       		.byte	0x53
 2716 089c 01       		.uleb128 0x1
 2717 089d 41       		.byte	0x41
 2718 089e 16       		.uleb128 0x16
 2719 089f 01       		.uleb128 0x1
 2720 08a0 51       		.byte	0x51
 2721 08a1 15       		.uleb128 0x15
 2722 08a2 08       		.byte	0x8
 2723 08a3 20       		.byte	0x20
 2724 08a4 75       		.byte	0x75
 2725 08a5 00       		.sleb128 0
 2726 08a6 75       		.byte	0x75
 2727 08a7 00       		.sleb128 0
 2728 08a8 40       		.byte	0x40
 2729 08a9 4B       		.byte	0x4b
 2730 08aa 24       		.byte	0x24
ARM GAS  C:\Users\LUKASC~1\AppData\Local\Temp\ccX4OJiL.s 			page 93


 2731 08ab 22       		.byte	0x22
 2732 08ac 0C       		.byte	0xc
 2733 08ad 20000080 		.4byte	0x80000020
 2734 08b1 2A       		.byte	0x2a
 2735 08b2 28       		.byte	0x28
 2736 08b3 0100     		.2byte	0x1
 2737 08b5 16       		.byte	0x16
 2738 08b6 13       		.byte	0x13
 2739 08b7 00       		.byte	0
 2740 08b8 15       		.uleb128 0x15
 2741 08b9 8E000000 		.4byte	.LVL90
 2742 08bd 2F0E0000 		.4byte	0xe2f
 2743 08c1 D7080000 		.4byte	0x8d7
 2744 08c5 16       		.uleb128 0x16
 2745 08c6 01       		.uleb128 0x1
 2746 08c7 52       		.byte	0x52
 2747 08c8 07       		.uleb128 0x7
 2748 08c9 75       		.byte	0x75
 2749 08ca 00       		.sleb128 0
 2750 08cb 7A       		.byte	0x7a
 2751 08cc 00       		.sleb128 0
 2752 08cd 22       		.byte	0x22
 2753 08ce 23       		.byte	0x23
 2754 08cf 08       		.uleb128 0x8
 2755 08d0 16       		.uleb128 0x16
 2756 08d1 01       		.uleb128 0x1
 2757 08d2 51       		.byte	0x51
 2758 08d3 02       		.uleb128 0x2
 2759 08d4 76       		.byte	0x76
 2760 08d5 00       		.sleb128 0
 2761 08d6 00       		.byte	0
 2762 08d7 15       		.uleb128 0x15
 2763 08d8 9E000000 		.4byte	.LVL91
 2764 08dc 0B0E0000 		.4byte	0xe0b
 2765 08e0 F8080000 		.4byte	0x8f8
 2766 08e4 16       		.uleb128 0x16
 2767 08e5 01       		.uleb128 0x1
 2768 08e6 53       		.byte	0x53
 2769 08e7 0A       		.uleb128 0xa
 2770 08e8 74       		.byte	0x74
 2771 08e9 00       		.sleb128 0
 2772 08ea 03       		.byte	0x3
 2773 08eb 00000000 		.4byte	.LANCHOR1
 2774 08ef 22       		.byte	0x22
 2775 08f0 94       		.byte	0x94
 2776 08f1 01       		.byte	0x1
 2777 08f2 16       		.uleb128 0x16
 2778 08f3 01       		.uleb128 0x1
 2779 08f4 51       		.byte	0x51
 2780 08f5 01       		.uleb128 0x1
 2781 08f6 31       		.byte	0x31
 2782 08f7 00       		.byte	0
 2783 08f8 15       		.uleb128 0x15
 2784 08f9 B0000000 		.4byte	.LVL92
 2785 08fd 2F0E0000 		.4byte	0xe2f
 2786 0901 18090000 		.4byte	0x918
 2787 0905 16       		.uleb128 0x16
ARM GAS  C:\Users\LUKASC~1\AppData\Local\Temp\ccX4OJiL.s 			page 94


 2788 0906 01       		.uleb128 0x1
 2789 0907 52       		.byte	0x52
 2790 0908 05       		.uleb128 0x5
 2791 0909 7A       		.byte	0x7a
 2792 090a 00       		.sleb128 0
 2793 090b 75       		.byte	0x75
 2794 090c 00       		.sleb128 0
 2795 090d 22       		.byte	0x22
 2796 090e 16       		.uleb128 0x16
 2797 090f 01       		.uleb128 0x1
 2798 0910 51       		.byte	0x51
 2799 0911 05       		.uleb128 0x5
 2800 0912 03       		.byte	0x3
 2801 0913 00000000 		.4byte	.LANCHOR2
 2802 0917 00       		.byte	0
 2803 0918 14       		.uleb128 0x14
 2804 0919 B6000000 		.4byte	.LVL93
 2805 091d 4E0E0000 		.4byte	0xe4e
 2806 0921 14       		.uleb128 0x14
 2807 0922 C0000000 		.4byte	.LVL94
 2808 0926 630E0000 		.4byte	0xe63
 2809 092a 15       		.uleb128 0x15
 2810 092b C8000000 		.4byte	.LVL95
 2811 092f 7D0E0000 		.4byte	0xe7d
 2812 0933 3D090000 		.4byte	0x93d
 2813 0937 16       		.uleb128 0x16
 2814 0938 01       		.uleb128 0x1
 2815 0939 51       		.byte	0x51
 2816 093a 01       		.uleb128 0x1
 2817 093b 31       		.byte	0x31
 2818 093c 00       		.byte	0
 2819 093d 14       		.uleb128 0x14
 2820 093e F0000000 		.4byte	.LVL98
 2821 0942 E50D0000 		.4byte	0xde5
 2822 0946 15       		.uleb128 0x15
 2823 0947 06010000 		.4byte	.LVL99
 2824 094b 0B0E0000 		.4byte	0xe0b
 2825 094f 72090000 		.4byte	0x972
 2826 0953 16       		.uleb128 0x16
 2827 0954 01       		.uleb128 0x1
 2828 0955 53       		.byte	0x53
 2829 0956 01       		.uleb128 0x1
 2830 0957 41       		.byte	0x41
 2831 0958 16       		.uleb128 0x16
 2832 0959 01       		.uleb128 0x1
 2833 095a 51       		.byte	0x51
 2834 095b 15       		.uleb128 0x15
 2835 095c 08       		.byte	0x8
 2836 095d 20       		.byte	0x20
 2837 095e 75       		.byte	0x75
 2838 095f 00       		.sleb128 0
 2839 0960 75       		.byte	0x75
 2840 0961 00       		.sleb128 0
 2841 0962 40       		.byte	0x40
 2842 0963 4B       		.byte	0x4b
 2843 0964 24       		.byte	0x24
 2844 0965 22       		.byte	0x22
ARM GAS  C:\Users\LUKASC~1\AppData\Local\Temp\ccX4OJiL.s 			page 95


 2845 0966 0C       		.byte	0xc
 2846 0967 20000080 		.4byte	0x80000020
 2847 096b 2A       		.byte	0x2a
 2848 096c 28       		.byte	0x28
 2849 096d 0100     		.2byte	0x1
 2850 096f 16       		.byte	0x16
 2851 0970 13       		.byte	0x13
 2852 0971 00       		.byte	0
 2853 0972 15       		.uleb128 0x15
 2854 0973 1C010000 		.4byte	.LVL100
 2855 0977 2F0E0000 		.4byte	0xe2f
 2856 097b 8D090000 		.4byte	0x98d
 2857 097f 16       		.uleb128 0x16
 2858 0980 01       		.uleb128 0x1
 2859 0981 52       		.byte	0x52
 2860 0982 09       		.uleb128 0x9
 2861 0983 74       		.byte	0x74
 2862 0984 00       		.sleb128 0
 2863 0985 34       		.byte	0x34
 2864 0986 24       		.byte	0x24
 2865 0987 75       		.byte	0x75
 2866 0988 00       		.sleb128 0
 2867 0989 22       		.byte	0x22
 2868 098a 23       		.byte	0x23
 2869 098b 08       		.uleb128 0x8
 2870 098c 00       		.byte	0
 2871 098d 14       		.uleb128 0x14
 2872 098e 22010000 		.4byte	.LVL101
 2873 0992 4E0E0000 		.4byte	0xe4e
 2874 0996 14       		.uleb128 0x14
 2875 0997 2A010000 		.4byte	.LVL102
 2876 099b 630E0000 		.4byte	0xe63
 2877 099f 17       		.uleb128 0x17
 2878 09a0 32010000 		.4byte	.LVL103
 2879 09a4 7D0E0000 		.4byte	0xe7d
 2880 09a8 16       		.uleb128 0x16
 2881 09a9 01       		.uleb128 0x1
 2882 09aa 51       		.byte	0x51
 2883 09ab 01       		.uleb128 0x1
 2884 09ac 31       		.byte	0x31
 2885 09ad 00       		.byte	0
 2886 09ae 00       		.byte	0
 2887 09af 1C       		.uleb128 0x1c
 2888 09b0 D3010000 		.4byte	.LASF79
 2889 09b4 01       		.byte	0x1
 2890 09b5 6306     		.2byte	0x663
 2891 09b7 77000000 		.4byte	0x77
 2892 09bb 00000000 		.4byte	.LFB15
 2893 09bf 7C000000 		.4byte	.LFE15-.LFB15
 2894 09c3 01       		.uleb128 0x1
 2895 09c4 9C       		.byte	0x9c
 2896 09c5 770A0000 		.4byte	0xa77
 2897 09c9 19       		.uleb128 0x19
 2898 09ca C5030000 		.4byte	.LASF68
 2899 09ce 01       		.byte	0x1
 2900 09cf 6306     		.2byte	0x663
 2901 09d1 6B000000 		.4byte	0x6b
ARM GAS  C:\Users\LUKASC~1\AppData\Local\Temp\ccX4OJiL.s 			page 96


 2902 09d5 AE030000 		.4byte	.LLST24
 2903 09d9 19       		.uleb128 0x19
 2904 09da 29020000 		.4byte	.LASF72
 2905 09de 01       		.byte	0x1
 2906 09df 6306     		.2byte	0x663
 2907 09e1 770A0000 		.4byte	0xa77
 2908 09e5 E8030000 		.4byte	.LLST25
 2909 09e9 19       		.uleb128 0x19
 2910 09ea F3040000 		.4byte	.LASF78
 2911 09ee 01       		.byte	0x1
 2912 09ef 6306     		.2byte	0x663
 2913 09f1 77000000 		.4byte	0x77
 2914 09f5 1F040000 		.4byte	.LLST26
 2915 09f9 15       		.uleb128 0x15
 2916 09fa 1E000000 		.4byte	.LVL107
 2917 09fe AF060000 		.4byte	0x6af
 2918 0a02 130A0000 		.4byte	0xa13
 2919 0a06 16       		.uleb128 0x16
 2920 0a07 01       		.uleb128 0x1
 2921 0a08 51       		.byte	0x51
 2922 0a09 02       		.uleb128 0x2
 2923 0a0a 77       		.byte	0x77
 2924 0a0b 00       		.sleb128 0
 2925 0a0c 16       		.uleb128 0x16
 2926 0a0d 01       		.uleb128 0x1
 2927 0a0e 50       		.byte	0x50
 2928 0a0f 02       		.uleb128 0x2
 2929 0a10 74       		.byte	0x74
 2930 0a11 00       		.sleb128 0
 2931 0a12 00       		.byte	0
 2932 0a13 14       		.uleb128 0x14
 2933 0a14 26000000 		.4byte	.LVL108
 2934 0a18 E50D0000 		.4byte	0xde5
 2935 0a1c 15       		.uleb128 0x15
 2936 0a1d 38000000 		.4byte	.LVL109
 2937 0a21 0B0E0000 		.4byte	0xe0b
 2938 0a25 350A0000 		.4byte	0xa35
 2939 0a29 16       		.uleb128 0x16
 2940 0a2a 01       		.uleb128 0x1
 2941 0a2b 53       		.byte	0x53
 2942 0a2c 01       		.uleb128 0x1
 2943 0a2d 42       		.byte	0x42
 2944 0a2e 16       		.uleb128 0x16
 2945 0a2f 01       		.uleb128 0x1
 2946 0a30 51       		.byte	0x51
 2947 0a31 02       		.uleb128 0x2
 2948 0a32 75       		.byte	0x75
 2949 0a33 00       		.sleb128 0
 2950 0a34 00       		.byte	0
 2951 0a35 15       		.uleb128 0x15
 2952 0a36 4A000000 		.4byte	.LVL110
 2953 0a3a 2F0E0000 		.4byte	0xe2f
 2954 0a3e 550A0000 		.4byte	0xa55
 2955 0a42 16       		.uleb128 0x16
 2956 0a43 01       		.uleb128 0x1
 2957 0a44 52       		.byte	0x52
 2958 0a45 02       		.uleb128 0x2
ARM GAS  C:\Users\LUKASC~1\AppData\Local\Temp\ccX4OJiL.s 			page 97


 2959 0a46 77       		.byte	0x77
 2960 0a47 00       		.sleb128 0
 2961 0a48 16       		.uleb128 0x16
 2962 0a49 01       		.uleb128 0x1
 2963 0a4a 51       		.byte	0x51
 2964 0a4b 08       		.uleb128 0x8
 2965 0a4c 74       		.byte	0x74
 2966 0a4d 00       		.sleb128 0
 2967 0a4e 34       		.byte	0x34
 2968 0a4f 24       		.byte	0x24
 2969 0a50 23       		.byte	0x23
 2970 0a51 F8C001   		.uleb128 0x6078
 2971 0a54 00       		.byte	0
 2972 0a55 14       		.uleb128 0x14
 2973 0a56 50000000 		.4byte	.LVL111
 2974 0a5a 4E0E0000 		.4byte	0xe4e
 2975 0a5e 14       		.uleb128 0x14
 2976 0a5f 5A000000 		.4byte	.LVL112
 2977 0a63 630E0000 		.4byte	0xe63
 2978 0a67 17       		.uleb128 0x17
 2979 0a68 62000000 		.4byte	.LVL113
 2980 0a6c 7D0E0000 		.4byte	0xe7d
 2981 0a70 16       		.uleb128 0x16
 2982 0a71 01       		.uleb128 0x1
 2983 0a72 51       		.byte	0x51
 2984 0a73 01       		.uleb128 0x1
 2985 0a74 31       		.byte	0x31
 2986 0a75 00       		.byte	0
 2987 0a76 00       		.byte	0
 2988 0a77 06       		.uleb128 0x6
 2989 0a78 04       		.byte	0x4
 2990 0a79 6B000000 		.4byte	0x6b
 2991 0a7d 18       		.uleb128 0x18
 2992 0a7e 3F010000 		.4byte	.LASF80
 2993 0a82 01       		.byte	0x1
 2994 0a83 C708     		.2byte	0x8c7
 2995 0a85 00000000 		.4byte	.LFB16
 2996 0a89 2C000000 		.4byte	.LFE16-.LFB16
 2997 0a8d 01       		.uleb128 0x1
 2998 0a8e 9C       		.byte	0x9c
 2999 0a8f A40A0000 		.4byte	0xaa4
 3000 0a93 19       		.uleb128 0x19
 3001 0a94 C5030000 		.4byte	.LASF68
 3002 0a98 01       		.byte	0x1
 3003 0a99 C708     		.2byte	0x8c7
 3004 0a9b 6B000000 		.4byte	0x6b
 3005 0a9f 56040000 		.4byte	.LLST27
 3006 0aa3 00       		.byte	0
 3007 0aa4 18       		.uleb128 0x18
 3008 0aa5 0C020000 		.4byte	.LASF81
 3009 0aa9 01       		.byte	0x1
 3010 0aaa DF08     		.2byte	0x8df
 3011 0aac 00000000 		.4byte	.LFB17
 3012 0ab0 18000000 		.4byte	.LFE17-.LFB17
 3013 0ab4 01       		.uleb128 0x1
 3014 0ab5 9C       		.byte	0x9c
 3015 0ab6 CB0A0000 		.4byte	0xacb
ARM GAS  C:\Users\LUKASC~1\AppData\Local\Temp\ccX4OJiL.s 			page 98


 3016 0aba 19       		.uleb128 0x19
 3017 0abb C5030000 		.4byte	.LASF68
 3018 0abf 01       		.byte	0x1
 3019 0ac0 DF08     		.2byte	0x8df
 3020 0ac2 6B000000 		.4byte	0x6b
 3021 0ac6 77040000 		.4byte	.LLST28
 3022 0aca 00       		.byte	0
 3023 0acb 18       		.uleb128 0x18
 3024 0acc 44020000 		.4byte	.LASF82
 3025 0ad0 01       		.byte	0x1
 3026 0ad1 FD08     		.2byte	0x8fd
 3027 0ad3 00000000 		.4byte	.LFB18
 3028 0ad7 0C000000 		.4byte	.LFE18-.LFB18
 3029 0adb 01       		.uleb128 0x1
 3030 0adc 9C       		.byte	0x9c
 3031 0add F00A0000 		.4byte	0xaf0
 3032 0ae1 21       		.uleb128 0x21
 3033 0ae2 65080000 		.4byte	.LASF83
 3034 0ae6 01       		.byte	0x1
 3035 0ae7 FD08     		.2byte	0x8fd
 3036 0ae9 6B000000 		.4byte	0x6b
 3037 0aed 01       		.uleb128 0x1
 3038 0aee 50       		.byte	0x50
 3039 0aef 00       		.byte	0
 3040 0af0 1C       		.uleb128 0x1c
 3041 0af1 05030000 		.4byte	.LASF84
 3042 0af5 01       		.byte	0x1
 3043 0af6 1609     		.2byte	0x916
 3044 0af8 6B000000 		.4byte	0x6b
 3045 0afc 00000000 		.4byte	.LFB19
 3046 0b00 20000000 		.4byte	.LFE19-.LFB19
 3047 0b04 01       		.uleb128 0x1
 3048 0b05 9C       		.byte	0x9c
 3049 0b06 2A0B0000 		.4byte	0xb2a
 3050 0b0a 19       		.uleb128 0x19
 3051 0b0b C5030000 		.4byte	.LASF68
 3052 0b0f 01       		.byte	0x1
 3053 0b10 1609     		.2byte	0x916
 3054 0b12 6B000000 		.4byte	0x6b
 3055 0b16 98040000 		.4byte	.LLST29
 3056 0b1a 1F       		.uleb128 0x1f
 3057 0b1b 637200   		.ascii	"cr\000"
 3058 0b1e 01       		.byte	0x1
 3059 0b1f 1809     		.2byte	0x918
 3060 0b21 6B000000 		.4byte	0x6b
 3061 0b25 D2040000 		.4byte	.LLST30
 3062 0b29 00       		.byte	0
 3063 0b2a 18       		.uleb128 0x18
 3064 0b2b E3000000 		.4byte	.LASF85
 3065 0b2f 01       		.byte	0x1
 3066 0b30 3F09     		.2byte	0x93f
 3067 0b32 00000000 		.4byte	.LFB20
 3068 0b36 20000000 		.4byte	.LFE20-.LFB20
 3069 0b3a 01       		.uleb128 0x1
 3070 0b3b 9C       		.byte	0x9c
 3071 0b3c 4F0B0000 		.4byte	0xb4f
 3072 0b40 21       		.uleb128 0x21
ARM GAS  C:\Users\LUKASC~1\AppData\Local\Temp\ccX4OJiL.s 			page 99


 3073 0b41 68040000 		.4byte	.LASF86
 3074 0b45 01       		.byte	0x1
 3075 0b46 3F09     		.2byte	0x93f
 3076 0b48 6B000000 		.4byte	0x6b
 3077 0b4c 01       		.uleb128 0x1
 3078 0b4d 50       		.byte	0x50
 3079 0b4e 00       		.byte	0
 3080 0b4f 1C       		.uleb128 0x1c
 3081 0b50 0D010000 		.4byte	.LASF87
 3082 0b54 01       		.byte	0x1
 3083 0b55 7809     		.2byte	0x978
 3084 0b57 6B000000 		.4byte	0x6b
 3085 0b5b 00000000 		.4byte	.LFB21
 3086 0b5f 18000000 		.4byte	.LFE21-.LFB21
 3087 0b63 01       		.uleb128 0x1
 3088 0b64 9C       		.byte	0x9c
 3089 0b65 7A0B0000 		.4byte	0xb7a
 3090 0b69 1D       		.uleb128 0x1d
 3091 0b6a 9E010000 		.4byte	.LASF88
 3092 0b6e 01       		.byte	0x1
 3093 0b6f 7A09     		.2byte	0x97a
 3094 0b71 6B000000 		.4byte	0x6b
 3095 0b75 08050000 		.4byte	.LLST31
 3096 0b79 00       		.byte	0
 3097 0b7a 1E       		.uleb128 0x1e
 3098 0b7b 4F040000 		.4byte	.LASF90
 3099 0b7f 01       		.byte	0x1
 3100 0b80 9009     		.2byte	0x990
 3101 0b82 6B000000 		.4byte	0x6b
 3102 0b86 00000000 		.4byte	.LFB22
 3103 0b8a 10000000 		.4byte	.LFE22-.LFB22
 3104 0b8e 01       		.uleb128 0x1
 3105 0b8f 9C       		.byte	0x9c
 3106 0b90 1B       		.uleb128 0x1b
 3107 0b91 71020000 		.4byte	.LASF92
 3108 0b95 01       		.byte	0x1
 3109 0b96 9E09     		.2byte	0x99e
 3110 0b98 00000000 		.4byte	.LFB23
 3111 0b9c 02000000 		.4byte	.LFE23-.LFB23
 3112 0ba0 01       		.uleb128 0x1
 3113 0ba1 9C       		.byte	0x9c
 3114 0ba2 1B       		.uleb128 0x1b
 3115 0ba3 74040000 		.4byte	.LASF93
 3116 0ba7 01       		.byte	0x1
 3117 0ba8 B409     		.2byte	0x9b4
 3118 0baa 00000000 		.4byte	.LFB24
 3119 0bae 02000000 		.4byte	.LFE24-.LFB24
 3120 0bb2 01       		.uleb128 0x1
 3121 0bb3 9C       		.byte	0x9c
 3122 0bb4 22       		.uleb128 0x22
 3123 0bb5 82030000 		.4byte	.LASF94
 3124 0bb9 01       		.byte	0x1
 3125 0bba 6D       		.byte	0x6d
 3126 0bbb 6B000000 		.4byte	0x6b
 3127 0bbf 05       		.uleb128 0x5
 3128 0bc0 03       		.byte	0x3
 3129 0bc1 00000000 		.4byte	clearInDataRdyStatus
ARM GAS  C:\Users\LUKASC~1\AppData\Local\Temp\ccX4OJiL.s 			page 100


 3130 0bc5 23       		.uleb128 0x23
 3131 0bc6 BC020000 		.4byte	.LASF95
 3132 0bca 01       		.byte	0x1
 3133 0bcb 27       		.byte	0x27
 3134 0bcc 6B000000 		.4byte	0x6b
 3135 0bd0 05       		.uleb128 0x5
 3136 0bd1 03       		.byte	0x3
 3137 0bd2 00000000 		.4byte	USBFS_1_initVar
 3138 0bd6 24       		.uleb128 0x24
 3139 0bd7 62020000 		.4byte	.LASF96
 3140 0bdb 03       		.byte	0x3
 3141 0bdc D102     		.2byte	0x2d1
 3142 0bde BC000000 		.4byte	0xbc
 3143 0be2 24       		.uleb128 0x24
 3144 0be3 D3070000 		.4byte	.LASF97
 3145 0be7 03       		.byte	0x3
 3146 0be8 D202     		.2byte	0x2d2
 3147 0bea BC000000 		.4byte	0xbc
 3148 0bee 24       		.uleb128 0x24
 3149 0bef 75050000 		.4byte	.LASF98
 3150 0bf3 03       		.byte	0x3
 3151 0bf4 D302     		.2byte	0x2d3
 3152 0bf6 BC000000 		.4byte	0xbc
 3153 0bfa 24       		.uleb128 0x24
 3154 0bfb 9D080000 		.4byte	.LASF99
 3155 0bff 03       		.byte	0x3
 3156 0c00 D402     		.2byte	0x2d4
 3157 0c02 BC000000 		.4byte	0xbc
 3158 0c06 24       		.uleb128 0x24
 3159 0c07 D8020000 		.4byte	.LASF100
 3160 0c0b 03       		.byte	0x3
 3161 0c0c D502     		.2byte	0x2d5
 3162 0c0e BC000000 		.4byte	0xbc
 3163 0c12 25       		.uleb128 0x25
 3164 0c13 77010000 		.4byte	.LASF101
 3165 0c17 05       		.byte	0x5
 3166 0c18 71       		.byte	0x71
 3167 0c19 BC000000 		.4byte	0xbc
 3168 0c1d 0C       		.uleb128 0xc
 3169 0c1e 6B000000 		.4byte	0x6b
 3170 0c22 2D0C0000 		.4byte	0xc2d
 3171 0c26 0D       		.uleb128 0xd
 3172 0c27 F6000000 		.4byte	0xf6
 3173 0c2b 01       		.byte	0x1
 3174 0c2c 00       		.byte	0
 3175 0c2d 25       		.uleb128 0x25
 3176 0c2e 5B030000 		.4byte	.LASF102
 3177 0c32 05       		.byte	0x5
 3178 0c33 72       		.byte	0x72
 3179 0c34 380C0000 		.4byte	0xc38
 3180 0c38 05       		.uleb128 0x5
 3181 0c39 1D0C0000 		.4byte	0xc1d
 3182 0c3d 25       		.uleb128 0x25
 3183 0c3e 33040000 		.4byte	.LASF103
 3184 0c42 05       		.byte	0x5
 3185 0c43 74       		.byte	0x74
 3186 0c44 BC000000 		.4byte	0xbc
ARM GAS  C:\Users\LUKASC~1\AppData\Local\Temp\ccX4OJiL.s 			page 101


 3187 0c48 0C       		.uleb128 0xc
 3188 0c49 72010000 		.4byte	0x172
 3189 0c4d 580C0000 		.4byte	0xc58
 3190 0c51 0D       		.uleb128 0xd
 3191 0c52 F6000000 		.4byte	0xf6
 3192 0c56 08       		.byte	0x8
 3193 0c57 00       		.byte	0
 3194 0c58 25       		.uleb128 0x25
 3195 0c59 5A080000 		.4byte	.LASF104
 3196 0c5d 05       		.byte	0x5
 3197 0c5e 78       		.byte	0x78
 3198 0c5f 630C0000 		.4byte	0xc63
 3199 0c63 05       		.uleb128 0x5
 3200 0c64 480C0000 		.4byte	0xc48
 3201 0c68 0C       		.uleb128 0xc
 3202 0c69 6B000000 		.4byte	0x6b
 3203 0c6d 780C0000 		.4byte	0xc78
 3204 0c71 0D       		.uleb128 0xd
 3205 0c72 F6000000 		.4byte	0xf6
 3206 0c76 08       		.byte	0x8
 3207 0c77 00       		.byte	0
 3208 0c78 23       		.uleb128 0x23
 3209 0c79 3D070000 		.4byte	.LASF105
 3210 0c7d 01       		.byte	0x1
 3211 0c7e 3C       		.byte	0x3c
 3212 0c7f 680C0000 		.4byte	0xc68
 3213 0c83 05       		.uleb128 0x5
 3214 0c84 03       		.byte	0x3
 3215 0c85 00000000 		.4byte	USBFS_1_DmaChan
 3216 0c89 23       		.uleb128 0x23
 3217 0c8a FF000000 		.4byte	.LASF106
 3218 0c8e 01       		.byte	0x1
 3219 0c8f 3F       		.byte	0x3f
 3220 0c90 680C0000 		.4byte	0xc68
 3221 0c94 05       		.uleb128 0x5
 3222 0c95 03       		.byte	0x3
 3223 0c96 00000000 		.4byte	USBFS_1_DmaTd
 3224 0c9a 23       		.uleb128 0x23
 3225 0c9b 63070000 		.4byte	.LASF107
 3226 0c9f 01       		.byte	0x1
 3227 0ca0 6E       		.byte	0x6e
 3228 0ca1 680C0000 		.4byte	0xc68
 3229 0ca5 05       		.uleb128 0x5
 3230 0ca6 03       		.byte	0x3
 3231 0ca7 00000000 		.4byte	USBFS_1_DmaNextTd
 3232 0cab 0C       		.uleb128 0xc
 3233 0cac 77000000 		.4byte	0x77
 3234 0cb0 BB0C0000 		.4byte	0xcbb
 3235 0cb4 0D       		.uleb128 0xd
 3236 0cb5 F6000000 		.4byte	0xf6
 3237 0cb9 08       		.byte	0x8
 3238 0cba 00       		.byte	0
 3239 0cbb 23       		.uleb128 0x23
 3240 0cbc CE030000 		.4byte	.LASF108
 3241 0cc0 01       		.byte	0x1
 3242 0cc1 7C       		.byte	0x7c
 3243 0cc2 CC0C0000 		.4byte	0xccc
ARM GAS  C:\Users\LUKASC~1\AppData\Local\Temp\ccX4OJiL.s 			page 102


 3244 0cc6 05       		.uleb128 0x5
 3245 0cc7 03       		.byte	0x3
 3246 0cc8 00000000 		.4byte	USBFS_1_inLength
 3247 0ccc 05       		.uleb128 0x5
 3248 0ccd AB0C0000 		.4byte	0xcab
 3249 0cd1 23       		.uleb128 0x23
 3250 0cd2 00080000 		.4byte	.LASF109
 3251 0cd6 01       		.byte	0x1
 3252 0cd7 7E       		.byte	0x7e
 3253 0cd8 E20C0000 		.4byte	0xce2
 3254 0cdc 05       		.uleb128 0x5
 3255 0cdd 03       		.byte	0x3
 3256 0cde 00000000 		.4byte	USBFS_1_inBufFull
 3257 0ce2 05       		.uleb128 0x5
 3258 0ce3 680C0000 		.4byte	0xc68
 3259 0ce7 23       		.uleb128 0x23
 3260 0ce8 8B050000 		.4byte	.LASF110
 3261 0cec 01       		.byte	0x1
 3262 0ced 6F       		.byte	0x6f
 3263 0cee F80C0000 		.4byte	0xcf8
 3264 0cf2 05       		.uleb128 0x5
 3265 0cf3 03       		.byte	0x3
 3266 0cf4 00000000 		.4byte	USBFS_1_epX_TD_TERMOUT_EN
 3267 0cf8 20       		.uleb128 0x20
 3268 0cf9 680C0000 		.4byte	0xc68
 3269 0cfd 0C       		.uleb128 0xc
 3270 0cfe 31070000 		.4byte	0x731
 3271 0d02 0D0D0000 		.4byte	0xd0d
 3272 0d06 0D       		.uleb128 0xd
 3273 0d07 F6000000 		.4byte	0xf6
 3274 0d0b 08       		.byte	0x8
 3275 0d0c 00       		.byte	0
 3276 0d0d 23       		.uleb128 0x23
 3277 0d0e 45030000 		.4byte	.LASF111
 3278 0d12 01       		.byte	0x1
 3279 0d13 7D       		.byte	0x7d
 3280 0d14 FD0C0000 		.4byte	0xcfd
 3281 0d18 05       		.uleb128 0x5
 3282 0d19 03       		.byte	0x3
 3283 0d1a 00000000 		.4byte	USBFS_1_inDataPointer
 3284 0d1e 25       		.uleb128 0x25
 3285 0d1f FA040000 		.4byte	.LASF112
 3286 0d23 05       		.byte	0x5
 3287 0d24 9A       		.byte	0x9a
 3288 0d25 BC000000 		.4byte	0xbc
 3289 0d29 26       		.uleb128 0x26
 3290 0d2a 75070000 		.4byte	.LASF122
 3291 0d2e 06       		.byte	0x6
 3292 0d2f 7E       		.byte	0x7e
 3293 0d30 6B000000 		.4byte	0x6b
 3294 0d34 27       		.uleb128 0x27
 3295 0d35 94010000 		.4byte	.LASF113
 3296 0d39 06       		.byte	0x6
 3297 0d3a 78       		.byte	0x78
 3298 0d3b 450D0000 		.4byte	0xd45
 3299 0d3f 28       		.uleb128 0x28
 3300 0d40 77000000 		.4byte	0x77
ARM GAS  C:\Users\LUKASC~1\AppData\Local\Temp\ccX4OJiL.s 			page 103


 3301 0d44 00       		.byte	0
 3302 0d45 27       		.uleb128 0x27
 3303 0d46 98020000 		.4byte	.LASF114
 3304 0d4a 06       		.byte	0x6
 3305 0d4b 7F       		.byte	0x7f
 3306 0d4c 560D0000 		.4byte	0xd56
 3307 0d50 28       		.uleb128 0x28
 3308 0d51 6B000000 		.4byte	0x6b
 3309 0d55 00       		.byte	0
 3310 0d56 27       		.uleb128 0x27
 3311 0d57 05000000 		.4byte	.LASF115
 3312 0d5b 06       		.byte	0x6
 3313 0d5c 8C       		.byte	0x8c
 3314 0d5d 6C0D0000 		.4byte	0xd6c
 3315 0d61 28       		.uleb128 0x28
 3316 0d62 6B000000 		.4byte	0x6b
 3317 0d66 28       		.uleb128 0x28
 3318 0d67 6B000000 		.4byte	0x6b
 3319 0d6b 00       		.byte	0
 3320 0d6c 29       		.uleb128 0x29
 3321 0d6d 1B030000 		.4byte	.LASF120
 3322 0d71 06       		.byte	0x6
 3323 0d72 89       		.byte	0x89
 3324 0d73 E3000000 		.4byte	0xe3
 3325 0d77 860D0000 		.4byte	0xd86
 3326 0d7b 28       		.uleb128 0x28
 3327 0d7c 6B000000 		.4byte	0x6b
 3328 0d80 28       		.uleb128 0x28
 3329 0d81 E3000000 		.4byte	0xe3
 3330 0d85 00       		.byte	0
 3331 0d86 27       		.uleb128 0x27
 3332 0d87 7D080000 		.4byte	.LASF116
 3333 0d8b 07       		.byte	0x7
 3334 0d8c 18       		.byte	0x18
 3335 0d8d 970D0000 		.4byte	0xd97
 3336 0d91 28       		.uleb128 0x28
 3337 0d92 E3000000 		.4byte	0xe3
 3338 0d96 00       		.byte	0
 3339 0d97 2A       		.uleb128 0x2a
 3340 0d98 34050000 		.4byte	.LASF117
 3341 0d9c 08       		.byte	0x8
 3342 0d9d 29       		.byte	0x29
 3343 0d9e 2A       		.uleb128 0x2a
 3344 0d9f CB040000 		.4byte	.LASF118
 3345 0da3 09       		.byte	0x9
 3346 0da4 29       		.byte	0x29
 3347 0da5 27       		.uleb128 0x27
 3348 0da6 AE020000 		.4byte	.LASF119
 3349 0daa 06       		.byte	0x6
 3350 0dab 7A       		.byte	0x7a
 3351 0dac B60D0000 		.4byte	0xdb6
 3352 0db0 28       		.uleb128 0x28
 3353 0db1 83000000 		.4byte	0x83
 3354 0db5 00       		.byte	0
 3355 0db6 29       		.uleb128 0x29
 3356 0db7 AB030000 		.4byte	.LASF121
 3357 0dbb 0A       		.byte	0xa
ARM GAS  C:\Users\LUKASC~1\AppData\Local\Temp\ccX4OJiL.s 			page 104


 3358 0dbc 1E       		.byte	0x1e
 3359 0dbd 6B000000 		.4byte	0x6b
 3360 0dc1 DA0D0000 		.4byte	0xdda
 3361 0dc5 28       		.uleb128 0x28
 3362 0dc6 6B000000 		.4byte	0x6b
 3363 0dca 28       		.uleb128 0x28
 3364 0dcb 6B000000 		.4byte	0x6b
 3365 0dcf 28       		.uleb128 0x28
 3366 0dd0 77000000 		.4byte	0x77
 3367 0dd4 28       		.uleb128 0x28
 3368 0dd5 77000000 		.4byte	0x77
 3369 0dd9 00       		.byte	0
 3370 0dda 26       		.uleb128 0x26
 3371 0ddb 52020000 		.4byte	.LASF123
 3372 0ddf 04       		.byte	0x4
 3373 0de0 39       		.byte	0x39
 3374 0de1 6B000000 		.4byte	0x6b
 3375 0de5 29       		.uleb128 0x29
 3376 0de6 27010000 		.4byte	.LASF124
 3377 0dea 04       		.byte	0x4
 3378 0deb 2B       		.byte	0x2b
 3379 0dec A4000000 		.4byte	0xa4
 3380 0df0 FA0D0000 		.4byte	0xdfa
 3381 0df4 28       		.uleb128 0x28
 3382 0df5 6B000000 		.4byte	0x6b
 3383 0df9 00       		.byte	0
 3384 0dfa 27       		.uleb128 0x27
 3385 0dfb CC020000 		.4byte	.LASF125
 3386 0dff 04       		.byte	0x4
 3387 0e00 3A       		.byte	0x3a
 3388 0e01 0B0E0000 		.4byte	0xe0b
 3389 0e05 28       		.uleb128 0x28
 3390 0e06 6B000000 		.4byte	0x6b
 3391 0e0a 00       		.byte	0
 3392 0e0b 29       		.uleb128 0x29
 3393 0e0c B5000000 		.4byte	.LASF126
 3394 0e10 04       		.byte	0x4
 3395 0e11 3C       		.byte	0x3c
 3396 0e12 A4000000 		.4byte	0xa4
 3397 0e16 2F0E0000 		.4byte	0xe2f
 3398 0e1a 28       		.uleb128 0x28
 3399 0e1b 6B000000 		.4byte	0x6b
 3400 0e1f 28       		.uleb128 0x28
 3401 0e20 77000000 		.4byte	0x77
 3402 0e24 28       		.uleb128 0x28
 3403 0e25 6B000000 		.4byte	0x6b
 3404 0e29 28       		.uleb128 0x28
 3405 0e2a 6B000000 		.4byte	0x6b
 3406 0e2e 00       		.byte	0
 3407 0e2f 29       		.uleb128 0x29
 3408 0e30 8A040000 		.4byte	.LASF127
 3409 0e34 04       		.byte	0x4
 3410 0e35 40       		.byte	0x40
 3411 0e36 A4000000 		.4byte	0xa4
 3412 0e3a 4E0E0000 		.4byte	0xe4e
 3413 0e3e 28       		.uleb128 0x28
 3414 0e3f 6B000000 		.4byte	0x6b
ARM GAS  C:\Users\LUKASC~1\AppData\Local\Temp\ccX4OJiL.s 			page 105


 3415 0e43 28       		.uleb128 0x28
 3416 0e44 77000000 		.4byte	0x77
 3417 0e48 28       		.uleb128 0x28
 3418 0e49 77000000 		.4byte	0x77
 3419 0e4d 00       		.byte	0
 3420 0e4e 29       		.uleb128 0x29
 3421 0e4f A6040000 		.4byte	.LASF128
 3422 0e53 04       		.byte	0x4
 3423 0e54 2C       		.byte	0x2c
 3424 0e55 A4000000 		.4byte	0xa4
 3425 0e59 630E0000 		.4byte	0xe63
 3426 0e5d 28       		.uleb128 0x28
 3427 0e5e 6B000000 		.4byte	0x6b
 3428 0e62 00       		.byte	0
 3429 0e63 29       		.uleb128 0x29
 3430 0e64 AC070000 		.4byte	.LASF129
 3431 0e68 04       		.byte	0x4
 3432 0e69 30       		.byte	0x30
 3433 0e6a A4000000 		.4byte	0xa4
 3434 0e6e 7D0E0000 		.4byte	0xe7d
 3435 0e72 28       		.uleb128 0x28
 3436 0e73 6B000000 		.4byte	0x6b
 3437 0e77 28       		.uleb128 0x28
 3438 0e78 6B000000 		.4byte	0x6b
 3439 0e7c 00       		.byte	0
 3440 0e7d 2B       		.uleb128 0x2b
 3441 0e7e 11050000 		.4byte	.LASF130
 3442 0e82 04       		.byte	0x4
 3443 0e83 2A       		.byte	0x2a
 3444 0e84 A4000000 		.4byte	0xa4
 3445 0e88 28       		.uleb128 0x28
 3446 0e89 6B000000 		.4byte	0x6b
 3447 0e8d 28       		.uleb128 0x28
 3448 0e8e 6B000000 		.4byte	0x6b
 3449 0e92 00       		.byte	0
 3450 0e93 00       		.byte	0
 3451              		.section	.debug_abbrev,"",%progbits
 3452              	.Ldebug_abbrev0:
 3453 0000 01       		.uleb128 0x1
 3454 0001 11       		.uleb128 0x11
 3455 0002 01       		.byte	0x1
 3456 0003 25       		.uleb128 0x25
 3457 0004 0E       		.uleb128 0xe
 3458 0005 13       		.uleb128 0x13
 3459 0006 0B       		.uleb128 0xb
 3460 0007 03       		.uleb128 0x3
 3461 0008 0E       		.uleb128 0xe
 3462 0009 1B       		.uleb128 0x1b
 3463 000a 0E       		.uleb128 0xe
 3464 000b 55       		.uleb128 0x55
 3465 000c 17       		.uleb128 0x17
 3466 000d 11       		.uleb128 0x11
 3467 000e 01       		.uleb128 0x1
 3468 000f 10       		.uleb128 0x10
 3469 0010 17       		.uleb128 0x17
 3470 0011 00       		.byte	0
 3471 0012 00       		.byte	0
ARM GAS  C:\Users\LUKASC~1\AppData\Local\Temp\ccX4OJiL.s 			page 106


 3472 0013 02       		.uleb128 0x2
 3473 0014 24       		.uleb128 0x24
 3474 0015 00       		.byte	0
 3475 0016 0B       		.uleb128 0xb
 3476 0017 0B       		.uleb128 0xb
 3477 0018 3E       		.uleb128 0x3e
 3478 0019 0B       		.uleb128 0xb
 3479 001a 03       		.uleb128 0x3
 3480 001b 0E       		.uleb128 0xe
 3481 001c 00       		.byte	0
 3482 001d 00       		.byte	0
 3483 001e 03       		.uleb128 0x3
 3484 001f 24       		.uleb128 0x24
 3485 0020 00       		.byte	0
 3486 0021 0B       		.uleb128 0xb
 3487 0022 0B       		.uleb128 0xb
 3488 0023 3E       		.uleb128 0x3e
 3489 0024 0B       		.uleb128 0xb
 3490 0025 03       		.uleb128 0x3
 3491 0026 08       		.uleb128 0x8
 3492 0027 00       		.byte	0
 3493 0028 00       		.byte	0
 3494 0029 04       		.uleb128 0x4
 3495 002a 16       		.uleb128 0x16
 3496 002b 00       		.byte	0
 3497 002c 03       		.uleb128 0x3
 3498 002d 0E       		.uleb128 0xe
 3499 002e 3A       		.uleb128 0x3a
 3500 002f 0B       		.uleb128 0xb
 3501 0030 3B       		.uleb128 0x3b
 3502 0031 05       		.uleb128 0x5
 3503 0032 49       		.uleb128 0x49
 3504 0033 13       		.uleb128 0x13
 3505 0034 00       		.byte	0
 3506 0035 00       		.byte	0
 3507 0036 05       		.uleb128 0x5
 3508 0037 35       		.uleb128 0x35
 3509 0038 00       		.byte	0
 3510 0039 49       		.uleb128 0x49
 3511 003a 13       		.uleb128 0x13
 3512 003b 00       		.byte	0
 3513 003c 00       		.byte	0
 3514 003d 06       		.uleb128 0x6
 3515 003e 0F       		.uleb128 0xf
 3516 003f 00       		.byte	0
 3517 0040 0B       		.uleb128 0xb
 3518 0041 0B       		.uleb128 0xb
 3519 0042 49       		.uleb128 0x49
 3520 0043 13       		.uleb128 0x13
 3521 0044 00       		.byte	0
 3522 0045 00       		.byte	0
 3523 0046 07       		.uleb128 0x7
 3524 0047 15       		.uleb128 0x15
 3525 0048 00       		.byte	0
 3526 0049 27       		.uleb128 0x27
 3527 004a 19       		.uleb128 0x19
 3528 004b 00       		.byte	0
ARM GAS  C:\Users\LUKASC~1\AppData\Local\Temp\ccX4OJiL.s 			page 107


 3529 004c 00       		.byte	0
 3530 004d 08       		.uleb128 0x8
 3531 004e 13       		.uleb128 0x13
 3532 004f 01       		.byte	0x1
 3533 0050 0B       		.uleb128 0xb
 3534 0051 0B       		.uleb128 0xb
 3535 0052 3A       		.uleb128 0x3a
 3536 0053 0B       		.uleb128 0xb
 3537 0054 3B       		.uleb128 0x3b
 3538 0055 0B       		.uleb128 0xb
 3539 0056 01       		.uleb128 0x1
 3540 0057 13       		.uleb128 0x13
 3541 0058 00       		.byte	0
 3542 0059 00       		.byte	0
 3543 005a 09       		.uleb128 0x9
 3544 005b 0D       		.uleb128 0xd
 3545 005c 00       		.byte	0
 3546 005d 03       		.uleb128 0x3
 3547 005e 0E       		.uleb128 0xe
 3548 005f 3A       		.uleb128 0x3a
 3549 0060 0B       		.uleb128 0xb
 3550 0061 3B       		.uleb128 0x3b
 3551 0062 0B       		.uleb128 0xb
 3552 0063 49       		.uleb128 0x49
 3553 0064 13       		.uleb128 0x13
 3554 0065 38       		.uleb128 0x38
 3555 0066 0B       		.uleb128 0xb
 3556 0067 00       		.byte	0
 3557 0068 00       		.byte	0
 3558 0069 0A       		.uleb128 0xa
 3559 006a 16       		.uleb128 0x16
 3560 006b 00       		.byte	0
 3561 006c 03       		.uleb128 0x3
 3562 006d 0E       		.uleb128 0xe
 3563 006e 3A       		.uleb128 0x3a
 3564 006f 0B       		.uleb128 0xb
 3565 0070 3B       		.uleb128 0x3b
 3566 0071 0B       		.uleb128 0xb
 3567 0072 49       		.uleb128 0x49
 3568 0073 13       		.uleb128 0x13
 3569 0074 00       		.byte	0
 3570 0075 00       		.byte	0
 3571 0076 0B       		.uleb128 0xb
 3572 0077 0D       		.uleb128 0xd
 3573 0078 00       		.byte	0
 3574 0079 03       		.uleb128 0x3
 3575 007a 08       		.uleb128 0x8
 3576 007b 3A       		.uleb128 0x3a
 3577 007c 0B       		.uleb128 0xb
 3578 007d 3B       		.uleb128 0x3b
 3579 007e 0B       		.uleb128 0xb
 3580 007f 49       		.uleb128 0x49
 3581 0080 13       		.uleb128 0x13
 3582 0081 38       		.uleb128 0x38
 3583 0082 0B       		.uleb128 0xb
 3584 0083 00       		.byte	0
 3585 0084 00       		.byte	0
ARM GAS  C:\Users\LUKASC~1\AppData\Local\Temp\ccX4OJiL.s 			page 108


 3586 0085 0C       		.uleb128 0xc
 3587 0086 01       		.uleb128 0x1
 3588 0087 01       		.byte	0x1
 3589 0088 49       		.uleb128 0x49
 3590 0089 13       		.uleb128 0x13
 3591 008a 01       		.uleb128 0x1
 3592 008b 13       		.uleb128 0x13
 3593 008c 00       		.byte	0
 3594 008d 00       		.byte	0
 3595 008e 0D       		.uleb128 0xd
 3596 008f 21       		.uleb128 0x21
 3597 0090 00       		.byte	0
 3598 0091 49       		.uleb128 0x49
 3599 0092 13       		.uleb128 0x13
 3600 0093 2F       		.uleb128 0x2f
 3601 0094 0B       		.uleb128 0xb
 3602 0095 00       		.byte	0
 3603 0096 00       		.byte	0
 3604 0097 0E       		.uleb128 0xe
 3605 0098 13       		.uleb128 0x13
 3606 0099 01       		.byte	0x1
 3607 009a 0B       		.uleb128 0xb
 3608 009b 0B       		.uleb128 0xb
 3609 009c 3A       		.uleb128 0x3a
 3610 009d 0B       		.uleb128 0xb
 3611 009e 3B       		.uleb128 0x3b
 3612 009f 05       		.uleb128 0x5
 3613 00a0 01       		.uleb128 0x1
 3614 00a1 13       		.uleb128 0x13
 3615 00a2 00       		.byte	0
 3616 00a3 00       		.byte	0
 3617 00a4 0F       		.uleb128 0xf
 3618 00a5 0D       		.uleb128 0xd
 3619 00a6 00       		.byte	0
 3620 00a7 03       		.uleb128 0x3
 3621 00a8 0E       		.uleb128 0xe
 3622 00a9 3A       		.uleb128 0x3a
 3623 00aa 0B       		.uleb128 0xb
 3624 00ab 3B       		.uleb128 0x3b
 3625 00ac 05       		.uleb128 0x5
 3626 00ad 49       		.uleb128 0x49
 3627 00ae 13       		.uleb128 0x13
 3628 00af 38       		.uleb128 0x38
 3629 00b0 0B       		.uleb128 0xb
 3630 00b1 00       		.byte	0
 3631 00b2 00       		.byte	0
 3632 00b3 10       		.uleb128 0x10
 3633 00b4 13       		.uleb128 0x13
 3634 00b5 01       		.byte	0x1
 3635 00b6 03       		.uleb128 0x3
 3636 00b7 0E       		.uleb128 0xe
 3637 00b8 0B       		.uleb128 0xb
 3638 00b9 0B       		.uleb128 0xb
 3639 00ba 3A       		.uleb128 0x3a
 3640 00bb 0B       		.uleb128 0xb
 3641 00bc 3B       		.uleb128 0x3b
 3642 00bd 0B       		.uleb128 0xb
ARM GAS  C:\Users\LUKASC~1\AppData\Local\Temp\ccX4OJiL.s 			page 109


 3643 00be 01       		.uleb128 0x1
 3644 00bf 13       		.uleb128 0x13
 3645 00c0 00       		.byte	0
 3646 00c1 00       		.byte	0
 3647 00c2 11       		.uleb128 0x11
 3648 00c3 2E       		.uleb128 0x2e
 3649 00c4 01       		.byte	0x1
 3650 00c5 3F       		.uleb128 0x3f
 3651 00c6 19       		.uleb128 0x19
 3652 00c7 03       		.uleb128 0x3
 3653 00c8 0E       		.uleb128 0xe
 3654 00c9 3A       		.uleb128 0x3a
 3655 00ca 0B       		.uleb128 0xb
 3656 00cb 3B       		.uleb128 0x3b
 3657 00cc 0B       		.uleb128 0xb
 3658 00cd 27       		.uleb128 0x27
 3659 00ce 19       		.uleb128 0x19
 3660 00cf 11       		.uleb128 0x11
 3661 00d0 01       		.uleb128 0x1
 3662 00d1 12       		.uleb128 0x12
 3663 00d2 06       		.uleb128 0x6
 3664 00d3 40       		.uleb128 0x40
 3665 00d4 18       		.uleb128 0x18
 3666 00d5 9742     		.uleb128 0x2117
 3667 00d7 19       		.uleb128 0x19
 3668 00d8 01       		.uleb128 0x1
 3669 00d9 13       		.uleb128 0x13
 3670 00da 00       		.byte	0
 3671 00db 00       		.byte	0
 3672 00dc 12       		.uleb128 0x12
 3673 00dd 34       		.uleb128 0x34
 3674 00de 00       		.byte	0
 3675 00df 03       		.uleb128 0x3
 3676 00e0 0E       		.uleb128 0xe
 3677 00e1 3A       		.uleb128 0x3a
 3678 00e2 0B       		.uleb128 0xb
 3679 00e3 3B       		.uleb128 0x3b
 3680 00e4 0B       		.uleb128 0xb
 3681 00e5 49       		.uleb128 0x49
 3682 00e6 13       		.uleb128 0x13
 3683 00e7 02       		.uleb128 0x2
 3684 00e8 17       		.uleb128 0x17
 3685 00e9 00       		.byte	0
 3686 00ea 00       		.byte	0
 3687 00eb 13       		.uleb128 0x13
 3688 00ec 34       		.uleb128 0x34
 3689 00ed 00       		.byte	0
 3690 00ee 03       		.uleb128 0x3
 3691 00ef 08       		.uleb128 0x8
 3692 00f0 3A       		.uleb128 0x3a
 3693 00f1 0B       		.uleb128 0xb
 3694 00f2 3B       		.uleb128 0x3b
 3695 00f3 0B       		.uleb128 0xb
 3696 00f4 49       		.uleb128 0x49
 3697 00f5 13       		.uleb128 0x13
 3698 00f6 02       		.uleb128 0x2
 3699 00f7 17       		.uleb128 0x17
ARM GAS  C:\Users\LUKASC~1\AppData\Local\Temp\ccX4OJiL.s 			page 110


 3700 00f8 00       		.byte	0
 3701 00f9 00       		.byte	0
 3702 00fa 14       		.uleb128 0x14
 3703 00fb 898201   		.uleb128 0x4109
 3704 00fe 00       		.byte	0
 3705 00ff 11       		.uleb128 0x11
 3706 0100 01       		.uleb128 0x1
 3707 0101 31       		.uleb128 0x31
 3708 0102 13       		.uleb128 0x13
 3709 0103 00       		.byte	0
 3710 0104 00       		.byte	0
 3711 0105 15       		.uleb128 0x15
 3712 0106 898201   		.uleb128 0x4109
 3713 0109 01       		.byte	0x1
 3714 010a 11       		.uleb128 0x11
 3715 010b 01       		.uleb128 0x1
 3716 010c 31       		.uleb128 0x31
 3717 010d 13       		.uleb128 0x13
 3718 010e 01       		.uleb128 0x1
 3719 010f 13       		.uleb128 0x13
 3720 0110 00       		.byte	0
 3721 0111 00       		.byte	0
 3722 0112 16       		.uleb128 0x16
 3723 0113 8A8201   		.uleb128 0x410a
 3724 0116 00       		.byte	0
 3725 0117 02       		.uleb128 0x2
 3726 0118 18       		.uleb128 0x18
 3727 0119 9142     		.uleb128 0x2111
 3728 011b 18       		.uleb128 0x18
 3729 011c 00       		.byte	0
 3730 011d 00       		.byte	0
 3731 011e 17       		.uleb128 0x17
 3732 011f 898201   		.uleb128 0x4109
 3733 0122 01       		.byte	0x1
 3734 0123 11       		.uleb128 0x11
 3735 0124 01       		.uleb128 0x1
 3736 0125 31       		.uleb128 0x31
 3737 0126 13       		.uleb128 0x13
 3738 0127 00       		.byte	0
 3739 0128 00       		.byte	0
 3740 0129 18       		.uleb128 0x18
 3741 012a 2E       		.uleb128 0x2e
 3742 012b 01       		.byte	0x1
 3743 012c 3F       		.uleb128 0x3f
 3744 012d 19       		.uleb128 0x19
 3745 012e 03       		.uleb128 0x3
 3746 012f 0E       		.uleb128 0xe
 3747 0130 3A       		.uleb128 0x3a
 3748 0131 0B       		.uleb128 0xb
 3749 0132 3B       		.uleb128 0x3b
 3750 0133 05       		.uleb128 0x5
 3751 0134 27       		.uleb128 0x27
 3752 0135 19       		.uleb128 0x19
 3753 0136 11       		.uleb128 0x11
 3754 0137 01       		.uleb128 0x1
 3755 0138 12       		.uleb128 0x12
 3756 0139 06       		.uleb128 0x6
ARM GAS  C:\Users\LUKASC~1\AppData\Local\Temp\ccX4OJiL.s 			page 111


 3757 013a 40       		.uleb128 0x40
 3758 013b 18       		.uleb128 0x18
 3759 013c 9742     		.uleb128 0x2117
 3760 013e 19       		.uleb128 0x19
 3761 013f 01       		.uleb128 0x1
 3762 0140 13       		.uleb128 0x13
 3763 0141 00       		.byte	0
 3764 0142 00       		.byte	0
 3765 0143 19       		.uleb128 0x19
 3766 0144 05       		.uleb128 0x5
 3767 0145 00       		.byte	0
 3768 0146 03       		.uleb128 0x3
 3769 0147 0E       		.uleb128 0xe
 3770 0148 3A       		.uleb128 0x3a
 3771 0149 0B       		.uleb128 0xb
 3772 014a 3B       		.uleb128 0x3b
 3773 014b 05       		.uleb128 0x5
 3774 014c 49       		.uleb128 0x49
 3775 014d 13       		.uleb128 0x13
 3776 014e 02       		.uleb128 0x2
 3777 014f 17       		.uleb128 0x17
 3778 0150 00       		.byte	0
 3779 0151 00       		.byte	0
 3780 0152 1A       		.uleb128 0x1a
 3781 0153 05       		.uleb128 0x5
 3782 0154 00       		.byte	0
 3783 0155 03       		.uleb128 0x3
 3784 0156 0E       		.uleb128 0xe
 3785 0157 3A       		.uleb128 0x3a
 3786 0158 0B       		.uleb128 0xb
 3787 0159 3B       		.uleb128 0x3b
 3788 015a 0B       		.uleb128 0xb
 3789 015b 49       		.uleb128 0x49
 3790 015c 13       		.uleb128 0x13
 3791 015d 02       		.uleb128 0x2
 3792 015e 17       		.uleb128 0x17
 3793 015f 00       		.byte	0
 3794 0160 00       		.byte	0
 3795 0161 1B       		.uleb128 0x1b
 3796 0162 2E       		.uleb128 0x2e
 3797 0163 00       		.byte	0
 3798 0164 3F       		.uleb128 0x3f
 3799 0165 19       		.uleb128 0x19
 3800 0166 03       		.uleb128 0x3
 3801 0167 0E       		.uleb128 0xe
 3802 0168 3A       		.uleb128 0x3a
 3803 0169 0B       		.uleb128 0xb
 3804 016a 3B       		.uleb128 0x3b
 3805 016b 05       		.uleb128 0x5
 3806 016c 27       		.uleb128 0x27
 3807 016d 19       		.uleb128 0x19
 3808 016e 11       		.uleb128 0x11
 3809 016f 01       		.uleb128 0x1
 3810 0170 12       		.uleb128 0x12
 3811 0171 06       		.uleb128 0x6
 3812 0172 40       		.uleb128 0x40
 3813 0173 18       		.uleb128 0x18
ARM GAS  C:\Users\LUKASC~1\AppData\Local\Temp\ccX4OJiL.s 			page 112


 3814 0174 9742     		.uleb128 0x2117
 3815 0176 19       		.uleb128 0x19
 3816 0177 00       		.byte	0
 3817 0178 00       		.byte	0
 3818 0179 1C       		.uleb128 0x1c
 3819 017a 2E       		.uleb128 0x2e
 3820 017b 01       		.byte	0x1
 3821 017c 3F       		.uleb128 0x3f
 3822 017d 19       		.uleb128 0x19
 3823 017e 03       		.uleb128 0x3
 3824 017f 0E       		.uleb128 0xe
 3825 0180 3A       		.uleb128 0x3a
 3826 0181 0B       		.uleb128 0xb
 3827 0182 3B       		.uleb128 0x3b
 3828 0183 05       		.uleb128 0x5
 3829 0184 27       		.uleb128 0x27
 3830 0185 19       		.uleb128 0x19
 3831 0186 49       		.uleb128 0x49
 3832 0187 13       		.uleb128 0x13
 3833 0188 11       		.uleb128 0x11
 3834 0189 01       		.uleb128 0x1
 3835 018a 12       		.uleb128 0x12
 3836 018b 06       		.uleb128 0x6
 3837 018c 40       		.uleb128 0x40
 3838 018d 18       		.uleb128 0x18
 3839 018e 9742     		.uleb128 0x2117
 3840 0190 19       		.uleb128 0x19
 3841 0191 01       		.uleb128 0x1
 3842 0192 13       		.uleb128 0x13
 3843 0193 00       		.byte	0
 3844 0194 00       		.byte	0
 3845 0195 1D       		.uleb128 0x1d
 3846 0196 34       		.uleb128 0x34
 3847 0197 00       		.byte	0
 3848 0198 03       		.uleb128 0x3
 3849 0199 0E       		.uleb128 0xe
 3850 019a 3A       		.uleb128 0x3a
 3851 019b 0B       		.uleb128 0xb
 3852 019c 3B       		.uleb128 0x3b
 3853 019d 05       		.uleb128 0x5
 3854 019e 49       		.uleb128 0x49
 3855 019f 13       		.uleb128 0x13
 3856 01a0 02       		.uleb128 0x2
 3857 01a1 17       		.uleb128 0x17
 3858 01a2 00       		.byte	0
 3859 01a3 00       		.byte	0
 3860 01a4 1E       		.uleb128 0x1e
 3861 01a5 2E       		.uleb128 0x2e
 3862 01a6 00       		.byte	0
 3863 01a7 3F       		.uleb128 0x3f
 3864 01a8 19       		.uleb128 0x19
 3865 01a9 03       		.uleb128 0x3
 3866 01aa 0E       		.uleb128 0xe
 3867 01ab 3A       		.uleb128 0x3a
 3868 01ac 0B       		.uleb128 0xb
 3869 01ad 3B       		.uleb128 0x3b
 3870 01ae 05       		.uleb128 0x5
ARM GAS  C:\Users\LUKASC~1\AppData\Local\Temp\ccX4OJiL.s 			page 113


 3871 01af 27       		.uleb128 0x27
 3872 01b0 19       		.uleb128 0x19
 3873 01b1 49       		.uleb128 0x49
 3874 01b2 13       		.uleb128 0x13
 3875 01b3 11       		.uleb128 0x11
 3876 01b4 01       		.uleb128 0x1
 3877 01b5 12       		.uleb128 0x12
 3878 01b6 06       		.uleb128 0x6
 3879 01b7 40       		.uleb128 0x40
 3880 01b8 18       		.uleb128 0x18
 3881 01b9 9742     		.uleb128 0x2117
 3882 01bb 19       		.uleb128 0x19
 3883 01bc 00       		.byte	0
 3884 01bd 00       		.byte	0
 3885 01be 1F       		.uleb128 0x1f
 3886 01bf 34       		.uleb128 0x34
 3887 01c0 00       		.byte	0
 3888 01c1 03       		.uleb128 0x3
 3889 01c2 08       		.uleb128 0x8
 3890 01c3 3A       		.uleb128 0x3a
 3891 01c4 0B       		.uleb128 0xb
 3892 01c5 3B       		.uleb128 0x3b
 3893 01c6 05       		.uleb128 0x5
 3894 01c7 49       		.uleb128 0x49
 3895 01c8 13       		.uleb128 0x13
 3896 01c9 02       		.uleb128 0x2
 3897 01ca 17       		.uleb128 0x17
 3898 01cb 00       		.byte	0
 3899 01cc 00       		.byte	0
 3900 01cd 20       		.uleb128 0x20
 3901 01ce 26       		.uleb128 0x26
 3902 01cf 00       		.byte	0
 3903 01d0 49       		.uleb128 0x49
 3904 01d1 13       		.uleb128 0x13
 3905 01d2 00       		.byte	0
 3906 01d3 00       		.byte	0
 3907 01d4 21       		.uleb128 0x21
 3908 01d5 05       		.uleb128 0x5
 3909 01d6 00       		.byte	0
 3910 01d7 03       		.uleb128 0x3
 3911 01d8 0E       		.uleb128 0xe
 3912 01d9 3A       		.uleb128 0x3a
 3913 01da 0B       		.uleb128 0xb
 3914 01db 3B       		.uleb128 0x3b
 3915 01dc 05       		.uleb128 0x5
 3916 01dd 49       		.uleb128 0x49
 3917 01de 13       		.uleb128 0x13
 3918 01df 02       		.uleb128 0x2
 3919 01e0 18       		.uleb128 0x18
 3920 01e1 00       		.byte	0
 3921 01e2 00       		.byte	0
 3922 01e3 22       		.uleb128 0x22
 3923 01e4 34       		.uleb128 0x34
 3924 01e5 00       		.byte	0
 3925 01e6 03       		.uleb128 0x3
 3926 01e7 0E       		.uleb128 0xe
 3927 01e8 3A       		.uleb128 0x3a
ARM GAS  C:\Users\LUKASC~1\AppData\Local\Temp\ccX4OJiL.s 			page 114


 3928 01e9 0B       		.uleb128 0xb
 3929 01ea 3B       		.uleb128 0x3b
 3930 01eb 0B       		.uleb128 0xb
 3931 01ec 49       		.uleb128 0x49
 3932 01ed 13       		.uleb128 0x13
 3933 01ee 02       		.uleb128 0x2
 3934 01ef 18       		.uleb128 0x18
 3935 01f0 00       		.byte	0
 3936 01f1 00       		.byte	0
 3937 01f2 23       		.uleb128 0x23
 3938 01f3 34       		.uleb128 0x34
 3939 01f4 00       		.byte	0
 3940 01f5 03       		.uleb128 0x3
 3941 01f6 0E       		.uleb128 0xe
 3942 01f7 3A       		.uleb128 0x3a
 3943 01f8 0B       		.uleb128 0xb
 3944 01f9 3B       		.uleb128 0x3b
 3945 01fa 0B       		.uleb128 0xb
 3946 01fb 49       		.uleb128 0x49
 3947 01fc 13       		.uleb128 0x13
 3948 01fd 3F       		.uleb128 0x3f
 3949 01fe 19       		.uleb128 0x19
 3950 01ff 02       		.uleb128 0x2
 3951 0200 18       		.uleb128 0x18
 3952 0201 00       		.byte	0
 3953 0202 00       		.byte	0
 3954 0203 24       		.uleb128 0x24
 3955 0204 34       		.uleb128 0x34
 3956 0205 00       		.byte	0
 3957 0206 03       		.uleb128 0x3
 3958 0207 0E       		.uleb128 0xe
 3959 0208 3A       		.uleb128 0x3a
 3960 0209 0B       		.uleb128 0xb
 3961 020a 3B       		.uleb128 0x3b
 3962 020b 05       		.uleb128 0x5
 3963 020c 49       		.uleb128 0x49
 3964 020d 13       		.uleb128 0x13
 3965 020e 3F       		.uleb128 0x3f
 3966 020f 19       		.uleb128 0x19
 3967 0210 3C       		.uleb128 0x3c
 3968 0211 19       		.uleb128 0x19
 3969 0212 00       		.byte	0
 3970 0213 00       		.byte	0
 3971 0214 25       		.uleb128 0x25
 3972 0215 34       		.uleb128 0x34
 3973 0216 00       		.byte	0
 3974 0217 03       		.uleb128 0x3
 3975 0218 0E       		.uleb128 0xe
 3976 0219 3A       		.uleb128 0x3a
 3977 021a 0B       		.uleb128 0xb
 3978 021b 3B       		.uleb128 0x3b
 3979 021c 0B       		.uleb128 0xb
 3980 021d 49       		.uleb128 0x49
 3981 021e 13       		.uleb128 0x13
 3982 021f 3F       		.uleb128 0x3f
 3983 0220 19       		.uleb128 0x19
 3984 0221 3C       		.uleb128 0x3c
ARM GAS  C:\Users\LUKASC~1\AppData\Local\Temp\ccX4OJiL.s 			page 115


 3985 0222 19       		.uleb128 0x19
 3986 0223 00       		.byte	0
 3987 0224 00       		.byte	0
 3988 0225 26       		.uleb128 0x26
 3989 0226 2E       		.uleb128 0x2e
 3990 0227 00       		.byte	0
 3991 0228 3F       		.uleb128 0x3f
 3992 0229 19       		.uleb128 0x19
 3993 022a 03       		.uleb128 0x3
 3994 022b 0E       		.uleb128 0xe
 3995 022c 3A       		.uleb128 0x3a
 3996 022d 0B       		.uleb128 0xb
 3997 022e 3B       		.uleb128 0x3b
 3998 022f 0B       		.uleb128 0xb
 3999 0230 27       		.uleb128 0x27
 4000 0231 19       		.uleb128 0x19
 4001 0232 49       		.uleb128 0x49
 4002 0233 13       		.uleb128 0x13
 4003 0234 3C       		.uleb128 0x3c
 4004 0235 19       		.uleb128 0x19
 4005 0236 00       		.byte	0
 4006 0237 00       		.byte	0
 4007 0238 27       		.uleb128 0x27
 4008 0239 2E       		.uleb128 0x2e
 4009 023a 01       		.byte	0x1
 4010 023b 3F       		.uleb128 0x3f
 4011 023c 19       		.uleb128 0x19
 4012 023d 03       		.uleb128 0x3
 4013 023e 0E       		.uleb128 0xe
 4014 023f 3A       		.uleb128 0x3a
 4015 0240 0B       		.uleb128 0xb
 4016 0241 3B       		.uleb128 0x3b
 4017 0242 0B       		.uleb128 0xb
 4018 0243 27       		.uleb128 0x27
 4019 0244 19       		.uleb128 0x19
 4020 0245 3C       		.uleb128 0x3c
 4021 0246 19       		.uleb128 0x19
 4022 0247 01       		.uleb128 0x1
 4023 0248 13       		.uleb128 0x13
 4024 0249 00       		.byte	0
 4025 024a 00       		.byte	0
 4026 024b 28       		.uleb128 0x28
 4027 024c 05       		.uleb128 0x5
 4028 024d 00       		.byte	0
 4029 024e 49       		.uleb128 0x49
 4030 024f 13       		.uleb128 0x13
 4031 0250 00       		.byte	0
 4032 0251 00       		.byte	0
 4033 0252 29       		.uleb128 0x29
 4034 0253 2E       		.uleb128 0x2e
 4035 0254 01       		.byte	0x1
 4036 0255 3F       		.uleb128 0x3f
 4037 0256 19       		.uleb128 0x19
 4038 0257 03       		.uleb128 0x3
 4039 0258 0E       		.uleb128 0xe
 4040 0259 3A       		.uleb128 0x3a
 4041 025a 0B       		.uleb128 0xb
ARM GAS  C:\Users\LUKASC~1\AppData\Local\Temp\ccX4OJiL.s 			page 116


 4042 025b 3B       		.uleb128 0x3b
 4043 025c 0B       		.uleb128 0xb
 4044 025d 27       		.uleb128 0x27
 4045 025e 19       		.uleb128 0x19
 4046 025f 49       		.uleb128 0x49
 4047 0260 13       		.uleb128 0x13
 4048 0261 3C       		.uleb128 0x3c
 4049 0262 19       		.uleb128 0x19
 4050 0263 01       		.uleb128 0x1
 4051 0264 13       		.uleb128 0x13
 4052 0265 00       		.byte	0
 4053 0266 00       		.byte	0
 4054 0267 2A       		.uleb128 0x2a
 4055 0268 2E       		.uleb128 0x2e
 4056 0269 00       		.byte	0
 4057 026a 3F       		.uleb128 0x3f
 4058 026b 19       		.uleb128 0x19
 4059 026c 03       		.uleb128 0x3
 4060 026d 0E       		.uleb128 0xe
 4061 026e 3A       		.uleb128 0x3a
 4062 026f 0B       		.uleb128 0xb
 4063 0270 3B       		.uleb128 0x3b
 4064 0271 0B       		.uleb128 0xb
 4065 0272 27       		.uleb128 0x27
 4066 0273 19       		.uleb128 0x19
 4067 0274 3C       		.uleb128 0x3c
 4068 0275 19       		.uleb128 0x19
 4069 0276 00       		.byte	0
 4070 0277 00       		.byte	0
 4071 0278 2B       		.uleb128 0x2b
 4072 0279 2E       		.uleb128 0x2e
 4073 027a 01       		.byte	0x1
 4074 027b 3F       		.uleb128 0x3f
 4075 027c 19       		.uleb128 0x19
 4076 027d 03       		.uleb128 0x3
 4077 027e 0E       		.uleb128 0xe
 4078 027f 3A       		.uleb128 0x3a
 4079 0280 0B       		.uleb128 0xb
 4080 0281 3B       		.uleb128 0x3b
 4081 0282 0B       		.uleb128 0xb
 4082 0283 27       		.uleb128 0x27
 4083 0284 19       		.uleb128 0x19
 4084 0285 49       		.uleb128 0x49
 4085 0286 13       		.uleb128 0x13
 4086 0287 3C       		.uleb128 0x3c
 4087 0288 19       		.uleb128 0x19
 4088 0289 00       		.byte	0
 4089 028a 00       		.byte	0
 4090 028b 00       		.byte	0
 4091              		.section	.debug_loc,"",%progbits
 4092              	.Ldebug_loc0:
 4093              	.LLST0:
 4094 0000 08000000 		.4byte	.LVL1
 4095 0004 FE000000 		.4byte	.LVL21
 4096 0008 0100     		.2byte	0x1
 4097 000a 55       		.byte	0x55
 4098 000b 00000000 		.4byte	0
ARM GAS  C:\Users\LUKASC~1\AppData\Local\Temp\ccX4OJiL.s 			page 117


 4099 000f 00000000 		.4byte	0
 4100              	.LLST1:
 4101 0013 92000000 		.4byte	.LVL6
 4102 0017 94000000 		.4byte	.LVL7
 4103 001b 0200     		.2byte	0x2
 4104 001d 30       		.byte	0x30
 4105 001e 9F       		.byte	0x9f
 4106 001f 94000000 		.4byte	.LVL7
 4107 0023 A0000000 		.4byte	.LVL8
 4108 0027 0100     		.2byte	0x1
 4109 0029 53       		.byte	0x53
 4110 002a A2000000 		.4byte	.LVL9
 4111 002e AB000000 		.4byte	.LVL10-1
 4112 0032 0100     		.2byte	0x1
 4113 0034 53       		.byte	0x53
 4114 0035 00000000 		.4byte	0
 4115 0039 00000000 		.4byte	0
 4116              	.LLST2:
 4117 003d 00000000 		.4byte	.LVL22
 4118 0041 4A000000 		.4byte	.LVL24
 4119 0045 0100     		.2byte	0x1
 4120 0047 50       		.byte	0x50
 4121 0048 4A000000 		.4byte	.LVL24
 4122 004c D8000000 		.4byte	.LFE2
 4123 0050 0400     		.2byte	0x4
 4124 0052 F3       		.byte	0xf3
 4125 0053 01       		.uleb128 0x1
 4126 0054 50       		.byte	0x50
 4127 0055 9F       		.byte	0x9f
 4128 0056 00000000 		.4byte	0
 4129 005a 00000000 		.4byte	0
 4130              	.LLST3:
 4131 005e 00000000 		.4byte	.LVL22
 4132 0062 3A000000 		.4byte	.LVL23
 4133 0066 0100     		.2byte	0x1
 4134 0068 51       		.byte	0x51
 4135 0069 3A000000 		.4byte	.LVL23
 4136 006d D8000000 		.4byte	.LFE2
 4137 0071 0400     		.2byte	0x4
 4138 0073 F3       		.byte	0xf3
 4139 0074 01       		.uleb128 0x1
 4140 0075 51       		.byte	0x51
 4141 0076 9F       		.byte	0x9f
 4142 0077 00000000 		.4byte	0
 4143 007b 00000000 		.4byte	0
 4144              	.LLST4:
 4145 007f 00000000 		.4byte	.LVL29
 4146 0083 0F000000 		.4byte	.LVL30-1
 4147 0087 0100     		.2byte	0x1
 4148 0089 50       		.byte	0x50
 4149 008a 0F000000 		.4byte	.LVL30-1
 4150 008e 24000000 		.4byte	.LFE0
 4151 0092 0400     		.2byte	0x4
 4152 0094 F3       		.byte	0xf3
 4153 0095 01       		.uleb128 0x1
 4154 0096 50       		.byte	0x50
 4155 0097 9F       		.byte	0x9f
ARM GAS  C:\Users\LUKASC~1\AppData\Local\Temp\ccX4OJiL.s 			page 118


 4156 0098 00000000 		.4byte	0
 4157 009c 00000000 		.4byte	0
 4158              	.LLST5:
 4159 00a0 00000000 		.4byte	.LVL29
 4160 00a4 0F000000 		.4byte	.LVL30-1
 4161 00a8 0100     		.2byte	0x1
 4162 00aa 51       		.byte	0x51
 4163 00ab 0F000000 		.4byte	.LVL30-1
 4164 00af 24000000 		.4byte	.LFE0
 4165 00b3 0400     		.2byte	0x4
 4166 00b5 F3       		.byte	0xf3
 4167 00b6 01       		.uleb128 0x1
 4168 00b7 51       		.byte	0x51
 4169 00b8 9F       		.byte	0x9f
 4170 00b9 00000000 		.4byte	0
 4171 00bd 00000000 		.4byte	0
 4172              	.LLST6:
 4173 00c1 06000000 		.4byte	.LVL32
 4174 00c5 10000000 		.4byte	.LVL33
 4175 00c9 0100     		.2byte	0x1
 4176 00cb 53       		.byte	0x53
 4177 00cc 00000000 		.4byte	0
 4178 00d0 00000000 		.4byte	0
 4179              	.LLST7:
 4180 00d4 00000000 		.4byte	.LVL34
 4181 00d8 10000000 		.4byte	.LVL35
 4182 00dc 0200     		.2byte	0x2
 4183 00de 30       		.byte	0x30
 4184 00df 9F       		.byte	0x9f
 4185 00e0 10000000 		.4byte	.LVL35
 4186 00e4 16000000 		.4byte	.LVL36
 4187 00e8 0100     		.2byte	0x1
 4188 00ea 50       		.byte	0x50
 4189 00eb 16000000 		.4byte	.LVL36
 4190 00ef 18000000 		.4byte	.LVL37
 4191 00f3 0200     		.2byte	0x2
 4192 00f5 30       		.byte	0x30
 4193 00f6 9F       		.byte	0x9f
 4194 00f7 18000000 		.4byte	.LVL37
 4195 00fb 20000000 		.4byte	.LFE7
 4196 00ff 0100     		.2byte	0x1
 4197 0101 50       		.byte	0x50
 4198 0102 00000000 		.4byte	0
 4199 0106 00000000 		.4byte	0
 4200              	.LLST8:
 4201 010a 00000000 		.4byte	.LVL38
 4202 010e 04000000 		.4byte	.LVL39
 4203 0112 0100     		.2byte	0x1
 4204 0114 50       		.byte	0x50
 4205 0115 04000000 		.4byte	.LVL39
 4206 0119 0C000000 		.4byte	.LFE8
 4207 011d 0400     		.2byte	0x4
 4208 011f F3       		.byte	0xf3
 4209 0120 01       		.uleb128 0x1
 4210 0121 50       		.byte	0x50
 4211 0122 9F       		.byte	0x9f
 4212 0123 00000000 		.4byte	0
ARM GAS  C:\Users\LUKASC~1\AppData\Local\Temp\ccX4OJiL.s 			page 119


 4213 0127 00000000 		.4byte	0
 4214              	.LLST9:
 4215 012b 00000000 		.4byte	.LVL40
 4216 012f 04000000 		.4byte	.LVL41
 4217 0133 0100     		.2byte	0x1
 4218 0135 50       		.byte	0x50
 4219 0136 04000000 		.4byte	.LVL41
 4220 013a 14000000 		.4byte	.LFE9
 4221 013e 0400     		.2byte	0x4
 4222 0140 F3       		.byte	0xf3
 4223 0141 01       		.uleb128 0x1
 4224 0142 50       		.byte	0x50
 4225 0143 9F       		.byte	0x9f
 4226 0144 00000000 		.4byte	0
 4227 0148 00000000 		.4byte	0
 4228              	.LLST10:
 4229 014c 00000000 		.4byte	.LVL42
 4230 0150 0C000000 		.4byte	.LVL43
 4231 0154 0100     		.2byte	0x1
 4232 0156 50       		.byte	0x50
 4233 0157 0C000000 		.4byte	.LVL43
 4234 015b 20000000 		.4byte	.LVL48
 4235 015f 0400     		.2byte	0x4
 4236 0161 F3       		.byte	0xf3
 4237 0162 01       		.uleb128 0x1
 4238 0163 50       		.byte	0x50
 4239 0164 9F       		.byte	0x9f
 4240 0165 20000000 		.4byte	.LVL48
 4241 0169 22000000 		.4byte	.LVL49
 4242 016d 0100     		.2byte	0x1
 4243 016f 50       		.byte	0x50
 4244 0170 22000000 		.4byte	.LVL49
 4245 0174 28000000 		.4byte	.LFE10
 4246 0178 0400     		.2byte	0x4
 4247 017a F3       		.byte	0xf3
 4248 017b 01       		.uleb128 0x1
 4249 017c 50       		.byte	0x50
 4250 017d 9F       		.byte	0x9f
 4251 017e 00000000 		.4byte	0
 4252 0182 00000000 		.4byte	0
 4253              	.LLST11:
 4254 0186 00000000 		.4byte	.LVL42
 4255 018a 14000000 		.4byte	.LVL44
 4256 018e 0200     		.2byte	0x2
 4257 0190 30       		.byte	0x30
 4258 0191 9F       		.byte	0x9f
 4259 0192 14000000 		.4byte	.LVL44
 4260 0196 1C000000 		.4byte	.LVL46
 4261 019a 0100     		.2byte	0x1
 4262 019c 50       		.byte	0x50
 4263 019d 1C000000 		.4byte	.LVL46
 4264 01a1 1E000000 		.4byte	.LVL47
 4265 01a5 0300     		.2byte	0x3
 4266 01a7 70       		.byte	0x70
 4267 01a8 02       		.sleb128 2
 4268 01a9 9F       		.byte	0x9f
 4269 01aa 1E000000 		.4byte	.LVL47
ARM GAS  C:\Users\LUKASC~1\AppData\Local\Temp\ccX4OJiL.s 			page 120


 4270 01ae 20000000 		.4byte	.LVL48
 4271 01b2 0100     		.2byte	0x1
 4272 01b4 50       		.byte	0x50
 4273 01b5 20000000 		.4byte	.LVL48
 4274 01b9 22000000 		.4byte	.LVL49
 4275 01bd 0200     		.2byte	0x2
 4276 01bf 30       		.byte	0x30
 4277 01c0 9F       		.byte	0x9f
 4278 01c1 22000000 		.4byte	.LVL49
 4279 01c5 28000000 		.4byte	.LFE10
 4280 01c9 0100     		.2byte	0x1
 4281 01cb 50       		.byte	0x50
 4282 01cc 00000000 		.4byte	0
 4283 01d0 00000000 		.4byte	0
 4284              	.LLST12:
 4285 01d4 00000000 		.4byte	.LVL50
 4286 01d8 08000000 		.4byte	.LVL51
 4287 01dc 0100     		.2byte	0x1
 4288 01de 50       		.byte	0x50
 4289 01df 08000000 		.4byte	.LVL51
 4290 01e3 60000000 		.4byte	.LFE11
 4291 01e7 0400     		.2byte	0x4
 4292 01e9 F3       		.byte	0xf3
 4293 01ea 01       		.uleb128 0x1
 4294 01eb 50       		.byte	0x50
 4295 01ec 9F       		.byte	0x9f
 4296 01ed 00000000 		.4byte	0
 4297 01f1 00000000 		.4byte	0
 4298              	.LLST13:
 4299 01f5 00000000 		.4byte	.LVL50
 4300 01f9 2C000000 		.4byte	.LVL56
 4301 01fd 0100     		.2byte	0x1
 4302 01ff 51       		.byte	0x51
 4303 0200 2C000000 		.4byte	.LVL56
 4304 0204 60000000 		.4byte	.LFE11
 4305 0208 0400     		.2byte	0x4
 4306 020a F3       		.byte	0xf3
 4307 020b 01       		.uleb128 0x1
 4308 020c 51       		.byte	0x51
 4309 020d 9F       		.byte	0x9f
 4310 020e 00000000 		.4byte	0
 4311 0212 00000000 		.4byte	0
 4312              	.LLST14:
 4313 0216 18000000 		.4byte	.LVL52
 4314 021a 1E000000 		.4byte	.LVL53
 4315 021e 0100     		.2byte	0x1
 4316 0220 52       		.byte	0x52
 4317 0221 1E000000 		.4byte	.LVL53
 4318 0225 24000000 		.4byte	.LVL55
 4319 0229 0400     		.2byte	0x4
 4320 022b 0A       		.byte	0xa
 4321 022c 0040     		.2byte	0x4000
 4322 022e 9F       		.byte	0x9f
 4323 022f 24000000 		.4byte	.LVL55
 4324 0233 2F000000 		.4byte	.LVL57-1
 4325 0237 0100     		.2byte	0x1
 4326 0239 52       		.byte	0x52
ARM GAS  C:\Users\LUKASC~1\AppData\Local\Temp\ccX4OJiL.s 			page 121


 4327 023a 00000000 		.4byte	0
 4328 023e 00000000 		.4byte	0
 4329              	.LLST15:
 4330 0242 18000000 		.4byte	.LVL52
 4331 0246 1E000000 		.4byte	.LVL53
 4332 024a 0400     		.2byte	0x4
 4333 024c 0A       		.byte	0xa
 4334 024d 0040     		.2byte	0x4000
 4335 024f 9F       		.byte	0x9f
 4336 0250 20000000 		.4byte	.LVL54
 4337 0254 2F000000 		.4byte	.LVL57-1
 4338 0258 0100     		.2byte	0x1
 4339 025a 53       		.byte	0x53
 4340 025b 00000000 		.4byte	0
 4341 025f 00000000 		.4byte	0
 4342              	.LLST16:
 4343 0263 00000000 		.4byte	.LVL60
 4344 0267 0E000000 		.4byte	.LVL61
 4345 026b 0100     		.2byte	0x1
 4346 026d 50       		.byte	0x50
 4347 026e 0E000000 		.4byte	.LVL61
 4348 0272 58000000 		.4byte	.LFE12
 4349 0276 0400     		.2byte	0x4
 4350 0278 F3       		.byte	0xf3
 4351 0279 01       		.uleb128 0x1
 4352 027a 50       		.byte	0x50
 4353 027b 9F       		.byte	0x9f
 4354 027c 00000000 		.4byte	0
 4355 0280 00000000 		.4byte	0
 4356              	.LLST17:
 4357 0284 0E000000 		.4byte	.LVL61
 4358 0288 40000000 		.4byte	.LVL65
 4359 028c 0100     		.2byte	0x1
 4360 028e 54       		.byte	0x54
 4361 028f 42000000 		.4byte	.LVL66
 4362 0293 4C000000 		.4byte	.LVL67
 4363 0297 0100     		.2byte	0x1
 4364 0299 54       		.byte	0x54
 4365 029a 00000000 		.4byte	0
 4366 029e 00000000 		.4byte	0
 4367              	.LLST18:
 4368 02a2 0C000000 		.4byte	.LVL69
 4369 02a6 3B000000 		.4byte	.LVL70-1
 4370 02aa 0100     		.2byte	0x1
 4371 02ac 50       		.byte	0x50
 4372 02ad 00000000 		.4byte	0
 4373 02b1 00000000 		.4byte	0
 4374              	.LLST19:
 4375 02b5 00000000 		.4byte	.LVL71
 4376 02b9 04000000 		.4byte	.LVL72
 4377 02bd 0100     		.2byte	0x1
 4378 02bf 51       		.byte	0x51
 4379 02c0 04000000 		.4byte	.LVL72
 4380 02c4 3C000000 		.4byte	.LVL77
 4381 02c8 0400     		.2byte	0x4
 4382 02ca F3       		.byte	0xf3
 4383 02cb 01       		.uleb128 0x1
ARM GAS  C:\Users\LUKASC~1\AppData\Local\Temp\ccX4OJiL.s 			page 122


 4384 02cc 51       		.byte	0x51
 4385 02cd 9F       		.byte	0x9f
 4386 02ce 3C000000 		.4byte	.LVL77
 4387 02d2 4C000000 		.4byte	.LVL79
 4388 02d6 0100     		.2byte	0x1
 4389 02d8 51       		.byte	0x51
 4390 02d9 4C000000 		.4byte	.LVL79
 4391 02dd 90000000 		.4byte	.LFE13
 4392 02e1 0400     		.2byte	0x4
 4393 02e3 F3       		.byte	0xf3
 4394 02e4 01       		.uleb128 0x1
 4395 02e5 51       		.byte	0x51
 4396 02e6 9F       		.byte	0x9f
 4397 02e7 00000000 		.4byte	0
 4398 02eb 00000000 		.4byte	0
 4399              	.LLST20:
 4400 02ef 10000000 		.4byte	.LVL73
 4401 02f3 1E000000 		.4byte	.LVL74
 4402 02f7 0100     		.2byte	0x1
 4403 02f9 53       		.byte	0x53
 4404 02fa 28000000 		.4byte	.LVL75
 4405 02fe 38000000 		.4byte	.LVL76
 4406 0302 0300     		.2byte	0x3
 4407 0304 73       		.byte	0x73
 4408 0305 04       		.sleb128 4
 4409 0306 9F       		.byte	0x9f
 4410 0307 4A000000 		.4byte	.LVL78
 4411 030b 50000000 		.4byte	.LVL80
 4412 030f 0100     		.2byte	0x1
 4413 0311 53       		.byte	0x53
 4414 0312 5A000000 		.4byte	.LVL81
 4415 0316 66000000 		.4byte	.LVL82
 4416 031a 0300     		.2byte	0x3
 4417 031c 73       		.byte	0x73
 4418 031d 04       		.sleb128 4
 4419 031e 9F       		.byte	0x9f
 4420 031f 00000000 		.4byte	0
 4421 0323 00000000 		.4byte	0
 4422              	.LLST21:
 4423 0327 00000000 		.4byte	.LVL83
 4424 032b 2A000000 		.4byte	.LVL86
 4425 032f 0100     		.2byte	0x1
 4426 0331 50       		.byte	0x50
 4427 0332 2A000000 		.4byte	.LVL86
 4428 0336 88010000 		.4byte	.LFE14
 4429 033a 0400     		.2byte	0x4
 4430 033c F3       		.byte	0xf3
 4431 033d 01       		.uleb128 0x1
 4432 033e 50       		.byte	0x50
 4433 033f 9F       		.byte	0x9f
 4434 0340 00000000 		.4byte	0
 4435 0344 00000000 		.4byte	0
 4436              	.LLST22:
 4437 0348 00000000 		.4byte	.LVL83
 4438 034c 26000000 		.4byte	.LVL85
 4439 0350 0100     		.2byte	0x1
 4440 0352 51       		.byte	0x51
ARM GAS  C:\Users\LUKASC~1\AppData\Local\Temp\ccX4OJiL.s 			page 123


 4441 0353 26000000 		.4byte	.LVL85
 4442 0357 EA000000 		.4byte	.LVL97
 4443 035b 0100     		.2byte	0x1
 4444 035d 56       		.byte	0x56
 4445 035e EA000000 		.4byte	.LVL97
 4446 0362 40010000 		.4byte	.LVL104
 4447 0366 0400     		.2byte	0x4
 4448 0368 F3       		.byte	0xf3
 4449 0369 01       		.uleb128 0x1
 4450 036a 51       		.byte	0x51
 4451 036b 9F       		.byte	0x9f
 4452 036c 40010000 		.4byte	.LVL104
 4453 0370 54010000 		.4byte	.LVL105
 4454 0374 0100     		.2byte	0x1
 4455 0376 56       		.byte	0x56
 4456 0377 54010000 		.4byte	.LVL105
 4457 037b 88010000 		.4byte	.LFE14
 4458 037f 0400     		.2byte	0x4
 4459 0381 F3       		.byte	0xf3
 4460 0382 01       		.uleb128 0x1
 4461 0383 51       		.byte	0x51
 4462 0384 9F       		.byte	0x9f
 4463 0385 00000000 		.4byte	0
 4464 0389 00000000 		.4byte	0
 4465              	.LLST23:
 4466 038d 00000000 		.4byte	.LVL83
 4467 0391 1C000000 		.4byte	.LVL84
 4468 0395 0100     		.2byte	0x1
 4469 0397 52       		.byte	0x52
 4470 0398 1C000000 		.4byte	.LVL84
 4471 039c 88010000 		.4byte	.LFE14
 4472 03a0 0400     		.2byte	0x4
 4473 03a2 F3       		.byte	0xf3
 4474 03a3 01       		.uleb128 0x1
 4475 03a4 52       		.byte	0x52
 4476 03a5 9F       		.byte	0x9f
 4477 03a6 00000000 		.4byte	0
 4478 03aa 00000000 		.4byte	0
 4479              	.LLST24:
 4480 03ae 00000000 		.4byte	.LVL106
 4481 03b2 1D000000 		.4byte	.LVL107-1
 4482 03b6 0100     		.2byte	0x1
 4483 03b8 50       		.byte	0x50
 4484 03b9 1D000000 		.4byte	.LVL107-1
 4485 03bd 64000000 		.4byte	.LVL114
 4486 03c1 0400     		.2byte	0x4
 4487 03c3 F3       		.byte	0xf3
 4488 03c4 01       		.uleb128 0x1
 4489 03c5 50       		.byte	0x50
 4490 03c6 9F       		.byte	0x9f
 4491 03c7 64000000 		.4byte	.LVL114
 4492 03cb 6E000000 		.4byte	.LVL115
 4493 03cf 0100     		.2byte	0x1
 4494 03d1 50       		.byte	0x50
 4495 03d2 6E000000 		.4byte	.LVL115
 4496 03d6 7C000000 		.4byte	.LFE15
 4497 03da 0400     		.2byte	0x4
ARM GAS  C:\Users\LUKASC~1\AppData\Local\Temp\ccX4OJiL.s 			page 124


 4498 03dc F3       		.byte	0xf3
 4499 03dd 01       		.uleb128 0x1
 4500 03de 50       		.byte	0x50
 4501 03df 9F       		.byte	0x9f
 4502 03e0 00000000 		.4byte	0
 4503 03e4 00000000 		.4byte	0
 4504              	.LLST25:
 4505 03e8 00000000 		.4byte	.LVL106
 4506 03ec 1D000000 		.4byte	.LVL107-1
 4507 03f0 0100     		.2byte	0x1
 4508 03f2 51       		.byte	0x51
 4509 03f3 1D000000 		.4byte	.LVL107-1
 4510 03f7 64000000 		.4byte	.LVL114
 4511 03fb 0100     		.2byte	0x1
 4512 03fd 57       		.byte	0x57
 4513 03fe 64000000 		.4byte	.LVL114
 4514 0402 6E000000 		.4byte	.LVL115
 4515 0406 0100     		.2byte	0x1
 4516 0408 51       		.byte	0x51
 4517 0409 6E000000 		.4byte	.LVL115
 4518 040d 7C000000 		.4byte	.LFE15
 4519 0411 0400     		.2byte	0x4
 4520 0413 F3       		.byte	0xf3
 4521 0414 01       		.uleb128 0x1
 4522 0415 51       		.byte	0x51
 4523 0416 9F       		.byte	0x9f
 4524 0417 00000000 		.4byte	0
 4525 041b 00000000 		.4byte	0
 4526              	.LLST26:
 4527 041f 00000000 		.4byte	.LVL106
 4528 0423 1D000000 		.4byte	.LVL107-1
 4529 0427 0100     		.2byte	0x1
 4530 0429 52       		.byte	0x52
 4531 042a 1D000000 		.4byte	.LVL107-1
 4532 042e 64000000 		.4byte	.LVL114
 4533 0432 0400     		.2byte	0x4
 4534 0434 F3       		.byte	0xf3
 4535 0435 01       		.uleb128 0x1
 4536 0436 52       		.byte	0x52
 4537 0437 9F       		.byte	0x9f
 4538 0438 64000000 		.4byte	.LVL114
 4539 043c 6E000000 		.4byte	.LVL115
 4540 0440 0100     		.2byte	0x1
 4541 0442 52       		.byte	0x52
 4542 0443 6E000000 		.4byte	.LVL115
 4543 0447 74000000 		.4byte	.LVL116
 4544 044b 0100     		.2byte	0x1
 4545 044d 55       		.byte	0x55
 4546 044e 00000000 		.4byte	0
 4547 0452 00000000 		.4byte	0
 4548              	.LLST27:
 4549 0456 00000000 		.4byte	.LVL117
 4550 045a 1C000000 		.4byte	.LVL118
 4551 045e 0100     		.2byte	0x1
 4552 0460 50       		.byte	0x50
 4553 0461 1C000000 		.4byte	.LVL118
 4554 0465 2C000000 		.4byte	.LFE16
ARM GAS  C:\Users\LUKASC~1\AppData\Local\Temp\ccX4OJiL.s 			page 125


 4555 0469 0400     		.2byte	0x4
 4556 046b F3       		.byte	0xf3
 4557 046c 01       		.uleb128 0x1
 4558 046d 50       		.byte	0x50
 4559 046e 9F       		.byte	0x9f
 4560 046f 00000000 		.4byte	0
 4561 0473 00000000 		.4byte	0
 4562              	.LLST28:
 4563 0477 00000000 		.4byte	.LVL119
 4564 047b 0A000000 		.4byte	.LVL120
 4565 047f 0100     		.2byte	0x1
 4566 0481 50       		.byte	0x50
 4567 0482 0A000000 		.4byte	.LVL120
 4568 0486 18000000 		.4byte	.LFE17
 4569 048a 0400     		.2byte	0x4
 4570 048c F3       		.byte	0xf3
 4571 048d 01       		.uleb128 0x1
 4572 048e 50       		.byte	0x50
 4573 048f 9F       		.byte	0x9f
 4574 0490 00000000 		.4byte	0
 4575 0494 00000000 		.4byte	0
 4576              	.LLST29:
 4577 0498 00000000 		.4byte	.LVL122
 4578 049c 0A000000 		.4byte	.LVL123
 4579 04a0 0100     		.2byte	0x1
 4580 04a2 50       		.byte	0x50
 4581 04a3 0A000000 		.4byte	.LVL123
 4582 04a7 16000000 		.4byte	.LVL125
 4583 04ab 0400     		.2byte	0x4
 4584 04ad F3       		.byte	0xf3
 4585 04ae 01       		.uleb128 0x1
 4586 04af 50       		.byte	0x50
 4587 04b0 9F       		.byte	0x9f
 4588 04b1 16000000 		.4byte	.LVL125
 4589 04b5 18000000 		.4byte	.LVL126
 4590 04b9 0100     		.2byte	0x1
 4591 04bb 50       		.byte	0x50
 4592 04bc 18000000 		.4byte	.LVL126
 4593 04c0 20000000 		.4byte	.LFE19
 4594 04c4 0400     		.2byte	0x4
 4595 04c6 F3       		.byte	0xf3
 4596 04c7 01       		.uleb128 0x1
 4597 04c8 50       		.byte	0x50
 4598 04c9 9F       		.byte	0x9f
 4599 04ca 00000000 		.4byte	0
 4600 04ce 00000000 		.4byte	0
 4601              	.LLST30:
 4602 04d2 00000000 		.4byte	.LVL122
 4603 04d6 14000000 		.4byte	.LVL124
 4604 04da 0200     		.2byte	0x2
 4605 04dc 30       		.byte	0x30
 4606 04dd 9F       		.byte	0x9f
 4607 04de 14000000 		.4byte	.LVL124
 4608 04e2 16000000 		.4byte	.LVL125
 4609 04e6 0100     		.2byte	0x1
 4610 04e8 50       		.byte	0x50
 4611 04e9 16000000 		.4byte	.LVL125
ARM GAS  C:\Users\LUKASC~1\AppData\Local\Temp\ccX4OJiL.s 			page 126


 4612 04ed 18000000 		.4byte	.LVL126
 4613 04f1 0200     		.2byte	0x2
 4614 04f3 30       		.byte	0x30
 4615 04f4 9F       		.byte	0x9f
 4616 04f5 18000000 		.4byte	.LVL126
 4617 04f9 20000000 		.4byte	.LFE19
 4618 04fd 0100     		.2byte	0x1
 4619 04ff 50       		.byte	0x50
 4620 0500 00000000 		.4byte	0
 4621 0504 00000000 		.4byte	0
 4622              	.LLST31:
 4623 0508 00000000 		.4byte	.LVL128
 4624 050c 10000000 		.4byte	.LVL129
 4625 0510 0200     		.2byte	0x2
 4626 0512 30       		.byte	0x30
 4627 0513 9F       		.byte	0x9f
 4628 0514 10000000 		.4byte	.LVL129
 4629 0518 18000000 		.4byte	.LFE21
 4630 051c 0100     		.2byte	0x1
 4631 051e 50       		.byte	0x50
 4632 051f 00000000 		.4byte	0
 4633 0523 00000000 		.4byte	0
 4634              		.section	.debug_aranges,"",%progbits
 4635 0000 DC000000 		.4byte	0xdc
 4636 0004 0200     		.2byte	0x2
 4637 0006 00000000 		.4byte	.Ldebug_info0
 4638 000a 04       		.byte	0x4
 4639 000b 00       		.byte	0
 4640 000c 0000     		.2byte	0
 4641 000e 0000     		.2byte	0
 4642 0010 00000000 		.4byte	.LFB1
 4643 0014 34010000 		.4byte	.LFE1-.LFB1
 4644 0018 00000000 		.4byte	.LFB2
 4645 001c D8000000 		.4byte	.LFE2-.LFB2
 4646 0020 00000000 		.4byte	.LFB0
 4647 0024 24000000 		.4byte	.LFE0-.LFB0
 4648 0028 00000000 		.4byte	.LFB3
 4649 002c 4C000000 		.4byte	.LFE3-.LFB3
 4650 0030 00000000 		.4byte	.LFB5
 4651 0034 20000000 		.4byte	.LFE5-.LFB5
 4652 0038 00000000 		.4byte	.LFB6
 4653 003c 0C000000 		.4byte	.LFE6-.LFB6
 4654 0040 00000000 		.4byte	.LFB7
 4655 0044 20000000 		.4byte	.LFE7-.LFB7
 4656 0048 00000000 		.4byte	.LFB8
 4657 004c 0C000000 		.4byte	.LFE8-.LFB8
 4658 0050 00000000 		.4byte	.LFB9
 4659 0054 14000000 		.4byte	.LFE9-.LFB9
 4660 0058 00000000 		.4byte	.LFB10
 4661 005c 28000000 		.4byte	.LFE10-.LFB10
 4662 0060 00000000 		.4byte	.LFB11
 4663 0064 60000000 		.4byte	.LFE11-.LFB11
 4664 0068 00000000 		.4byte	.LFB12
 4665 006c 58000000 		.4byte	.LFE12-.LFB12
 4666 0070 00000000 		.4byte	.LFB4
 4667 0074 8C000000 		.4byte	.LFE4-.LFB4
 4668 0078 00000000 		.4byte	.LFB13
ARM GAS  C:\Users\LUKASC~1\AppData\Local\Temp\ccX4OJiL.s 			page 127


 4669 007c 90000000 		.4byte	.LFE13-.LFB13
 4670 0080 00000000 		.4byte	.LFB14
 4671 0084 88010000 		.4byte	.LFE14-.LFB14
 4672 0088 00000000 		.4byte	.LFB15
 4673 008c 7C000000 		.4byte	.LFE15-.LFB15
 4674 0090 00000000 		.4byte	.LFB16
 4675 0094 2C000000 		.4byte	.LFE16-.LFB16
 4676 0098 00000000 		.4byte	.LFB17
 4677 009c 18000000 		.4byte	.LFE17-.LFB17
 4678 00a0 00000000 		.4byte	.LFB18
 4679 00a4 0C000000 		.4byte	.LFE18-.LFB18
 4680 00a8 00000000 		.4byte	.LFB19
 4681 00ac 20000000 		.4byte	.LFE19-.LFB19
 4682 00b0 00000000 		.4byte	.LFB20
 4683 00b4 20000000 		.4byte	.LFE20-.LFB20
 4684 00b8 00000000 		.4byte	.LFB21
 4685 00bc 18000000 		.4byte	.LFE21-.LFB21
 4686 00c0 00000000 		.4byte	.LFB22
 4687 00c4 10000000 		.4byte	.LFE22-.LFB22
 4688 00c8 00000000 		.4byte	.LFB23
 4689 00cc 02000000 		.4byte	.LFE23-.LFB23
 4690 00d0 00000000 		.4byte	.LFB24
 4691 00d4 02000000 		.4byte	.LFE24-.LFB24
 4692 00d8 00000000 		.4byte	0
 4693 00dc 00000000 		.4byte	0
 4694              		.section	.debug_ranges,"",%progbits
 4695              	.Ldebug_ranges0:
 4696 0000 00000000 		.4byte	.LFB1
 4697 0004 34010000 		.4byte	.LFE1
 4698 0008 00000000 		.4byte	.LFB2
 4699 000c D8000000 		.4byte	.LFE2
 4700 0010 00000000 		.4byte	.LFB0
 4701 0014 24000000 		.4byte	.LFE0
 4702 0018 00000000 		.4byte	.LFB3
 4703 001c 4C000000 		.4byte	.LFE3
 4704 0020 00000000 		.4byte	.LFB5
 4705 0024 20000000 		.4byte	.LFE5
 4706 0028 00000000 		.4byte	.LFB6
 4707 002c 0C000000 		.4byte	.LFE6
 4708 0030 00000000 		.4byte	.LFB7
 4709 0034 20000000 		.4byte	.LFE7
 4710 0038 00000000 		.4byte	.LFB8
 4711 003c 0C000000 		.4byte	.LFE8
 4712 0040 00000000 		.4byte	.LFB9
 4713 0044 14000000 		.4byte	.LFE9
 4714 0048 00000000 		.4byte	.LFB10
 4715 004c 28000000 		.4byte	.LFE10
 4716 0050 00000000 		.4byte	.LFB11
 4717 0054 60000000 		.4byte	.LFE11
 4718 0058 00000000 		.4byte	.LFB12
 4719 005c 58000000 		.4byte	.LFE12
 4720 0060 00000000 		.4byte	.LFB4
 4721 0064 8C000000 		.4byte	.LFE4
 4722 0068 00000000 		.4byte	.LFB13
 4723 006c 90000000 		.4byte	.LFE13
 4724 0070 00000000 		.4byte	.LFB14
 4725 0074 88010000 		.4byte	.LFE14
ARM GAS  C:\Users\LUKASC~1\AppData\Local\Temp\ccX4OJiL.s 			page 128


 4726 0078 00000000 		.4byte	.LFB15
 4727 007c 7C000000 		.4byte	.LFE15
 4728 0080 00000000 		.4byte	.LFB16
 4729 0084 2C000000 		.4byte	.LFE16
 4730 0088 00000000 		.4byte	.LFB17
 4731 008c 18000000 		.4byte	.LFE17
 4732 0090 00000000 		.4byte	.LFB18
 4733 0094 0C000000 		.4byte	.LFE18
 4734 0098 00000000 		.4byte	.LFB19
 4735 009c 20000000 		.4byte	.LFE19
 4736 00a0 00000000 		.4byte	.LFB20
 4737 00a4 20000000 		.4byte	.LFE20
 4738 00a8 00000000 		.4byte	.LFB21
 4739 00ac 18000000 		.4byte	.LFE21
 4740 00b0 00000000 		.4byte	.LFB22
 4741 00b4 10000000 		.4byte	.LFE22
 4742 00b8 00000000 		.4byte	.LFB23
 4743 00bc 02000000 		.4byte	.LFE23
 4744 00c0 00000000 		.4byte	.LFB24
 4745 00c4 02000000 		.4byte	.LFE24
 4746 00c8 00000000 		.4byte	0
 4747 00cc 00000000 		.4byte	0
 4748              		.section	.debug_line,"",%progbits
 4749              	.Ldebug_line0:
 4750 0000 C3030000 		.section	.debug_str,"MS",%progbits,1
 4750      0200FF00 
 4750      00000201 
 4750      FB0E0D00 
 4750      01010101 
 4751              	.LASF43:
 4752 0000 72774472 		.ascii	"rwDr\000"
 4752      00
 4753              	.LASF115:
 4754 0005 4379496E 		.ascii	"CyIntSetPriority\000"
 4754      74536574 
 4754      5072696F 
 4754      72697479 
 4754      00
 4755              	.LASF28:
 4756 0016 62756666 		.ascii	"bufferSize\000"
 4756      65725369 
 4756      7A6500
 4757              	.LASF58:
 4758 0021 55534246 		.ascii	"USBFS_1_InitComponent\000"
 4758      535F315F 
 4758      496E6974 
 4758      436F6D70 
 4758      6F6E656E 
 4759              	.LASF70:
 4760 0037 636E7472 		.ascii	"cntr\000"
 4760      00
 4761              	.LASF45:
 4762 003c 73696545 		.ascii	"sieEp\000"
 4762      7000
 4763              	.LASF71:
 4764 0042 55534246 		.ascii	"USBFS_1_InitEP_DMA\000"
 4764      535F315F 
ARM GAS  C:\Users\LUKASC~1\AppData\Local\Temp\ccX4OJiL.s 			page 129


 4764      496E6974 
 4764      45505F44 
 4764      4D4100
 4765              	.LASF63:
 4766 0055 55534246 		.ascii	"USBFS_1_CheckActivity\000"
 4766      535F315F 
 4766      43686563 
 4766      6B416374 
 4766      69766974 
 4767              	.LASF51:
 4768 006b 62617369 		.ascii	"basic_status\000"
 4768      635F7374 
 4768      61747573 
 4768      00
 4769              	.LASF29:
 4770 0078 696E7465 		.ascii	"interface\000"
 4770      72666163 
 4770      6500
 4771              	.LASF8:
 4772 0082 756E7369 		.ascii	"unsigned int\000"
 4772      676E6564 
 4772      20696E74 
 4772      00
 4773              	.LASF66:
 4774 008f 696E7465 		.ascii	"interfaceNumber\000"
 4774      72666163 
 4774      654E756D 
 4774      62657200 
 4775              	.LASF34:
 4776 009f 55534246 		.ascii	"USBFS_1_sie_ep_struct\000"
 4776      535F315F 
 4776      7369655F 
 4776      65705F73 
 4776      74727563 
 4777              	.LASF126:
 4778 00b5 4379446D 		.ascii	"CyDmaTdSetConfiguration\000"
 4778      61546453 
 4778      6574436F 
 4778      6E666967 
 4778      75726174 
 4779              	.LASF73:
 4780 00cd 55534246 		.ascii	"USBFS_1_Stop_DMA\000"
 4780      535F315F 
 4780      53746F70 
 4780      5F444D41 
 4780      00
 4781              	.LASF16:
 4782 00de 72656738 		.ascii	"reg8\000"
 4782      00
 4783              	.LASF85:
 4784 00e3 55534246 		.ascii	"USBFS_1_SetPowerStatus\000"
 4784      535F315F 
 4784      53657450 
 4784      6F776572 
 4784      53746174 
 4785              	.LASF60:
 4786 00fa 6D6F6465 		.ascii	"mode\000"
ARM GAS  C:\Users\LUKASC~1\AppData\Local\Temp\ccX4OJiL.s 			page 130


 4786      00
 4787              	.LASF106:
 4788 00ff 55534246 		.ascii	"USBFS_1_DmaTd\000"
 4788      535F315F 
 4788      446D6154 
 4788      6400
 4789              	.LASF87:
 4790 010d 55534246 		.ascii	"USBFS_1_RWUEnabled\000"
 4790      535F315F 
 4790      52575545 
 4790      6E61626C 
 4790      656400
 4791              	.LASF59:
 4792 0120 64657669 		.ascii	"device\000"
 4792      636500
 4793              	.LASF124:
 4794 0127 4379446D 		.ascii	"CyDmaChDisable\000"
 4794      61436844 
 4794      69736162 
 4794      6C6500
 4795              	.LASF24:
 4796 0136 6570546F 		.ascii	"epToggle\000"
 4796      67676C65 
 4796      00
 4797              	.LASF80:
 4798 013f 55534246 		.ascii	"USBFS_1_EnableOutEP\000"
 4798      535F315F 
 4798      456E6162 
 4798      6C654F75 
 4798      74455000 
 4799              	.LASF12:
 4800 0153 666C6F61 		.ascii	"float\000"
 4800      7400
 4801              	.LASF46:
 4802 0159 55534246 		.ascii	"USBFS_1_sie_eps_struct\000"
 4802      535F315F 
 4802      7369655F 
 4802      6570735F 
 4802      73747275 
 4803              	.LASF62:
 4804 0170 63723152 		.ascii	"cr1Reg\000"
 4804      656700
 4805              	.LASF101:
 4806 0177 55534246 		.ascii	"USBFS_1_interfaceNumber\000"
 4806      535F315F 
 4806      696E7465 
 4806      72666163 
 4806      654E756D 
 4807              	.LASF39:
 4808 018f 72775761 		.ascii	"rwWa\000"
 4808      00
 4809              	.LASF113:
 4810 0194 43794465 		.ascii	"CyDelayUs\000"
 4810      6C617955 
 4810      7300
 4811              	.LASF88:
 4812 019e 72657375 		.ascii	"result\000"
ARM GAS  C:\Users\LUKASC~1\AppData\Local\Temp\ccX4OJiL.s 			page 131


 4812      6C7400
 4813              	.LASF7:
 4814 01a5 6C6F6E67 		.ascii	"long long unsigned int\000"
 4814      206C6F6E 
 4814      6720756E 
 4814      7369676E 
 4814      65642069 
 4815              	.LASF30:
 4816 01bc 545F5553 		.ascii	"T_USBFS_1_EP_CTL_BLOCK\000"
 4816      4246535F 
 4816      315F4550 
 4816      5F43544C 
 4816      5F424C4F 
 4817              	.LASF79:
 4818 01d3 55534246 		.ascii	"USBFS_1_ReadOutEP\000"
 4818      535F315F 
 4818      52656164 
 4818      4F757445 
 4818      5000
 4819              	.LASF76:
 4820 01e5 636F6E76 		.ascii	"convert\000"
 4820      65727400 
 4821              	.LASF64:
 4822 01ed 55534246 		.ascii	"USBFS_1_IsConfigurationChanged\000"
 4822      535F315F 
 4822      4973436F 
 4822      6E666967 
 4822      75726174 
 4823              	.LASF81:
 4824 020c 55534246 		.ascii	"USBFS_1_DisableOutEP\000"
 4824      535F315F 
 4824      44697361 
 4824      626C654F 
 4824      75744550 
 4825              	.LASF36:
 4826 0221 6570496E 		.ascii	"epIntEn\000"
 4826      74456E00 
 4827              	.LASF72:
 4828 0229 70446174 		.ascii	"pData\000"
 4828      6100
 4829              	.LASF75:
 4830 022f 55534246 		.ascii	"USBFS_1_LoadNextInEP\000"
 4830      535F315F 
 4830      4C6F6164 
 4830      4E657874 
 4830      496E4550 
 4831              	.LASF82:
 4832 0244 55534246 		.ascii	"USBFS_1_Force\000"
 4832      535F315F 
 4832      466F7263 
 4832      6500
 4833              	.LASF123:
 4834 0252 4379446D 		.ascii	"CyDmaTdAllocate\000"
 4834      61546441 
 4834      6C6C6F63 
 4834      61746500 
 4835              	.LASF96:
ARM GAS  C:\Users\LUKASC~1\AppData\Local\Temp\ccX4OJiL.s 			page 132


 4836 0262 55534246 		.ascii	"USBFS_1_device\000"
 4836      535F315F 
 4836      64657669 
 4836      636500
 4837              	.LASF92:
 4838 0271 55534246 		.ascii	"USBFS_1_EnableSofInt\000"
 4838      535F315F 
 4838      456E6162 
 4838      6C65536F 
 4838      66496E74 
 4839              	.LASF74:
 4840 0286 55534246 		.ascii	"USBFS_1_Stop\000"
 4840      535F315F 
 4840      53746F70 
 4840      00
 4841              	.LASF14:
 4842 0293 63686172 		.ascii	"char\000"
 4842      00
 4843              	.LASF114:
 4844 0298 43794578 		.ascii	"CyExitCriticalSection\000"
 4844      69744372 
 4844      69746963 
 4844      616C5365 
 4844      6374696F 
 4845              	.LASF119:
 4846 02ae 43794465 		.ascii	"CyDelayCycles\000"
 4846      6C617943 
 4846      79636C65 
 4846      7300
 4847              	.LASF95:
 4848 02bc 55534246 		.ascii	"USBFS_1_initVar\000"
 4848      535F315F 
 4848      696E6974 
 4848      56617200 
 4849              	.LASF125:
 4850 02cc 4379446D 		.ascii	"CyDmaTdFree\000"
 4850      61546446 
 4850      72656500 
 4851              	.LASF100:
 4852 02d8 55534246 		.ascii	"USBFS_1_deviceStatus\000"
 4852      535F315F 
 4852      64657669 
 4852      63655374 
 4852      61747573 
 4853              	.LASF47:
 4854 02ed 61726245 		.ascii	"arbEp\000"
 4854      7000
 4855              	.LASF55:
 4856 02f3 646D6163 		.ascii	"dmac_tdmem\000"
 4856      5F74646D 
 4856      656D00
 4857              	.LASF10:
 4858 02fe 75696E74 		.ascii	"uint16\000"
 4858      313600
 4859              	.LASF84:
 4860 0305 55534246 		.ascii	"USBFS_1_GetEPAckState\000"
 4860      535F315F 
ARM GAS  C:\Users\LUKASC~1\AppData\Local\Temp\ccX4OJiL.s 			page 133


 4860      47657445 
 4860      5041636B 
 4860      53746174 
 4861              	.LASF120:
 4862 031b 4379496E 		.ascii	"CyIntSetVector\000"
 4862      74536574 
 4862      56656374 
 4862      6F7200
 4863              	.LASF49:
 4864 032a 62617369 		.ascii	"basic_cfg\000"
 4864      635F6366 
 4864      6700
 4865              	.LASF27:
 4866 0334 62756666 		.ascii	"buffOffset\000"
 4866      4F666673 
 4866      657400
 4867              	.LASF33:
 4868 033f 65704372 		.ascii	"epCr0\000"
 4868      3000
 4869              	.LASF111:
 4870 0345 55534246 		.ascii	"USBFS_1_inDataPointer\000"
 4870      535F315F 
 4870      696E4461 
 4870      7461506F 
 4870      696E7465 
 4871              	.LASF102:
 4872 035b 55534246 		.ascii	"USBFS_1_interfaceSetting\000"
 4872      535F315F 
 4872      696E7465 
 4872      72666163 
 4872      65536574 
 4873              	.LASF6:
 4874 0374 6C6F6E67 		.ascii	"long long int\000"
 4874      206C6F6E 
 4874      6720696E 
 4874      7400
 4875              	.LASF94:
 4876 0382 636C6561 		.ascii	"clearInDataRdyStatus\000"
 4876      72496E44 
 4876      61746152 
 4876      64795374 
 4876      61747573 
 4877              	.LASF17:
 4878 0397 72656731 		.ascii	"reg16\000"
 4878      3600
 4879              	.LASF31:
 4880 039d 6570436E 		.ascii	"epCnt0\000"
 4880      743000
 4881              	.LASF32:
 4882 03a4 6570436E 		.ascii	"epCnt1\000"
 4882      743100
 4883              	.LASF121:
 4884 03ab 55534246 		.ascii	"USBFS_1_ep2_DmaInitialize\000"
 4884      535F315F 
 4884      6570325F 
 4884      446D6149 
 4884      6E697469 
ARM GAS  C:\Users\LUKASC~1\AppData\Local\Temp\ccX4OJiL.s 			page 134


 4885              	.LASF68:
 4886 03c5 65704E75 		.ascii	"epNumber\000"
 4886      6D626572 
 4886      00
 4887              	.LASF108:
 4888 03ce 55534246 		.ascii	"USBFS_1_inLength\000"
 4888      535F315F 
 4888      696E4C65 
 4888      6E677468 
 4888      00
 4889              	.LASF19:
 4890 03df 63796973 		.ascii	"cyisraddress\000"
 4890      72616464 
 4890      72657373 
 4890      00
 4891              	.LASF132:
 4892 03ec 2E5C4765 		.ascii	".\\Generated_Source\\PSoC5\\USBFS_1.c\000"
 4892      6E657261 
 4892      7465645F 
 4892      536F7572 
 4892      63655C50 
 4893              	.LASF23:
 4894 040f 68774570 		.ascii	"hwEpState\000"
 4894      53746174 
 4894      6500
 4895              	.LASF11:
 4896 0419 75696E74 		.ascii	"uint32\000"
 4896      333200
 4897              	.LASF67:
 4898 0420 55534246 		.ascii	"USBFS_1_GetEPState\000"
 4898      535F315F 
 4898      47657445 
 4898      50537461 
 4898      746500
 4899              	.LASF103:
 4900 0433 55534246 		.ascii	"USBFS_1_deviceAddress\000"
 4900      535F315F 
 4900      64657669 
 4900      63654164 
 4900      64726573 
 4901              	.LASF18:
 4902 0449 72656733 		.ascii	"reg32\000"
 4902      3200
 4903              	.LASF90:
 4904 044f 55534246 		.ascii	"USBFS_1_GetDeviceAddress\000"
 4904      535F315F 
 4904      47657444 
 4904      65766963 
 4904      65416464 
 4905              	.LASF86:
 4906 0468 706F7765 		.ascii	"powerStatus\000"
 4906      72537461 
 4906      74757300 
 4907              	.LASF93:
 4908 0474 55534246 		.ascii	"USBFS_1_DisableSofInt\000"
 4908      535F315F 
 4908      44697361 
ARM GAS  C:\Users\LUKASC~1\AppData\Local\Temp\ccX4OJiL.s 			page 135


 4908      626C6553 
 4908      6F66496E 
 4909              	.LASF127:
 4910 048a 4379446D 		.ascii	"CyDmaTdSetAddress\000"
 4910      61546453 
 4910      65744164 
 4910      64726573 
 4910      7300
 4911              	.LASF2:
 4912 049c 73686F72 		.ascii	"short int\000"
 4912      7420696E 
 4912      7400
 4913              	.LASF128:
 4914 04a6 4379446D 		.ascii	"CyDmaClearPendingDrq\000"
 4914      61436C65 
 4914      61725065 
 4914      6E64696E 
 4914      67447271 
 4915              	.LASF26:
 4916 04bb 65704D6F 		.ascii	"epMode\000"
 4916      646500
 4917              	.LASF4:
 4918 04c2 6C6F6E67 		.ascii	"long int\000"
 4918      20696E74 
 4918      00
 4919              	.LASF118:
 4920 04cb 55534246 		.ascii	"USBFS_1_EP8_DMA_Done_SR_InterruptEnable\000"
 4920      535F315F 
 4920      4550385F 
 4920      444D415F 
 4920      446F6E65 
 4921              	.LASF78:
 4922 04f3 6C656E67 		.ascii	"length\000"
 4922      746800
 4923              	.LASF112:
 4924 04fa 55534246 		.ascii	"USBFS_1_lastPacketSize\000"
 4924      535F315F 
 4924      6C617374 
 4924      5061636B 
 4924      65745369 
 4925              	.LASF130:
 4926 0511 4379446D 		.ascii	"CyDmaChEnable\000"
 4926      61436845 
 4926      6E61626C 
 4926      6500
 4927              	.LASF42:
 4928 051f 72775261 		.ascii	"rwRaMsb\000"
 4928      4D736200 
 4929              	.LASF50:
 4930 0527 61637469 		.ascii	"action\000"
 4930      6F6E00
 4931              	.LASF35:
 4932 052e 65704366 		.ascii	"epCfg\000"
 4932      6700
 4933              	.LASF117:
 4934 0534 55534246 		.ascii	"USBFS_1_EP17_DMA_Done_SR_InterruptEnable\000"
 4934      535F315F 
ARM GAS  C:\Users\LUKASC~1\AppData\Local\Temp\ccX4OJiL.s 			page 136


 4934      45503137 
 4934      5F444D41 
 4934      5F446F6E 
 4935              	.LASF91:
 4936 055d 55534246 		.ascii	"USBFS_1_ReInitComponent\000"
 4936      535F315F 
 4936      5265496E 
 4936      6974436F 
 4936      6D706F6E 
 4937              	.LASF98:
 4938 0575 55534246 		.ascii	"USBFS_1_configuration\000"
 4938      535F315F 
 4938      636F6E66 
 4938      69677572 
 4938      6174696F 
 4939              	.LASF110:
 4940 058b 55534246 		.ascii	"USBFS_1_epX_TD_TERMOUT_EN\000"
 4940      535F315F 
 4940      6570585F 
 4940      54445F54 
 4940      45524D4F 
 4941              	.LASF20:
 4942 05a5 73697A65 		.ascii	"sizetype\000"
 4942      74797065 
 4942      00
 4943              	.LASF5:
 4944 05ae 6C6F6E67 		.ascii	"long unsigned int\000"
 4944      20756E73 
 4944      69676E65 
 4944      6420696E 
 4944      7400
 4945              	.LASF89:
 4946 05c0 55534246 		.ascii	"USBFS_1_GetConfiguration\000"
 4946      535F315F 
 4946      47657443 
 4946      6F6E6669 
 4946      67757261 
 4947              	.LASF133:
 4948 05d9 433A5C55 		.ascii	"C:\\Users\\Lukas Creutzburg\\Documents\\GitHub\\PSo"
 4948      73657273 
 4948      5C4C756B 
 4948      61732043 
 4948      72657574 
 4949 0607 43354C50 		.ascii	"C5LP-freeDSP-USB-Port\\PSoC_freeDSP_USB_Port\\Desig"
 4949      2D667265 
 4949      65445350 
 4949      2D555342 
 4949      2D506F72 
 4950 0638 6E30312E 		.ascii	"n01.cydsn\000"
 4950      63796473 
 4950      6E00
 4951              	.LASF37:
 4952 0642 65705372 		.ascii	"epSr\000"
 4952      00
 4953              	.LASF15:
 4954 0647 63797374 		.ascii	"cystatus\000"
 4954      61747573 
ARM GAS  C:\Users\LUKASC~1\AppData\Local\Temp\ccX4OJiL.s 			page 137


 4954      00
 4955              	.LASF40:
 4956 0650 72775761 		.ascii	"rwWaMsb\000"
 4956      4D736200 
 4957              	.LASF1:
 4958 0658 756E7369 		.ascii	"unsigned char\000"
 4958      676E6564 
 4958      20636861 
 4958      7200
 4959              	.LASF65:
 4960 0666 55534246 		.ascii	"USBFS_1_GetInterfaceSetting\000"
 4960      535F315F 
 4960      47657449 
 4960      6E746572 
 4960      66616365 
 4961              	.LASF131:
 4962 0682 474E5520 		.ascii	"GNU C 4.9.3 20150303 (release) [ARM/embedded-4_9-br"
 4962      4320342E 
 4962      392E3320 
 4962      32303135 
 4962      30333033 
 4963 06b5 616E6368 		.ascii	"anch revision 221220] -mcpu=cortex-m3 -mthumb -g -O"
 4963      20726576 
 4963      6973696F 
 4963      6E203232 
 4963      31323230 
 4964 06e8 67202D66 		.ascii	"g -ffunction-sections -ffat-lto-objects\000"
 4964      66756E63 
 4964      74696F6E 
 4964      2D736563 
 4964      74696F6E 
 4965              	.LASF69:
 4966 0710 55534246 		.ascii	"USBFS_1_GetEPCount\000"
 4966      535F315F 
 4966      47657445 
 4966      50436F75 
 4966      6E7400
 4967              	.LASF57:
 4968 0723 55534246 		.ascii	"USBFS_1_Init\000"
 4968      535F315F 
 4968      496E6974 
 4968      00
 4969              	.LASF52:
 4970 0730 646D6163 		.ascii	"dmac_ch\000"
 4970      5F636800 
 4971              	.LASF25:
 4972 0738 61646472 		.ascii	"addr\000"
 4972      00
 4973              	.LASF105:
 4974 073d 55534246 		.ascii	"USBFS_1_DmaChan\000"
 4974      535F315F 
 4974      446D6143 
 4974      68616E00 
 4975              	.LASF44:
 4976 074d 55534246 		.ascii	"USBFS_1_arb_ep_struct\000"
 4976      535F315F 
 4976      6172625F 
ARM GAS  C:\Users\LUKASC~1\AppData\Local\Temp\ccX4OJiL.s 			page 138


 4976      65705F73 
 4976      74727563 
 4977              	.LASF107:
 4978 0763 55534246 		.ascii	"USBFS_1_DmaNextTd\000"
 4978      535F315F 
 4978      446D614E 
 4978      65787454 
 4978      6400
 4979              	.LASF122:
 4980 0775 4379456E 		.ascii	"CyEnterCriticalSection\000"
 4980      74657243 
 4980      72697469 
 4980      63616C53 
 4980      65637469 
 4981              	.LASF41:
 4982 078c 72775261 		.ascii	"rwRa\000"
 4982      00
 4983              	.LASF0:
 4984 0791 7369676E 		.ascii	"signed char\000"
 4984      65642063 
 4984      68617200 
 4985              	.LASF53:
 4986 079d 646D6163 		.ascii	"dmac_ch_struct\000"
 4986      5F63685F 
 4986      73747275 
 4986      637400
 4987              	.LASF129:
 4988 07ac 4379446D 		.ascii	"CyDmaChSetInitialTd\000"
 4988      61436853 
 4988      6574496E 
 4988      69746961 
 4988      6C546400 
 4989              	.LASF3:
 4990 07c0 73686F72 		.ascii	"short unsigned int\000"
 4990      7420756E 
 4990      7369676E 
 4990      65642069 
 4990      6E7400
 4991              	.LASF97:
 4992 07d3 55534246 		.ascii	"USBFS_1_transferState\000"
 4992      535F315F 
 4992      7472616E 
 4992      73666572 
 4992      53746174 
 4993              	.LASF48:
 4994 07e9 55534246 		.ascii	"USBFS_1_arb_eps_struct\000"
 4994      535F315F 
 4994      6172625F 
 4994      6570735F 
 4994      73747275 
 4995              	.LASF109:
 4996 0800 55534246 		.ascii	"USBFS_1_inBufFull\000"
 4996      535F315F 
 4996      696E4275 
 4996      6646756C 
 4996      6C00
 4997              	.LASF38:
ARM GAS  C:\Users\LUKASC~1\AppData\Local\Temp\ccX4OJiL.s 			page 139


 4998 0812 72657365 		.ascii	"reserved\000"
 4998      72766564 
 4998      00
 4999              	.LASF9:
 5000 081b 75696E74 		.ascii	"uint8\000"
 5000      3800
 5001              	.LASF13:
 5002 0821 646F7562 		.ascii	"double\000"
 5002      6C6500
 5003              	.LASF54:
 5004 0828 646D6163 		.ascii	"dmac_tdmem_struct\000"
 5004      5F74646D 
 5004      656D5F73 
 5004      74727563 
 5004      7400
 5005              	.LASF61:
 5006 083a 55534246 		.ascii	"USBFS_1_Start\000"
 5006      535F315F 
 5006      53746172 
 5006      7400
 5007              	.LASF21:
 5008 0848 61747472 		.ascii	"attrib\000"
 5008      696200
 5009              	.LASF22:
 5010 084f 61706945 		.ascii	"apiEpState\000"
 5010      70537461 
 5010      746500
 5011              	.LASF104:
 5012 085a 55534246 		.ascii	"USBFS_1_EP\000"
 5012      535F315F 
 5012      455000
 5013              	.LASF83:
 5014 0865 62537461 		.ascii	"bState\000"
 5014      746500
 5015              	.LASF77:
 5016 086c 55534246 		.ascii	"USBFS_1_LoadInEP\000"
 5016      535F315F 
 5016      4C6F6164 
 5016      496E4550 
 5016      00
 5017              	.LASF116:
 5018 087d 55534246 		.ascii	"USBFS_1_EP_DMA_Done_isr_StartEx\000"
 5018      535F315F 
 5018      45505F44 
 5018      4D415F44 
 5018      6F6E655F 
 5019              	.LASF99:
 5020 089d 55534246 		.ascii	"USBFS_1_configurationChanged\000"
 5020      535F315F 
 5020      636F6E66 
 5020      69677572 
 5020      6174696F 
 5021              	.LASF56:
 5022 08ba 656E6162 		.ascii	"enableInterrupts\000"
 5022      6C65496E 
 5022      74657272 
 5022      75707473 
ARM GAS  C:\Users\LUKASC~1\AppData\Local\Temp\ccX4OJiL.s 			page 140


 5022      00
 5023              		.ident	"GCC: (GNU Tools for ARM Embedded Processors) 4.9.3 20150303 (release) [ARM/embedded-4_9-br
